
qpc_tetris.elf:     file format elf32-littlearm

Sections:
Idx Name          Size      VMA       LMA       File off  Algn
  0 .isr_vector   000000c0  08000000  08000000  00001000  2**0
                  CONTENTS, ALLOC, LOAD, READONLY, DATA
  1 .text         00006158  080000c0  080000c0  000010c0  2**2
                  CONTENTS, ALLOC, LOAD, READONLY, CODE
  2 .rodata       0000162c  08006218  08006218  00007218  2**2
                  CONTENTS, ALLOC, LOAD, READONLY, DATA
  3 .ARM.extab    00000000  08007844  08007844  00009068  2**0
                  CONTENTS, READONLY
  4 .ARM          00000000  08007844  08007844  00009068  2**0
                  CONTENTS, READONLY
  5 .preinit_array 00000000  08007844  08007844  00009068  2**0
                  CONTENTS, ALLOC, LOAD, DATA
  6 .init_array   00000004  08007844  08007844  00008844  2**2
                  CONTENTS, ALLOC, LOAD, READONLY, DATA
  7 .fini_array   00000004  08007848  08007848  00008848  2**2
                  CONTENTS, ALLOC, LOAD, READONLY, DATA
  8 .data         00000068  20000000  0800784c  00009000  2**2
                  CONTENTS, ALLOC, LOAD, DATA
  9 .bss          000008b0  20000068  080078b4  00009068  2**2
                  ALLOC
 10 ._user_heap_stack 00000600  20000918  080078b4  00009918  2**0
                  ALLOC
 11 .ARM.attributes 00000028  00000000  00000000  00009068  2**0
                  CONTENTS, READONLY
 12 .debug_info   000259d3  00000000  00000000  00009090  2**0
                  CONTENTS, READONLY, DEBUGGING, OCTETS
 13 .debug_abbrev 00007382  00000000  00000000  0002ea63  2**0
                  CONTENTS, READONLY, DEBUGGING, OCTETS
 14 .debug_loclists 0000ce3b  00000000  00000000  00035de5  2**0
                  CONTENTS, READONLY, DEBUGGING, OCTETS
 15 .debug_aranges 00001438  00000000  00000000  00042c20  2**3
                  CONTENTS, READONLY, DEBUGGING, OCTETS
 16 .debug_rnglists 000017ae  00000000  00000000  00044058  2**0
                  CONTENTS, READONLY, DEBUGGING, OCTETS
 17 .debug_macro  0001c712  00000000  00000000  00045806  2**0
                  CONTENTS, READONLY, DEBUGGING, OCTETS
 18 .debug_line   000272f9  00000000  00000000  00061f18  2**0
                  CONTENTS, READONLY, DEBUGGING, OCTETS
 19 .debug_str    000946d5  00000000  00000000  00089211  2**0
                  CONTENTS, READONLY, DEBUGGING, OCTETS
 20 .comment      00000043  00000000  00000000  0011d8e6  2**0
                  CONTENTS, READONLY
 21 .debug_frame  00003dc8  00000000  00000000  0011d92c  2**2
                  CONTENTS, READONLY, DEBUGGING, OCTETS
 22 .debug_line_str 00000062  00000000  00000000  001216f4  2**0
                  CONTENTS, READONLY, DEBUGGING, OCTETS

Disassembly of section .text:

080000c0 <__do_global_dtors_aux>:
 80000c0:	b510      	push	{r4, lr}
 80000c2:	4c06      	ldr	r4, [pc, #24]	@ (80000dc <__do_global_dtors_aux+0x1c>)
 80000c4:	7823      	ldrb	r3, [r4, #0]
 80000c6:	2b00      	cmp	r3, #0
 80000c8:	d107      	bne.n	80000da <__do_global_dtors_aux+0x1a>
 80000ca:	4b05      	ldr	r3, [pc, #20]	@ (80000e0 <__do_global_dtors_aux+0x20>)
 80000cc:	2b00      	cmp	r3, #0
 80000ce:	d002      	beq.n	80000d6 <__do_global_dtors_aux+0x16>
 80000d0:	4804      	ldr	r0, [pc, #16]	@ (80000e4 <__do_global_dtors_aux+0x24>)
 80000d2:	e000      	b.n	80000d6 <__do_global_dtors_aux+0x16>
 80000d4:	bf00      	nop
 80000d6:	2301      	movs	r3, #1
 80000d8:	7023      	strb	r3, [r4, #0]
 80000da:	bd10      	pop	{r4, pc}
 80000dc:	20000068 	.word	0x20000068
 80000e0:	00000000 	.word	0x00000000
 80000e4:	08006200 	.word	0x08006200

080000e8 <frame_dummy>:
 80000e8:	4b04      	ldr	r3, [pc, #16]	@ (80000fc <frame_dummy+0x14>)
 80000ea:	b510      	push	{r4, lr}
 80000ec:	2b00      	cmp	r3, #0
 80000ee:	d003      	beq.n	80000f8 <frame_dummy+0x10>
 80000f0:	4903      	ldr	r1, [pc, #12]	@ (8000100 <frame_dummy+0x18>)
 80000f2:	4804      	ldr	r0, [pc, #16]	@ (8000104 <frame_dummy+0x1c>)
 80000f4:	e000      	b.n	80000f8 <frame_dummy+0x10>
 80000f6:	bf00      	nop
 80000f8:	bd10      	pop	{r4, pc}
 80000fa:	46c0      	nop			@ (mov r8, r8)
 80000fc:	00000000 	.word	0x00000000
 8000100:	2000006c 	.word	0x2000006c
 8000104:	08006200 	.word	0x08006200

08000108 <__gnu_thumb1_case_uqi>:
 8000108:	b402      	push	{r1}
 800010a:	4671      	mov	r1, lr
 800010c:	0849      	lsrs	r1, r1, #1
 800010e:	0049      	lsls	r1, r1, #1
 8000110:	5c09      	ldrb	r1, [r1, r0]
 8000112:	0049      	lsls	r1, r1, #1
 8000114:	448e      	add	lr, r1
 8000116:	bc02      	pop	{r1}
 8000118:	4770      	bx	lr
 800011a:	46c0      	nop			@ (mov r8, r8)

0800011c <__gnu_thumb1_case_shi>:
 800011c:	b403      	push	{r0, r1}
 800011e:	4671      	mov	r1, lr
 8000120:	0849      	lsrs	r1, r1, #1
 8000122:	0040      	lsls	r0, r0, #1
 8000124:	0049      	lsls	r1, r1, #1
 8000126:	5e09      	ldrsh	r1, [r1, r0]
 8000128:	0049      	lsls	r1, r1, #1
 800012a:	448e      	add	lr, r1
 800012c:	bc03      	pop	{r0, r1}
 800012e:	4770      	bx	lr

08000130 <__udivsi3>:
 8000130:	2200      	movs	r2, #0
 8000132:	0843      	lsrs	r3, r0, #1
 8000134:	428b      	cmp	r3, r1
 8000136:	d374      	bcc.n	8000222 <__udivsi3+0xf2>
 8000138:	0903      	lsrs	r3, r0, #4
 800013a:	428b      	cmp	r3, r1
 800013c:	d35f      	bcc.n	80001fe <__udivsi3+0xce>
 800013e:	0a03      	lsrs	r3, r0, #8
 8000140:	428b      	cmp	r3, r1
 8000142:	d344      	bcc.n	80001ce <__udivsi3+0x9e>
 8000144:	0b03      	lsrs	r3, r0, #12
 8000146:	428b      	cmp	r3, r1
 8000148:	d328      	bcc.n	800019c <__udivsi3+0x6c>
 800014a:	0c03      	lsrs	r3, r0, #16
 800014c:	428b      	cmp	r3, r1
 800014e:	d30d      	bcc.n	800016c <__udivsi3+0x3c>
 8000150:	22ff      	movs	r2, #255	@ 0xff
 8000152:	0209      	lsls	r1, r1, #8
 8000154:	ba12      	rev	r2, r2
 8000156:	0c03      	lsrs	r3, r0, #16
 8000158:	428b      	cmp	r3, r1
 800015a:	d302      	bcc.n	8000162 <__udivsi3+0x32>
 800015c:	1212      	asrs	r2, r2, #8
 800015e:	0209      	lsls	r1, r1, #8
 8000160:	d065      	beq.n	800022e <__udivsi3+0xfe>
 8000162:	0b03      	lsrs	r3, r0, #12
 8000164:	428b      	cmp	r3, r1
 8000166:	d319      	bcc.n	800019c <__udivsi3+0x6c>
 8000168:	e000      	b.n	800016c <__udivsi3+0x3c>
 800016a:	0a09      	lsrs	r1, r1, #8
 800016c:	0bc3      	lsrs	r3, r0, #15
 800016e:	428b      	cmp	r3, r1
 8000170:	d301      	bcc.n	8000176 <__udivsi3+0x46>
 8000172:	03cb      	lsls	r3, r1, #15
 8000174:	1ac0      	subs	r0, r0, r3
 8000176:	4152      	adcs	r2, r2
 8000178:	0b83      	lsrs	r3, r0, #14
 800017a:	428b      	cmp	r3, r1
 800017c:	d301      	bcc.n	8000182 <__udivsi3+0x52>
 800017e:	038b      	lsls	r3, r1, #14
 8000180:	1ac0      	subs	r0, r0, r3
 8000182:	4152      	adcs	r2, r2
 8000184:	0b43      	lsrs	r3, r0, #13
 8000186:	428b      	cmp	r3, r1
 8000188:	d301      	bcc.n	800018e <__udivsi3+0x5e>
 800018a:	034b      	lsls	r3, r1, #13
 800018c:	1ac0      	subs	r0, r0, r3
 800018e:	4152      	adcs	r2, r2
 8000190:	0b03      	lsrs	r3, r0, #12
 8000192:	428b      	cmp	r3, r1
 8000194:	d301      	bcc.n	800019a <__udivsi3+0x6a>
 8000196:	030b      	lsls	r3, r1, #12
 8000198:	1ac0      	subs	r0, r0, r3
 800019a:	4152      	adcs	r2, r2
 800019c:	0ac3      	lsrs	r3, r0, #11
 800019e:	428b      	cmp	r3, r1
 80001a0:	d301      	bcc.n	80001a6 <__udivsi3+0x76>
 80001a2:	02cb      	lsls	r3, r1, #11
 80001a4:	1ac0      	subs	r0, r0, r3
 80001a6:	4152      	adcs	r2, r2
 80001a8:	0a83      	lsrs	r3, r0, #10
 80001aa:	428b      	cmp	r3, r1
 80001ac:	d301      	bcc.n	80001b2 <__udivsi3+0x82>
 80001ae:	028b      	lsls	r3, r1, #10
 80001b0:	1ac0      	subs	r0, r0, r3
 80001b2:	4152      	adcs	r2, r2
 80001b4:	0a43      	lsrs	r3, r0, #9
 80001b6:	428b      	cmp	r3, r1
 80001b8:	d301      	bcc.n	80001be <__udivsi3+0x8e>
 80001ba:	024b      	lsls	r3, r1, #9
 80001bc:	1ac0      	subs	r0, r0, r3
 80001be:	4152      	adcs	r2, r2
 80001c0:	0a03      	lsrs	r3, r0, #8
 80001c2:	428b      	cmp	r3, r1
 80001c4:	d301      	bcc.n	80001ca <__udivsi3+0x9a>
 80001c6:	020b      	lsls	r3, r1, #8
 80001c8:	1ac0      	subs	r0, r0, r3
 80001ca:	4152      	adcs	r2, r2
 80001cc:	d2cd      	bcs.n	800016a <__udivsi3+0x3a>
 80001ce:	09c3      	lsrs	r3, r0, #7
 80001d0:	428b      	cmp	r3, r1
 80001d2:	d301      	bcc.n	80001d8 <__udivsi3+0xa8>
 80001d4:	01cb      	lsls	r3, r1, #7
 80001d6:	1ac0      	subs	r0, r0, r3
 80001d8:	4152      	adcs	r2, r2
 80001da:	0983      	lsrs	r3, r0, #6
 80001dc:	428b      	cmp	r3, r1
 80001de:	d301      	bcc.n	80001e4 <__udivsi3+0xb4>
 80001e0:	018b      	lsls	r3, r1, #6
 80001e2:	1ac0      	subs	r0, r0, r3
 80001e4:	4152      	adcs	r2, r2
 80001e6:	0943      	lsrs	r3, r0, #5
 80001e8:	428b      	cmp	r3, r1
 80001ea:	d301      	bcc.n	80001f0 <__udivsi3+0xc0>
 80001ec:	014b      	lsls	r3, r1, #5
 80001ee:	1ac0      	subs	r0, r0, r3
 80001f0:	4152      	adcs	r2, r2
 80001f2:	0903      	lsrs	r3, r0, #4
 80001f4:	428b      	cmp	r3, r1
 80001f6:	d301      	bcc.n	80001fc <__udivsi3+0xcc>
 80001f8:	010b      	lsls	r3, r1, #4
 80001fa:	1ac0      	subs	r0, r0, r3
 80001fc:	4152      	adcs	r2, r2
 80001fe:	08c3      	lsrs	r3, r0, #3
 8000200:	428b      	cmp	r3, r1
 8000202:	d301      	bcc.n	8000208 <__udivsi3+0xd8>
 8000204:	00cb      	lsls	r3, r1, #3
 8000206:	1ac0      	subs	r0, r0, r3
 8000208:	4152      	adcs	r2, r2
 800020a:	0883      	lsrs	r3, r0, #2
 800020c:	428b      	cmp	r3, r1
 800020e:	d301      	bcc.n	8000214 <__udivsi3+0xe4>
 8000210:	008b      	lsls	r3, r1, #2
 8000212:	1ac0      	subs	r0, r0, r3
 8000214:	4152      	adcs	r2, r2
 8000216:	0843      	lsrs	r3, r0, #1
 8000218:	428b      	cmp	r3, r1
 800021a:	d301      	bcc.n	8000220 <__udivsi3+0xf0>
 800021c:	004b      	lsls	r3, r1, #1
 800021e:	1ac0      	subs	r0, r0, r3
 8000220:	4152      	adcs	r2, r2
 8000222:	1a41      	subs	r1, r0, r1
 8000224:	d200      	bcs.n	8000228 <__udivsi3+0xf8>
 8000226:	4601      	mov	r1, r0
 8000228:	4152      	adcs	r2, r2
 800022a:	4610      	mov	r0, r2
 800022c:	4770      	bx	lr
 800022e:	e7ff      	b.n	8000230 <__udivsi3+0x100>
 8000230:	b501      	push	{r0, lr}
 8000232:	2000      	movs	r0, #0
 8000234:	f000 f8f0 	bl	8000418 <__aeabi_idiv0>
 8000238:	bd02      	pop	{r1, pc}
 800023a:	46c0      	nop			@ (mov r8, r8)

0800023c <__aeabi_uidivmod>:
 800023c:	2900      	cmp	r1, #0
 800023e:	d0f7      	beq.n	8000230 <__udivsi3+0x100>
 8000240:	e776      	b.n	8000130 <__udivsi3>
 8000242:	4770      	bx	lr

08000244 <__divsi3>:
 8000244:	4603      	mov	r3, r0
 8000246:	430b      	orrs	r3, r1
 8000248:	d47f      	bmi.n	800034a <__divsi3+0x106>
 800024a:	2200      	movs	r2, #0
 800024c:	0843      	lsrs	r3, r0, #1
 800024e:	428b      	cmp	r3, r1
 8000250:	d374      	bcc.n	800033c <__divsi3+0xf8>
 8000252:	0903      	lsrs	r3, r0, #4
 8000254:	428b      	cmp	r3, r1
 8000256:	d35f      	bcc.n	8000318 <__divsi3+0xd4>
 8000258:	0a03      	lsrs	r3, r0, #8
 800025a:	428b      	cmp	r3, r1
 800025c:	d344      	bcc.n	80002e8 <__divsi3+0xa4>
 800025e:	0b03      	lsrs	r3, r0, #12
 8000260:	428b      	cmp	r3, r1
 8000262:	d328      	bcc.n	80002b6 <__divsi3+0x72>
 8000264:	0c03      	lsrs	r3, r0, #16
 8000266:	428b      	cmp	r3, r1
 8000268:	d30d      	bcc.n	8000286 <__divsi3+0x42>
 800026a:	22ff      	movs	r2, #255	@ 0xff
 800026c:	0209      	lsls	r1, r1, #8
 800026e:	ba12      	rev	r2, r2
 8000270:	0c03      	lsrs	r3, r0, #16
 8000272:	428b      	cmp	r3, r1
 8000274:	d302      	bcc.n	800027c <__divsi3+0x38>
 8000276:	1212      	asrs	r2, r2, #8
 8000278:	0209      	lsls	r1, r1, #8
 800027a:	d065      	beq.n	8000348 <__divsi3+0x104>
 800027c:	0b03      	lsrs	r3, r0, #12
 800027e:	428b      	cmp	r3, r1
 8000280:	d319      	bcc.n	80002b6 <__divsi3+0x72>
 8000282:	e000      	b.n	8000286 <__divsi3+0x42>
 8000284:	0a09      	lsrs	r1, r1, #8
 8000286:	0bc3      	lsrs	r3, r0, #15
 8000288:	428b      	cmp	r3, r1
 800028a:	d301      	bcc.n	8000290 <__divsi3+0x4c>
 800028c:	03cb      	lsls	r3, r1, #15
 800028e:	1ac0      	subs	r0, r0, r3
 8000290:	4152      	adcs	r2, r2
 8000292:	0b83      	lsrs	r3, r0, #14
 8000294:	428b      	cmp	r3, r1
 8000296:	d301      	bcc.n	800029c <__divsi3+0x58>
 8000298:	038b      	lsls	r3, r1, #14
 800029a:	1ac0      	subs	r0, r0, r3
 800029c:	4152      	adcs	r2, r2
 800029e:	0b43      	lsrs	r3, r0, #13
 80002a0:	428b      	cmp	r3, r1
 80002a2:	d301      	bcc.n	80002a8 <__divsi3+0x64>
 80002a4:	034b      	lsls	r3, r1, #13
 80002a6:	1ac0      	subs	r0, r0, r3
 80002a8:	4152      	adcs	r2, r2
 80002aa:	0b03      	lsrs	r3, r0, #12
 80002ac:	428b      	cmp	r3, r1
 80002ae:	d301      	bcc.n	80002b4 <__divsi3+0x70>
 80002b0:	030b      	lsls	r3, r1, #12
 80002b2:	1ac0      	subs	r0, r0, r3
 80002b4:	4152      	adcs	r2, r2
 80002b6:	0ac3      	lsrs	r3, r0, #11
 80002b8:	428b      	cmp	r3, r1
 80002ba:	d301      	bcc.n	80002c0 <__divsi3+0x7c>
 80002bc:	02cb      	lsls	r3, r1, #11
 80002be:	1ac0      	subs	r0, r0, r3
 80002c0:	4152      	adcs	r2, r2
 80002c2:	0a83      	lsrs	r3, r0, #10
 80002c4:	428b      	cmp	r3, r1
 80002c6:	d301      	bcc.n	80002cc <__divsi3+0x88>
 80002c8:	028b      	lsls	r3, r1, #10
 80002ca:	1ac0      	subs	r0, r0, r3
 80002cc:	4152      	adcs	r2, r2
 80002ce:	0a43      	lsrs	r3, r0, #9
 80002d0:	428b      	cmp	r3, r1
 80002d2:	d301      	bcc.n	80002d8 <__divsi3+0x94>
 80002d4:	024b      	lsls	r3, r1, #9
 80002d6:	1ac0      	subs	r0, r0, r3
 80002d8:	4152      	adcs	r2, r2
 80002da:	0a03      	lsrs	r3, r0, #8
 80002dc:	428b      	cmp	r3, r1
 80002de:	d301      	bcc.n	80002e4 <__divsi3+0xa0>
 80002e0:	020b      	lsls	r3, r1, #8
 80002e2:	1ac0      	subs	r0, r0, r3
 80002e4:	4152      	adcs	r2, r2
 80002e6:	d2cd      	bcs.n	8000284 <__divsi3+0x40>
 80002e8:	09c3      	lsrs	r3, r0, #7
 80002ea:	428b      	cmp	r3, r1
 80002ec:	d301      	bcc.n	80002f2 <__divsi3+0xae>
 80002ee:	01cb      	lsls	r3, r1, #7
 80002f0:	1ac0      	subs	r0, r0, r3
 80002f2:	4152      	adcs	r2, r2
 80002f4:	0983      	lsrs	r3, r0, #6
 80002f6:	428b      	cmp	r3, r1
 80002f8:	d301      	bcc.n	80002fe <__divsi3+0xba>
 80002fa:	018b      	lsls	r3, r1, #6
 80002fc:	1ac0      	subs	r0, r0, r3
 80002fe:	4152      	adcs	r2, r2
 8000300:	0943      	lsrs	r3, r0, #5
 8000302:	428b      	cmp	r3, r1
 8000304:	d301      	bcc.n	800030a <__divsi3+0xc6>
 8000306:	014b      	lsls	r3, r1, #5
 8000308:	1ac0      	subs	r0, r0, r3
 800030a:	4152      	adcs	r2, r2
 800030c:	0903      	lsrs	r3, r0, #4
 800030e:	428b      	cmp	r3, r1
 8000310:	d301      	bcc.n	8000316 <__divsi3+0xd2>
 8000312:	010b      	lsls	r3, r1, #4
 8000314:	1ac0      	subs	r0, r0, r3
 8000316:	4152      	adcs	r2, r2
 8000318:	08c3      	lsrs	r3, r0, #3
 800031a:	428b      	cmp	r3, r1
 800031c:	d301      	bcc.n	8000322 <__divsi3+0xde>
 800031e:	00cb      	lsls	r3, r1, #3
 8000320:	1ac0      	subs	r0, r0, r3
 8000322:	4152      	adcs	r2, r2
 8000324:	0883      	lsrs	r3, r0, #2
 8000326:	428b      	cmp	r3, r1
 8000328:	d301      	bcc.n	800032e <__divsi3+0xea>
 800032a:	008b      	lsls	r3, r1, #2
 800032c:	1ac0      	subs	r0, r0, r3
 800032e:	4152      	adcs	r2, r2
 8000330:	0843      	lsrs	r3, r0, #1
 8000332:	428b      	cmp	r3, r1
 8000334:	d301      	bcc.n	800033a <__divsi3+0xf6>
 8000336:	004b      	lsls	r3, r1, #1
 8000338:	1ac0      	subs	r0, r0, r3
 800033a:	4152      	adcs	r2, r2
 800033c:	1a41      	subs	r1, r0, r1
 800033e:	d200      	bcs.n	8000342 <__divsi3+0xfe>
 8000340:	4601      	mov	r1, r0
 8000342:	4152      	adcs	r2, r2
 8000344:	4610      	mov	r0, r2
 8000346:	4770      	bx	lr
 8000348:	e05d      	b.n	8000406 <__divsi3+0x1c2>
 800034a:	0fca      	lsrs	r2, r1, #31
 800034c:	d000      	beq.n	8000350 <__divsi3+0x10c>
 800034e:	4249      	negs	r1, r1
 8000350:	1003      	asrs	r3, r0, #32
 8000352:	d300      	bcc.n	8000356 <__divsi3+0x112>
 8000354:	4240      	negs	r0, r0
 8000356:	4053      	eors	r3, r2
 8000358:	2200      	movs	r2, #0
 800035a:	469c      	mov	ip, r3
 800035c:	0903      	lsrs	r3, r0, #4
 800035e:	428b      	cmp	r3, r1
 8000360:	d32d      	bcc.n	80003be <__divsi3+0x17a>
 8000362:	0a03      	lsrs	r3, r0, #8
 8000364:	428b      	cmp	r3, r1
 8000366:	d312      	bcc.n	800038e <__divsi3+0x14a>
 8000368:	22fc      	movs	r2, #252	@ 0xfc
 800036a:	0189      	lsls	r1, r1, #6
 800036c:	ba12      	rev	r2, r2
 800036e:	0a03      	lsrs	r3, r0, #8
 8000370:	428b      	cmp	r3, r1
 8000372:	d30c      	bcc.n	800038e <__divsi3+0x14a>
 8000374:	0189      	lsls	r1, r1, #6
 8000376:	1192      	asrs	r2, r2, #6
 8000378:	428b      	cmp	r3, r1
 800037a:	d308      	bcc.n	800038e <__divsi3+0x14a>
 800037c:	0189      	lsls	r1, r1, #6
 800037e:	1192      	asrs	r2, r2, #6
 8000380:	428b      	cmp	r3, r1
 8000382:	d304      	bcc.n	800038e <__divsi3+0x14a>
 8000384:	0189      	lsls	r1, r1, #6
 8000386:	d03a      	beq.n	80003fe <__divsi3+0x1ba>
 8000388:	1192      	asrs	r2, r2, #6
 800038a:	e000      	b.n	800038e <__divsi3+0x14a>
 800038c:	0989      	lsrs	r1, r1, #6
 800038e:	09c3      	lsrs	r3, r0, #7
 8000390:	428b      	cmp	r3, r1
 8000392:	d301      	bcc.n	8000398 <__divsi3+0x154>
 8000394:	01cb      	lsls	r3, r1, #7
 8000396:	1ac0      	subs	r0, r0, r3
 8000398:	4152      	adcs	r2, r2
 800039a:	0983      	lsrs	r3, r0, #6
 800039c:	428b      	cmp	r3, r1
 800039e:	d301      	bcc.n	80003a4 <__divsi3+0x160>
 80003a0:	018b      	lsls	r3, r1, #6
 80003a2:	1ac0      	subs	r0, r0, r3
 80003a4:	4152      	adcs	r2, r2
 80003a6:	0943      	lsrs	r3, r0, #5
 80003a8:	428b      	cmp	r3, r1
 80003aa:	d301      	bcc.n	80003b0 <__divsi3+0x16c>
 80003ac:	014b      	lsls	r3, r1, #5
 80003ae:	1ac0      	subs	r0, r0, r3
 80003b0:	4152      	adcs	r2, r2
 80003b2:	0903      	lsrs	r3, r0, #4
 80003b4:	428b      	cmp	r3, r1
 80003b6:	d301      	bcc.n	80003bc <__divsi3+0x178>
 80003b8:	010b      	lsls	r3, r1, #4
 80003ba:	1ac0      	subs	r0, r0, r3
 80003bc:	4152      	adcs	r2, r2
 80003be:	08c3      	lsrs	r3, r0, #3
 80003c0:	428b      	cmp	r3, r1
 80003c2:	d301      	bcc.n	80003c8 <__divsi3+0x184>
 80003c4:	00cb      	lsls	r3, r1, #3
 80003c6:	1ac0      	subs	r0, r0, r3
 80003c8:	4152      	adcs	r2, r2
 80003ca:	0883      	lsrs	r3, r0, #2
 80003cc:	428b      	cmp	r3, r1
 80003ce:	d301      	bcc.n	80003d4 <__divsi3+0x190>
 80003d0:	008b      	lsls	r3, r1, #2
 80003d2:	1ac0      	subs	r0, r0, r3
 80003d4:	4152      	adcs	r2, r2
 80003d6:	d2d9      	bcs.n	800038c <__divsi3+0x148>
 80003d8:	0843      	lsrs	r3, r0, #1
 80003da:	428b      	cmp	r3, r1
 80003dc:	d301      	bcc.n	80003e2 <__divsi3+0x19e>
 80003de:	004b      	lsls	r3, r1, #1
 80003e0:	1ac0      	subs	r0, r0, r3
 80003e2:	4152      	adcs	r2, r2
 80003e4:	1a41      	subs	r1, r0, r1
 80003e6:	d200      	bcs.n	80003ea <__divsi3+0x1a6>
 80003e8:	4601      	mov	r1, r0
 80003ea:	4663      	mov	r3, ip
 80003ec:	4152      	adcs	r2, r2
 80003ee:	105b      	asrs	r3, r3, #1
 80003f0:	4610      	mov	r0, r2
 80003f2:	d301      	bcc.n	80003f8 <__divsi3+0x1b4>
 80003f4:	4240      	negs	r0, r0
 80003f6:	2b00      	cmp	r3, #0
 80003f8:	d500      	bpl.n	80003fc <__divsi3+0x1b8>
 80003fa:	4249      	negs	r1, r1
 80003fc:	4770      	bx	lr
 80003fe:	4663      	mov	r3, ip
 8000400:	105b      	asrs	r3, r3, #1
 8000402:	d300      	bcc.n	8000406 <__divsi3+0x1c2>
 8000404:	4240      	negs	r0, r0
 8000406:	b501      	push	{r0, lr}
 8000408:	2000      	movs	r0, #0
 800040a:	f000 f805 	bl	8000418 <__aeabi_idiv0>
 800040e:	bd02      	pop	{r1, pc}

08000410 <__aeabi_idivmod>:
 8000410:	2900      	cmp	r1, #0
 8000412:	d0f8      	beq.n	8000406 <__divsi3+0x1c2>
 8000414:	e716      	b.n	8000244 <__divsi3>
 8000416:	4770      	bx	lr

08000418 <__aeabi_idiv0>:
 8000418:	4770      	bx	lr
 800041a:	46c0      	nop			@ (mov r8, r8)

0800041c <init_nrf>:
uint8_t tx_addr[5] = { '0', '0', '0', '0', '1' };
	uint16_t data = 0;

	uint8_t dataR[PLD_S];
void init_nrf(void)
{
 800041c:	b51f      	push	{r0, r1, r2, r3, r4, lr}
	uint8_t tx_addr2[5] = { '0', '0', '0', '0', '1' };
 800041e:	2405      	movs	r4, #5
 8000420:	0022      	movs	r2, r4
 8000422:	4937      	ldr	r1, [pc, #220]	@ (8000500 <init_nrf+0xe4>)
 8000424:	a802      	add	r0, sp, #8
 8000426:	f005 f830 	bl	800548a <memcpy>

	  csn_high();
 800042a:	f004 f957 	bl	80046dc <csn_high>
	  ce_high();
 800042e:	f004 f969 	bl	8004704 <ce_high>

	  BSP_delayMs(5);
 8000432:	0020      	movs	r0, r4
 8000434:	f000 f90a 	bl	800064c <BSP_delayMs>

	  ce_low();
 8000438:	f004 f96e 	bl	8004718 <ce_low>

	  nrf24_init();
 800043c:	f004 fbba 	bl	8004bb4 <nrf24_init>
	  uint8_t reg = nrf24_r_reg(0x00,1 );
 8000440:	2101      	movs	r1, #1
 8000442:	2000      	movs	r0, #0
 8000444:	f004 f990 	bl	8004768 <nrf24_r_reg>


	  nrf24_auto_ack_all(auto_ack);
 8000448:	2001      	movs	r0, #1
 800044a:	f004 fb40 	bl	8004ace <nrf24_auto_ack_all>
	  nrf24_en_ack_pld(disable);
 800044e:	2000      	movs	r0, #0
 8000450:	f004 fb4e 	bl	8004af0 <nrf24_en_ack_pld>
	  nrf24_dpl(disable);
 8000454:	2000      	movs	r0, #0
 8000456:	f004 fb07 	bl	8004a68 <nrf24_dpl>

	  nrf24_set_crc(en_crc, _2byte);
 800045a:	2101      	movs	r1, #1
 800045c:	0008      	movs	r0, r1
 800045e:	f004 fa70 	bl	8004942 <nrf24_set_crc>

	  nrf24_tx_pwr(_0dbm);
 8000462:	2003      	movs	r0, #3
 8000464:	f004 f9c3 	bl	80047ee <nrf24_tx_pwr>
	  nrf24_data_rate(_1mbps);
 8000468:	2000      	movs	r0, #0
 800046a:	f004 f9d5 	bl	8004818 <nrf24_data_rate>
	  nrf24_set_channel(76);
 800046e:	204c      	movs	r0, #76	@ 0x4c
 8000470:	f004 f9ec 	bl	800484c <nrf24_set_channel>
	  nrf24_set_addr_width(5);
 8000474:	0020      	movs	r0, r4
 8000476:	f004 fa79 	bl	800496c <nrf24_set_addr_width>

	  nrf24_set_rx_dpl(0, disable);
 800047a:	2100      	movs	r1, #0
 800047c:	0008      	movs	r0, r1
 800047e:	f004 fb09 	bl	8004a94 <nrf24_set_rx_dpl>
	  nrf24_set_rx_dpl(1, disable);
 8000482:	2100      	movs	r1, #0
 8000484:	2001      	movs	r0, #1
 8000486:	f004 fb05 	bl	8004a94 <nrf24_set_rx_dpl>
	  nrf24_set_rx_dpl(2, disable);
 800048a:	2100      	movs	r1, #0
 800048c:	2002      	movs	r0, #2
 800048e:	f004 fb01 	bl	8004a94 <nrf24_set_rx_dpl>
	  nrf24_set_rx_dpl(3, disable);
 8000492:	2100      	movs	r1, #0
 8000494:	2003      	movs	r0, #3
 8000496:	f004 fafd 	bl	8004a94 <nrf24_set_rx_dpl>
	  nrf24_set_rx_dpl(4, disable);
 800049a:	2100      	movs	r1, #0
 800049c:	2004      	movs	r0, #4
 800049e:	f004 faf9 	bl	8004a94 <nrf24_set_rx_dpl>
	  nrf24_set_rx_dpl(5, disable);
 80004a2:	0020      	movs	r0, r4
 80004a4:	2100      	movs	r1, #0
 80004a6:	f004 faf5 	bl	8004a94 <nrf24_set_rx_dpl>

	  nrf24_pipe_pld_size(0, PLD_S);
 80004aa:	2120      	movs	r1, #32
 80004ac:	2000      	movs	r0, #0
 80004ae:	f004 f9dd 	bl	800486c <nrf24_pipe_pld_size>

	  nrf24_auto_retr_delay(4);
 80004b2:	2004      	movs	r0, #4
 80004b4:	f004 fb32 	bl	8004b1c <nrf24_auto_retr_delay>
	  nrf24_auto_retr_limit(10);
 80004b8:	200a      	movs	r0, #10
 80004ba:	f004 fb41 	bl	8004b40 <nrf24_auto_retr_limit>

	  nrf24_open_tx_pipe(tx_addr2);
 80004be:	a802      	add	r0, sp, #8
 80004c0:	f004 f9cd 	bl	800485e <nrf24_open_tx_pipe>
	  nrf24_open_rx_pipe(0, tx_addr2);
 80004c4:	a902      	add	r1, sp, #8
 80004c6:	2000      	movs	r0, #0
 80004c8:	f004 f9f0 	bl	80048ac <nrf24_open_rx_pipe>
	  ce_high();
 80004cc:	f004 f91a 	bl	8004704 <ce_high>
	  //nrf24_listen();
	  nrf24_clear_rx_dr();
 80004d0:	f004 fa84 	bl	80049dc <nrf24_clear_rx_dr>
	      nrf24_clear_tx_ds();
 80004d4:	f004 fa93 	bl	80049fe <nrf24_clear_tx_ds>
	      nrf24_clear_max_rt();
 80004d8:	f004 faa2 	bl	8004a20 <nrf24_clear_max_rt>

	      // Flush RX FIFO
	      nrf24_flush_rx();
 80004dc:	f004 fa59 	bl	8004992 <nrf24_flush_rx>

	      // Power up
	      nrf24_pwr_up();
 80004e0:	f004 f972 	bl	80047c8 <nrf24_pwr_up>
	      BSP_delayMs(2);
 80004e4:	2002      	movs	r0, #2
 80004e6:	f000 f8b1 	bl	800064c <BSP_delayMs>

	      // Start listening (this might set MASK_RX_DR=1)
	      nrf24_listen();
 80004ea:	f004 faaa 	bl	8004a42 <nrf24_listen>
	      // Enable RX_DR interrupt
	          uint8_t config_val = 0x0F;  // RX mode, powered up, interrupts enabled
 80004ee:	466b      	mov	r3, sp
 80004f0:	1dd9      	adds	r1, r3, #7
 80004f2:	230f      	movs	r3, #15
	          nrf24_w_reg(0x00, &config_val, 1);
 80004f4:	2201      	movs	r2, #1
 80004f6:	2000      	movs	r0, #0
	          uint8_t config_val = 0x0F;  // RX mode, powered up, interrupts enabled
 80004f8:	700b      	strb	r3, [r1, #0]
	          nrf24_w_reg(0x00, &config_val, 1);
 80004fa:	f004 f917 	bl	800472c <nrf24_w_reg>
}
 80004fe:	bd1f      	pop	{r0, r1, r2, r3, r4, pc}
 8000500:	08006218 	.word	0x08006218

08000504 <init_accelerometer>:




void init_accelerometer(void)
{
 8000504:	b5f0      	push	{r4, r5, r6, r7, lr}

    uint8_t data = 0;
 8000506:	2516      	movs	r5, #22

    // Disable interrupts first .---------------------------------------------
    data = 0x00;
    HAL_I2C_Mem_Write(&hi2c1, ADXL_ADDR, ADXL_INT_ENABLE, 1, &data, 1, HAL_MAX_DELAY);
 8000508:	2701      	movs	r7, #1
 800050a:	2401      	movs	r4, #1
    uint8_t data = 0;
 800050c:	2300      	movs	r3, #0
{
 800050e:	b087      	sub	sp, #28
    HAL_I2C_Mem_Write(&hi2c1, ADXL_ADDR, ADXL_INT_ENABLE, 1, &data, 1, HAL_MAX_DELAY);
 8000510:	4e3e      	ldr	r6, [pc, #248]	@ (800060c <init_accelerometer+0x108>)
    uint8_t data = 0;
 8000512:	446d      	add	r5, sp
    HAL_I2C_Mem_Write(&hi2c1, ADXL_ADDR, ADXL_INT_ENABLE, 1, &data, 1, HAL_MAX_DELAY);
 8000514:	427f      	negs	r7, r7
    uint8_t data = 0;
 8000516:	702b      	strb	r3, [r5, #0]
    HAL_I2C_Mem_Write(&hi2c1, ADXL_ADDR, ADXL_INT_ENABLE, 1, &data, 1, HAL_MAX_DELAY);
 8000518:	222e      	movs	r2, #46	@ 0x2e
 800051a:	0023      	movs	r3, r4
 800051c:	21a6      	movs	r1, #166	@ 0xa6
 800051e:	0030      	movs	r0, r6
 8000520:	9702      	str	r7, [sp, #8]
 8000522:	9401      	str	r4, [sp, #4]
 8000524:	9500      	str	r5, [sp, #0]
 8000526:	f001 ffb1 	bl	800248c <HAL_I2C_Mem_Write>
    //-------------- line goes LOW ------------------------

    // 1. Set data format (full resolution, ±2g)
        data = 0x08;  // Full resolution, right justified, ±2g
 800052a:	2308      	movs	r3, #8
        HAL_I2C_Mem_Write(&hi2c1, ADXL_ADDR, ADXL_DATA_FORMAT_R, 1, &data, 1, HAL_MAX_DELAY);
 800052c:	2231      	movs	r2, #49	@ 0x31
        data = 0x08;  // Full resolution, right justified, ±2g
 800052e:	702b      	strb	r3, [r5, #0]
        HAL_I2C_Mem_Write(&hi2c1, ADXL_ADDR, ADXL_DATA_FORMAT_R, 1, &data, 1, HAL_MAX_DELAY);
 8000530:	21a6      	movs	r1, #166	@ 0xa6
 8000532:	0023      	movs	r3, r4
 8000534:	0030      	movs	r0, r6
 8000536:	9702      	str	r7, [sp, #8]
 8000538:	9401      	str	r4, [sp, #4]
 800053a:	9500      	str	r5, [sp, #0]
 800053c:	f001 ffa6 	bl	800248c <HAL_I2C_Mem_Write>

        // 1. Set data format (full resolution, ±2g)
		data = 0x08;  // Full resolution, right justified, ±2g
 8000540:	2308      	movs	r3, #8
		HAL_I2C_Mem_Write(&hi2c1, ADXL_ADDR, ADXL_DATA_FORMAT_R, 1, &data, 1, HAL_MAX_DELAY);
 8000542:	2231      	movs	r2, #49	@ 0x31
		data = 0x08;  // Full resolution, right justified, ±2g
 8000544:	702b      	strb	r3, [r5, #0]
		HAL_I2C_Mem_Write(&hi2c1, ADXL_ADDR, ADXL_DATA_FORMAT_R, 1, &data, 1, HAL_MAX_DELAY);
 8000546:	21a6      	movs	r1, #166	@ 0xa6
 8000548:	0023      	movs	r3, r4
 800054a:	0030      	movs	r0, r6
 800054c:	9702      	str	r7, [sp, #8]
 800054e:	9401      	str	r4, [sp, #4]
 8000550:	9500      	str	r5, [sp, #0]
 8000552:	f001 ff9b 	bl	800248c <HAL_I2C_Mem_Write>

		// 2. Configure tap detection
		data = 0x20;  // Threshold ~0.5g (adjust as needed)
 8000556:	2320      	movs	r3, #32
		HAL_I2C_Mem_Write(&hi2c1, ADXL_ADDR, ADXL_THRESH_ACT, 1, &data, 1, HAL_MAX_DELAY);
 8000558:	2224      	movs	r2, #36	@ 0x24
		data = 0x20;  // Threshold ~0.5g (adjust as needed)
 800055a:	702b      	strb	r3, [r5, #0]
		HAL_I2C_Mem_Write(&hi2c1, ADXL_ADDR, ADXL_THRESH_ACT, 1, &data, 1, HAL_MAX_DELAY);
 800055c:	21a6      	movs	r1, #166	@ 0xa6
 800055e:	0023      	movs	r3, r4
 8000560:	0030      	movs	r0, r6
 8000562:	9702      	str	r7, [sp, #8]
 8000564:	9401      	str	r4, [sp, #4]
 8000566:	9500      	str	r5, [sp, #0]
 8000568:	f001 ff90 	bl	800248c <HAL_I2C_Mem_Write>

		//data = 0x10;  // Tap duration = 16 * 625us = 10ms
		HAL_I2C_Mem_Write(&hi2c1, ADXL_ADDR, TAP_DUR, 1, &data, 1, HAL_MAX_DELAY);
 800056c:	0023      	movs	r3, r4
 800056e:	2221      	movs	r2, #33	@ 0x21
 8000570:	21a6      	movs	r1, #166	@ 0xa6
 8000572:	0030      	movs	r0, r6
 8000574:	9702      	str	r7, [sp, #8]
 8000576:	9401      	str	r4, [sp, #4]
 8000578:	9500      	str	r5, [sp, #0]
 800057a:	f001 ff87 	bl	800248c <HAL_I2C_Mem_Write>

		data = 0x07;  // TAP_AXES = 0x07 -> X, Y, Z enabled
 800057e:	2307      	movs	r3, #7
		HAL_I2C_Mem_Write(&hi2c1, ADXL_ADDR, 0x2A, 1, &data, 1, HAL_MAX_DELAY);
 8000580:	222a      	movs	r2, #42	@ 0x2a
		data = 0x07;  // TAP_AXES = 0x07 -> X, Y, Z enabled
 8000582:	702b      	strb	r3, [r5, #0]
		HAL_I2C_Mem_Write(&hi2c1, ADXL_ADDR, 0x2A, 1, &data, 1, HAL_MAX_DELAY);
 8000584:	21a6      	movs	r1, #166	@ 0xa6
 8000586:	0023      	movs	r3, r4
 8000588:	0030      	movs	r0, r6
 800058a:	9702      	str	r7, [sp, #8]
 800058c:	9401      	str	r4, [sp, #4]
 800058e:	9500      	str	r5, [sp, #0]
 8000590:	f001 ff7c 	bl	800248c <HAL_I2C_Mem_Write>

		// 3. Map single tap interrupt to INT1
		data = 0x00;  // 0 = INT1
 8000594:	2200      	movs	r2, #0
		HAL_I2C_Mem_Write(&hi2c1, ADXL_ADDR, ADXL_INT_MAP, 1, &data, 1, HAL_MAX_DELAY);
 8000596:	0023      	movs	r3, r4
		data = 0x00;  // 0 = INT1
 8000598:	702a      	strb	r2, [r5, #0]
		HAL_I2C_Mem_Write(&hi2c1, ADXL_ADDR, ADXL_INT_MAP, 1, &data, 1, HAL_MAX_DELAY);
 800059a:	21a6      	movs	r1, #166	@ 0xa6
 800059c:	0030      	movs	r0, r6
 800059e:	9702      	str	r7, [sp, #8]
 80005a0:	9401      	str	r4, [sp, #4]
 80005a2:	9500      	str	r5, [sp, #0]
 80005a4:	322f      	adds	r2, #47	@ 0x2f
 80005a6:	f001 ff71 	bl	800248c <HAL_I2C_Mem_Write>

            //--------------------------- LINE stays LOW -------------------------


    // Start measurement mode
    data = 0x08;
 80005aa:	2308      	movs	r3, #8
    HAL_I2C_Mem_Write(&hi2c1, ADXL_ADDR, 0x2D, 1, &data, 1, HAL_MAX_DELAY);
 80005ac:	222d      	movs	r2, #45	@ 0x2d
    data = 0x08;
 80005ae:	702b      	strb	r3, [r5, #0]
    HAL_I2C_Mem_Write(&hi2c1, ADXL_ADDR, 0x2D, 1, &data, 1, HAL_MAX_DELAY);
 80005b0:	21a6      	movs	r1, #166	@ 0xa6
 80005b2:	0023      	movs	r3, r4
 80005b4:	0030      	movs	r0, r6
 80005b6:	9702      	str	r7, [sp, #8]
 80005b8:	9401      	str	r4, [sp, #4]
 80005ba:	9500      	str	r5, [sp, #0]
 80005bc:	f001 ff66 	bl	800248c <HAL_I2C_Mem_Write>

    // Wait for stabilization
    Delay_ms(50000);
 80005c0:	4813      	ldr	r0, [pc, #76]	@ (8000610 <init_accelerometer+0x10c>)
 80005c2:	f001 f92f 	bl	8001824 <Delay_ms>

    // NOW clear the interrupt
    uint8_t int_source;
    HAL_I2C_Mem_Read(&hi2c1, ADXL_ADDR, 0x30, 1, &int_source, 1, HAL_MAX_DELAY);
 80005c6:	2317      	movs	r3, #23
 80005c8:	446b      	add	r3, sp
 80005ca:	9300      	str	r3, [sp, #0]
 80005cc:	2230      	movs	r2, #48	@ 0x30
 80005ce:	0023      	movs	r3, r4
 80005d0:	21a6      	movs	r1, #166	@ 0xa6
 80005d2:	0030      	movs	r0, r6
 80005d4:	9702      	str	r7, [sp, #8]
 80005d6:	9401      	str	r4, [sp, #4]
 80005d8:	f002 f832 	bl	8002640 <HAL_I2C_Mem_Read>


    // line goes HIHG ----------------------------------------------------------
    // Re-enable interrupts
    data = 0x10;
 80005dc:	2310      	movs	r3, #16
    HAL_I2C_Mem_Write(&hi2c1, ADXL_ADDR, ADXL_INT_ENABLE, 1, &data, 1, HAL_MAX_DELAY);
 80005de:	222e      	movs	r2, #46	@ 0x2e
    data = 0x10;
 80005e0:	702b      	strb	r3, [r5, #0]
    HAL_I2C_Mem_Write(&hi2c1, ADXL_ADDR, ADXL_INT_ENABLE, 1, &data, 1, HAL_MAX_DELAY);
 80005e2:	21a6      	movs	r1, #166	@ 0xa6
 80005e4:	0023      	movs	r3, r4
 80005e6:	0030      	movs	r0, r6
 80005e8:	9702      	str	r7, [sp, #8]
 80005ea:	9401      	str	r4, [sp, #4]
 80005ec:	9500      	str	r5, [sp, #0]
 80005ee:	f001 ff4d 	bl	800248c <HAL_I2C_Mem_Write>
    // line goes HIHG ----------------------------------------------------------

    // NOW clear the interrupt
        HAL_I2C_Mem_Read(&hi2c1, ADXL_ADDR, 0x30, 1, &int_source, 1, HAL_MAX_DELAY);
 80005f2:	2317      	movs	r3, #23
 80005f4:	446b      	add	r3, sp
 80005f6:	9300      	str	r3, [sp, #0]
 80005f8:	2230      	movs	r2, #48	@ 0x30
 80005fa:	0023      	movs	r3, r4
 80005fc:	21a6      	movs	r1, #166	@ 0xa6
 80005fe:	0030      	movs	r0, r6
 8000600:	9702      	str	r7, [sp, #8]
 8000602:	9401      	str	r4, [sp, #4]
 8000604:	f002 f81c 	bl	8002640 <HAL_I2C_Mem_Read>





}
 8000608:	b007      	add	sp, #28
 800060a:	bdf0      	pop	{r4, r5, r6, r7, pc}
 800060c:	20000304 	.word	0x20000304
 8000610:	0000c350 	.word	0x0000c350

08000614 <Q_onError>:

#ifndef NDEBUG
    // light up the user LED
    //GPIOA->BSRR = (1U << LD4_PIN);  // turn LED on
    // for debugging, hang on in an endless loop...
    for (;;) {
 8000614:	e7fe      	b.n	8000614 <Q_onError>
	...

08000618 <SysTick_Handler>:

void SysTick_Handler(void); // prototype
void SysTick_Handler(void) {
    QK_ISR_ENTRY();   // inform QK about entering an ISR
    sysTickCounter++;
    QF_TICK_X(0U, (void *)0);
 8000618:	2100      	movs	r1, #0
    sysTickCounter++;
 800061a:	4a0a      	ldr	r2, [pc, #40]	@ (8000644 <SysTick_Handler+0x2c>)
void SysTick_Handler(void) {
 800061c:	b510      	push	{r4, lr}
    sysTickCounter++;
 800061e:	6813      	ldr	r3, [r2, #0]
    QF_TICK_X(0U, (void *)0);
 8000620:	0008      	movs	r0, r1
    sysTickCounter++;
 8000622:	3301      	adds	r3, #1
 8000624:	6013      	str	r3, [r2, #0]
    QF_TICK_X(0U, (void *)0);
 8000626:	f003 ff2f 	bl	8004488 <QTimeEvt_tick_>
    uint32_t volatile tmp = SysTick->CTRL; // clear CTRL_COUNTFLAG
    QS_tickTime_ += QS_tickPeriod_; // account for the clock rollover
    Q_UNUSED_PAR(tmp);
#endif

    QK_ISR_EXIT();    // inform QK about exiting an ISR
 800062a:	f003 f9d9 	bl	80039e0 <QF_int_disable_>
 800062e:	f003 ff73 	bl	8004518 <QK_sched_>
 8000632:	2800      	cmp	r0, #0
 8000634:	d003      	beq.n	800063e <SysTick_Handler+0x26>
 8000636:	2280      	movs	r2, #128	@ 0x80
 8000638:	4b03      	ldr	r3, [pc, #12]	@ (8000648 <SysTick_Handler+0x30>)
 800063a:	0552      	lsls	r2, r2, #21
 800063c:	601a      	str	r2, [r3, #0]
 800063e:	f003 f9dd 	bl	80039fc <QF_int_enable_>
}
 8000642:	bd10      	pop	{r4, pc}
 8000644:	200001dc 	.word	0x200001dc
 8000648:	e000ed04 	.word	0xe000ed04

0800064c <BSP_delayMs>:

void BSP_delayMs(uint32_t ms) {
    uint32_t start = sysTickCounter;
 800064c:	4a03      	ldr	r2, [pc, #12]	@ (800065c <BSP_delayMs+0x10>)
 800064e:	6811      	ldr	r1, [r2, #0]
    while ((sysTickCounter - start) < ms);
 8000650:	6813      	ldr	r3, [r2, #0]
 8000652:	1a5b      	subs	r3, r3, r1
 8000654:	4283      	cmp	r3, r0
 8000656:	d3fb      	bcc.n	8000650 <BSP_delayMs+0x4>
}
 8000658:	4770      	bx	lr
 800065a:	46c0      	nop			@ (mov r8, r8)
 800065c:	200001dc 	.word	0x200001dc

08000660 <EXTI0_1_IRQHandler>:
{
    QK_ISR_ENTRY();


    static QEvt const nrfEvt = { NRF_IRQ_SIG, 0U, 0U };
    QACTIVE_POST(AO_RFButton, &nrfEvt, &l_EXTI0_1_IRQHandler);
 8000660:	480c      	ldr	r0, [pc, #48]	@ (8000694 <EXTI0_1_IRQHandler+0x34>)
{
 8000662:	b510      	push	{r4, lr}
    QACTIVE_POST(AO_RFButton, &nrfEvt, &l_EXTI0_1_IRQHandler);
 8000664:	2300      	movs	r3, #0
 8000666:	490c      	ldr	r1, [pc, #48]	@ (8000698 <EXTI0_1_IRQHandler+0x38>)
 8000668:	4a0c      	ldr	r2, [pc, #48]	@ (800069c <EXTI0_1_IRQHandler+0x3c>)
 800066a:	6800      	ldr	r0, [r0, #0]
 800066c:	f003 fbfe 	bl	8003e6c <QActive_post_>



    __HAL_GPIO_EXTI_CLEAR_IT(RF_BUTTON_PIN);
 8000670:	2201      	movs	r2, #1
 8000672:	4b0b      	ldr	r3, [pc, #44]	@ (80006a0 <EXTI0_1_IRQHandler+0x40>)
 8000674:	60da      	str	r2, [r3, #12]
 8000676:	611a      	str	r2, [r3, #16]


    QK_ISR_EXIT();
 8000678:	f003 f9b2 	bl	80039e0 <QF_int_disable_>
 800067c:	f003 ff4c 	bl	8004518 <QK_sched_>
 8000680:	2800      	cmp	r0, #0
 8000682:	d003      	beq.n	800068c <EXTI0_1_IRQHandler+0x2c>
 8000684:	2280      	movs	r2, #128	@ 0x80
 8000686:	4b07      	ldr	r3, [pc, #28]	@ (80006a4 <EXTI0_1_IRQHandler+0x44>)
 8000688:	0552      	lsls	r2, r2, #21
 800068a:	601a      	str	r2, [r3, #0]
 800068c:	f003 f9b6 	bl	80039fc <QF_int_enable_>
}
 8000690:	bd10      	pop	{r4, pc}
 8000692:	46c0      	nop			@ (mov r8, r8)
 8000694:	080063a4 	.word	0x080063a4
 8000698:	0800638c 	.word	0x0800638c
 800069c:	0000ffff 	.word	0x0000ffff
 80006a0:	40021800 	.word	0x40021800
 80006a4:	e000ed04 	.word	0xe000ed04

080006a8 <TIM3_IRQHandler>:
  * @param  TIMx Timer instance
  * @retval State of bit (1 or 0).
  */
__STATIC_INLINE uint32_t LL_TIM_IsActiveFlag_CC1(const TIM_TypeDef *TIMx)
{
  return ((READ_BIT(TIMx->SR, TIM_SR_CC1IF) == (TIM_SR_CC1IF)) ? 1UL : 0UL);
 80006a8:	4b1a      	ldr	r3, [pc, #104]	@ (8000714 <TIM3_IRQHandler+0x6c>)

static uint32_t timestamps[TIMESTAMP_SIZE];
static uint8_t pulseCount = 0;
static bool start_dht11 = false;
void TIM3_IRQHandler(void)
{
 80006aa:	b570      	push	{r4, r5, r6, lr}
 80006ac:	691a      	ldr	r2, [r3, #16]
 80006ae:	0792      	lsls	r2, r2, #30
 80006b0:	d522      	bpl.n	80006f8 <TIM3_IRQHandler+0x50>
  WRITE_REG(TIMx->SR, ~(TIM_SR_CC1IF));
 80006b2:	2203      	movs	r2, #3
 80006b4:	4252      	negs	r2, r2
 80006b6:	611a      	str	r2, [r3, #16]
  return (uint32_t)(READ_REG(TIMx->CCR1));
 80006b8:	6b59      	ldr	r1, [r3, #52]	@ 0x34
        LL_TIM_ClearFlag_CC1(TIM3);

        // Read the captured value (timer ticks)
		uint32_t capture = LL_TIM_IC_GetCaptureCH1(TIM3);

		if(capture >= 79 && capture <= 90)
 80006ba:	4c17      	ldr	r4, [pc, #92]	@ (8000718 <TIM3_IRQHandler+0x70>)
 80006bc:	000b      	movs	r3, r1
 80006be:	3b4f      	subs	r3, #79	@ 0x4f
 80006c0:	2b0b      	cmp	r3, #11
 80006c2:	d816      	bhi.n	80006f2 <TIM3_IRQHandler+0x4a>
		{
			start_dht11 = true;
 80006c4:	2301      	movs	r3, #1
 80006c6:	7023      	strb	r3, [r4, #0]
		{
			QK_ISR_EXIT();
			return;
		}

		timestamps[pulseCount] = capture;
 80006c8:	4d14      	ldr	r5, [pc, #80]	@ (800071c <TIM3_IRQHandler+0x74>)
 80006ca:	4a15      	ldr	r2, [pc, #84]	@ (8000720 <TIM3_IRQHandler+0x78>)
 80006cc:	782b      	ldrb	r3, [r5, #0]
 80006ce:	0098      	lsls	r0, r3, #2
		pulseCount++;
 80006d0:	3301      	adds	r3, #1
 80006d2:	b2db      	uxtb	r3, r3
		timestamps[pulseCount] = capture;
 80006d4:	5081      	str	r1, [r0, r2]
		pulseCount++;
 80006d6:	702b      	strb	r3, [r5, #0]
		//pulseCount %= TIMESTAMP_SIZE;

		if (pulseCount >= TIMESTAMP_SIZE) {
 80006d8:	2b51      	cmp	r3, #81	@ 0x51
 80006da:	d90d      	bls.n	80006f8 <TIM3_IRQHandler+0x50>
		    static QEvt const dht11CompleteEvt = QEVT_INITIALIZER(DHT11_TIMER_IC_SIG);
		    QACTIVE_POST(AO_Sensor, &dht11CompleteEvt, 0U);
 80006dc:	4811      	ldr	r0, [pc, #68]	@ (8000724 <TIM3_IRQHandler+0x7c>)
 80006de:	2300      	movs	r3, #0
 80006e0:	4911      	ldr	r1, [pc, #68]	@ (8000728 <TIM3_IRQHandler+0x80>)
 80006e2:	4a12      	ldr	r2, [pc, #72]	@ (800072c <TIM3_IRQHandler+0x84>)
 80006e4:	6800      	ldr	r0, [r0, #0]
 80006e6:	f003 fbc1 	bl	8003e6c <QActive_post_>
		    pulseCount = 0;
 80006ea:	2300      	movs	r3, #0
 80006ec:	702b      	strb	r3, [r5, #0]
		    start_dht11 = false;
 80006ee:	7023      	strb	r3, [r4, #0]
		}
    }

    QK_ISR_EXIT();
 80006f0:	e002      	b.n	80006f8 <TIM3_IRQHandler+0x50>
		if(!start_dht11) //ignore stuff before ACK
 80006f2:	7823      	ldrb	r3, [r4, #0]
 80006f4:	2b00      	cmp	r3, #0
 80006f6:	d1e7      	bne.n	80006c8 <TIM3_IRQHandler+0x20>
			QK_ISR_EXIT();
 80006f8:	f003 f972 	bl	80039e0 <QF_int_disable_>
 80006fc:	f003 ff0c 	bl	8004518 <QK_sched_>
 8000700:	2800      	cmp	r0, #0
 8000702:	d003      	beq.n	800070c <TIM3_IRQHandler+0x64>
 8000704:	2280      	movs	r2, #128	@ 0x80
 8000706:	4b0a      	ldr	r3, [pc, #40]	@ (8000730 <TIM3_IRQHandler+0x88>)
 8000708:	0552      	lsls	r2, r2, #21
 800070a:	601a      	str	r2, [r3, #0]
 800070c:	f003 f976 	bl	80039fc <QF_int_enable_>
}
 8000710:	bd70      	pop	{r4, r5, r6, pc}
 8000712:	46c0      	nop			@ (mov r8, r8)
 8000714:	40000400 	.word	0x40000400
 8000718:	20000090 	.word	0x20000090
 800071c:	20000091 	.word	0x20000091
 8000720:	20000094 	.word	0x20000094
 8000724:	080063a8 	.word	0x080063a8
 8000728:	08006384 	.word	0x08006384
 800072c:	0000ffff 	.word	0x0000ffff
 8000730:	e000ed04 	.word	0xe000ed04

08000734 <BSP_get_timestamps>:

void BSP_get_timestamps(uint32_t *dest) {
 8000734:	b510      	push	{r4, lr}
 8000736:	0004      	movs	r4, r0
    QF_CRIT_STAT
    QF_CRIT_ENTRY();
 8000738:	f003 f96e 	bl	8003a18 <QF_crit_entry_>
    memcpy(dest, timestamps, sizeof(timestamps));
 800073c:	22a4      	movs	r2, #164	@ 0xa4
 800073e:	4904      	ldr	r1, [pc, #16]	@ (8000750 <BSP_get_timestamps+0x1c>)
 8000740:	0052      	lsls	r2, r2, #1
 8000742:	0020      	movs	r0, r4
 8000744:	f004 fea1 	bl	800548a <memcpy>
    QF_CRIT_EXIT();
 8000748:	f003 f974 	bl	8003a34 <QF_crit_exit_>
}
 800074c:	bd10      	pop	{r4, pc}
 800074e:	46c0      	nop			@ (mov r8, r8)
 8000750:	20000094 	.word	0x20000094

08000754 <EXTI4_15_IRQHandler>:



void EXTI4_15_IRQHandler(void)
{
 8000754:	b510      	push	{r4, lr}
	QK_ISR_ENTRY();
    HAL_GPIO_EXTI_IRQHandler(GPIO_PIN_7);
 8000756:	2080      	movs	r0, #128	@ 0x80
 8000758:	f001 fcf4 	bl	8002144 <HAL_GPIO_EXTI_IRQHandler>
    QK_ISR_EXIT();
 800075c:	f003 f940 	bl	80039e0 <QF_int_disable_>
 8000760:	f003 feda 	bl	8004518 <QK_sched_>
 8000764:	2800      	cmp	r0, #0
 8000766:	d003      	beq.n	8000770 <EXTI4_15_IRQHandler+0x1c>
 8000768:	2280      	movs	r2, #128	@ 0x80
 800076a:	4b03      	ldr	r3, [pc, #12]	@ (8000778 <EXTI4_15_IRQHandler+0x24>)
 800076c:	0552      	lsls	r2, r2, #21
 800076e:	601a      	str	r2, [r3, #0]
 8000770:	f003 f944 	bl	80039fc <QF_int_enable_>
}
 8000774:	bd10      	pop	{r4, pc}
 8000776:	46c0      	nop			@ (mov r8, r8)
 8000778:	e000ed04 	.word	0xe000ed04

0800077c <HAL_GPIO_EXTI_Rising_Callback>:


void HAL_GPIO_EXTI_Rising_Callback(uint16_t GPIO_Pin)
{
 800077c:	b530      	push	{r4, r5, lr}
 800077e:	0004      	movs	r4, r0
 8000780:	b087      	sub	sp, #28
		printf("rising edge \n");
 8000782:	4818      	ldr	r0, [pc, #96]	@ (80007e4 <HAL_GPIO_EXTI_Rising_Callback+0x68>)
 8000784:	f004 fcd4 	bl	8005130 <puts>
		 if (GPIO_Pin == GPIO_PIN_7) {
 8000788:	2c80      	cmp	r4, #128	@ 0x80
 800078a:	d128      	bne.n	80007de <HAL_GPIO_EXTI_Rising_Callback+0x62>
		        uint8_t src;
		        //HAL_I2C_Mem_Read(&hi2c1, ADXL_ADDR, ADXL_INT_SOURCE, 1, &src, 1, HAL_MAX_DELAY);
		        HAL_I2C_Mem_Read(&hi2c1, ADXL_ADDR, 0x30, 1, &src, 1, HAL_MAX_DELAY);
 800078c:	2301      	movs	r3, #1
 800078e:	4d16      	ldr	r5, [pc, #88]	@ (80007e8 <HAL_GPIO_EXTI_Rising_Callback+0x6c>)
 8000790:	425b      	negs	r3, r3
 8000792:	3c69      	subs	r4, #105	@ 0x69
 8000794:	9302      	str	r3, [sp, #8]
 8000796:	446c      	add	r4, sp
 8000798:	3302      	adds	r3, #2
 800079a:	9301      	str	r3, [sp, #4]
 800079c:	2230      	movs	r2, #48	@ 0x30
 800079e:	21a6      	movs	r1, #166	@ 0xa6
 80007a0:	0028      	movs	r0, r5
 80007a2:	9400      	str	r4, [sp, #0]
 80007a4:	f001 ff4c 	bl	8002640 <HAL_I2C_Mem_Read>

		        if (src & 0x10) { // Bit 4 = Activity interrupt
 80007a8:	7823      	ldrb	r3, [r4, #0]
 80007aa:	06db      	lsls	r3, r3, #27
 80007ac:	d502      	bpl.n	80007b4 <HAL_GPIO_EXTI_Rising_Callback+0x38>
		            printf("💥 Shake detected!\n");
 80007ae:	480f      	ldr	r0, [pc, #60]	@ (80007ec <HAL_GPIO_EXTI_Rising_Callback+0x70>)
 80007b0:	f004 fcbe 	bl	8005130 <puts>

		        }
				if(src & 0x40) // SINGLE_TAP bit
 80007b4:	7823      	ldrb	r3, [r4, #0]
 80007b6:	065b      	lsls	r3, r3, #25
 80007b8:	d502      	bpl.n	80007c0 <HAL_GPIO_EXTI_Rising_Callback+0x44>
				{
					// Tap detected
					// Example: toggle an LED
					printf("tap!\n");
 80007ba:	480d      	ldr	r0, [pc, #52]	@ (80007f0 <HAL_GPIO_EXTI_Rising_Callback+0x74>)
 80007bc:	f004 fcb8 	bl	8005130 <puts>
				}
				//  clear the interrupt
				HAL_I2C_Mem_Read(&hi2c1, ADXL_ADDR, 0x30, 1, &src, 1, HAL_MAX_DELAY);
 80007c0:	2301      	movs	r3, #1
 80007c2:	425b      	negs	r3, r3
 80007c4:	9302      	str	r3, [sp, #8]
 80007c6:	3302      	adds	r3, #2
 80007c8:	2230      	movs	r2, #48	@ 0x30
 80007ca:	9301      	str	r3, [sp, #4]
 80007cc:	21a6      	movs	r1, #166	@ 0xa6
 80007ce:	0028      	movs	r0, r5
 80007d0:	9400      	str	r4, [sp, #0]
 80007d2:	f001 ff35 	bl	8002640 <HAL_I2C_Mem_Read>
				__HAL_GPIO_EXTI_CLEAR_IT(GPIO_Pin);
 80007d6:	2280      	movs	r2, #128	@ 0x80
 80007d8:	4b06      	ldr	r3, [pc, #24]	@ (80007f4 <HAL_GPIO_EXTI_Rising_Callback+0x78>)
 80007da:	60da      	str	r2, [r3, #12]
 80007dc:	611a      	str	r2, [r3, #16]

		    }
}
 80007de:	b007      	add	sp, #28
 80007e0:	bd30      	pop	{r4, r5, pc}
 80007e2:	46c0      	nop			@ (mov r8, r8)
 80007e4:	0800621e 	.word	0x0800621e
 80007e8:	20000304 	.word	0x20000304
 80007ec:	0800622b 	.word	0x0800622b
 80007f0:	08006240 	.word	0x08006240
 80007f4:	40021800 	.word	0x40021800

080007f8 <BSP_init>:


//============================================================================
// BSP functions...

void BSP_init(void) {
 80007f8:	b570      	push	{r4, r5, r6, lr}
    // Initialize LEDs, buttons, UART, etc.
    //HAL_Init();
    SystemClock_Config();  // configure system clock
 80007fa:	f000 f8f7 	bl	80009ec <SystemClock_Config>
    HAL_SYSTICK_Config(HAL_RCC_GetHCLKFreq() / 1000U);
 80007fe:	f002 fa4d 	bl	8002c9c <HAL_RCC_GetHCLKFreq>
 8000802:	21fa      	movs	r1, #250	@ 0xfa
 8000804:	0089      	lsls	r1, r1, #2
 8000806:	f7ff fc93 	bl	8000130 <__udivsi3>
 800080a:	f001 fbbf 	bl	8001f8c <HAL_SYSTICK_Config>
  SET_BIT(TIMx->CR1, TIM_CR1_CEN);
 800080e:	2201      	movs	r2, #1
 8000810:	4922      	ldr	r1, [pc, #136]	@ (800089c <BSP_init+0xa4>)
  MODIFY_REG(*pReg, ((TIM_CCMR1_CC1S) << SHIFT_TAB_ICxx[iChannel]), (ICActiveInput >> 16U) << SHIFT_TAB_ICxx[iChannel]);
 8000812:	2403      	movs	r4, #3
  SET_BIT(TIMx->CR1, TIM_CR1_CEN);
 8000814:	680b      	ldr	r3, [r1, #0]
 */
__STATIC_INLINE void __NVIC_SetPriority(IRQn_Type IRQn, uint32_t priority)
{
  if ((int32_t)(IRQn) >= 0)
  {
    NVIC->IP[_IP_IDX(IRQn)]  = ((uint32_t)(NVIC->IP[_IP_IDX(IRQn)]  & ~(0xFFUL << _BIT_SHIFT(IRQn))) |
 8000816:	25ff      	movs	r5, #255	@ 0xff
 8000818:	4313      	orrs	r3, r2
 800081a:	600b      	str	r3, [r1, #0]
 800081c:	4920      	ldr	r1, [pc, #128]	@ (80008a0 <BSP_init+0xa8>)
 800081e:	680b      	ldr	r3, [r1, #0]
 8000820:	4313      	orrs	r3, r2
 8000822:	600b      	str	r3, [r1, #0]
 8000824:	4b1f      	ldr	r3, [pc, #124]	@ (80008a4 <BSP_init+0xac>)
 8000826:	6819      	ldr	r1, [r3, #0]
 8000828:	4311      	orrs	r1, r2
 800082a:	6019      	str	r1, [r3, #0]
  MODIFY_REG(TIMx->SMCR, TIM_SMCR_SMS, SlaveMode);
 800082c:	6898      	ldr	r0, [r3, #8]
 800082e:	491e      	ldr	r1, [pc, #120]	@ (80008a8 <BSP_init+0xb0>)
 8000830:	4008      	ands	r0, r1
 8000832:	2104      	movs	r1, #4
 8000834:	4301      	orrs	r1, r0
 8000836:	6099      	str	r1, [r3, #8]
  MODIFY_REG(TIMx->SMCR, TIM_SMCR_TS, TriggerInput);
 8000838:	6898      	ldr	r0, [r3, #8]
 800083a:	491c      	ldr	r1, [pc, #112]	@ (80008ac <BSP_init+0xb4>)
 800083c:	4008      	ands	r0, r1
 800083e:	2150      	movs	r1, #80	@ 0x50
 8000840:	4301      	orrs	r1, r0
 8000842:	6099      	str	r1, [r3, #8]
  MODIFY_REG(*pReg, ((TIM_CCMR1_CC1S) << SHIFT_TAB_ICxx[iChannel]), (ICActiveInput >> 16U) << SHIFT_TAB_ICxx[iChannel]);
 8000844:	491a      	ldr	r1, [pc, #104]	@ (80008b0 <BSP_init+0xb8>)
 8000846:	6808      	ldr	r0, [r1, #0]
 8000848:	43a0      	bics	r0, r4
 800084a:	4310      	orrs	r0, r2
 800084c:	6008      	str	r0, [r1, #0]
  MODIFY_REG(TIMx->CCER, ((TIM_CCER_CC1NP | TIM_CCER_CC1P) << SHIFT_TAB_CCxP[iChannel]),
 800084e:	6a18      	ldr	r0, [r3, #32]
 8000850:	3407      	adds	r4, #7
 8000852:	4320      	orrs	r0, r4
 8000854:	6218      	str	r0, [r3, #32]
  MODIFY_REG(*pReg, ((TIM_CCMR1_IC1PSC) << SHIFT_TAB_ICxx[iChannel]), (ICPrescaler >> 16U) << SHIFT_TAB_ICxx[iChannel]);
 8000856:	6808      	ldr	r0, [r1, #0]
 8000858:	3402      	adds	r4, #2
 800085a:	43a0      	bics	r0, r4
 800085c:	6008      	str	r0, [r1, #0]
  MODIFY_REG(*pReg, ((TIM_CCMR1_IC1F) << SHIFT_TAB_ICxx[iChannel]), (ICFilter >> 16U) << SHIFT_TAB_ICxx[iChannel]);
 800085e:	6808      	ldr	r0, [r1, #0]
 8000860:	34e4      	adds	r4, #228	@ 0xe4
 8000862:	43a0      	bics	r0, r4
 8000864:	24c4      	movs	r4, #196	@ 0xc4
 8000866:	6008      	str	r0, [r1, #0]
 8000868:	4912      	ldr	r1, [pc, #72]	@ (80008b4 <BSP_init+0xbc>)
 800086a:	00a4      	lsls	r4, r4, #2
 800086c:	5908      	ldr	r0, [r1, r4]
 800086e:	43a8      	bics	r0, r5
 8000870:	5108      	str	r0, [r1, r4]
    NVIC->ISER[0U] = (uint32_t)(1UL << (((uint32_t)IRQn) & 0x1FUL));
 8000872:	2080      	movs	r0, #128	@ 0x80
 8000874:	0240      	lsls	r0, r0, #9
 8000876:	6008      	str	r0, [r1, #0]
  SET_BIT(TIMx->CCER, Channels);
 8000878:	6a19      	ldr	r1, [r3, #32]
 800087a:	4311      	orrs	r1, r2
 800087c:	6219      	str	r1, [r3, #32]
  SET_BIT(TIMx->CR1, TIM_CR1_CEN);
 800087e:	6819      	ldr	r1, [r3, #0]
 8000880:	430a      	orrs	r2, r1
 8000882:	601a      	str	r2, [r3, #0]
  * @param  TIMx Timer instance
  * @retval None
  */
__STATIC_INLINE void LL_TIM_EnableIT_CC1(TIM_TypeDef *TIMx)
{
  SET_BIT(TIMx->DIER, TIM_DIER_CC1IE);
 8000884:	2202      	movs	r2, #2
 8000886:	68d9      	ldr	r1, [r3, #12]
 8000888:	430a      	orrs	r2, r1
 800088a:	60da      	str	r2, [r3, #12]
	LL_TIM_EnableCounter(TIM3);          // counter enabled
	LL_TIM_EnableIT_CC1(TIM3);           // interrupt enabled



	ssd1306_Init();
 800088c:	f004 fac2 	bl	8004e14 <ssd1306_Init>
	init_nrf();
 8000890:	f7ff fdc4 	bl	800041c <init_nrf>
	init_accelerometer();
 8000894:	f7ff fe36 	bl	8000504 <init_accelerometer>

	// Start input capture with DMA
	//HAL_TIM_IC_Start_DMA(&htim3, TIM_CHANNEL_1, (uint32_t *)dht11_dma_buffer, DHT11_MAX_EDGES);
	//printf("test \n");

}
 8000898:	bd70      	pop	{r4, r5, r6, pc}
 800089a:	46c0      	nop			@ (mov r8, r8)
 800089c:	40014800 	.word	0x40014800
 80008a0:	40002000 	.word	0x40002000
 80008a4:	40000400 	.word	0x40000400
 80008a8:	fffefff8 	.word	0xfffefff8
 80008ac:	ffcfff8f 	.word	0xffcfff8f
 80008b0:	40000418 	.word	0x40000418
 80008b4:	e000e100 	.word	0xe000e100

080008b8 <QF_onStartup>:

//============================================================================
// QF callbacks...
void QF_onStartup(void) {
    // set up the SysTick timer to fire at BSP_TICKS_PER_SEC rate
    SysTick_Config(SystemCoreClock / BSP_TICKS_PER_SEC);
 80008b8:	4b1b      	ldr	r3, [pc, #108]	@ (8000928 <QF_onStartup+0x70>)
 80008ba:	2164      	movs	r1, #100	@ 0x64
 80008bc:	6818      	ldr	r0, [r3, #0]
void QF_onStartup(void) {
 80008be:	b510      	push	{r4, lr}
    SysTick_Config(SystemCoreClock / BSP_TICKS_PER_SEC);
 80008c0:	f7ff fc36 	bl	8000130 <__udivsi3>
           function <b>SysTick_Config</b> is not included. In this case, the file <b><i>device</i>.h</b>
           must contain a vendor-specific implementation of this function.
 */
__STATIC_INLINE uint32_t SysTick_Config(uint32_t ticks)
{
  if ((ticks - 1UL) > SysTick_LOAD_RELOAD_Msk)
 80008c4:	2380      	movs	r3, #128	@ 0x80
 80008c6:	3801      	subs	r0, #1
 80008c8:	4918      	ldr	r1, [pc, #96]	@ (800092c <QF_onStartup+0x74>)
 80008ca:	045b      	lsls	r3, r3, #17
 80008cc:	4298      	cmp	r0, r3
 80008ce:	d20c      	bcs.n	80008ea <QF_onStartup+0x32>
  {
    return (1UL);                                                   /* Reload value impossible */
  }

  SysTick->LOAD  = (uint32_t)(ticks - 1UL);                         /* set reload register */
 80008d0:	4a17      	ldr	r2, [pc, #92]	@ (8000930 <QF_onStartup+0x78>)
 80008d2:	6050      	str	r0, [r2, #4]
    SCB->SHP[_SHP_IDX(IRQn)] = ((uint32_t)(SCB->SHP[_SHP_IDX(IRQn)] & ~(0xFFUL << _BIT_SHIFT(IRQn))) |
 80008d4:	20c0      	movs	r0, #192	@ 0xc0
 80008d6:	6a0b      	ldr	r3, [r1, #32]
 80008d8:	0600      	lsls	r0, r0, #24
 80008da:	021b      	lsls	r3, r3, #8
 80008dc:	0a1b      	lsrs	r3, r3, #8
 80008de:	4303      	orrs	r3, r0
 80008e0:	620b      	str	r3, [r1, #32]
  NVIC_SetPriority (SysTick_IRQn, (1UL << __NVIC_PRIO_BITS) - 1UL); /* set Priority for Systick Interrupt */
  SysTick->VAL   = 0UL;                                             /* Load the SysTick Counter Value */
 80008e2:	2300      	movs	r3, #0
 80008e4:	6093      	str	r3, [r2, #8]
  SysTick->CTRL  = SysTick_CTRL_CLKSOURCE_Msk |
 80008e6:	3307      	adds	r3, #7
 80008e8:	6013      	str	r3, [r2, #0]
    NVIC->IP[_IP_IDX(IRQn)]  = ((uint32_t)(NVIC->IP[_IP_IDX(IRQn)]  & ~(0xFFUL << _BIT_SHIFT(IRQn))) |
 80008ea:	20c7      	movs	r0, #199	@ 0xc7
 80008ec:	24ff      	movs	r4, #255	@ 0xff
 80008ee:	4b11      	ldr	r3, [pc, #68]	@ (8000934 <QF_onStartup+0x7c>)
 80008f0:	0080      	lsls	r0, r0, #2
 80008f2:	581a      	ldr	r2, [r3, r0]
 80008f4:	43a2      	bics	r2, r4
 80008f6:	501a      	str	r2, [r3, r0]
 80008f8:	3818      	subs	r0, #24
 80008fa:	581a      	ldr	r2, [r3, r0]
 80008fc:	4c0e      	ldr	r4, [pc, #56]	@ (8000938 <QF_onStartup+0x80>)
 80008fe:	4022      	ands	r2, r4
 8000900:	2480      	movs	r4, #128	@ 0x80
 8000902:	501a      	str	r2, [r3, r0]
 8000904:	581a      	ldr	r2, [r3, r0]
 8000906:	0624      	lsls	r4, r4, #24
 8000908:	0212      	lsls	r2, r2, #8
 800090a:	0a12      	lsrs	r2, r2, #8
 800090c:	4322      	orrs	r2, r4
 800090e:	501a      	str	r2, [r3, r0]
    SCB->SHP[_SHP_IDX(IRQn)] = ((uint32_t)(SCB->SHP[_SHP_IDX(IRQn)] & ~(0xFFUL << _BIT_SHIFT(IRQn))) |
 8000910:	20c0      	movs	r0, #192	@ 0xc0
 8000912:	6a0a      	ldr	r2, [r1, #32]
 8000914:	0600      	lsls	r0, r0, #24
 8000916:	0212      	lsls	r2, r2, #8
 8000918:	0a12      	lsrs	r2, r2, #8
 800091a:	4302      	orrs	r2, r0
 800091c:	620a      	str	r2, [r1, #32]
    NVIC->ISER[0U] = (uint32_t)(1UL << (((uint32_t)IRQn) & 0x1FUL));
 800091e:	2220      	movs	r2, #32
 8000920:	601a      	str	r2, [r3, #0]
 8000922:	3260      	adds	r2, #96	@ 0x60
 8000924:	601a      	str	r2, [r3, #0]
    NVIC_EnableIRQ(EXTI4_15_IRQn);

#ifdef Q_SPY
    NVIC_EnableIRQ(USART2_IRQn); // UART2 interrupt used for QS-RX
#endif
}
 8000926:	bd10      	pop	{r4, pc}
 8000928:	20000000 	.word	0x20000000
 800092c:	e000ed00 	.word	0xe000ed00
 8000930:	e000e010 	.word	0xe000e010
 8000934:	e000e100 	.word	0xe000e100
 8000938:	ffff00ff 	.word	0xffff00ff

0800093c <QK_onIdle>:
//............................................................................
void QF_onCleanup(void) {
}

//............................................................................
void QK_onIdle(void) {
 800093c:	4770      	bx	lr
	...

08000940 <display_temp>:

static void display_text(char * text, uint8_t x, uint8_t y);
static void RectangleFill(uint8_t percent);

void display_temp(uint16_t temp)
{
 8000940:	b530      	push	{r4, r5, lr}
 8000942:	0004      	movs	r4, r0
static void display_text(char * text, uint8_t x, uint8_t y) {
    //ssd1306_Fill(Black);

    ssd1306_SetCursor(x, y);

    ssd1306_WriteString(text, Font_16x26, White);
 8000944:	2501      	movs	r5, #1
{
 8000946:	b087      	sub	sp, #28
	ssd1306_Fill(Black);
 8000948:	2000      	movs	r0, #0
 800094a:	f004 f967 	bl	8004c1c <ssd1306_Fill>
	sprintf(buffer, "%u", temp);
 800094e:	0022      	movs	r2, r4
 8000950:	490f      	ldr	r1, [pc, #60]	@ (8000990 <display_temp+0x50>)
 8000952:	a802      	add	r0, sp, #8
 8000954:	f004 fbf6 	bl	8005144 <siprintf>
    ssd1306_SetCursor(x, y);
 8000958:	2104      	movs	r1, #4
 800095a:	2000      	movs	r0, #0
 800095c:	f004 fa0e 	bl	8004d7c <ssd1306_SetCursor>
    ssd1306_WriteString(text, Font_16x26, White);
 8000960:	4c0c      	ldr	r4, [pc, #48]	@ (8000994 <display_temp+0x54>)
 8000962:	9500      	str	r5, [sp, #0]
 8000964:	6821      	ldr	r1, [r4, #0]
 8000966:	6862      	ldr	r2, [r4, #4]
 8000968:	68a3      	ldr	r3, [r4, #8]
 800096a:	a802      	add	r0, sp, #8
 800096c:	f004 f9ec 	bl	8004d48 <ssd1306_WriteString>

    ssd1306_UpdateScreen();
 8000970:	f004 f962 	bl	8004c38 <ssd1306_UpdateScreen>
    ssd1306_SetCursor(x, y);
 8000974:	2104      	movs	r1, #4
 8000976:	201e      	movs	r0, #30
 8000978:	f004 fa00 	bl	8004d7c <ssd1306_SetCursor>
    ssd1306_WriteString(text, Font_16x26, White);
 800097c:	cc0e      	ldmia	r4!, {r1, r2, r3}
 800097e:	9500      	str	r5, [sp, #0]
 8000980:	4805      	ldr	r0, [pc, #20]	@ (8000998 <display_temp+0x58>)
 8000982:	f004 f9e1 	bl	8004d48 <ssd1306_WriteString>
    ssd1306_UpdateScreen();
 8000986:	f004 f957 	bl	8004c38 <ssd1306_UpdateScreen>
}
 800098a:	b007      	add	sp, #28
 800098c:	bd30      	pop	{r4, r5, pc}
 800098e:	46c0      	nop			@ (mov r8, r8)
 8000990:	08006245 	.word	0x08006245
 8000994:	080064ec 	.word	0x080064ec
 8000998:	08006248 	.word	0x08006248

0800099c <display_dry>:
{
 800099c:	b510      	push	{r4, lr}
 800099e:	0004      	movs	r4, r0
 80009a0:	b086      	sub	sp, #24
	ssd1306_Fill(Black);
 80009a2:	2000      	movs	r0, #0
 80009a4:	f004 f93a 	bl	8004c1c <ssd1306_Fill>
	sprintf(buffer, "%u", dryness_percent);
 80009a8:	0022      	movs	r2, r4
 80009aa:	490b      	ldr	r1, [pc, #44]	@ (80009d8 <display_dry+0x3c>)
 80009ac:	a802      	add	r0, sp, #8
 80009ae:	f004 fbc9 	bl	8005144 <siprintf>
}


static void RectangleFill(uint8_t percent) {
	percent = 100U - percent; //invert so dryness is less white block
 80009b2:	2164      	movs	r1, #100	@ 0x64
	uint8_t x2 = (SSD1306_WIDTH-1) * percent / 100;
 80009b4:	207f      	movs	r0, #127	@ 0x7f
	percent = 100U - percent; //invert so dryness is less white block
 80009b6:	1b0c      	subs	r4, r1, r4
	uint8_t x2 = (SSD1306_WIDTH-1) * percent / 100;
 80009b8:	b2e4      	uxtb	r4, r4
 80009ba:	4360      	muls	r0, r4
 80009bc:	f7ff fc42 	bl	8000244 <__divsi3>

	ssd1306_FillRectangle(1, 1, x2, SSD1306_HEIGHT-1, White);
 80009c0:	b2c2      	uxtb	r2, r0
 80009c2:	2001      	movs	r0, #1
 80009c4:	231f      	movs	r3, #31
 80009c6:	0001      	movs	r1, r0
 80009c8:	9000      	str	r0, [sp, #0]
 80009ca:	f004 f9dd 	bl	8004d88 <ssd1306_FillRectangle>
	ssd1306_UpdateScreen();
 80009ce:	f004 f933 	bl	8004c38 <ssd1306_UpdateScreen>
}
 80009d2:	b006      	add	sp, #24
 80009d4:	bd10      	pop	{r4, pc}
 80009d6:	46c0      	nop			@ (mov r8, r8)
 80009d8:	08006245 	.word	0x08006245

080009dc <Error_Handler>:
/**
  * @brief  This function is executed in case of error occurrence.
  * @retval None
  */
void Error_Handler(void)
{
 80009dc:	b510      	push	{r4, lr}
  \details Disables IRQ interrupts by setting special-purpose register PRIMASK.
           Can only be executed in Privileged modes.
 */
__STATIC_FORCEINLINE void __disable_irq(void)
{
  __ASM volatile ("cpsid i" : : : "memory");
 80009de:	b672      	cpsid	i
  /* USER CODE BEGIN Error_Handler_Debug */
  /* User can add his own implementation to report the HAL error return state */
  __disable_irq();
  Q_onError("HAL Error", 0U);
 80009e0:	2100      	movs	r1, #0
 80009e2:	4801      	ldr	r0, [pc, #4]	@ (80009e8 <Error_Handler+0xc>)
 80009e4:	f7ff fe16 	bl	8000614 <Q_onError>
 80009e8:	0800624a 	.word	0x0800624a

080009ec <SystemClock_Config>:
{
 80009ec:	b530      	push	{r4, r5, lr}
  __HAL_FLASH_SET_LATENCY(FLASH_LATENCY_1);
 80009ee:	2507      	movs	r5, #7
 80009f0:	2401      	movs	r4, #1
{
 80009f2:	b08d      	sub	sp, #52	@ 0x34
  RCC_OscInitTypeDef RCC_OscInitStruct = {0};
 80009f4:	2214      	movs	r2, #20
 80009f6:	2100      	movs	r1, #0
 80009f8:	a807      	add	r0, sp, #28
 80009fa:	f004 fcc3 	bl	8005384 <memset>
  RCC_ClkInitTypeDef RCC_ClkInitStruct = {0};
 80009fe:	2214      	movs	r2, #20
 8000a00:	2100      	movs	r1, #0
 8000a02:	4668      	mov	r0, sp
 8000a04:	f004 fcbe 	bl	8005384 <memset>
  __HAL_FLASH_SET_LATENCY(FLASH_LATENCY_1);
 8000a08:	4a0e      	ldr	r2, [pc, #56]	@ (8000a44 <SystemClock_Config+0x58>)
  if (HAL_RCC_OscConfig(&RCC_OscInitStruct) != HAL_OK)
 8000a0a:	a805      	add	r0, sp, #20
  __HAL_FLASH_SET_LATENCY(FLASH_LATENCY_1);
 8000a0c:	6813      	ldr	r3, [r2, #0]
 8000a0e:	43ab      	bics	r3, r5
 8000a10:	4323      	orrs	r3, r4
 8000a12:	6013      	str	r3, [r2, #0]
  RCC_OscInitStruct.HSEState = RCC_HSE_ON;
 8000a14:	2380      	movs	r3, #128	@ 0x80
 8000a16:	025b      	lsls	r3, r3, #9
  RCC_OscInitStruct.OscillatorType = RCC_OSCILLATORTYPE_HSE;
 8000a18:	9405      	str	r4, [sp, #20]
  RCC_OscInitStruct.HSEState = RCC_HSE_ON;
 8000a1a:	9306      	str	r3, [sp, #24]
  if (HAL_RCC_OscConfig(&RCC_OscInitStruct) != HAL_OK)
 8000a1c:	f001 ff38 	bl	8002890 <HAL_RCC_OscConfig>
 8000a20:	2800      	cmp	r0, #0
 8000a22:	d001      	beq.n	8000a28 <SystemClock_Config+0x3c>
    Error_Handler();
 8000a24:	f7ff ffda 	bl	80009dc <Error_Handler>
  RCC_ClkInitStruct.SYSCLKDivider = RCC_SYSCLK_DIV1;
 8000a28:	9002      	str	r0, [sp, #8]
  RCC_ClkInitStruct.AHBCLKDivider = RCC_HCLK_DIV1;
 8000a2a:	9003      	str	r0, [sp, #12]
  RCC_ClkInitStruct.APB1CLKDivider = RCC_APB1_DIV1;
 8000a2c:	9004      	str	r0, [sp, #16]
  if (HAL_RCC_ClockConfig(&RCC_ClkInitStruct, FLASH_LATENCY_1) != HAL_OK)
 8000a2e:	0021      	movs	r1, r4
 8000a30:	4668      	mov	r0, sp
  RCC_ClkInitStruct.ClockType = RCC_CLOCKTYPE_HCLK|RCC_CLOCKTYPE_SYSCLK
 8000a32:	9500      	str	r5, [sp, #0]
  RCC_ClkInitStruct.SYSCLKSource = RCC_SYSCLKSOURCE_HSE;
 8000a34:	9401      	str	r4, [sp, #4]
  if (HAL_RCC_ClockConfig(&RCC_ClkInitStruct, FLASH_LATENCY_1) != HAL_OK)
 8000a36:	f002 f885 	bl	8002b44 <HAL_RCC_ClockConfig>
 8000a3a:	2800      	cmp	r0, #0
 8000a3c:	d1f2      	bne.n	8000a24 <SystemClock_Config+0x38>
}
 8000a3e:	b00d      	add	sp, #52	@ 0x34
 8000a40:	bd30      	pop	{r4, r5, pc}
 8000a42:	46c0      	nop			@ (mov r8, r8)
 8000a44:	40022000 	.word	0x40022000

08000a48 <main>:
{
 8000a48:	b5f0      	push	{r4, r5, r6, r7, lr}
 8000a4a:	b09f      	sub	sp, #124	@ 0x7c
  GPIO_InitTypeDef GPIO_InitStruct = {0};
 8000a4c:	ac16      	add	r4, sp, #88	@ 0x58
  HAL_Init();
 8000a4e:	f000 ff3f 	bl	80018d0 <HAL_Init>
  SystemClock_Config();
 8000a52:	f7ff ffcb 	bl	80009ec <SystemClock_Config>
  GPIO_InitTypeDef GPIO_InitStruct = {0};
 8000a56:	2214      	movs	r2, #20
 8000a58:	2100      	movs	r1, #0
 8000a5a:	0020      	movs	r0, r4
 8000a5c:	f004 fc92 	bl	8005384 <memset>
  __HAL_RCC_GPIOC_CLK_ENABLE();
 8000a60:	2204      	movs	r2, #4
  __HAL_RCC_GPIOA_CLK_ENABLE();
 8000a62:	2601      	movs	r6, #1
  __HAL_RCC_GPIOC_CLK_ENABLE();
 8000a64:	4d38      	ldr	r5, [pc, #224]	@ (8000b48 <main+0x100>)
  HAL_GPIO_WritePin(GPIOA, TEMP_Pin|Water_Pump_Pin, GPIO_PIN_RESET);
 8000a66:	20a0      	movs	r0, #160	@ 0xa0
  __HAL_RCC_GPIOC_CLK_ENABLE();
 8000a68:	6b6b      	ldr	r3, [r5, #52]	@ 0x34
  HAL_GPIO_WritePin(GPIOA, TEMP_Pin|Water_Pump_Pin, GPIO_PIN_RESET);
 8000a6a:	2122      	movs	r1, #34	@ 0x22
  __HAL_RCC_GPIOC_CLK_ENABLE();
 8000a6c:	4313      	orrs	r3, r2
 8000a6e:	636b      	str	r3, [r5, #52]	@ 0x34
 8000a70:	6b6b      	ldr	r3, [r5, #52]	@ 0x34
  HAL_GPIO_WritePin(GPIOA, TEMP_Pin|Water_Pump_Pin, GPIO_PIN_RESET);
 8000a72:	05c0      	lsls	r0, r0, #23
  __HAL_RCC_GPIOC_CLK_ENABLE();
 8000a74:	4013      	ands	r3, r2
 8000a76:	9307      	str	r3, [sp, #28]
 8000a78:	9b07      	ldr	r3, [sp, #28]
  __HAL_RCC_GPIOF_CLK_ENABLE();
 8000a7a:	6b6b      	ldr	r3, [r5, #52]	@ 0x34
 8000a7c:	321c      	adds	r2, #28
 8000a7e:	4313      	orrs	r3, r2
 8000a80:	636b      	str	r3, [r5, #52]	@ 0x34
 8000a82:	6b6b      	ldr	r3, [r5, #52]	@ 0x34
  GPIO_InitStruct.Pin = RF_BTN_Pin;
 8000a84:	0037      	movs	r7, r6
  __HAL_RCC_GPIOF_CLK_ENABLE();
 8000a86:	4013      	ands	r3, r2
 8000a88:	9308      	str	r3, [sp, #32]
 8000a8a:	9b08      	ldr	r3, [sp, #32]
  __HAL_RCC_GPIOA_CLK_ENABLE();
 8000a8c:	6b6b      	ldr	r3, [r5, #52]	@ 0x34
  __HAL_RCC_GPIOB_CLK_ENABLE();
 8000a8e:	3a1e      	subs	r2, #30
  __HAL_RCC_GPIOA_CLK_ENABLE();
 8000a90:	4333      	orrs	r3, r6
 8000a92:	636b      	str	r3, [r5, #52]	@ 0x34
 8000a94:	6b6b      	ldr	r3, [r5, #52]	@ 0x34
 8000a96:	4033      	ands	r3, r6
 8000a98:	9309      	str	r3, [sp, #36]	@ 0x24
 8000a9a:	9b09      	ldr	r3, [sp, #36]	@ 0x24
  __HAL_RCC_GPIOB_CLK_ENABLE();
 8000a9c:	6b6b      	ldr	r3, [r5, #52]	@ 0x34
 8000a9e:	4313      	orrs	r3, r2
 8000aa0:	636b      	str	r3, [r5, #52]	@ 0x34
 8000aa2:	6b6b      	ldr	r3, [r5, #52]	@ 0x34
 8000aa4:	4013      	ands	r3, r2
 8000aa6:	930a      	str	r3, [sp, #40]	@ 0x28
  HAL_GPIO_WritePin(GPIOA, TEMP_Pin|Water_Pump_Pin, GPIO_PIN_RESET);
 8000aa8:	2200      	movs	r2, #0
  __HAL_RCC_GPIOB_CLK_ENABLE();
 8000aaa:	9b0a      	ldr	r3, [sp, #40]	@ 0x28
  HAL_GPIO_WritePin(GPIOA, TEMP_Pin|Water_Pump_Pin, GPIO_PIN_RESET);
 8000aac:	f001 fb42 	bl	8002134 <HAL_GPIO_WritePin>
  HAL_GPIO_WritePin(GPIOB, CE_Pin|CSN_Pin, GPIO_PIN_RESET);
 8000ab0:	2200      	movs	r2, #0
 8000ab2:	2103      	movs	r1, #3
 8000ab4:	4825      	ldr	r0, [pc, #148]	@ (8000b4c <main+0x104>)
 8000ab6:	f001 fb3d 	bl	8002134 <HAL_GPIO_WritePin>
  GPIO_InitStruct.Pin = RF_BTN_Pin;
 8000aba:	9616      	str	r6, [sp, #88]	@ 0x58
  HAL_GPIO_Init(RF_BTN_GPIO_Port, &GPIO_InitStruct);
 8000abc:	20a0      	movs	r0, #160	@ 0xa0
  GPIO_InitStruct.Pull = GPIO_NOPULL;
 8000abe:	2600      	movs	r6, #0
  GPIO_InitStruct.Mode = GPIO_MODE_IT_FALLING;
 8000ac0:	4b23      	ldr	r3, [pc, #140]	@ (8000b50 <main+0x108>)
  HAL_GPIO_Init(RF_BTN_GPIO_Port, &GPIO_InitStruct);
 8000ac2:	0021      	movs	r1, r4
  GPIO_InitStruct.Mode = GPIO_MODE_IT_FALLING;
 8000ac4:	6063      	str	r3, [r4, #4]
  HAL_GPIO_Init(RF_BTN_GPIO_Port, &GPIO_InitStruct);
 8000ac6:	05c0      	lsls	r0, r0, #23
  GPIO_InitStruct.Pull = GPIO_NOPULL;
 8000ac8:	60a6      	str	r6, [r4, #8]
  HAL_GPIO_Init(RF_BTN_GPIO_Port, &GPIO_InitStruct);
 8000aca:	f001 fa79 	bl	8001fc0 <HAL_GPIO_Init>
  GPIO_InitStruct.Pin = TEMP_Pin|Water_Pump_Pin;
 8000ace:	2322      	movs	r3, #34	@ 0x22
  HAL_GPIO_Init(GPIOA, &GPIO_InitStruct);
 8000ad0:	20a0      	movs	r0, #160	@ 0xa0
  GPIO_InitStruct.Pin = TEMP_Pin|Water_Pump_Pin;
 8000ad2:	9316      	str	r3, [sp, #88]	@ 0x58
  HAL_GPIO_Init(GPIOA, &GPIO_InitStruct);
 8000ad4:	0021      	movs	r1, r4
  GPIO_InitStruct.Mode = GPIO_MODE_OUTPUT_PP;
 8000ad6:	6067      	str	r7, [r4, #4]
  HAL_GPIO_Init(GPIOA, &GPIO_InitStruct);
 8000ad8:	05c0      	lsls	r0, r0, #23
  GPIO_InitStruct.Pull = GPIO_NOPULL;
 8000ada:	60a6      	str	r6, [r4, #8]
  GPIO_InitStruct.Speed = GPIO_SPEED_FREQ_LOW;
 8000adc:	60e6      	str	r6, [r4, #12]
  HAL_GPIO_Init(GPIOA, &GPIO_InitStruct);
 8000ade:	f001 fa6f 	bl	8001fc0 <HAL_GPIO_Init>
  GPIO_InitStruct.Pin = CE_Pin|CSN_Pin;
 8000ae2:	2303      	movs	r3, #3
  GPIO_InitStruct.Speed = GPIO_SPEED_FREQ_HIGH;
 8000ae4:	2202      	movs	r2, #2
  GPIO_InitStruct.Pin = CE_Pin|CSN_Pin;
 8000ae6:	9316      	str	r3, [sp, #88]	@ 0x58
  HAL_GPIO_Init(GPIOB, &GPIO_InitStruct);
 8000ae8:	0021      	movs	r1, r4
 8000aea:	4818      	ldr	r0, [pc, #96]	@ (8000b4c <main+0x104>)
  GPIO_InitStruct.Mode = GPIO_MODE_OUTPUT_PP;
 8000aec:	6067      	str	r7, [r4, #4]
  GPIO_InitStruct.Speed = GPIO_SPEED_FREQ_HIGH;
 8000aee:	60e2      	str	r2, [r4, #12]
  GPIO_InitStruct.Pull = GPIO_NOPULL;
 8000af0:	60a6      	str	r6, [r4, #8]
  HAL_GPIO_Init(GPIOB, &GPIO_InitStruct);
 8000af2:	f001 fa65 	bl	8001fc0 <HAL_GPIO_Init>
  GPIO_InitStruct.Pin = accelerometer_Pin;
 8000af6:	2280      	movs	r2, #128	@ 0x80
  GPIO_InitStruct.Mode = GPIO_MODE_IT_RISING;
 8000af8:	4b16      	ldr	r3, [pc, #88]	@ (8000b54 <main+0x10c>)
  GPIO_InitStruct.Pin = accelerometer_Pin;
 8000afa:	9216      	str	r2, [sp, #88]	@ 0x58
  HAL_GPIO_Init(accelerometer_GPIO_Port, &GPIO_InitStruct);
 8000afc:	0021      	movs	r1, r4
  GPIO_InitStruct.Mode = GPIO_MODE_IT_RISING;
 8000afe:	6063      	str	r3, [r4, #4]
  HAL_GPIO_Init(accelerometer_GPIO_Port, &GPIO_InitStruct);
 8000b00:	4812      	ldr	r0, [pc, #72]	@ (8000b4c <main+0x104>)
  GPIO_InitStruct.Pull = GPIO_NOPULL;
 8000b02:	60a6      	str	r6, [r4, #8]
  HAL_GPIO_Init(accelerometer_GPIO_Port, &GPIO_InitStruct);
 8000b04:	f001 fa5c 	bl	8001fc0 <HAL_GPIO_Init>
  HAL_NVIC_SetPriority(EXTI0_1_IRQn, 0, 0);
 8000b08:	0032      	movs	r2, r6
 8000b0a:	0031      	movs	r1, r6
 8000b0c:	2005      	movs	r0, #5
 8000b0e:	f001 fa13 	bl	8001f38 <HAL_NVIC_SetPriority>
  HAL_NVIC_SetPriority(EXTI4_15_IRQn, 0, 0);
 8000b12:	0031      	movs	r1, r6
 8000b14:	0032      	movs	r2, r6
 8000b16:	2007      	movs	r0, #7
 8000b18:	f001 fa0e 	bl	8001f38 <HAL_NVIC_SetPriority>
  hi2c1.Instance = I2C1;
 8000b1c:	4f0e      	ldr	r7, [pc, #56]	@ (8000b58 <main+0x110>)
 8000b1e:	4b0f      	ldr	r3, [pc, #60]	@ (8000b5c <main+0x114>)
  if (HAL_I2C_Init(&hi2c1) != HAL_OK)
 8000b20:	0038      	movs	r0, r7
  hi2c1.Instance = I2C1;
 8000b22:	603b      	str	r3, [r7, #0]
  hi2c1.Init.Timing = 0x0090194B;
 8000b24:	4b0e      	ldr	r3, [pc, #56]	@ (8000b60 <main+0x118>)
  hi2c1.Init.OwnAddress1 = 0;
 8000b26:	60be      	str	r6, [r7, #8]
  hi2c1.Init.Timing = 0x0090194B;
 8000b28:	607b      	str	r3, [r7, #4]
  hi2c1.Init.AddressingMode = I2C_ADDRESSINGMODE_7BIT;
 8000b2a:	2301      	movs	r3, #1
  hi2c1.Init.DualAddressMode = I2C_DUALADDRESS_DISABLE;
 8000b2c:	613e      	str	r6, [r7, #16]
  hi2c1.Init.AddressingMode = I2C_ADDRESSINGMODE_7BIT;
 8000b2e:	60fb      	str	r3, [r7, #12]
  hi2c1.Init.OwnAddress2 = 0;
 8000b30:	617e      	str	r6, [r7, #20]
  hi2c1.Init.OwnAddress2Masks = I2C_OA2_NOMASK;
 8000b32:	61be      	str	r6, [r7, #24]
  hi2c1.Init.GeneralCallMode = I2C_GENERALCALL_DISABLE;
 8000b34:	61fe      	str	r6, [r7, #28]
  hi2c1.Init.NoStretchMode = I2C_NOSTRETCH_DISABLE;
 8000b36:	623e      	str	r6, [r7, #32]
  if (HAL_I2C_Init(&hi2c1) != HAL_OK)
 8000b38:	f001 fc4a 	bl	80023d0 <HAL_I2C_Init>
 8000b3c:	0001      	movs	r1, r0
 8000b3e:	42b0      	cmp	r0, r6
 8000b40:	d010      	beq.n	8000b64 <main+0x11c>
    Error_Handler();
 8000b42:	f7ff ff4b 	bl	80009dc <Error_Handler>
 8000b46:	46c0      	nop			@ (mov r8, r8)
 8000b48:	40021000 	.word	0x40021000
 8000b4c:	50000400 	.word	0x50000400
 8000b50:	10210000 	.word	0x10210000
 8000b54:	10110000 	.word	0x10110000
 8000b58:	20000304 	.word	0x20000304
 8000b5c:	40005400 	.word	0x40005400
 8000b60:	0090194b 	.word	0x0090194b
  if (HAL_I2CEx_ConfigAnalogFilter(&hi2c1, I2C_ANALOGFILTER_ENABLE) != HAL_OK)
 8000b64:	0038      	movs	r0, r7
 8000b66:	f001 fe49 	bl	80027fc <HAL_I2CEx_ConfigAnalogFilter>
 8000b6a:	1e01      	subs	r1, r0, #0
 8000b6c:	d1e9      	bne.n	8000b42 <main+0xfa>
  if (HAL_I2CEx_ConfigDigitalFilter(&hi2c1, 0) != HAL_OK)
 8000b6e:	0038      	movs	r0, r7
 8000b70:	f001 fe6a 	bl	8002848 <HAL_I2CEx_ConfigDigitalFilter>
 8000b74:	1e07      	subs	r7, r0, #0
 8000b76:	d1e4      	bne.n	8000b42 <main+0xfa>
  ADC_ChannelConfTypeDef sConfig = {0};
 8000b78:	220c      	movs	r2, #12
 8000b7a:	0001      	movs	r1, r0
 8000b7c:	0020      	movs	r0, r4
 8000b7e:	f004 fc01 	bl	8005384 <memset>
  hadc1.Instance = ADC1;
 8000b82:	4eaf      	ldr	r6, [pc, #700]	@ (8000e40 <main+0x3f8>)
 8000b84:	4baf      	ldr	r3, [pc, #700]	@ (8000e44 <main+0x3fc>)
  hadc1.Init.EOCSelection = ADC_EOC_SINGLE_CONV;
 8000b86:	2204      	movs	r2, #4
  hadc1.Instance = ADC1;
 8000b88:	6033      	str	r3, [r6, #0]
  hadc1.Init.ClockPrescaler = ADC_CLOCK_SYNC_PCLK_DIV2;
 8000b8a:	2380      	movs	r3, #128	@ 0x80
 8000b8c:	05db      	lsls	r3, r3, #23
 8000b8e:	6073      	str	r3, [r6, #4]
  hadc1.Init.ScanConvMode = ADC_SCAN_SEQ_FIXED;
 8000b90:	2380      	movs	r3, #128	@ 0x80
 8000b92:	061b      	lsls	r3, r3, #24
 8000b94:	6133      	str	r3, [r6, #16]
  hadc1.Init.NbrOfConversion = 1;
 8000b96:	2301      	movs	r3, #1
 8000b98:	61f3      	str	r3, [r6, #28]
  hadc1.Init.DiscontinuousConvMode = DISABLE;
 8000b9a:	18f3      	adds	r3, r6, r3
 8000b9c:	77df      	strb	r7, [r3, #31]
  hadc1.Init.DMAContinuousRequests = DISABLE;
 8000b9e:	0033      	movs	r3, r6
 8000ba0:	332c      	adds	r3, #44	@ 0x2c
 8000ba2:	701f      	strb	r7, [r3, #0]
  hadc1.Init.OversamplingMode = DISABLE;
 8000ba4:	0033      	movs	r3, r6
  if (HAL_ADC_Init(&hadc1) != HAL_OK)
 8000ba6:	0030      	movs	r0, r6
  hadc1.Init.OversamplingMode = DISABLE;
 8000ba8:	333c      	adds	r3, #60	@ 0x3c
  hadc1.Init.Resolution = ADC_RESOLUTION_12B;
 8000baa:	60b7      	str	r7, [r6, #8]
  hadc1.Init.DataAlign = ADC_DATAALIGN_RIGHT;
 8000bac:	60f7      	str	r7, [r6, #12]
  hadc1.Init.EOCSelection = ADC_EOC_SINGLE_CONV;
 8000bae:	6172      	str	r2, [r6, #20]
  hadc1.Init.LowPowerAutoWait = DISABLE;
 8000bb0:	8337      	strh	r7, [r6, #24]
  hadc1.Init.ContinuousConvMode = DISABLE;
 8000bb2:	76b7      	strb	r7, [r6, #26]
  hadc1.Init.ExternalTrigConv = ADC_SOFTWARE_START;
 8000bb4:	6277      	str	r7, [r6, #36]	@ 0x24
  hadc1.Init.ExternalTrigConvEdge = ADC_EXTERNALTRIGCONVEDGE_NONE;
 8000bb6:	62b7      	str	r7, [r6, #40]	@ 0x28
  hadc1.Init.Overrun = ADC_OVR_DATA_PRESERVED;
 8000bb8:	6337      	str	r7, [r6, #48]	@ 0x30
  hadc1.Init.SamplingTimeCommon1 = ADC_SAMPLETIME_1CYCLE_5;
 8000bba:	6377      	str	r7, [r6, #52]	@ 0x34
  hadc1.Init.OversamplingMode = DISABLE;
 8000bbc:	701f      	strb	r7, [r3, #0]
  hadc1.Init.TriggerFrequencyMode = ADC_TRIGGER_FREQ_HIGH;
 8000bbe:	64f7      	str	r7, [r6, #76]	@ 0x4c
  if (HAL_ADC_Init(&hadc1) != HAL_OK)
 8000bc0:	f000 fe9c 	bl	80018fc <HAL_ADC_Init>
 8000bc4:	2800      	cmp	r0, #0
 8000bc6:	d1bc      	bne.n	8000b42 <main+0xfa>
  sConfig.Channel = ADC_CHANNEL_4;
 8000bc8:	4b9f      	ldr	r3, [pc, #636]	@ (8000e48 <main+0x400>)
  sConfig.Rank = ADC_RANK_CHANNEL_NUMBER;
 8000bca:	3701      	adds	r7, #1
  sConfig.Channel = ADC_CHANNEL_4;
 8000bcc:	9316      	str	r3, [sp, #88]	@ 0x58
  if (HAL_ADC_ConfigChannel(&hadc1, &sConfig) != HAL_OK)
 8000bce:	0021      	movs	r1, r4
 8000bd0:	0030      	movs	r0, r6
  sConfig.Rank = ADC_RANK_CHANNEL_NUMBER;
 8000bd2:	6067      	str	r7, [r4, #4]
  if (HAL_ADC_ConfigChannel(&hadc1, &sConfig) != HAL_OK)
 8000bd4:	f001 f806 	bl	8001be4 <HAL_ADC_ConfigChannel>
 8000bd8:	1e03      	subs	r3, r0, #0
 8000bda:	d1b2      	bne.n	8000b42 <main+0xfa>
  hspi1.Instance = SPI1;
 8000bdc:	489b      	ldr	r0, [pc, #620]	@ (8000e4c <main+0x404>)
 8000bde:	4a9c      	ldr	r2, [pc, #624]	@ (8000e50 <main+0x408>)
  hspi1.Init.Direction = SPI_DIRECTION_2LINES;
 8000be0:	6083      	str	r3, [r0, #8]
  hspi1.Instance = SPI1;
 8000be2:	6002      	str	r2, [r0, #0]
  hspi1.Init.Mode = SPI_MODE_MASTER;
 8000be4:	2282      	movs	r2, #130	@ 0x82
 8000be6:	0052      	lsls	r2, r2, #1
 8000be8:	6042      	str	r2, [r0, #4]
  hspi1.Init.DataSize = SPI_DATASIZE_8BIT;
 8000bea:	22e0      	movs	r2, #224	@ 0xe0
 8000bec:	00d2      	lsls	r2, r2, #3
 8000bee:	60c2      	str	r2, [r0, #12]
  hspi1.Init.NSS = SPI_NSS_SOFT;
 8000bf0:	2280      	movs	r2, #128	@ 0x80
 8000bf2:	0092      	lsls	r2, r2, #2
 8000bf4:	6182      	str	r2, [r0, #24]
  hspi1.Init.BaudRatePrescaler = SPI_BAUDRATEPRESCALER_8;
 8000bf6:	3af1      	subs	r2, #241	@ 0xf1
 8000bf8:	3aff      	subs	r2, #255	@ 0xff
  hspi1.Init.CLKPolarity = SPI_POLARITY_LOW;
 8000bfa:	6103      	str	r3, [r0, #16]
  hspi1.Init.CLKPhase = SPI_PHASE_1EDGE;
 8000bfc:	6143      	str	r3, [r0, #20]
  hspi1.Init.BaudRatePrescaler = SPI_BAUDRATEPRESCALER_8;
 8000bfe:	61c2      	str	r2, [r0, #28]
  hspi1.Init.FirstBit = SPI_FIRSTBIT_MSB;
 8000c00:	6203      	str	r3, [r0, #32]
  hspi1.Init.TIMode = SPI_TIMODE_DISABLE;
 8000c02:	6243      	str	r3, [r0, #36]	@ 0x24
  hspi1.Init.CRCCalculation = SPI_CRCCALCULATION_DISABLE;
 8000c04:	6283      	str	r3, [r0, #40]	@ 0x28
  hspi1.Init.CRCPolynomial = 7;
 8000c06:	3a09      	subs	r2, #9
  hspi1.Init.CRCLength = SPI_CRC_LENGTH_DATASIZE;
 8000c08:	6303      	str	r3, [r0, #48]	@ 0x30
  hspi1.Init.NSSPMode = SPI_NSS_PULSE_ENABLE;
 8000c0a:	3308      	adds	r3, #8
  hspi1.Init.CRCPolynomial = 7;
 8000c0c:	62c2      	str	r2, [r0, #44]	@ 0x2c
  hspi1.Init.NSSPMode = SPI_NSS_PULSE_ENABLE;
 8000c0e:	6343      	str	r3, [r0, #52]	@ 0x34
  if (HAL_SPI_Init(&hspi1) != HAL_OK)
 8000c10:	f002 fa0c 	bl	800302c <HAL_SPI_Init>
 8000c14:	1e01      	subs	r1, r0, #0
 8000c16:	9005      	str	r0, [sp, #20]
 8000c18:	d193      	bne.n	8000b42 <main+0xfa>
  * @retval None
  */
__STATIC_INLINE void LL_APB1_GRP2_EnableClock(uint32_t Periphs)
{
  __IO uint32_t tmpreg;
  SET_BIT(RCC->APBENR2, Periphs);
 8000c1a:	2280      	movs	r2, #128	@ 0x80
  LL_TIM_InitTypeDef TIM_InitStruct = {0};
 8000c1c:	ab02      	add	r3, sp, #8
 8000c1e:	3152      	adds	r1, #82	@ 0x52
 8000c20:	18c9      	adds	r1, r1, r3
 8000c22:	8008      	strh	r0, [r1, #0]
  TIM_InitStruct.Prescaler = 47;
 8000c24:	212f      	movs	r1, #47	@ 0x2f
 8000c26:	6c2b      	ldr	r3, [r5, #64]	@ 0x40
 8000c28:	02d2      	lsls	r2, r2, #11
 8000c2a:	4313      	orrs	r3, r2
 8000c2c:	642b      	str	r3, [r5, #64]	@ 0x40
  TIM_InitStruct.ClockDivision = LL_TIM_CLOCKDIVISION_DIV1;
 8000c2e:	9e05      	ldr	r6, [sp, #20]
  TIM_InitStruct.CounterMode = LL_TIM_COUNTERMODE_UP;
 8000c30:	9805      	ldr	r0, [sp, #20]
  /* Delay after an RCC peripheral clock enabling */
  tmpreg = READ_BIT(RCC->APBENR2, Periphs);
 8000c32:	6c2b      	ldr	r3, [r5, #64]	@ 0x40
 8000c34:	6060      	str	r0, [r4, #4]
  TIM_InitStruct.ClockDivision = LL_TIM_CLOCKDIVISION_DIV1;
 8000c36:	60e6      	str	r6, [r4, #12]
  TIM_InitStruct.Autoreload = 65535;
 8000c38:	4886      	ldr	r0, [pc, #536]	@ (8000e54 <main+0x40c>)
  TIM_InitStruct.RepetitionCounter = 0;
 8000c3a:	6126      	str	r6, [r4, #16]
  LL_TIM_Init(TIM17, &TIM_InitStruct);
 8000c3c:	4e86      	ldr	r6, [pc, #536]	@ (8000e58 <main+0x410>)
 8000c3e:	4013      	ands	r3, r2
 8000c40:	930b      	str	r3, [sp, #44]	@ 0x2c
  TIM_InitStruct.Prescaler = 47;
 8000c42:	8021      	strh	r1, [r4, #0]
  TIM_InitStruct.Autoreload = 65535;
 8000c44:	60a0      	str	r0, [r4, #8]
  LL_TIM_Init(TIM17, &TIM_InitStruct);
 8000c46:	0021      	movs	r1, r4
 8000c48:	0030      	movs	r0, r6
  (void)tmpreg;
 8000c4a:	9b0b      	ldr	r3, [sp, #44]	@ 0x2c
 8000c4c:	f002 fe20 	bl	8003890 <LL_TIM_Init>
  CLEAR_BIT(TIMx->CR1, TIM_CR1_ARPE);
 8000c50:	2080      	movs	r0, #128	@ 0x80
 8000c52:	6833      	ldr	r3, [r6, #0]
  LL_TIM_InitTypeDef TIM_InitStruct = {0};
 8000c54:	2214      	movs	r2, #20
 8000c56:	4383      	bics	r3, r0
 8000c58:	6033      	str	r3, [r6, #0]
  * @param  TIMx Timer instance
  * @retval None
  */
__STATIC_INLINE void LL_TIM_GenerateEvent_UPDATE(TIM_TypeDef *TIMx)
{
  SET_BIT(TIMx->EGR, TIM_EGR_UG);
 8000c5a:	6973      	ldr	r3, [r6, #20]
 8000c5c:	9905      	ldr	r1, [sp, #20]
 8000c5e:	433b      	orrs	r3, r7
 8000c60:	af10      	add	r7, sp, #64	@ 0x40
 8000c62:	6173      	str	r3, [r6, #20]
 8000c64:	0038      	movs	r0, r7
 8000c66:	f004 fb8d 	bl	8005384 <memset>
  SET_BIT(RCC->APBENR1, Periphs);
 8000c6a:	2102      	movs	r1, #2
  * @retval None
  */
__STATIC_INLINE void LL_IOP_GRP1_EnableClock(uint32_t Periphs)
{
  __IO uint32_t tmpreg;
  SET_BIT(RCC->IOPENR, Periphs);
 8000c6c:	2204      	movs	r2, #4
  GPIO_InitStruct.Pin = LL_GPIO_PIN_6;
 8000c6e:	2640      	movs	r6, #64	@ 0x40
  SET_BIT(RCC->APBENR1, Periphs);
 8000c70:	6beb      	ldr	r3, [r5, #60]	@ 0x3c
  LL_GPIO_Init(GPIOC, &GPIO_InitStruct);
 8000c72:	487a      	ldr	r0, [pc, #488]	@ (8000e5c <main+0x414>)
 8000c74:	430b      	orrs	r3, r1
 8000c76:	63eb      	str	r3, [r5, #60]	@ 0x3c
  tmpreg = READ_BIT(RCC->APBENR1, Periphs);
 8000c78:	6beb      	ldr	r3, [r5, #60]	@ 0x3c
 8000c7a:	400b      	ands	r3, r1
 8000c7c:	930d      	str	r3, [sp, #52]	@ 0x34
  (void)tmpreg;
 8000c7e:	9b0d      	ldr	r3, [sp, #52]	@ 0x34
  SET_BIT(RCC->IOPENR, Periphs);
 8000c80:	6b6b      	ldr	r3, [r5, #52]	@ 0x34
 8000c82:	4313      	orrs	r3, r2
 8000c84:	636b      	str	r3, [r5, #52]	@ 0x34
  /* Delay after an RCC peripheral clock enabling */
  tmpreg = READ_BIT(RCC->IOPENR, Periphs);
 8000c86:	6b6b      	ldr	r3, [r5, #52]	@ 0x34
  GPIO_InitStruct.Pin = LL_GPIO_PIN_6;
 8000c88:	9616      	str	r6, [sp, #88]	@ 0x58
 8000c8a:	4013      	ands	r3, r2
 8000c8c:	930c      	str	r3, [sp, #48]	@ 0x30
  (void)tmpreg;
 8000c8e:	9b0c      	ldr	r3, [sp, #48]	@ 0x30
  GPIO_InitStruct.Speed = LL_GPIO_SPEED_FREQ_LOW;
 8000c90:	9b05      	ldr	r3, [sp, #20]
  GPIO_InitStruct.Alternate = LL_GPIO_AF_1;
 8000c92:	3e3f      	subs	r6, #63	@ 0x3f
  GPIO_InitStruct.Mode = LL_GPIO_MODE_ALTERNATE;
 8000c94:	6061      	str	r1, [r4, #4]
  GPIO_InitStruct.Speed = LL_GPIO_SPEED_FREQ_LOW;
 8000c96:	60a3      	str	r3, [r4, #8]
  LL_GPIO_Init(GPIOC, &GPIO_InitStruct);
 8000c98:	0021      	movs	r1, r4
  GPIO_InitStruct.OutputType = LL_GPIO_OUTPUT_PUSHPULL;
 8000c9a:	60e3      	str	r3, [r4, #12]
  GPIO_InitStruct.Pull = LL_GPIO_PULL_NO;
 8000c9c:	6123      	str	r3, [r4, #16]
  GPIO_InitStruct.Alternate = LL_GPIO_AF_1;
 8000c9e:	6166      	str	r6, [r4, #20]
  LL_GPIO_Init(GPIOC, &GPIO_InitStruct);
 8000ca0:	f002 fd16 	bl	80036d0 <LL_GPIO_Init>
  TIM_InitStruct.Prescaler = 47;
 8000ca4:	212f      	movs	r1, #47	@ 0x2f
  LL_TIM_Init(TIM3, &TIM_InitStruct);
 8000ca6:	4e6e      	ldr	r6, [pc, #440]	@ (8000e60 <main+0x418>)
  TIM_InitStruct.CounterMode = LL_TIM_COUNTERMODE_UP;
 8000ca8:	9b05      	ldr	r3, [sp, #20]
  TIM_InitStruct.Prescaler = 47;
 8000caa:	8039      	strh	r1, [r7, #0]
  TIM_InitStruct.Autoreload = 65535;
 8000cac:	4969      	ldr	r1, [pc, #420]	@ (8000e54 <main+0x40c>)
  LL_TIM_Init(TIM3, &TIM_InitStruct);
 8000cae:	0030      	movs	r0, r6
  TIM_InitStruct.CounterMode = LL_TIM_COUNTERMODE_UP;
 8000cb0:	607b      	str	r3, [r7, #4]
  TIM_InitStruct.Autoreload = 65535;
 8000cb2:	60b9      	str	r1, [r7, #8]
  TIM_InitStruct.ClockDivision = LL_TIM_CLOCKDIVISION_DIV1;
 8000cb4:	60fb      	str	r3, [r7, #12]
  LL_TIM_Init(TIM3, &TIM_InitStruct);
 8000cb6:	0039      	movs	r1, r7
 8000cb8:	f002 fdea 	bl	8003890 <LL_TIM_Init>
  CLEAR_BIT(TIMx->CR1, TIM_CR1_ARPE);
 8000cbc:	2080      	movs	r0, #128	@ 0x80
 8000cbe:	6833      	ldr	r3, [r6, #0]
  MODIFY_REG(TIMx->SMCR, TIM_SMCR_SMS | TIM_SMCR_ECE, ClockSource);
 8000cc0:	4a68      	ldr	r2, [pc, #416]	@ (8000e64 <main+0x41c>)
  CLEAR_BIT(TIMx->CR1, TIM_CR1_ARPE);
 8000cc2:	4383      	bics	r3, r0
 8000cc4:	6033      	str	r3, [r6, #0]
  MODIFY_REG(TIMx->SMCR, TIM_SMCR_SMS | TIM_SMCR_ECE, ClockSource);
 8000cc6:	68b3      	ldr	r3, [r6, #8]
  MODIFY_REG(*pReg, ((TIM_CCMR1_IC1F) << SHIFT_TAB_ICxx[iChannel]), (ICFilter >> 16U) << SHIFT_TAB_ICxx[iChannel]);
 8000cc8:	21f0      	movs	r1, #240	@ 0xf0
  MODIFY_REG(TIMx->SMCR, TIM_SMCR_SMS | TIM_SMCR_ECE, ClockSource);
 8000cca:	4013      	ands	r3, r2
 8000ccc:	60b3      	str	r3, [r6, #8]
  MODIFY_REG(TIMx->SMCR, TIM_SMCR_TS, TriggerInput);
 8000cce:	68b2      	ldr	r2, [r6, #8]
 8000cd0:	4b65      	ldr	r3, [pc, #404]	@ (8000e68 <main+0x420>)
 8000cd2:	401a      	ands	r2, r3
 8000cd4:	2350      	movs	r3, #80	@ 0x50
 8000cd6:	4313      	orrs	r3, r2
 8000cd8:	60b3      	str	r3, [r6, #8]
  MODIFY_REG(TIMx->SMCR, TIM_SMCR_SMS, SlaveMode);
 8000cda:	68b3      	ldr	r3, [r6, #8]
 8000cdc:	4a63      	ldr	r2, [pc, #396]	@ (8000e6c <main+0x424>)
 8000cde:	4013      	ands	r3, r2
 8000ce0:	2204      	movs	r2, #4
 8000ce2:	4313      	orrs	r3, r2
 8000ce4:	60b3      	str	r3, [r6, #8]
  MODIFY_REG(*pReg, ((TIM_CCMR1_IC1F) << SHIFT_TAB_ICxx[iChannel]), (ICFilter >> 16U) << SHIFT_TAB_ICxx[iChannel]);
 8000ce6:	4b62      	ldr	r3, [pc, #392]	@ (8000e70 <main+0x428>)
 8000ce8:	681a      	ldr	r2, [r3, #0]
 8000cea:	438a      	bics	r2, r1
 8000cec:	601a      	str	r2, [r3, #0]
  MODIFY_REG(TIMx->CCER, ((TIM_CCER_CC1NP | TIM_CCER_CC1P) << SHIFT_TAB_CCxP[iChannel]),
 8000cee:	6a32      	ldr	r2, [r6, #32]
 8000cf0:	39e6      	subs	r1, #230	@ 0xe6
 8000cf2:	430a      	orrs	r2, r1
 8000cf4:	6232      	str	r2, [r6, #32]
  CLEAR_BIT(TIMx->DIER, TIM_DIER_TIE);
 8000cf6:	68f2      	ldr	r2, [r6, #12]
 8000cf8:	3136      	adds	r1, #54	@ 0x36
 8000cfa:	438a      	bics	r2, r1
 8000cfc:	60f2      	str	r2, [r6, #12]
  CLEAR_BIT(TIMx->DIER, TIM_DIER_TDE);
 8000cfe:	68f2      	ldr	r2, [r6, #12]
 8000d00:	495c      	ldr	r1, [pc, #368]	@ (8000e74 <main+0x42c>)
 8000d02:	400a      	ands	r2, r1
  MODIFY_REG(TIMx->CR2, TIM_CR2_MMS, TimerSynchronization);
 8000d04:	2170      	movs	r1, #112	@ 0x70
  CLEAR_BIT(TIMx->DIER, TIM_DIER_TDE);
 8000d06:	60f2      	str	r2, [r6, #12]
  MODIFY_REG(TIMx->CR2, TIM_CR2_MMS, TimerSynchronization);
 8000d08:	6872      	ldr	r2, [r6, #4]
 8000d0a:	438a      	bics	r2, r1
 8000d0c:	6072      	str	r2, [r6, #4]
  CLEAR_BIT(TIMx->SMCR, TIM_SMCR_MSM);
 8000d0e:	68b2      	ldr	r2, [r6, #8]
  LL_USART_InitTypeDef USART_InitStruct = {0};
 8000d10:	9905      	ldr	r1, [sp, #20]
 8000d12:	4382      	bics	r2, r0
 8000d14:	60b2      	str	r2, [r6, #8]
  MODIFY_REG(*pReg, ((TIM_CCMR1_CC1S) << SHIFT_TAB_ICxx[iChannel]), (ICActiveInput >> 16U) << SHIFT_TAB_ICxx[iChannel]);
 8000d16:	2601      	movs	r6, #1
 8000d18:	681a      	ldr	r2, [r3, #0]
 8000d1a:	387d      	subs	r0, #125	@ 0x7d
 8000d1c:	4382      	bics	r2, r0
 8000d1e:	4332      	orrs	r2, r6
 8000d20:	601a      	str	r2, [r3, #0]
  MODIFY_REG(*pReg, ((TIM_CCMR1_IC1PSC) << SHIFT_TAB_ICxx[iChannel]), (ICPrescaler >> 16U) << SHIFT_TAB_ICxx[iChannel]);
 8000d22:	681a      	ldr	r2, [r3, #0]
 8000d24:	3009      	adds	r0, #9
 8000d26:	4382      	bics	r2, r0
 8000d28:	601a      	str	r2, [r3, #0]
 8000d2a:	0020      	movs	r0, r4
 8000d2c:	2220      	movs	r2, #32
 8000d2e:	f004 fb29 	bl	8005384 <memset>
  SET_BIT(RCC->APBENR1, Periphs);
 8000d32:	2280      	movs	r2, #128	@ 0x80
 8000d34:	6beb      	ldr	r3, [r5, #60]	@ 0x3c
 8000d36:	0292      	lsls	r2, r2, #10
 8000d38:	4313      	orrs	r3, r2
 8000d3a:	63eb      	str	r3, [r5, #60]	@ 0x3c
  tmpreg = READ_BIT(RCC->APBENR1, Periphs);
 8000d3c:	6beb      	ldr	r3, [r5, #60]	@ 0x3c
  LL_GPIO_Init(GPIOA, &GPIO_InitStruct);
 8000d3e:	20a0      	movs	r0, #160	@ 0xa0
 8000d40:	4013      	ands	r3, r2
 8000d42:	930f      	str	r3, [sp, #60]	@ 0x3c
  (void)tmpreg;
 8000d44:	9b0f      	ldr	r3, [sp, #60]	@ 0x3c
  SET_BIT(RCC->IOPENR, Periphs);
 8000d46:	6b6b      	ldr	r3, [r5, #52]	@ 0x34
  GPIO_InitStruct.Pin = LL_GPIO_PIN_2;
 8000d48:	2204      	movs	r2, #4
 8000d4a:	4333      	orrs	r3, r6
 8000d4c:	636b      	str	r3, [r5, #52]	@ 0x34
  tmpreg = READ_BIT(RCC->IOPENR, Periphs);
 8000d4e:	6b6b      	ldr	r3, [r5, #52]	@ 0x34
  GPIO_InitStruct.Mode = LL_GPIO_MODE_ALTERNATE;
 8000d50:	2502      	movs	r5, #2
  GPIO_InitStruct.Pin = LL_GPIO_PIN_2;
 8000d52:	9210      	str	r2, [sp, #64]	@ 0x40
  GPIO_InitStruct.Speed = LL_GPIO_SPEED_FREQ_LOW;
 8000d54:	9a05      	ldr	r2, [sp, #20]
 8000d56:	4033      	ands	r3, r6
 8000d58:	60ba      	str	r2, [r7, #8]
  GPIO_InitStruct.OutputType = LL_GPIO_OUTPUT_PUSHPULL;
 8000d5a:	60fa      	str	r2, [r7, #12]
  GPIO_InitStruct.Pull = LL_GPIO_PULL_NO;
 8000d5c:	613a      	str	r2, [r7, #16]
  LL_GPIO_Init(GPIOA, &GPIO_InitStruct);
 8000d5e:	0039      	movs	r1, r7
 8000d60:	930e      	str	r3, [sp, #56]	@ 0x38
  GPIO_InitStruct.Mode = LL_GPIO_MODE_ALTERNATE;
 8000d62:	607d      	str	r5, [r7, #4]
  GPIO_InitStruct.Alternate = LL_GPIO_AF_1;
 8000d64:	617e      	str	r6, [r7, #20]
  LL_GPIO_Init(GPIOA, &GPIO_InitStruct);
 8000d66:	05c0      	lsls	r0, r0, #23
  (void)tmpreg;
 8000d68:	9b0e      	ldr	r3, [sp, #56]	@ 0x38
 8000d6a:	f002 fcb1 	bl	80036d0 <LL_GPIO_Init>
  GPIO_InitStruct.Pin = LL_GPIO_PIN_3;
 8000d6e:	2308      	movs	r3, #8
  LL_GPIO_Init(GPIOA, &GPIO_InitStruct);
 8000d70:	20a0      	movs	r0, #160	@ 0xa0
  GPIO_InitStruct.Pin = LL_GPIO_PIN_3;
 8000d72:	9310      	str	r3, [sp, #64]	@ 0x40
  GPIO_InitStruct.Speed = LL_GPIO_SPEED_FREQ_LOW;
 8000d74:	9b05      	ldr	r3, [sp, #20]
  LL_GPIO_Init(GPIOA, &GPIO_InitStruct);
 8000d76:	0039      	movs	r1, r7
  GPIO_InitStruct.Mode = LL_GPIO_MODE_ALTERNATE;
 8000d78:	607d      	str	r5, [r7, #4]
  GPIO_InitStruct.Speed = LL_GPIO_SPEED_FREQ_LOW;
 8000d7a:	60bb      	str	r3, [r7, #8]
  GPIO_InitStruct.OutputType = LL_GPIO_OUTPUT_PUSHPULL;
 8000d7c:	60fb      	str	r3, [r7, #12]
  GPIO_InitStruct.Pull = LL_GPIO_PULL_NO;
 8000d7e:	613b      	str	r3, [r7, #16]
  GPIO_InitStruct.Alternate = LL_GPIO_AF_1;
 8000d80:	617e      	str	r6, [r7, #20]
  LL_GPIO_Init(GPIOA, &GPIO_InitStruct);
 8000d82:	05c0      	lsls	r0, r0, #23
 8000d84:	f002 fca4 	bl	80036d0 <LL_GPIO_Init>
  USART_InitStruct.PrescalerValue = LL_USART_PRESCALER_DIV1;
 8000d88:	9b05      	ldr	r3, [sp, #20]
  USART_InitStruct.TransferDirection = LL_USART_DIRECTION_TX_RX;
 8000d8a:	200c      	movs	r0, #12
  USART_InitStruct.PrescalerValue = LL_USART_PRESCALER_DIV1;
 8000d8c:	9316      	str	r3, [sp, #88]	@ 0x58
  USART_InitStruct.BaudRate = 115200;
 8000d8e:	23e1      	movs	r3, #225	@ 0xe1
 8000d90:	025b      	lsls	r3, r3, #9
  LL_USART_Init(USART2, &USART_InitStruct);
 8000d92:	4d39      	ldr	r5, [pc, #228]	@ (8000e78 <main+0x430>)
  USART_InitStruct.BaudRate = 115200;
 8000d94:	6063      	str	r3, [r4, #4]
  USART_InitStruct.DataWidth = LL_USART_DATAWIDTH_8B;
 8000d96:	9b05      	ldr	r3, [sp, #20]
  LL_USART_Init(USART2, &USART_InitStruct);
 8000d98:	0021      	movs	r1, r4
  USART_InitStruct.DataWidth = LL_USART_DATAWIDTH_8B;
 8000d9a:	60a3      	str	r3, [r4, #8]
  USART_InitStruct.StopBits = LL_USART_STOPBITS_1;
 8000d9c:	60e3      	str	r3, [r4, #12]
  USART_InitStruct.Parity = LL_USART_PARITY_NONE;
 8000d9e:	6123      	str	r3, [r4, #16]
  USART_InitStruct.TransferDirection = LL_USART_DIRECTION_TX_RX;
 8000da0:	6160      	str	r0, [r4, #20]
  USART_InitStruct.HardwareFlowControl = LL_USART_HWCONTROL_NONE;
 8000da2:	61a3      	str	r3, [r4, #24]
  USART_InitStruct.OverSampling = LL_USART_OVERSAMPLING_16;
 8000da4:	61e3      	str	r3, [r4, #28]
  LL_USART_Init(USART2, &USART_InitStruct);
 8000da6:	0028      	movs	r0, r5
 8000da8:	f002 fdae 	bl	8003908 <LL_USART_Init>
{
  /* In Asynchronous mode, the following bits must be kept cleared:
  - LINEN, CLKEN bits in the USART_CR2 register,
  - SCEN, IREN and HDSEL bits in the USART_CR3 register.
  */
  CLEAR_BIT(USARTx->CR2, (USART_CR2_LINEN | USART_CR2_CLKEN));
 8000dac:	686b      	ldr	r3, [r5, #4]
 8000dae:	4a33      	ldr	r2, [pc, #204]	@ (8000e7c <main+0x434>)
  * @param  USARTx USART Instance
  * @retval State of bit (1 or 0).
  */
__STATIC_INLINE uint32_t LL_USART_IsActiveFlag_TEACK(const USART_TypeDef *USARTx)
{
  return ((READ_BIT(USARTx->ISR, USART_ISR_TEACK) == (USART_ISR_TEACK)) ? 1UL : 0UL);
 8000db0:	2180      	movs	r1, #128	@ 0x80
  CLEAR_BIT(USARTx->CR2, (USART_CR2_LINEN | USART_CR2_CLKEN));
 8000db2:	4013      	ands	r3, r2
  CLEAR_BIT(USARTx->CR3, (USART_CR3_SCEN | USART_CR3_IREN | USART_CR3_HDSEL));
 8000db4:	222a      	movs	r2, #42	@ 0x2a
  CLEAR_BIT(USARTx->CR2, (USART_CR2_LINEN | USART_CR2_CLKEN));
 8000db6:	606b      	str	r3, [r5, #4]
  CLEAR_BIT(USARTx->CR3, (USART_CR3_SCEN | USART_CR3_IREN | USART_CR3_HDSEL));
 8000db8:	68ab      	ldr	r3, [r5, #8]
  return ((READ_BIT(USARTx->ISR, USART_ISR_TEACK) == (USART_ISR_TEACK)) ? 1UL : 0UL);
 8000dba:	0389      	lsls	r1, r1, #14
  CLEAR_BIT(USARTx->CR3, (USART_CR3_SCEN | USART_CR3_IREN | USART_CR3_HDSEL));
 8000dbc:	4393      	bics	r3, r2
 8000dbe:	60ab      	str	r3, [r5, #8]
  SET_BIT(USARTx->CR1, USART_CR1_UE);
 8000dc0:	682b      	ldr	r3, [r5, #0]
 8000dc2:	4333      	orrs	r3, r6
 8000dc4:	602b      	str	r3, [r5, #0]
  * @param  USARTx USART Instance
  * @retval State of bit (1 or 0).
  */
__STATIC_INLINE uint32_t LL_USART_IsActiveFlag_REACK(const USART_TypeDef *USARTx)
{
  return ((READ_BIT(USARTx->ISR, USART_ISR_REACK) == (USART_ISR_REACK)) ? 1UL : 0UL);
 8000dc6:	2380      	movs	r3, #128	@ 0x80
 8000dc8:	03db      	lsls	r3, r3, #15
  return ((READ_BIT(USARTx->ISR, USART_ISR_TEACK) == (USART_ISR_TEACK)) ? 1UL : 0UL);
 8000dca:	69ea      	ldr	r2, [r5, #28]
 8000dcc:	420a      	tst	r2, r1
 8000dce:	d0fc      	beq.n	8000dca <main+0x382>
  return ((READ_BIT(USARTx->ISR, USART_ISR_REACK) == (USART_ISR_REACK)) ? 1UL : 0UL);
 8000dd0:	69ea      	ldr	r2, [r5, #28]
 8000dd2:	421a      	tst	r2, r3
 8000dd4:	d0f9      	beq.n	8000dca <main+0x382>
      QACTIVE_START(&MainApp_inst,           // AO pointer
 8000dd6:	2400      	movs	r4, #0
  QF_init();       // initialize the framework and the underlying RT kernel
 8000dd8:	f003 fc28 	bl	800462c <QF_init>
  BSP_init();      // initialize the BSP
 8000ddc:	f7ff fd0c 	bl	80007f8 <BSP_init>
  QF_poolInit(sensorEvtPoolSto, sizeof(sensorEvtPoolSto), sizeof(sensorEvtPoolSto[0]));
 8000de0:	220c      	movs	r2, #12
 8000de2:	2130      	movs	r1, #48	@ 0x30
 8000de4:	4826      	ldr	r0, [pc, #152]	@ (8000e80 <main+0x438>)
 8000de6:	f003 f8cb 	bl	8003f80 <QF_poolInit>
  Main_App_ctor(&MainApp_inst);
 8000dea:	4f26      	ldr	r7, [pc, #152]	@ (8000e84 <main+0x43c>)
 8000dec:	0038      	movs	r0, r7
 8000dee:	f000 f9b5 	bl	800115c <Main_App_ctor>
  Sensor_ctor(&Sensor_inst);
 8000df2:	4e25      	ldr	r6, [pc, #148]	@ (8000e88 <main+0x440>)
 8000df4:	0030      	movs	r0, r6
 8000df6:	f000 f9d1 	bl	800119c <Sensor_ctor>
  RFButton_ctor(&RFButton_inst);
 8000dfa:	4d24      	ldr	r5, [pc, #144]	@ (8000e8c <main+0x444>)
 8000dfc:	0028      	movs	r0, r5
 8000dfe:	f000 f9eb 	bl	80011d8 <RFButton_ctor>
      QACTIVE_START(&MainApp_inst,           // AO pointer
 8000e02:	0038      	movs	r0, r7
 8000e04:	230f      	movs	r3, #15
 8000e06:	2101      	movs	r1, #1
 8000e08:	4a21      	ldr	r2, [pc, #132]	@ (8000e90 <main+0x448>)
 8000e0a:	9402      	str	r4, [sp, #8]
 8000e0c:	9401      	str	r4, [sp, #4]
 8000e0e:	9400      	str	r4, [sp, #0]
 8000e10:	f003 fc2e 	bl	8004670 <QActive_start>
      QACTIVE_START(&Sensor_inst,           // AO pointer
 8000e14:	0030      	movs	r0, r6
 8000e16:	2310      	movs	r3, #16
 8000e18:	2103      	movs	r1, #3
 8000e1a:	4a1e      	ldr	r2, [pc, #120]	@ (8000e94 <main+0x44c>)
 8000e1c:	9402      	str	r4, [sp, #8]
 8000e1e:	9401      	str	r4, [sp, #4]
 8000e20:	9400      	str	r4, [sp, #0]
 8000e22:	f003 fc25 	bl	8004670 <QActive_start>
      QACTIVE_START(&RFButton_inst,           // AO pointer
 8000e26:	2305      	movs	r3, #5
 8000e28:	2102      	movs	r1, #2
 8000e2a:	0028      	movs	r0, r5
 8000e2c:	4a1a      	ldr	r2, [pc, #104]	@ (8000e98 <main+0x450>)
 8000e2e:	9402      	str	r4, [sp, #8]
 8000e30:	9401      	str	r4, [sp, #4]
 8000e32:	9400      	str	r4, [sp, #0]
 8000e34:	f003 fc1c 	bl	8004670 <QActive_start>
  return QF_run(); // run the QF application
 8000e38:	f003 fc04 	bl	8004644 <QF_run>
}
 8000e3c:	b01f      	add	sp, #124	@ 0x7c
 8000e3e:	bdf0      	pop	{r4, r5, r6, r7, pc}
 8000e40:	20000358 	.word	0x20000358
 8000e44:	40012400 	.word	0x40012400
 8000e48:	10000010 	.word	0x10000010
 8000e4c:	200002a0 	.word	0x200002a0
 8000e50:	40013000 	.word	0x40013000
 8000e54:	0000ffff 	.word	0x0000ffff
 8000e58:	40014800 	.word	0x40014800
 8000e5c:	50000800 	.word	0x50000800
 8000e60:	40000400 	.word	0x40000400
 8000e64:	fffebff8 	.word	0xfffebff8
 8000e68:	ffcfff8f 	.word	0xffcfff8f
 8000e6c:	fffefff8 	.word	0xfffefff8
 8000e70:	40000418 	.word	0x40000418
 8000e74:	ffffbfff 	.word	0xffffbfff
 8000e78:	40004400 	.word	0x40004400
 8000e7c:	ffffb7ff 	.word	0xffffb7ff
 8000e80:	200001e0 	.word	0x200001e0
 8000e84:	200003bc 	.word	0x200003bc
 8000e88:	20000460 	.word	0x20000460
 8000e8c:	2000043c 	.word	0x2000043c
 8000e90:	20000264 	.word	0x20000264
 8000e94:	20000224 	.word	0x20000224
 8000e98:	20000210 	.word	0x20000210

08000e9c <MainApp_initial>:
}

//${AOs::MainApp::SM} ........................................................
QState MainApp_initial(MainApp * const me, void const * const par) {
    //${AOs::MainApp::SM::initial}
    return Q_TRAN(&MainApp_display);
 8000e9c:	4b01      	ldr	r3, [pc, #4]	@ (8000ea4 <MainApp_initial+0x8>)
 8000e9e:	6083      	str	r3, [r0, #8]
}
 8000ea0:	2003      	movs	r0, #3
 8000ea2:	4770      	bx	lr
 8000ea4:	08001049 	.word	0x08001049

08000ea8 <MainApp_dry_alert>:
}

//${AOs::MainApp::SM::display::dry_alert} ....................................
QState MainApp_dry_alert(MainApp * const me, QEvt const * const e) {
    QState status_;
    switch (e->sig) {
 8000ea8:	880b      	ldrh	r3, [r1, #0]
QState MainApp_dry_alert(MainApp * const me, QEvt const * const e) {
 8000eaa:	b570      	push	{r4, r5, r6, lr}
 8000eac:	0004      	movs	r4, r0
    switch (e->sig) {
 8000eae:	2b02      	cmp	r3, #2
 8000eb0:	d00e      	beq.n	8000ed0 <MainApp_dry_alert+0x28>
 8000eb2:	2b11      	cmp	r3, #17
 8000eb4:	d015      	beq.n	8000ee2 <MainApp_dry_alert+0x3a>
 8000eb6:	2b01      	cmp	r3, #1
 8000eb8:	d122      	bne.n	8000f00 <MainApp_dry_alert+0x58>
        //${AOs::MainApp::SM::display::dry_alert}
        case Q_ENTRY_SIG: {
            QTimeEvt_armX(&me->dryTimerEvt, DRY_TIMEOUT , 0U);
 8000eba:	21c8      	movs	r1, #200	@ 0xc8
 8000ebc:	3064      	adds	r0, #100	@ 0x64
 8000ebe:	2200      	movs	r2, #0
 8000ec0:	0089      	lsls	r1, r1, #2
 8000ec2:	f003 fa7b 	bl	80043bc <QTimeEvt_armX>
            printf("entered DRY!\n");
 8000ec6:	4810      	ldr	r0, [pc, #64]	@ (8000f08 <MainApp_dry_alert+0x60>)
        }
        //${AOs::MainApp::SM::display::dry_alert}
        case Q_EXIT_SIG: {
            QTimeEvt_disarm(&me->dryTimerEvt);
            QTimeEvt_disarm(&me->tempPollEvt);
            printf("exited DRY!\n");
 8000ec8:	f004 f932 	bl	8005130 <puts>
            status_ = Q_HANDLED();
 8000ecc:	2002      	movs	r0, #2
            status_ = Q_SUPER(&MainApp_display);
            break;
        }
    }
    return status_;
}
 8000ece:	bd70      	pop	{r4, r5, r6, pc}
            QTimeEvt_disarm(&me->dryTimerEvt);
 8000ed0:	3064      	adds	r0, #100	@ 0x64
 8000ed2:	f003 faa9 	bl	8004428 <QTimeEvt_disarm>
            QTimeEvt_disarm(&me->tempPollEvt);
 8000ed6:	0020      	movs	r0, r4
 8000ed8:	3024      	adds	r0, #36	@ 0x24
 8000eda:	f003 faa5 	bl	8004428 <QTimeEvt_disarm>
            printf("exited DRY!\n");
 8000ede:	480b      	ldr	r0, [pc, #44]	@ (8000f0c <MainApp_dry_alert+0x64>)
 8000ee0:	e7f2      	b.n	8000ec8 <MainApp_dry_alert+0x20>
            QTimeEvt_disarm(&me->dryTimerEvt);
 8000ee2:	0005      	movs	r5, r0
 8000ee4:	3564      	adds	r5, #100	@ 0x64
 8000ee6:	0028      	movs	r0, r5
 8000ee8:	f003 fa9e 	bl	8004428 <QTimeEvt_disarm>
            QTimeEvt_armX(&me->dryTimerEvt, 300U , 0U);
 8000eec:	2196      	movs	r1, #150	@ 0x96
 8000eee:	0028      	movs	r0, r5
 8000ef0:	2200      	movs	r2, #0
 8000ef2:	0049      	lsls	r1, r1, #1
 8000ef4:	f003 fa62 	bl	80043bc <QTimeEvt_armX>
            status_ = Q_TRAN(&MainApp_pump);
 8000ef8:	4b05      	ldr	r3, [pc, #20]	@ (8000f10 <MainApp_dry_alert+0x68>)
 8000efa:	2003      	movs	r0, #3
 8000efc:	60a3      	str	r3, [r4, #8]
            break;
 8000efe:	e7e6      	b.n	8000ece <MainApp_dry_alert+0x26>
            status_ = Q_SUPER(&MainApp_display);
 8000f00:	4b04      	ldr	r3, [pc, #16]	@ (8000f14 <MainApp_dry_alert+0x6c>)
 8000f02:	6083      	str	r3, [r0, #8]
 8000f04:	2000      	movs	r0, #0
    return status_;
 8000f06:	e7e2      	b.n	8000ece <MainApp_dry_alert+0x26>
 8000f08:	08006254 	.word	0x08006254
 8000f0c:	08006261 	.word	0x08006261
 8000f10:	08000f19 	.word	0x08000f19
 8000f14:	08001049 	.word	0x08001049

08000f18 <MainApp_pump>:

//${AOs::MainApp::SM::pump} ..................................................
QState MainApp_pump(MainApp * const me, QEvt const * const e) {
 8000f18:	b570      	push	{r4, r5, r6, lr}
    QState status_;
    switch (e->sig) {
 8000f1a:	880d      	ldrh	r5, [r1, #0]
QState MainApp_pump(MainApp * const me, QEvt const * const e) {
 8000f1c:	0004      	movs	r4, r0
    switch (e->sig) {
 8000f1e:	2d08      	cmp	r5, #8
 8000f20:	d03f      	beq.n	8000fa2 <MainApp_pump+0x8a>
 8000f22:	d807      	bhi.n	8000f34 <MainApp_pump+0x1c>
 8000f24:	2d01      	cmp	r5, #1
 8000f26:	d012      	beq.n	8000f4e <MainApp_pump+0x36>
 8000f28:	2d02      	cmp	r5, #2
 8000f2a:	d02e      	beq.n	8000f8a <MainApp_pump+0x72>
            HAL_GPIO_WritePin(GPIOA, GPIO_PIN_5, GPIO_PIN_RESET);
            status_ = Q_TRAN(&MainApp_display);
            break;
        }
        default: {
            status_ = Q_SUPER(&QHsm_top);
 8000f2c:	4b20      	ldr	r3, [pc, #128]	@ (8000fb0 <MainApp_pump+0x98>)
 8000f2e:	2000      	movs	r0, #0
 8000f30:	60a3      	str	r3, [r4, #8]
            break;
        }
    }
    return status_;
 8000f32:	e029      	b.n	8000f88 <MainApp_pump+0x70>
    switch (e->sig) {
 8000f34:	2d11      	cmp	r5, #17
 8000f36:	d1f9      	bne.n	8000f2c <MainApp_pump+0x14>
            QTimeEvt_disarm(&me->dryTimerEvt);
 8000f38:	3064      	adds	r0, #100	@ 0x64
 8000f3a:	f003 fa75 	bl	8004428 <QTimeEvt_disarm>
            HAL_GPIO_WritePin(GPIOA, GPIO_PIN_5, GPIO_PIN_RESET);
 8000f3e:	20a0      	movs	r0, #160	@ 0xa0
 8000f40:	2200      	movs	r2, #0
 8000f42:	2120      	movs	r1, #32
 8000f44:	05c0      	lsls	r0, r0, #23
 8000f46:	f001 f8f5 	bl	8002134 <HAL_GPIO_WritePin>
            status_ = Q_TRAN(&MainApp_display);
 8000f4a:	4b1a      	ldr	r3, [pc, #104]	@ (8000fb4 <MainApp_pump+0x9c>)
 8000f4c:	e02d      	b.n	8000faa <MainApp_pump+0x92>
            printf("enter pump\n");
 8000f4e:	481a      	ldr	r0, [pc, #104]	@ (8000fb8 <MainApp_pump+0xa0>)
 8000f50:	f004 f8ee 	bl	8005130 <puts>
            QTimeEvt_disarm(&me->longPressEvt);
 8000f54:	0020      	movs	r0, r4
 8000f56:	3048      	adds	r0, #72	@ 0x48
 8000f58:	f003 fa66 	bl	8004428 <QTimeEvt_disarm>
            HAL_GPIO_WritePin(GPIOA, GPIO_PIN_5, GPIO_PIN_SET);
 8000f5c:	002a      	movs	r2, r5
 8000f5e:	20a0      	movs	r0, #160	@ 0xa0
            QTimeEvt_disarm(&me->dryTimerEvt);
 8000f60:	0025      	movs	r5, r4
            HAL_GPIO_WritePin(GPIOA, GPIO_PIN_5, GPIO_PIN_SET);
 8000f62:	2120      	movs	r1, #32
 8000f64:	05c0      	lsls	r0, r0, #23
            QTimeEvt_disarm(&me->dryTimerEvt);
 8000f66:	3564      	adds	r5, #100	@ 0x64
            HAL_GPIO_WritePin(GPIOA, GPIO_PIN_5, GPIO_PIN_SET);
 8000f68:	f001 f8e4 	bl	8002134 <HAL_GPIO_WritePin>
            QTimeEvt_disarm(&me->dryTimerEvt);
 8000f6c:	0028      	movs	r0, r5
 8000f6e:	f003 fa5b 	bl	8004428 <QTimeEvt_disarm>
            QTimeEvt_armX(&me->dryTimerEvt, 300U , 0U);
 8000f72:	2196      	movs	r1, #150	@ 0x96
 8000f74:	0028      	movs	r0, r5
 8000f76:	2200      	movs	r2, #0
 8000f78:	0049      	lsls	r1, r1, #1
 8000f7a:	f003 fa1f 	bl	80043bc <QTimeEvt_armX>
            QTimeEvt_disarm(&me->tempPollEvt);
 8000f7e:	0020      	movs	r0, r4
 8000f80:	3024      	adds	r0, #36	@ 0x24
            QTimeEvt_disarm(&me->dryTimerEvt);
 8000f82:	f003 fa51 	bl	8004428 <QTimeEvt_disarm>
            status_ = Q_HANDLED();
 8000f86:	2002      	movs	r0, #2
}
 8000f88:	bd70      	pop	{r4, r5, r6, pc}
            printf("exit pump\n");
 8000f8a:	480c      	ldr	r0, [pc, #48]	@ (8000fbc <MainApp_pump+0xa4>)
 8000f8c:	f004 f8d0 	bl	8005130 <puts>
            HAL_GPIO_WritePin(GPIOA, GPIO_PIN_5, GPIO_PIN_RESET);
 8000f90:	20a0      	movs	r0, #160	@ 0xa0
 8000f92:	2200      	movs	r2, #0
 8000f94:	05c0      	lsls	r0, r0, #23
 8000f96:	2120      	movs	r1, #32
 8000f98:	f001 f8cc 	bl	8002134 <HAL_GPIO_WritePin>
            QTimeEvt_disarm(&me->dryTimerEvt);
 8000f9c:	0020      	movs	r0, r4
 8000f9e:	3064      	adds	r0, #100	@ 0x64
 8000fa0:	e7ef      	b.n	8000f82 <MainApp_pump+0x6a>
            printf("released the btm inside pump \n");
 8000fa2:	4807      	ldr	r0, [pc, #28]	@ (8000fc0 <MainApp_pump+0xa8>)
 8000fa4:	f004 f8c4 	bl	8005130 <puts>
            status_ = Q_TRAN(&MainApp_display_stats);
 8000fa8:	4b06      	ldr	r3, [pc, #24]	@ (8000fc4 <MainApp_pump+0xac>)
 8000faa:	2003      	movs	r0, #3
            status_ = Q_TRAN(&MainApp_display);
 8000fac:	60a3      	str	r3, [r4, #8]
            break;
 8000fae:	e7eb      	b.n	8000f88 <MainApp_pump+0x70>
 8000fb0:	08003b01 	.word	0x08003b01
 8000fb4:	08001049 	.word	0x08001049
 8000fb8:	0800626d 	.word	0x0800626d
 8000fbc:	08006278 	.word	0x08006278
 8000fc0:	08006282 	.word	0x08006282
 8000fc4:	08000fc9 	.word	0x08000fc9

08000fc8 <MainApp_display_stats>:
    switch (e->sig) {
 8000fc8:	880b      	ldrh	r3, [r1, #0]
QState MainApp_display_stats(MainApp * const me, QEvt const * const e) {
 8000fca:	b510      	push	{r4, lr}
 8000fcc:	0004      	movs	r4, r0
    switch (e->sig) {
 8000fce:	2b01      	cmp	r3, #1
 8000fd0:	d005      	beq.n	8000fde <MainApp_display_stats+0x16>
 8000fd2:	2b10      	cmp	r3, #16
 8000fd4:	d014      	beq.n	8001000 <MainApp_display_stats+0x38>
            status_ = Q_SUPER(&MainApp_display);
 8000fd6:	4b0c      	ldr	r3, [pc, #48]	@ (8001008 <MainApp_display_stats+0x40>)
 8000fd8:	6083      	str	r3, [r0, #8]
 8000fda:	2000      	movs	r0, #0
    return status_;
 8000fdc:	e00f      	b.n	8000ffe <MainApp_display_stats+0x36>
            display_temp(me->currentTemp);
 8000fde:	0003      	movs	r3, r0
 8000fe0:	3340      	adds	r3, #64	@ 0x40
 8000fe2:	7818      	ldrb	r0, [r3, #0]
 8000fe4:	f7ff fcac 	bl	8000940 <display_temp>
            QTimeEvt_armX(&me->tempPollEvt,
 8000fe8:	0020      	movs	r0, r4
 8000fea:	22fa      	movs	r2, #250	@ 0xfa
 8000fec:	21c8      	movs	r1, #200	@ 0xc8
 8000fee:	3024      	adds	r0, #36	@ 0x24
 8000ff0:	00d2      	lsls	r2, r2, #3
 8000ff2:	f003 f9e3 	bl	80043bc <QTimeEvt_armX>
            printf("enter display stats: arm polling");
 8000ff6:	4805      	ldr	r0, [pc, #20]	@ (800100c <MainApp_display_stats+0x44>)
 8000ff8:	f004 f834 	bl	8005064 <iprintf>
 8000ffc:	2002      	movs	r0, #2
}
 8000ffe:	bd10      	pop	{r4, pc}
            status_ = Q_TRAN(&MainApp_dry_alert);
 8001000:	4b03      	ldr	r3, [pc, #12]	@ (8001010 <MainApp_display_stats+0x48>)
 8001002:	6083      	str	r3, [r0, #8]
 8001004:	2003      	movs	r0, #3
            break;
 8001006:	e7fa      	b.n	8000ffe <MainApp_display_stats+0x36>
 8001008:	08001049 	.word	0x08001049
 800100c:	080062a0 	.word	0x080062a0
 8001010:	08000ea9 	.word	0x08000ea9

08001014 <MainApp_calc_dryness_percent>:
    if(dryness >= MAX_DRY)
 8001014:	4a09      	ldr	r2, [pc, #36]	@ (800103c <MainApp_calc_dryness_percent+0x28>)
uint8_t MainApp_calc_dryness_percent(uint16_t dryness) {
 8001016:	0003      	movs	r3, r0
 8001018:	b510      	push	{r4, lr}
        return 100;
 800101a:	2064      	movs	r0, #100	@ 0x64
    if(dryness >= MAX_DRY)
 800101c:	4293      	cmp	r3, r2
 800101e:	d80c      	bhi.n	800103a <MainApp_calc_dryness_percent+0x26>
    if((uint16_t) dryness <= (uint16_t) MAX_WET)
 8001020:	22fa      	movs	r2, #250	@ 0xfa
        return 0;
 8001022:	2000      	movs	r0, #0
    if((uint16_t) dryness <= (uint16_t) MAX_WET)
 8001024:	0092      	lsls	r2, r2, #2
 8001026:	4293      	cmp	r3, r2
 8001028:	d907      	bls.n	800103a <MainApp_calc_dryness_percent+0x26>
    percent = ((dryness - MAX_WET) * 100) / (MAX_DRY - MAX_WET);
 800102a:	3064      	adds	r0, #100	@ 0x64
 800102c:	4358      	muls	r0, r3
 800102e:	4b04      	ldr	r3, [pc, #16]	@ (8001040 <MainApp_calc_dryness_percent+0x2c>)
 8001030:	4904      	ldr	r1, [pc, #16]	@ (8001044 <MainApp_calc_dryness_percent+0x30>)
 8001032:	18c0      	adds	r0, r0, r3
 8001034:	f7ff f87c 	bl	8000130 <__udivsi3>
 8001038:	b2c0      	uxtb	r0, r0
}
 800103a:	bd10      	pop	{r4, pc}
 800103c:	000009c3 	.word	0x000009c3
 8001040:	fffe7960 	.word	0xfffe7960
 8001044:	000005dc 	.word	0x000005dc

08001048 <MainApp_display>:
QState MainApp_display(MainApp * const me, QEvt const * const e) {
 8001048:	b570      	push	{r4, r5, r6, lr}
 800104a:	0004      	movs	r4, r0
    switch (e->sig) {
 800104c:	8808      	ldrh	r0, [r1, #0]
QState MainApp_display(MainApp * const me, QEvt const * const e) {
 800104e:	000d      	movs	r5, r1
    switch (e->sig) {
 8001050:	3801      	subs	r0, #1
 8001052:	2809      	cmp	r0, #9
 8001054:	d865      	bhi.n	8001122 <MainApp_display+0xda>
 8001056:	f7ff f857 	bl	8000108 <__gnu_thumb1_case_uqi>
 800105a:	0b05      	.short	0x0b05
 800105c:	64343e0d 	.word	0x64343e0d
 8001060:	11644d4b 	.word	0x11644d4b
            HAL_GPIO_WritePin(GPIOA, GPIO_PIN_5, GPIO_PIN_RESET);
 8001064:	20a0      	movs	r0, #160	@ 0xa0
 8001066:	2200      	movs	r2, #0
 8001068:	2120      	movs	r1, #32
 800106a:	05c0      	lsls	r0, r0, #23
 800106c:	f001 f862 	bl	8002134 <HAL_GPIO_WritePin>
            status_ = Q_HANDLED();
 8001070:	2002      	movs	r0, #2
}
 8001072:	bd70      	pop	{r4, r5, r6, pc}
            status_ = Q_TRAN(&MainApp_display_stats);
 8001074:	4b2d      	ldr	r3, [pc, #180]	@ (800112c <MainApp_display+0xe4>)
 8001076:	2003      	movs	r0, #3
            status_ = Q_TRAN(&MainApp_pump);
 8001078:	60a3      	str	r3, [r4, #8]
            break;
 800107a:	e7fa      	b.n	8001072 <MainApp_display+0x2a>
            me->currentTemp = sensorEvt->temperature;
 800107c:	0026      	movs	r6, r4
            printf("DONE SENSOR \n");
 800107e:	482c      	ldr	r0, [pc, #176]	@ (8001130 <MainApp_display+0xe8>)
 8001080:	f004 f856 	bl	8005130 <puts>
            me->currentTemp = sensorEvt->temperature;
 8001084:	896b      	ldrh	r3, [r5, #10]
 8001086:	3640      	adds	r6, #64	@ 0x40
 8001088:	7033      	strb	r3, [r6, #0]
            uint8_t p = MainApp_calc_dryness_percent(tempDry);
 800108a:	8928      	ldrh	r0, [r5, #8]
 800108c:	f7ff ffc2 	bl	8001014 <MainApp_calc_dryness_percent>
            me->currentDryness = p;
 8001090:	1d23      	adds	r3, r4, #4
            uint8_t p = MainApp_calc_dryness_percent(tempDry);
 8001092:	0005      	movs	r5, r0
            me->currentDryness = p;
 8001094:	87d8      	strh	r0, [r3, #62]	@ 0x3e
            if (p > PLANT_DRY_THREASHOLD)
 8001096:	2814      	cmp	r0, #20
 8001098:	d905      	bls.n	80010a6 <MainApp_display+0x5e>
                QACTIVE_POST(AO_Main_App,&dry_Evt, me);
 800109a:	2300      	movs	r3, #0
 800109c:	4925      	ldr	r1, [pc, #148]	@ (8001134 <MainApp_display+0xec>)
 800109e:	4826      	ldr	r0, [pc, #152]	@ (8001138 <MainApp_display+0xf0>)
 80010a0:	4a26      	ldr	r2, [pc, #152]	@ (800113c <MainApp_display+0xf4>)
 80010a2:	f002 fee3 	bl	8003e6c <QActive_post_>
            switch(me->currentState)
 80010a6:	3444      	adds	r4, #68	@ 0x44
 80010a8:	7823      	ldrb	r3, [r4, #0]
 80010aa:	2b00      	cmp	r3, #0
 80010ac:	d005      	beq.n	80010ba <MainApp_display+0x72>
 80010ae:	2b01      	cmp	r3, #1
 80010b0:	d1de      	bne.n	8001070 <MainApp_display+0x28>
                    display_dry(p);
 80010b2:	0028      	movs	r0, r5
                display_dry(me->currentDryness);
 80010b4:	f7ff fc72 	bl	800099c <display_dry>
 80010b8:	e7da      	b.n	8001070 <MainApp_display+0x28>
                display_temp(me->currentTemp);
 80010ba:	7830      	ldrb	r0, [r6, #0]
                display_temp(me->currentTemp);
 80010bc:	f7ff fc40 	bl	8000940 <display_temp>
 80010c0:	e7d6      	b.n	8001070 <MainApp_display+0x28>
            printf("POLL SENSOR \n");
 80010c2:	481f      	ldr	r0, [pc, #124]	@ (8001140 <MainApp_display+0xf8>)
 80010c4:	f004 f834 	bl	8005130 <puts>
            QACTIVE_POST(AO_Sensor,&ADC_Start_Evt, me);
 80010c8:	2300      	movs	r3, #0
 80010ca:	491e      	ldr	r1, [pc, #120]	@ (8001144 <MainApp_display+0xfc>)
 80010cc:	4a1b      	ldr	r2, [pc, #108]	@ (800113c <MainApp_display+0xf4>)
 80010ce:	481e      	ldr	r0, [pc, #120]	@ (8001148 <MainApp_display+0x100>)
 80010d0:	f002 fecc 	bl	8003e6c <QActive_post_>
            break;
 80010d4:	e7cc      	b.n	8001070 <MainApp_display+0x28>
            QTimeEvt_disarm(&me->longPressEvt);
 80010d6:	3448      	adds	r4, #72	@ 0x48
 80010d8:	0020      	movs	r0, r4
 80010da:	f003 f9a5 	bl	8004428 <QTimeEvt_disarm>
            QTimeEvt_armX(&me->longPressEvt, LONG_PRESS_TIME_MS / 10, 0U);
 80010de:	0020      	movs	r0, r4
 80010e0:	2200      	movs	r2, #0
 80010e2:	2164      	movs	r1, #100	@ 0x64
 80010e4:	f003 f96a 	bl	80043bc <QTimeEvt_armX>
            printf("pressed btn!\n");
 80010e8:	4818      	ldr	r0, [pc, #96]	@ (800114c <MainApp_display+0x104>)
 80010ea:	f004 f821 	bl	8005130 <puts>
            break;
 80010ee:	e7bf      	b.n	8001070 <MainApp_display+0x28>
            status_ = Q_TRAN(&MainApp_pump);
 80010f0:	4b17      	ldr	r3, [pc, #92]	@ (8001150 <MainApp_display+0x108>)
 80010f2:	e7c0      	b.n	8001076 <MainApp_display+0x2e>
            QTimeEvt_disarm(&me->longPressEvt);
 80010f4:	0020      	movs	r0, r4
 80010f6:	3048      	adds	r0, #72	@ 0x48
 80010f8:	f003 f996 	bl	8004428 <QTimeEvt_disarm>
            printf("released btn!\n");
 80010fc:	4815      	ldr	r0, [pc, #84]	@ (8001154 <MainApp_display+0x10c>)
 80010fe:	f004 f817 	bl	8005130 <puts>
            if(me->currentState == TEMPERATURE)
 8001102:	0023      	movs	r3, r4
 8001104:	3344      	adds	r3, #68	@ 0x44
 8001106:	7819      	ldrb	r1, [r3, #0]
 8001108:	1d22      	adds	r2, r4, #4
 800110a:	2900      	cmp	r1, #0
 800110c:	d104      	bne.n	8001118 <MainApp_display+0xd0>
                me->currentState = DRYNESS;
 800110e:	3101      	adds	r1, #1
 8001110:	7019      	strb	r1, [r3, #0]
                display_dry(me->currentDryness);
 8001112:	8fd0      	ldrh	r0, [r2, #62]	@ 0x3e
 8001114:	b2c0      	uxtb	r0, r0
 8001116:	e7cd      	b.n	80010b4 <MainApp_display+0x6c>
                me->currentState = TEMPERATURE;
 8001118:	2200      	movs	r2, #0
                display_temp(me->currentTemp);
 800111a:	3440      	adds	r4, #64	@ 0x40
                me->currentState = TEMPERATURE;
 800111c:	701a      	strb	r2, [r3, #0]
                display_temp(me->currentTemp);
 800111e:	7820      	ldrb	r0, [r4, #0]
 8001120:	e7cc      	b.n	80010bc <MainApp_display+0x74>
            status_ = Q_SUPER(&QHsm_top);
 8001122:	4b0d      	ldr	r3, [pc, #52]	@ (8001158 <MainApp_display+0x110>)
 8001124:	2000      	movs	r0, #0
 8001126:	60a3      	str	r3, [r4, #8]
    return status_;
 8001128:	e7a3      	b.n	8001072 <MainApp_display+0x2a>
 800112a:	46c0      	nop			@ (mov r8, r8)
 800112c:	08000fc9 	.word	0x08000fc9
 8001130:	080062c1 	.word	0x080062c1
 8001134:	0800639c 	.word	0x0800639c
 8001138:	200003bc 	.word	0x200003bc
 800113c:	0000ffff 	.word	0x0000ffff
 8001140:	080062ce 	.word	0x080062ce
 8001144:	08006394 	.word	0x08006394
 8001148:	20000460 	.word	0x20000460
 800114c:	080062db 	.word	0x080062db
 8001150:	08000f19 	.word	0x08000f19
 8001154:	080062e8 	.word	0x080062e8
 8001158:	08003b01 	.word	0x08003b01

0800115c <Main_App_ctor>:

//${Shared::AO_Main_App} .....................................................
QActive * const AO_Main_App = &MainApp_inst.super;

//${Shared::Main_App_ctor} ...................................................
void Main_App_ctor(MainApp * const me) {
 800115c:	b510      	push	{r4, lr}
 800115e:	0004      	movs	r4, r0
    QActive_ctor(&me->super, Q_STATE_CAST(&MainApp_initial));
 8001160:	490d      	ldr	r1, [pc, #52]	@ (8001198 <Main_App_ctor+0x3c>)
 8001162:	f003 f875 	bl	8004250 <QActive_ctor>
    QTimeEvt_ctorX(&me->tempPollEvt, &me->super, POLL_SENSOR_SIG, 0U);
 8001166:	0020      	movs	r0, r4
 8001168:	0021      	movs	r1, r4
 800116a:	2300      	movs	r3, #0
 800116c:	2205      	movs	r2, #5
 800116e:	3024      	adds	r0, #36	@ 0x24
 8001170:	f003 f902 	bl	8004378 <QTimeEvt_ctorX>
    QTimeEvt_ctorX(&me->longPressEvt, &me->super, BUTTON_LONG_SIG, 0U);
 8001174:	0020      	movs	r0, r4
 8001176:	0021      	movs	r1, r4
 8001178:	2300      	movs	r3, #0
 800117a:	2207      	movs	r2, #7
 800117c:	3048      	adds	r0, #72	@ 0x48
 800117e:	f003 f8fb 	bl	8004378 <QTimeEvt_ctorX>
    QTimeEvt_ctorX(&me->dryTimerEvt, &me->super, WATER_PLANT_SIG, 0U);
 8001182:	0020      	movs	r0, r4
 8001184:	0021      	movs	r1, r4
 8001186:	2300      	movs	r3, #0
 8001188:	2211      	movs	r2, #17
 800118a:	3064      	adds	r0, #100	@ 0x64
 800118c:	f003 f8f4 	bl	8004378 <QTimeEvt_ctorX>

    me->currentTemp = 0.0f;
 8001190:	2300      	movs	r3, #0
 8001192:	3440      	adds	r4, #64	@ 0x40
 8001194:	7023      	strb	r3, [r4, #0]
}
 8001196:	bd10      	pop	{r4, pc}
 8001198:	08000e9d 	.word	0x08000e9d

0800119c <Sensor_ctor>:

//${Shared::AO_Sensor} .......................................................
QActive * const AO_Sensor = &Sensor_inst.super;

//${Shared::Sensor_ctor} .....................................................
void Sensor_ctor(Sensor * const me) {
 800119c:	b510      	push	{r4, lr}
 800119e:	0004      	movs	r4, r0
    QActive_ctor(&me->super, Q_STATE_CAST(&Sensor_initial));
 80011a0:	490b      	ldr	r1, [pc, #44]	@ (80011d0 <Sensor_ctor+0x34>)
 80011a2:	f003 f855 	bl	8004250 <QActive_ctor>
    QTimeEvt_ctorX(&me->resetEvt, &me->super, DHT11_RESET_SIG, 0U);
 80011a6:	0020      	movs	r0, r4
 80011a8:	0021      	movs	r1, r4
 80011aa:	2300      	movs	r3, #0
 80011ac:	220e      	movs	r2, #14
 80011ae:	3038      	adds	r0, #56	@ 0x38
 80011b0:	f003 f8e2 	bl	8004378 <QTimeEvt_ctorX>
    QTimeEvt_ctorX(&me->dht11StartEvt, &me->super, DHT11_START_SIG, 0U);
 80011b4:	0020      	movs	r0, r4
 80011b6:	0021      	movs	r1, r4
 80011b8:	2300      	movs	r3, #0
 80011ba:	220c      	movs	r2, #12
 80011bc:	3054      	adds	r0, #84	@ 0x54
 80011be:	f003 f8db 	bl	8004378 <QTimeEvt_ctorX>
    me->dma_buffer = Sensor_dht11_dma_buffer;
 80011c2:	4b04      	ldr	r3, [pc, #16]	@ (80011d4 <Sensor_ctor+0x38>)
 80011c4:	6323      	str	r3, [r4, #48]	@ 0x30
    me->dma_index = 0;
 80011c6:	2300      	movs	r3, #0
 80011c8:	3434      	adds	r4, #52	@ 0x34
 80011ca:	7023      	strb	r3, [r4, #0]

}
 80011cc:	bd10      	pop	{r4, pc}
 80011ce:	46c0      	nop			@ (mov r8, r8)
 80011d0:	0800148d 	.word	0x0800148d
 80011d4:	20000084 	.word	0x20000084

080011d8 <RFButton_ctor>:

//${Shared::AO_RFButton} .....................................................
QActive * const AO_RFButton = &RFButton_inst.super;

//${Shared::RFButton_ctor} ...................................................
void RFButton_ctor(RFButton * const me) {
 80011d8:	b510      	push	{r4, lr}
    QActive_ctor(&me->super, Q_STATE_CAST(&RFButton_initial));
 80011da:	4902      	ldr	r1, [pc, #8]	@ (80011e4 <RFButton_ctor+0xc>)
 80011dc:	f003 f838 	bl	8004250 <QActive_ctor>

}
 80011e0:	bd10      	pop	{r4, pc}
 80011e2:	46c0      	nop			@ (mov r8, r8)
 80011e4:	0800126d 	.word	0x0800126d

080011e8 <RFButton_receive_rf>:

//${AOs::RFButton} ...........................................................
RFButton RFButton_inst;

//${AOs::RFButton::receive_rf} ...............................................
void RFButton_receive_rf(void) {
 80011e8:	b500      	push	{lr}
 80011ea:	b089      	sub	sp, #36	@ 0x24
    while(nrf24_data_available()) {
 80011ec:	f003 fcb9 	bl	8004b62 <nrf24_data_available>
 80011f0:	2800      	cmp	r0, #0
 80011f2:	d101      	bne.n	80011f8 <RFButton_receive_rf+0x10>
                static QEvt const rlsEvt = { BUTTON_RELEASE_SIG, 0U, 0U };
                QACTIVE_POST(AO_Main_App, &rlsEvt, me);
            }

        }
}
 80011f4:	b009      	add	sp, #36	@ 0x24
 80011f6:	bd00      	pop	{pc}
            nrf24_receive(payload, sizeof(payload));
 80011f8:	2120      	movs	r1, #32
 80011fa:	4668      	mov	r0, sp
 80011fc:	f003 fcba 	bl	8004b74 <nrf24_receive>
            if(payload[0] == 49U)
 8001200:	466b      	mov	r3, sp
 8001202:	781b      	ldrb	r3, [r3, #0]
 8001204:	2b31      	cmp	r3, #49	@ 0x31
 8001206:	d106      	bne.n	8001216 <RFButton_receive_rf+0x2e>
                QACTIVE_POST(AO_Main_App, &nrfEvt, me);
 8001208:	4809      	ldr	r0, [pc, #36]	@ (8001230 <RFButton_receive_rf+0x48>)
 800120a:	2300      	movs	r3, #0
 800120c:	4909      	ldr	r1, [pc, #36]	@ (8001234 <RFButton_receive_rf+0x4c>)
 800120e:	4a0a      	ldr	r2, [pc, #40]	@ (8001238 <RFButton_receive_rf+0x50>)
 8001210:	6800      	ldr	r0, [r0, #0]
 8001212:	f002 fe2b 	bl	8003e6c <QActive_post_>
            if(payload[0] == 50U)
 8001216:	466b      	mov	r3, sp
 8001218:	781b      	ldrb	r3, [r3, #0]
 800121a:	2b32      	cmp	r3, #50	@ 0x32
 800121c:	d1e6      	bne.n	80011ec <RFButton_receive_rf+0x4>
                QACTIVE_POST(AO_Main_App, &rlsEvt, me);
 800121e:	4804      	ldr	r0, [pc, #16]	@ (8001230 <RFButton_receive_rf+0x48>)
 8001220:	2300      	movs	r3, #0
 8001222:	4906      	ldr	r1, [pc, #24]	@ (800123c <RFButton_receive_rf+0x54>)
 8001224:	4a04      	ldr	r2, [pc, #16]	@ (8001238 <RFButton_receive_rf+0x50>)
 8001226:	6800      	ldr	r0, [r0, #0]
 8001228:	f002 fe20 	bl	8003e6c <QActive_post_>
 800122c:	e7de      	b.n	80011ec <RFButton_receive_rf+0x4>
 800122e:	46c0      	nop			@ (mov r8, r8)
 8001230:	080063ac 	.word	0x080063ac
 8001234:	080063b8 	.word	0x080063b8
 8001238:	0000ffff 	.word	0x0000ffff
 800123c:	080063b0 	.word	0x080063b0

08001240 <RFButton_wait>:
}

//${AOs::RFButton::SM::wait} .................................................
QState RFButton_wait(RFButton * const me, QEvt const * const e) {
    QState status_;
    switch (e->sig) {
 8001240:	880b      	ldrh	r3, [r1, #0]
QState RFButton_wait(RFButton * const me, QEvt const * const e) {
 8001242:	b510      	push	{r4, lr}
    switch (e->sig) {
 8001244:	2b01      	cmp	r3, #1
 8001246:	d005      	beq.n	8001254 <RFButton_wait+0x14>
 8001248:	2b0b      	cmp	r3, #11
 800124a:	d008      	beq.n	800125e <RFButton_wait+0x1e>

            status_ = Q_HANDLED();
            break;
        }
        default: {
            status_ = Q_SUPER(&QHsm_top);
 800124c:	4b05      	ldr	r3, [pc, #20]	@ (8001264 <RFButton_wait+0x24>)
 800124e:	6083      	str	r3, [r0, #8]
 8001250:	2000      	movs	r0, #0
            break;
        }
    }
    return status_;
 8001252:	e003      	b.n	800125c <RFButton_wait+0x1c>
            printf("wait\n");
 8001254:	4804      	ldr	r0, [pc, #16]	@ (8001268 <RFButton_wait+0x28>)
 8001256:	f003 ff6b 	bl	8005130 <puts>
            status_ = Q_HANDLED();
 800125a:	2002      	movs	r0, #2
}
 800125c:	bd10      	pop	{r4, pc}
            RFButton_receive_rf();
 800125e:	f7ff ffc3 	bl	80011e8 <RFButton_receive_rf>
            break;
 8001262:	e7fa      	b.n	800125a <RFButton_wait+0x1a>
 8001264:	08003b01 	.word	0x08003b01
 8001268:	080062f6 	.word	0x080062f6

0800126c <RFButton_initial>:
    return Q_TRAN(&RFButton_wait);
 800126c:	4b01      	ldr	r3, [pc, #4]	@ (8001274 <RFButton_initial+0x8>)
 800126e:	6083      	str	r3, [r0, #8]
}
 8001270:	2003      	movs	r0, #3
 8001272:	4770      	bx	lr
 8001274:	08001241 	.word	0x08001241

08001278 <Sensor_waiting>:
}

//${AOs::Sensor::SM::waiting} ................................................
QState Sensor_waiting(Sensor * const me, QEvt const * const e) {
    QState status_;
    switch (e->sig) {
 8001278:	880b      	ldrh	r3, [r1, #0]
QState Sensor_waiting(Sensor * const me, QEvt const * const e) {
 800127a:	b510      	push	{r4, lr}
 800127c:	0004      	movs	r4, r0
    switch (e->sig) {
 800127e:	2b01      	cmp	r3, #1
 8001280:	d005      	beq.n	800128e <Sensor_waiting+0x16>
 8001282:	2b09      	cmp	r3, #9
 8001284:	d00c      	beq.n	80012a0 <Sensor_waiting+0x28>
        case START_SENSOR_SIG: {
            status_ = Q_TRAN(&Sensor_start_dht);
            break;
        }
        default: {
            status_ = Q_SUPER(&QHsm_top);
 8001286:	4b08      	ldr	r3, [pc, #32]	@ (80012a8 <Sensor_waiting+0x30>)
 8001288:	6083      	str	r3, [r0, #8]
 800128a:	2000      	movs	r0, #0
            break;
        }
    }
    return status_;
 800128c:	e007      	b.n	800129e <Sensor_waiting+0x26>
            printf("1 waiting waiting \n");
 800128e:	4807      	ldr	r0, [pc, #28]	@ (80012ac <Sensor_waiting+0x34>)
 8001290:	f003 ff4e 	bl	8005130 <puts>
            QTimeEvt_disarm(&me->resetEvt);
 8001294:	0020      	movs	r0, r4
 8001296:	3038      	adds	r0, #56	@ 0x38
 8001298:	f003 f8c6 	bl	8004428 <QTimeEvt_disarm>
 800129c:	2002      	movs	r0, #2
}
 800129e:	bd10      	pop	{r4, pc}
            status_ = Q_TRAN(&Sensor_start_dht);
 80012a0:	4b03      	ldr	r3, [pc, #12]	@ (80012b0 <Sensor_waiting+0x38>)
 80012a2:	6083      	str	r3, [r0, #8]
 80012a4:	2003      	movs	r0, #3
            break;
 80012a6:	e7fa      	b.n	800129e <Sensor_waiting+0x26>
 80012a8:	08003b01 	.word	0x08003b01
 80012ac:	080062fb 	.word	0x080062fb
 80012b0:	080012b5 	.word	0x080012b5

080012b4 <Sensor_start_dht>:
}

//${AOs::Sensor::SM::start_dht} ..............................................
QState Sensor_start_dht(Sensor * const me, QEvt const * const e) {
    QState status_;
    switch (e->sig) {
 80012b4:	880b      	ldrh	r3, [r1, #0]
QState Sensor_start_dht(Sensor * const me, QEvt const * const e) {
 80012b6:	b570      	push	{r4, r5, r6, lr}
 80012b8:	0004      	movs	r4, r0
    switch (e->sig) {
 80012ba:	2b01      	cmp	r3, #1
 80012bc:	d005      	beq.n	80012ca <Sensor_start_dht+0x16>
 80012be:	2b0c      	cmp	r3, #12
 80012c0:	d01d      	beq.n	80012fe <Sensor_start_dht+0x4a>
            Delay_us(30);  // 20–40 µs wait
            status_ = Q_TRAN(&Sensor_wait_response);
            break;
        }
        default: {
            status_ = Q_SUPER(&QHsm_top);
 80012c2:	4b13      	ldr	r3, [pc, #76]	@ (8001310 <Sensor_start_dht+0x5c>)
 80012c4:	6083      	str	r3, [r0, #8]
 80012c6:	2000      	movs	r0, #0
            break;
        }
    }
    return status_;
 80012c8:	e018      	b.n	80012fc <Sensor_start_dht+0x48>
            me->byte_index = 0;
 80012ca:	0003      	movs	r3, r0
            for(int i=0;i<5;i++) me->bits[i]=0;
 80012cc:	2500      	movs	r5, #0
            me->byte_index = 0;
 80012ce:	332a      	adds	r3, #42	@ 0x2a
            QTimeEvt_armX(&me->resetEvt, DHT11_RESET_TIME, 0U);
 80012d0:	002a      	movs	r2, r5
 80012d2:	4910      	ldr	r1, [pc, #64]	@ (8001314 <Sensor_start_dht+0x60>)
            for(int i=0;i<5;i++) me->bits[i]=0;
 80012d4:	6245      	str	r5, [r0, #36]	@ 0x24
 80012d6:	8505      	strh	r5, [r0, #40]	@ 0x28
            me->byte_index = 0;
 80012d8:	701d      	strb	r5, [r3, #0]
            QTimeEvt_armX(&me->resetEvt, DHT11_RESET_TIME, 0U);
 80012da:	3038      	adds	r0, #56	@ 0x38
 80012dc:	f003 f86e 	bl	80043bc <QTimeEvt_armX>
            DHT11_SetPinOutput();
 80012e0:	f000 fa2c 	bl	800173c <DHT11_SetPinOutput>
            HAL_GPIO_WritePin(DHT11_PORT, DHT11_PIN, GPIO_PIN_RESET);
 80012e4:	002a      	movs	r2, r5
 80012e6:	2140      	movs	r1, #64	@ 0x40
 80012e8:	480b      	ldr	r0, [pc, #44]	@ (8001318 <Sensor_start_dht+0x64>)
 80012ea:	f000 ff23 	bl	8002134 <HAL_GPIO_WritePin>
            QTimeEvt_armX(&me->dht11StartEvt, 2U, 0U); // 27ms
 80012ee:	0020      	movs	r0, r4
 80012f0:	002a      	movs	r2, r5
 80012f2:	3054      	adds	r0, #84	@ 0x54
 80012f4:	2102      	movs	r1, #2
 80012f6:	f003 f861 	bl	80043bc <QTimeEvt_armX>
 80012fa:	2002      	movs	r0, #2
}
 80012fc:	bd70      	pop	{r4, r5, r6, pc}
            DHT11_SetPinInput();
 80012fe:	f000 fa3b 	bl	8001778 <DHT11_SetPinInput>
            Delay_us(30);  // 20–40 µs wait
 8001302:	201e      	movs	r0, #30
 8001304:	f000 fa84 	bl	8001810 <Delay_us>
            status_ = Q_TRAN(&Sensor_wait_response);
 8001308:	4b04      	ldr	r3, [pc, #16]	@ (800131c <Sensor_start_dht+0x68>)
 800130a:	2003      	movs	r0, #3
 800130c:	60a3      	str	r3, [r4, #8]
            break;
 800130e:	e7f5      	b.n	80012fc <Sensor_start_dht+0x48>
 8001310:	08003b01 	.word	0x08003b01
 8001314:	00000bb8 	.word	0x00000bb8
 8001318:	50000800 	.word	0x50000800
 800131c:	08001349 	.word	0x08001349

08001320 <Sensor_get_adc_dryness>:
uint16_t Sensor_get_adc_dryness(void) {
 8001320:	b510      	push	{r4, lr}
    HAL_ADC_Start(&hadc1);
 8001322:	4c08      	ldr	r4, [pc, #32]	@ (8001344 <Sensor_get_adc_dryness+0x24>)
 8001324:	0020      	movs	r0, r4
 8001326:	f000 fdd9 	bl	8001edc <HAL_ADC_Start>
    if (HAL_ADC_PollForConversion(&hadc1, 10) == HAL_OK) { // timeout in ms
 800132a:	210a      	movs	r1, #10
 800132c:	0020      	movs	r0, r4
 800132e:	f000 fbf5 	bl	8001b1c <HAL_ADC_PollForConversion>
 8001332:	0003      	movs	r3, r0
    return 0;
 8001334:	2000      	movs	r0, #0
    if (HAL_ADC_PollForConversion(&hadc1, 10) == HAL_OK) { // timeout in ms
 8001336:	4283      	cmp	r3, r0
 8001338:	d103      	bne.n	8001342 <Sensor_get_adc_dryness+0x22>
        return (uint16_t)HAL_ADC_GetValue(&hadc1);
 800133a:	0020      	movs	r0, r4
 800133c:	f000 fc4e 	bl	8001bdc <HAL_ADC_GetValue>
 8001340:	b280      	uxth	r0, r0
}
 8001342:	bd10      	pop	{r4, pc}
 8001344:	20000358 	.word	0x20000358

08001348 <Sensor_wait_response>:
QState Sensor_wait_response(Sensor * const me, QEvt const * const e) {
 8001348:	b5f0      	push	{r4, r5, r6, r7, lr}
    switch (e->sig) {
 800134a:	880b      	ldrh	r3, [r1, #0]
QState Sensor_wait_response(Sensor * const me, QEvt const * const e) {
 800134c:	0004      	movs	r4, r0
 800134e:	b0d7      	sub	sp, #348	@ 0x15c
    switch (e->sig) {
 8001350:	2b0d      	cmp	r3, #13
 8001352:	d01f      	beq.n	8001394 <Sensor_wait_response+0x4c>
 8001354:	2b0e      	cmp	r3, #14
 8001356:	d013      	beq.n	8001380 <Sensor_wait_response+0x38>
 8001358:	2100      	movs	r1, #0
 800135a:	2b01      	cmp	r3, #1
 800135c:	d000      	beq.n	8001360 <Sensor_wait_response+0x18>
 800135e:	e082      	b.n	8001466 <Sensor_wait_response+0x11e>
            me->bit_index = 0;
 8001360:	0003      	movs	r3, r0
 8001362:	3329      	adds	r3, #41	@ 0x29
 8001364:	7019      	strb	r1, [r3, #0]
            me->byte_index = 0;
 8001366:	2380      	movs	r3, #128	@ 0x80
 8001368:	005b      	lsls	r3, r3, #1
 800136a:	8543      	strh	r3, [r0, #42]	@ 0x2a
            me->pulse_count = 0;
 800136c:	0003      	movs	r3, r0
 800136e:	332c      	adds	r3, #44	@ 0x2c
            memset(me->bits, 0, sizeof(me->bits));
 8001370:	2205      	movs	r2, #5
            me->pulse_count = 0;
 8001372:	7019      	strb	r1, [r3, #0]
            memset(me->bits, 0, sizeof(me->bits));
 8001374:	3024      	adds	r0, #36	@ 0x24
 8001376:	f004 f805 	bl	8005384 <memset>
            status_ = Q_HANDLED();
 800137a:	2002      	movs	r0, #2
}
 800137c:	b057      	add	sp, #348	@ 0x15c
 800137e:	bdf0      	pop	{r4, r5, r6, r7, pc}
            QTimeEvt_disarm(&me->resetEvt);
 8001380:	3038      	adds	r0, #56	@ 0x38
 8001382:	f003 f851 	bl	8004428 <QTimeEvt_disarm>
            printf("Reset DHT11");
 8001386:	483a      	ldr	r0, [pc, #232]	@ (8001470 <Sensor_wait_response+0x128>)
 8001388:	f003 fe6c 	bl	8005064 <iprintf>
            status_ = Q_TRAN(&Sensor_waiting);
 800138c:	4b39      	ldr	r3, [pc, #228]	@ (8001474 <Sensor_wait_response+0x12c>)
            status_ = Q_TRAN(&Sensor_waiting);
 800138e:	2003      	movs	r0, #3
            status_ = Q_TRAN(&Sensor_waiting);
 8001390:	60a3      	str	r3, [r4, #8]
            break;
 8001392:	e7f3      	b.n	800137c <Sensor_wait_response+0x34>
            BSP_get_timestamps(localTimestamps);
 8001394:	a804      	add	r0, sp, #16
 8001396:	f7ff f9cd 	bl	8000734 <BSP_get_timestamps>
                if (i % 2 == 1) { // positive edge (HIGH pulse duration)
 800139a:	2201      	movs	r2, #1
 800139c:	4694      	mov	ip, r2
                        me->bits[me->byte_index] |= (1 << (7 - me->bit_index));
 800139e:	0022      	movs	r2, r4
 80013a0:	0025      	movs	r5, r4
            BSP_get_timestamps(localTimestamps);
 80013a2:	2300      	movs	r3, #0
                        me->bits[me->byte_index] |= (1 << (7 - me->bit_index));
 80013a4:	322a      	adds	r2, #42	@ 0x2a
 80013a6:	9203      	str	r2, [sp, #12]
 80013a8:	3529      	adds	r5, #41	@ 0x29
                if(i < 3) { continue; } // ignore ack, start
 80013aa:	2b02      	cmp	r3, #2
 80013ac:	d959      	bls.n	8001462 <Sensor_wait_response+0x11a>
                if (i % 2 == 1) { // positive edge (HIGH pulse duration)
 80013ae:	4662      	mov	r2, ip
 80013b0:	4213      	tst	r3, r2
 80013b2:	d01c      	beq.n	80013ee <Sensor_wait_response+0xa6>
                        me->bits[me->byte_index] |= (1 << (7 - me->bit_index));
 80013b4:	2607      	movs	r6, #7
 80013b6:	4667      	mov	r7, ip
 80013b8:	9a03      	ldr	r2, [sp, #12]
 80013ba:	7812      	ldrb	r2, [r2, #0]
 80013bc:	18a1      	adds	r1, r4, r2
 80013be:	9201      	str	r2, [sp, #4]
 80013c0:	1d4a      	adds	r2, r1, #5
 80013c2:	7fd0      	ldrb	r0, [r2, #31]
 80013c4:	782a      	ldrb	r2, [r5, #0]
 80013c6:	1ab6      	subs	r6, r6, r2
 80013c8:	40b7      	lsls	r7, r6
 80013ca:	9202      	str	r2, [sp, #8]
                    uint8_t bit_val = (localTimestamps[i] > 40) ? 1 : 0;  // FIXED!
 80013cc:	009e      	lsls	r6, r3, #2
                    if (bit_val) {
 80013ce:	aa04      	add	r2, sp, #16
 80013d0:	5992      	ldr	r2, [r2, r6]
                        me->bits[me->byte_index] &= ~(1 << (7 - me->bit_index));
 80013d2:	0006      	movs	r6, r0
 80013d4:	43be      	bics	r6, r7
                    if (bit_val) {
 80013d6:	2a28      	cmp	r2, #40	@ 0x28
 80013d8:	d901      	bls.n	80013de <Sensor_wait_response+0x96>
                        me->bits[me->byte_index] |= (1 << (7 - me->bit_index));
 80013da:	4338      	orrs	r0, r7
 80013dc:	b2c6      	uxtb	r6, r0
                    me->bit_index++;
 80013de:	9a02      	ldr	r2, [sp, #8]
                        me->bits[me->byte_index] |= (1 << (7 - me->bit_index));
 80013e0:	3105      	adds	r1, #5
                    me->bit_index++;
 80013e2:	3201      	adds	r2, #1
 80013e4:	b2d2      	uxtb	r2, r2
                        me->bits[me->byte_index] |= (1 << (7 - me->bit_index));
 80013e6:	77ce      	strb	r6, [r1, #31]
                    if (me->bit_index > 7) {
 80013e8:	2a07      	cmp	r2, #7
 80013ea:	d804      	bhi.n	80013f6 <Sensor_wait_response+0xae>
                    me->bit_index++;
 80013ec:	702a      	strb	r2, [r5, #0]
            for(uint8_t i = 0; i < TIMESTAMP_SIZE; i++)
 80013ee:	3301      	adds	r3, #1
 80013f0:	2b52      	cmp	r3, #82	@ 0x52
 80013f2:	d1da      	bne.n	80013aa <Sensor_wait_response+0x62>
 80013f4:	e7ca      	b.n	800138c <Sensor_wait_response+0x44>
                        me->bit_index = 0;
 80013f6:	2600      	movs	r6, #0
                        me->byte_index++;
 80013f8:	9a01      	ldr	r2, [sp, #4]
 80013fa:	9903      	ldr	r1, [sp, #12]
 80013fc:	3201      	adds	r2, #1
 80013fe:	b2d2      	uxtb	r2, r2
                        me->bit_index = 0;
 8001400:	702e      	strb	r6, [r5, #0]
                        me->byte_index++;
 8001402:	700a      	strb	r2, [r1, #0]
                        if (me->byte_index >= 5) {
 8001404:	2a04      	cmp	r2, #4
 8001406:	d9f2      	bls.n	80013ee <Sensor_wait_response+0xa6>
                            uint8_t checksum = me->bits[0] + me->bits[1] + me->bits[2] + me->bits[3];
 8001408:	1d62      	adds	r2, r4, #5
 800140a:	1da3      	adds	r3, r4, #6
 800140c:	7fd5      	ldrb	r5, [r2, #31]
 800140e:	7fdb      	ldrb	r3, [r3, #31]
 8001410:	1de7      	adds	r7, r4, #7
 8001412:	18ed      	adds	r5, r5, r3
 8001414:	7ffb      	ldrb	r3, [r7, #31]
                            printf("5 sending data");
 8001416:	4818      	ldr	r0, [pc, #96]	@ (8001478 <Sensor_wait_response+0x130>)
                            uint8_t checksum = me->bits[0] + me->bits[1] + me->bits[2] + me->bits[3];
 8001418:	18ed      	adds	r5, r5, r3
 800141a:	0023      	movs	r3, r4
 800141c:	3308      	adds	r3, #8
 800141e:	7fdb      	ldrb	r3, [r3, #31]
 8001420:	18ed      	adds	r5, r5, r3
                            printf("5 sending data");
 8001422:	f003 fe1f 	bl	8005064 <iprintf>
                            if (checksum == me->bits[4]) {
 8001426:	0023      	movs	r3, r4
 8001428:	3328      	adds	r3, #40	@ 0x28
 800142a:	781a      	ldrb	r2, [r3, #0]
                            uint8_t checksum = me->bits[0] + me->bits[1] + me->bits[2] + me->bits[3];
 800142c:	b2ed      	uxtb	r5, r5
                            if (checksum == me->bits[4]) {
 800142e:	42aa      	cmp	r2, r5
 8001430:	d112      	bne.n	8001458 <Sensor_wait_response+0x110>
                                uint16_t dryness_val = Sensor_get_adc_dryness();
 8001432:	f7ff ff75 	bl	8001320 <Sensor_get_adc_dryness>
                                SensorEvent *evt = Q_NEW(SensorEvent, SENSOR_DONE_SIG);
 8001436:	220a      	movs	r2, #10
                                uint16_t dryness_val = Sensor_get_adc_dryness();
 8001438:	0005      	movs	r5, r0
                                SensorEvent *evt = Q_NEW(SensorEvent, SENSOR_DONE_SIG);
 800143a:	4910      	ldr	r1, [pc, #64]	@ (800147c <Sensor_wait_response+0x134>)
 800143c:	200c      	movs	r0, #12
 800143e:	f002 fdcf 	bl	8003fe0 <QF_newX_>
                                evt->dryness = dryness_val;
 8001442:	8105      	strh	r5, [r0, #8]
                                evt->temperature = me->bits[2];
 8001444:	7ffb      	ldrb	r3, [r7, #31]
                                SensorEvent *evt = Q_NEW(SensorEvent, SENSOR_DONE_SIG);
 8001446:	0001      	movs	r1, r0
                                evt->temperature = me->bits[2];
 8001448:	8143      	strh	r3, [r0, #10]
                                QACTIVE_POST(AO_Main_App, &evt->super, NULL);
 800144a:	480d      	ldr	r0, [pc, #52]	@ (8001480 <Sensor_wait_response+0x138>)
 800144c:	0033      	movs	r3, r6
 800144e:	4a0b      	ldr	r2, [pc, #44]	@ (800147c <Sensor_wait_response+0x134>)
 8001450:	6800      	ldr	r0, [r0, #0]
 8001452:	f002 fd0b 	bl	8003e6c <QActive_post_>
                                break;
 8001456:	e799      	b.n	800138c <Sensor_wait_response+0x44>
                                printf("Checksum error! Expected: %u, Got: %u\n",
 8001458:	0029      	movs	r1, r5
 800145a:	480a      	ldr	r0, [pc, #40]	@ (8001484 <Sensor_wait_response+0x13c>)
 800145c:	f003 fe02 	bl	8005064 <iprintf>
                            break;
 8001460:	e794      	b.n	800138c <Sensor_wait_response+0x44>
            for(uint8_t i = 0; i < TIMESTAMP_SIZE; i++)
 8001462:	3301      	adds	r3, #1
 8001464:	e7a1      	b.n	80013aa <Sensor_wait_response+0x62>
            status_ = Q_SUPER(&QHsm_top);
 8001466:	4b08      	ldr	r3, [pc, #32]	@ (8001488 <Sensor_wait_response+0x140>)
 8001468:	6083      	str	r3, [r0, #8]
 800146a:	0008      	movs	r0, r1
    return status_;
 800146c:	e786      	b.n	800137c <Sensor_wait_response+0x34>
 800146e:	46c0      	nop			@ (mov r8, r8)
 8001470:	0800630e 	.word	0x0800630e
 8001474:	08001279 	.word	0x08001279
 8001478:	0800631a 	.word	0x0800631a
 800147c:	0000ffff 	.word	0x0000ffff
 8001480:	080063ac 	.word	0x080063ac
 8001484:	08006329 	.word	0x08006329
 8001488:	08003b01 	.word	0x08003b01

0800148c <Sensor_initial>:
    return Q_TRAN(&Sensor_waiting);
 800148c:	4b01      	ldr	r3, [pc, #4]	@ (8001494 <Sensor_initial+0x8>)
 800148e:	6083      	str	r3, [r0, #8]
}
 8001490:	2003      	movs	r0, #3
 8001492:	4770      	bx	lr
 8001494:	08001279 	.word	0x08001279

08001498 <HAL_MspInit>:

  /* USER CODE BEGIN MspInit 0 */

  /* USER CODE END MspInit 0 */

  __HAL_RCC_SYSCFG_CLK_ENABLE();
 8001498:	2101      	movs	r1, #1
 800149a:	4b0a      	ldr	r3, [pc, #40]	@ (80014c4 <HAL_MspInit+0x2c>)
{
 800149c:	b082      	sub	sp, #8
  __HAL_RCC_SYSCFG_CLK_ENABLE();
 800149e:	6c1a      	ldr	r2, [r3, #64]	@ 0x40
 80014a0:	430a      	orrs	r2, r1
 80014a2:	641a      	str	r2, [r3, #64]	@ 0x40
 80014a4:	6c1a      	ldr	r2, [r3, #64]	@ 0x40
 80014a6:	400a      	ands	r2, r1
  __HAL_RCC_PWR_CLK_ENABLE();
 80014a8:	2180      	movs	r1, #128	@ 0x80
  __HAL_RCC_SYSCFG_CLK_ENABLE();
 80014aa:	9200      	str	r2, [sp, #0]
 80014ac:	9a00      	ldr	r2, [sp, #0]
  __HAL_RCC_PWR_CLK_ENABLE();
 80014ae:	6bda      	ldr	r2, [r3, #60]	@ 0x3c
 80014b0:	0549      	lsls	r1, r1, #21
 80014b2:	430a      	orrs	r2, r1
 80014b4:	63da      	str	r2, [r3, #60]	@ 0x3c
 80014b6:	6bdb      	ldr	r3, [r3, #60]	@ 0x3c
 80014b8:	400b      	ands	r3, r1
 80014ba:	9301      	str	r3, [sp, #4]
 80014bc:	9b01      	ldr	r3, [sp, #4]
  /* System interrupt init*/

  /* USER CODE BEGIN MspInit 1 */

  /* USER CODE END MspInit 1 */
}
 80014be:	b002      	add	sp, #8
 80014c0:	4770      	bx	lr
 80014c2:	46c0      	nop			@ (mov r8, r8)
 80014c4:	40021000 	.word	0x40021000

080014c8 <HAL_ADC_MspInit>:
  * This function configures the hardware resources used in this example
  * @param hadc: ADC handle pointer
  * @retval None
  */
void HAL_ADC_MspInit(ADC_HandleTypeDef* hadc)
{
 80014c8:	b510      	push	{r4, lr}
 80014ca:	0004      	movs	r4, r0
 80014cc:	b08e      	sub	sp, #56	@ 0x38
  GPIO_InitTypeDef GPIO_InitStruct = {0};
 80014ce:	2214      	movs	r2, #20
 80014d0:	2100      	movs	r1, #0
 80014d2:	a802      	add	r0, sp, #8
 80014d4:	f003 ff56 	bl	8005384 <memset>
  RCC_PeriphCLKInitTypeDef PeriphClkInit = {0};
 80014d8:	221c      	movs	r2, #28
 80014da:	2100      	movs	r1, #0
 80014dc:	a807      	add	r0, sp, #28
 80014de:	f003 ff51 	bl	8005384 <memset>
  if(hadc->Instance==ADC1)
 80014e2:	4b16      	ldr	r3, [pc, #88]	@ (800153c <HAL_ADC_MspInit+0x74>)
 80014e4:	6822      	ldr	r2, [r4, #0]
 80014e6:	429a      	cmp	r2, r3
 80014e8:	d125      	bne.n	8001536 <HAL_ADC_MspInit+0x6e>

    /* USER CODE END ADC1_MspInit 0 */

  /** Initializes the peripherals clocks
  */
    PeriphClkInit.PeriphClockSelection = RCC_PERIPHCLK_ADC;
 80014ea:	2320      	movs	r3, #32
    PeriphClkInit.AdcClockSelection = RCC_ADCCLKSOURCE_SYSCLK;
    if (HAL_RCCEx_PeriphCLKConfig(&PeriphClkInit) != HAL_OK)
 80014ec:	a807      	add	r0, sp, #28
    PeriphClkInit.PeriphClockSelection = RCC_PERIPHCLK_ADC;
 80014ee:	9307      	str	r3, [sp, #28]
    if (HAL_RCCEx_PeriphCLKConfig(&PeriphClkInit) != HAL_OK)
 80014f0:	f001 fbea 	bl	8002cc8 <HAL_RCCEx_PeriphCLKConfig>
 80014f4:	2800      	cmp	r0, #0
 80014f6:	d001      	beq.n	80014fc <HAL_ADC_MspInit+0x34>
    {
      Error_Handler();
 80014f8:	f7ff fa70 	bl	80009dc <Error_Handler>
    }

    /* Peripheral clock enable */
    __HAL_RCC_ADC_CLK_ENABLE();
 80014fc:	2180      	movs	r1, #128	@ 0x80
 80014fe:	4b10      	ldr	r3, [pc, #64]	@ (8001540 <HAL_ADC_MspInit+0x78>)
 8001500:	0349      	lsls	r1, r1, #13
 8001502:	6c1a      	ldr	r2, [r3, #64]	@ 0x40
    PA4     ------> ADC1_IN4
    */
    GPIO_InitStruct.Pin = ADC_MOIST_Pin;
    GPIO_InitStruct.Mode = GPIO_MODE_ANALOG;
    GPIO_InitStruct.Pull = GPIO_NOPULL;
    HAL_GPIO_Init(ADC_MOIST_GPIO_Port, &GPIO_InitStruct);
 8001504:	20a0      	movs	r0, #160	@ 0xa0
    __HAL_RCC_ADC_CLK_ENABLE();
 8001506:	430a      	orrs	r2, r1
 8001508:	641a      	str	r2, [r3, #64]	@ 0x40
 800150a:	6c1a      	ldr	r2, [r3, #64]	@ 0x40
    HAL_GPIO_Init(ADC_MOIST_GPIO_Port, &GPIO_InitStruct);
 800150c:	05c0      	lsls	r0, r0, #23
    __HAL_RCC_ADC_CLK_ENABLE();
 800150e:	400a      	ands	r2, r1
    __HAL_RCC_GPIOA_CLK_ENABLE();
 8001510:	2101      	movs	r1, #1
    __HAL_RCC_ADC_CLK_ENABLE();
 8001512:	9200      	str	r2, [sp, #0]
 8001514:	9a00      	ldr	r2, [sp, #0]
    __HAL_RCC_GPIOA_CLK_ENABLE();
 8001516:	6b5a      	ldr	r2, [r3, #52]	@ 0x34
 8001518:	430a      	orrs	r2, r1
 800151a:	635a      	str	r2, [r3, #52]	@ 0x34
 800151c:	6b5b      	ldr	r3, [r3, #52]	@ 0x34
 800151e:	400b      	ands	r3, r1
 8001520:	9301      	str	r3, [sp, #4]
 8001522:	9b01      	ldr	r3, [sp, #4]
    GPIO_InitStruct.Pin = ADC_MOIST_Pin;
 8001524:	2310      	movs	r3, #16
 8001526:	9302      	str	r3, [sp, #8]
    GPIO_InitStruct.Mode = GPIO_MODE_ANALOG;
 8001528:	3b0d      	subs	r3, #13
 800152a:	9303      	str	r3, [sp, #12]
    GPIO_InitStruct.Pull = GPIO_NOPULL;
 800152c:	2300      	movs	r3, #0
    HAL_GPIO_Init(ADC_MOIST_GPIO_Port, &GPIO_InitStruct);
 800152e:	a902      	add	r1, sp, #8
    GPIO_InitStruct.Pull = GPIO_NOPULL;
 8001530:	9304      	str	r3, [sp, #16]
    HAL_GPIO_Init(ADC_MOIST_GPIO_Port, &GPIO_InitStruct);
 8001532:	f000 fd45 	bl	8001fc0 <HAL_GPIO_Init>

    /* USER CODE END ADC1_MspInit 1 */

  }

}
 8001536:	b00e      	add	sp, #56	@ 0x38
 8001538:	bd10      	pop	{r4, pc}
 800153a:	46c0      	nop			@ (mov r8, r8)
 800153c:	40012400 	.word	0x40012400
 8001540:	40021000 	.word	0x40021000

08001544 <HAL_I2C_MspInit>:
  * This function configures the hardware resources used in this example
  * @param hi2c: I2C handle pointer
  * @retval None
  */
void HAL_I2C_MspInit(I2C_HandleTypeDef* hi2c)
{
 8001544:	b510      	push	{r4, lr}
 8001546:	0004      	movs	r4, r0
 8001548:	b08e      	sub	sp, #56	@ 0x38
  GPIO_InitTypeDef GPIO_InitStruct = {0};
 800154a:	2214      	movs	r2, #20
 800154c:	2100      	movs	r1, #0
 800154e:	a802      	add	r0, sp, #8
 8001550:	f003 ff18 	bl	8005384 <memset>
  RCC_PeriphCLKInitTypeDef PeriphClkInit = {0};
 8001554:	221c      	movs	r2, #28
 8001556:	2100      	movs	r1, #0
 8001558:	a807      	add	r0, sp, #28
 800155a:	f003 ff13 	bl	8005384 <memset>
  if(hi2c->Instance==I2C1)
 800155e:	4b18      	ldr	r3, [pc, #96]	@ (80015c0 <HAL_I2C_MspInit+0x7c>)
 8001560:	6822      	ldr	r2, [r4, #0]
 8001562:	429a      	cmp	r2, r3
 8001564:	d129      	bne.n	80015ba <HAL_I2C_MspInit+0x76>

    /* USER CODE END I2C1_MspInit 0 */

  /** Initializes the peripherals clocks
  */
    PeriphClkInit.PeriphClockSelection = RCC_PERIPHCLK_I2C1;
 8001566:	2302      	movs	r3, #2
    PeriphClkInit.I2c1ClockSelection = RCC_I2C1CLKSOURCE_PCLK1;
    if (HAL_RCCEx_PeriphCLKConfig(&PeriphClkInit) != HAL_OK)
 8001568:	a807      	add	r0, sp, #28
    PeriphClkInit.PeriphClockSelection = RCC_PERIPHCLK_I2C1;
 800156a:	9307      	str	r3, [sp, #28]
    if (HAL_RCCEx_PeriphCLKConfig(&PeriphClkInit) != HAL_OK)
 800156c:	f001 fbac 	bl	8002cc8 <HAL_RCCEx_PeriphCLKConfig>
 8001570:	2800      	cmp	r0, #0
 8001572:	d001      	beq.n	8001578 <HAL_I2C_MspInit+0x34>
    {
      Error_Handler();
 8001574:	f7ff fa32 	bl	80009dc <Error_Handler>
    }

    __HAL_RCC_GPIOA_CLK_ENABLE();
 8001578:	2201      	movs	r2, #1
 800157a:	4c12      	ldr	r4, [pc, #72]	@ (80015c4 <HAL_I2C_MspInit+0x80>)
    GPIO_InitStruct.Pin = GPIO_PIN_9|GPIO_PIN_10;
    GPIO_InitStruct.Mode = GPIO_MODE_AF_OD;
    GPIO_InitStruct.Pull = GPIO_NOPULL;
    GPIO_InitStruct.Speed = GPIO_SPEED_FREQ_LOW;
    GPIO_InitStruct.Alternate = GPIO_AF6_I2C1;
    HAL_GPIO_Init(GPIOA, &GPIO_InitStruct);
 800157c:	20a0      	movs	r0, #160	@ 0xa0
    __HAL_RCC_GPIOA_CLK_ENABLE();
 800157e:	6b63      	ldr	r3, [r4, #52]	@ 0x34
    HAL_GPIO_Init(GPIOA, &GPIO_InitStruct);
 8001580:	a902      	add	r1, sp, #8
    __HAL_RCC_GPIOA_CLK_ENABLE();
 8001582:	4313      	orrs	r3, r2
 8001584:	6363      	str	r3, [r4, #52]	@ 0x34
 8001586:	6b63      	ldr	r3, [r4, #52]	@ 0x34
    HAL_GPIO_Init(GPIOA, &GPIO_InitStruct);
 8001588:	05c0      	lsls	r0, r0, #23
    __HAL_RCC_GPIOA_CLK_ENABLE();
 800158a:	4013      	ands	r3, r2
 800158c:	9300      	str	r3, [sp, #0]
 800158e:	9b00      	ldr	r3, [sp, #0]
    GPIO_InitStruct.Pin = GPIO_PIN_9|GPIO_PIN_10;
 8001590:	23c0      	movs	r3, #192	@ 0xc0
 8001592:	00db      	lsls	r3, r3, #3
 8001594:	9302      	str	r3, [sp, #8]
    GPIO_InitStruct.Mode = GPIO_MODE_AF_OD;
 8001596:	2312      	movs	r3, #18
 8001598:	9303      	str	r3, [sp, #12]
    GPIO_InitStruct.Pull = GPIO_NOPULL;
 800159a:	2300      	movs	r3, #0
 800159c:	9304      	str	r3, [sp, #16]
    GPIO_InitStruct.Speed = GPIO_SPEED_FREQ_LOW;
 800159e:	9305      	str	r3, [sp, #20]
    GPIO_InitStruct.Alternate = GPIO_AF6_I2C1;
 80015a0:	3306      	adds	r3, #6
 80015a2:	9306      	str	r3, [sp, #24]
    HAL_GPIO_Init(GPIOA, &GPIO_InitStruct);
 80015a4:	f000 fd0c 	bl	8001fc0 <HAL_GPIO_Init>

    /* Peripheral clock enable */
    __HAL_RCC_I2C1_CLK_ENABLE();
 80015a8:	2280      	movs	r2, #128	@ 0x80
 80015aa:	6be3      	ldr	r3, [r4, #60]	@ 0x3c
 80015ac:	0392      	lsls	r2, r2, #14
 80015ae:	4313      	orrs	r3, r2
 80015b0:	63e3      	str	r3, [r4, #60]	@ 0x3c
 80015b2:	6be3      	ldr	r3, [r4, #60]	@ 0x3c
 80015b4:	4013      	ands	r3, r2
 80015b6:	9301      	str	r3, [sp, #4]
 80015b8:	9b01      	ldr	r3, [sp, #4]

    /* USER CODE END I2C1_MspInit 1 */

  }

}
 80015ba:	b00e      	add	sp, #56	@ 0x38
 80015bc:	bd10      	pop	{r4, pc}
 80015be:	46c0      	nop			@ (mov r8, r8)
 80015c0:	40005400 	.word	0x40005400
 80015c4:	40021000 	.word	0x40021000

080015c8 <HAL_SPI_MspInit>:
  * This function configures the hardware resources used in this example
  * @param hspi: SPI handle pointer
  * @retval None
  */
void HAL_SPI_MspInit(SPI_HandleTypeDef* hspi)
{
 80015c8:	b530      	push	{r4, r5, lr}
 80015ca:	0004      	movs	r4, r0
 80015cc:	b091      	sub	sp, #68	@ 0x44
  GPIO_InitTypeDef GPIO_InitStruct = {0};
 80015ce:	2214      	movs	r2, #20
 80015d0:	2100      	movs	r1, #0
 80015d2:	a804      	add	r0, sp, #16
 80015d4:	f003 fed6 	bl	8005384 <memset>
  RCC_PeriphCLKInitTypeDef PeriphClkInit = {0};
 80015d8:	221c      	movs	r2, #28
 80015da:	2100      	movs	r1, #0
 80015dc:	a809      	add	r0, sp, #36	@ 0x24
 80015de:	f003 fed1 	bl	8005384 <memset>
  if(hspi->Instance==SPI1)
 80015e2:	4b22      	ldr	r3, [pc, #136]	@ (800166c <HAL_SPI_MspInit+0xa4>)
 80015e4:	6822      	ldr	r2, [r4, #0]
 80015e6:	429a      	cmp	r2, r3
 80015e8:	d13d      	bne.n	8001666 <HAL_SPI_MspInit+0x9e>

    /* USER CODE END SPI1_MspInit 0 */

  /** Initializes the peripherals clocks
  */
    PeriphClkInit.PeriphClockSelection = RCC_PERIPHCLK_I2S1;
 80015ea:	2304      	movs	r3, #4
    PeriphClkInit.I2s1ClockSelection = RCC_I2S1CLKSOURCE_SYSCLK;
    if (HAL_RCCEx_PeriphCLKConfig(&PeriphClkInit) != HAL_OK)
 80015ec:	a809      	add	r0, sp, #36	@ 0x24
    PeriphClkInit.PeriphClockSelection = RCC_PERIPHCLK_I2S1;
 80015ee:	9309      	str	r3, [sp, #36]	@ 0x24
    if (HAL_RCCEx_PeriphCLKConfig(&PeriphClkInit) != HAL_OK)
 80015f0:	f001 fb6a 	bl	8002cc8 <HAL_RCCEx_PeriphCLKConfig>
 80015f4:	2800      	cmp	r0, #0
 80015f6:	d001      	beq.n	80015fc <HAL_SPI_MspInit+0x34>
    {
      Error_Handler();
 80015f8:	f7ff f9f0 	bl	80009dc <Error_Handler>
    }

    /* Peripheral clock enable */
    __HAL_RCC_SPI1_CLK_ENABLE();
 80015fc:	2180      	movs	r1, #128	@ 0x80
 80015fe:	4b1c      	ldr	r3, [pc, #112]	@ (8001670 <HAL_SPI_MspInit+0xa8>)
 8001600:	0149      	lsls	r1, r1, #5
 8001602:	6c1a      	ldr	r2, [r3, #64]	@ 0x40

    __HAL_RCC_GPIOA_CLK_ENABLE();
    __HAL_RCC_GPIOB_CLK_ENABLE();
 8001604:	2502      	movs	r5, #2
    __HAL_RCC_SPI1_CLK_ENABLE();
 8001606:	430a      	orrs	r2, r1
 8001608:	641a      	str	r2, [r3, #64]	@ 0x40
 800160a:	6c1a      	ldr	r2, [r3, #64]	@ 0x40
    GPIO_InitStruct.Pin = GPIO_PIN_6|GPIO_PIN_7;
    GPIO_InitStruct.Mode = GPIO_MODE_AF_PP;
    GPIO_InitStruct.Pull = GPIO_NOPULL;
    GPIO_InitStruct.Speed = GPIO_SPEED_FREQ_LOW;
    GPIO_InitStruct.Alternate = GPIO_AF0_SPI1;
    HAL_GPIO_Init(GPIOA, &GPIO_InitStruct);
 800160c:	20a0      	movs	r0, #160	@ 0xa0
    __HAL_RCC_SPI1_CLK_ENABLE();
 800160e:	400a      	ands	r2, r1
    __HAL_RCC_GPIOA_CLK_ENABLE();
 8001610:	2101      	movs	r1, #1
    __HAL_RCC_SPI1_CLK_ENABLE();
 8001612:	9201      	str	r2, [sp, #4]
 8001614:	9a01      	ldr	r2, [sp, #4]
    __HAL_RCC_GPIOA_CLK_ENABLE();
 8001616:	6b5a      	ldr	r2, [r3, #52]	@ 0x34
    GPIO_InitStruct.Pull = GPIO_NOPULL;
 8001618:	2400      	movs	r4, #0
    __HAL_RCC_GPIOA_CLK_ENABLE();
 800161a:	430a      	orrs	r2, r1
 800161c:	635a      	str	r2, [r3, #52]	@ 0x34
 800161e:	6b5a      	ldr	r2, [r3, #52]	@ 0x34
    HAL_GPIO_Init(GPIOA, &GPIO_InitStruct);
 8001620:	05c0      	lsls	r0, r0, #23
    __HAL_RCC_GPIOA_CLK_ENABLE();
 8001622:	400a      	ands	r2, r1
 8001624:	9202      	str	r2, [sp, #8]
 8001626:	9a02      	ldr	r2, [sp, #8]
    __HAL_RCC_GPIOB_CLK_ENABLE();
 8001628:	6b5a      	ldr	r2, [r3, #52]	@ 0x34
    HAL_GPIO_Init(GPIOA, &GPIO_InitStruct);
 800162a:	a904      	add	r1, sp, #16
    __HAL_RCC_GPIOB_CLK_ENABLE();
 800162c:	432a      	orrs	r2, r5
 800162e:	635a      	str	r2, [r3, #52]	@ 0x34
 8001630:	6b5b      	ldr	r3, [r3, #52]	@ 0x34
    GPIO_InitStruct.Mode = GPIO_MODE_AF_PP;
 8001632:	9505      	str	r5, [sp, #20]
    __HAL_RCC_GPIOB_CLK_ENABLE();
 8001634:	402b      	ands	r3, r5
 8001636:	9303      	str	r3, [sp, #12]
 8001638:	9b03      	ldr	r3, [sp, #12]
    GPIO_InitStruct.Pin = GPIO_PIN_6|GPIO_PIN_7;
 800163a:	23c0      	movs	r3, #192	@ 0xc0
    GPIO_InitStruct.Pull = GPIO_NOPULL;
 800163c:	9406      	str	r4, [sp, #24]
    GPIO_InitStruct.Pin = GPIO_PIN_6|GPIO_PIN_7;
 800163e:	9304      	str	r3, [sp, #16]
    GPIO_InitStruct.Speed = GPIO_SPEED_FREQ_LOW;
 8001640:	9407      	str	r4, [sp, #28]
    GPIO_InitStruct.Alternate = GPIO_AF0_SPI1;
 8001642:	9408      	str	r4, [sp, #32]
    HAL_GPIO_Init(GPIOA, &GPIO_InitStruct);
 8001644:	f000 fcbc 	bl	8001fc0 <HAL_GPIO_Init>

    GPIO_InitStruct.Pin = GPIO_PIN_3;
 8001648:	2308      	movs	r3, #8
    GPIO_InitStruct.Mode = GPIO_MODE_AF_PP;
    GPIO_InitStruct.Pull = GPIO_NOPULL;
    GPIO_InitStruct.Speed = GPIO_SPEED_FREQ_LOW;
    GPIO_InitStruct.Alternate = GPIO_AF0_SPI1;
    HAL_GPIO_Init(GPIOB, &GPIO_InitStruct);
 800164a:	480a      	ldr	r0, [pc, #40]	@ (8001674 <HAL_SPI_MspInit+0xac>)
 800164c:	a904      	add	r1, sp, #16
    GPIO_InitStruct.Pin = GPIO_PIN_3;
 800164e:	9304      	str	r3, [sp, #16]
    GPIO_InitStruct.Mode = GPIO_MODE_AF_PP;
 8001650:	9505      	str	r5, [sp, #20]
    GPIO_InitStruct.Pull = GPIO_NOPULL;
 8001652:	9406      	str	r4, [sp, #24]
    GPIO_InitStruct.Speed = GPIO_SPEED_FREQ_LOW;
 8001654:	9407      	str	r4, [sp, #28]
    GPIO_InitStruct.Alternate = GPIO_AF0_SPI1;
 8001656:	9408      	str	r4, [sp, #32]
    HAL_GPIO_Init(GPIOB, &GPIO_InitStruct);
 8001658:	f000 fcb2 	bl	8001fc0 <HAL_GPIO_Init>

    /* SPI1 interrupt Init */
    HAL_NVIC_SetPriority(SPI1_IRQn, 0, 0);
 800165c:	0022      	movs	r2, r4
 800165e:	0021      	movs	r1, r4
 8001660:	2019      	movs	r0, #25
 8001662:	f000 fc69 	bl	8001f38 <HAL_NVIC_SetPriority>

    /* USER CODE END SPI1_MspInit 1 */

  }

}
 8001666:	b011      	add	sp, #68	@ 0x44
 8001668:	bd30      	pop	{r4, r5, pc}
 800166a:	46c0      	nop			@ (mov r8, r8)
 800166c:	40013000 	.word	0x40013000
 8001670:	40021000 	.word	0x40021000
 8001674:	50000400 	.word	0x50000400

08001678 <HardFault_Handler>:
/******************************************************************************/
/**
  * @brief This function handles Hard fault interrupt.
  */
void HardFault_Handler(void)
{
 8001678:	b510      	push	{r4, lr}
 800167a:	b672      	cpsid	i
  /* USER CODE BEGIN HardFault_IRQn 0 */
	__disable_irq();
	Q_onError("HAL Error", 0U);
 800167c:	2100      	movs	r1, #0
 800167e:	4802      	ldr	r0, [pc, #8]	@ (8001688 <HardFault_Handler+0x10>)
 8001680:	f7fe ffc8 	bl	8000614 <Q_onError>
  /* USER CODE END HardFault_IRQn 0 */
  while (1)
 8001684:	e7fe      	b.n	8001684 <HardFault_Handler+0xc>
 8001686:	46c0      	nop			@ (mov r8, r8)
 8001688:	0800624a 	.word	0x0800624a

0800168c <SVC_Handler>:

  /* USER CODE END SVC_IRQn 0 */
  /* USER CODE BEGIN SVC_IRQn 1 */

  /* USER CODE END SVC_IRQn 1 */
}
 800168c:	4770      	bx	lr

0800168e <_read>:
  _kill(status, -1);
  while (1) {}    /* Make sure we hang here */
}

__attribute__((weak)) int _read(int file, char *ptr, int len)
{
 800168e:	b570      	push	{r4, r5, r6, lr}
 8001690:	000e      	movs	r6, r1
 8001692:	0014      	movs	r4, r2
  (void)file;
  int DataIdx;

  for (DataIdx = 0; DataIdx < len; DataIdx++)
 8001694:	2500      	movs	r5, #0
 8001696:	42a5      	cmp	r5, r4
 8001698:	db01      	blt.n	800169e <_read+0x10>
  {
    *ptr++ = __io_getchar();
  }

  return len;
}
 800169a:	0020      	movs	r0, r4
 800169c:	bd70      	pop	{r4, r5, r6, pc}
    *ptr++ = __io_getchar();
 800169e:	e000      	b.n	80016a2 <_read+0x14>
 80016a0:	bf00      	nop
 80016a2:	5570      	strb	r0, [r6, r5]
  for (DataIdx = 0; DataIdx < len; DataIdx++)
 80016a4:	3501      	adds	r5, #1
 80016a6:	e7f6      	b.n	8001696 <_read+0x8>

080016a8 <_write>:

__attribute__((weak)) int _write(int file, char *ptr, int len)
{
 80016a8:	b530      	push	{r4, r5, lr}
  (void)file;
  for (int i = 0; i < len; i++) {
 80016aa:	2300      	movs	r3, #0
  return ((READ_BIT(USARTx->ISR, USART_ISR_TXE_TXFNF) == (USART_ISR_TXE_TXFNF)) ? 1UL : 0UL);
 80016ac:	2480      	movs	r4, #128	@ 0x80
{
 80016ae:	0010      	movs	r0, r2
 80016b0:	4a07      	ldr	r2, [pc, #28]	@ (80016d0 <_write+0x28>)
  for (int i = 0; i < len; i++) {
 80016b2:	4283      	cmp	r3, r0
 80016b4:	db04      	blt.n	80016c0 <_write+0x18>
  return ((READ_BIT(USARTx->ISR, USART_ISR_TC) == (USART_ISR_TC)) ? 1UL : 0UL);
 80016b6:	2340      	movs	r3, #64	@ 0x40
 80016b8:	69d1      	ldr	r1, [r2, #28]
 80016ba:	4219      	tst	r1, r3
 80016bc:	d0fc      	beq.n	80016b8 <_write+0x10>
          LL_USART_TransmitData8(USART2, (uint8_t)ptr[i]);
      }
      // Wait until TC (transmission complete) flag is set
      while (!LL_USART_IsActiveFlag_TC(USART2));
  return len;
}
 80016be:	bd30      	pop	{r4, r5, pc}
  return ((READ_BIT(USARTx->ISR, USART_ISR_TXE_TXFNF) == (USART_ISR_TXE_TXFNF)) ? 1UL : 0UL);
 80016c0:	69d5      	ldr	r5, [r2, #28]
 80016c2:	4225      	tst	r5, r4
 80016c4:	d0fc      	beq.n	80016c0 <_write+0x18>
  * @param  Value between Min_Data=0x00 and Max_Data=0xFF
  * @retval None
  */
__STATIC_INLINE void LL_USART_TransmitData8(USART_TypeDef *USARTx, uint8_t Value)
{
  USARTx->TDR = Value;
 80016c6:	5ccd      	ldrb	r5, [r1, r3]
  for (int i = 0; i < len; i++) {
 80016c8:	3301      	adds	r3, #1
 80016ca:	6295      	str	r5, [r2, #40]	@ 0x28
 80016cc:	e7f1      	b.n	80016b2 <_write+0xa>
 80016ce:	46c0      	nop			@ (mov r8, r8)
 80016d0:	40004400 	.word	0x40004400

080016d4 <_close>:

int _close(int file)
{
  (void)file;
  return -1;
 80016d4:	2001      	movs	r0, #1
}
 80016d6:	4240      	negs	r0, r0
 80016d8:	4770      	bx	lr

080016da <_fstat>:


int _fstat(int file, struct stat *st)
{
  (void)file;
  st->st_mode = S_IFCHR;
 80016da:	2380      	movs	r3, #128	@ 0x80
 80016dc:	019b      	lsls	r3, r3, #6
  return 0;
}
 80016de:	2000      	movs	r0, #0
  st->st_mode = S_IFCHR;
 80016e0:	604b      	str	r3, [r1, #4]
}
 80016e2:	4770      	bx	lr

080016e4 <_isatty>:

int _isatty(int file)
{
  (void)file;
  return 1;
}
 80016e4:	2001      	movs	r0, #1
 80016e6:	4770      	bx	lr

080016e8 <_lseek>:
{
  (void)file;
  (void)ptr;
  (void)dir;
  return 0;
}
 80016e8:	2000      	movs	r0, #0
 80016ea:	4770      	bx	lr

080016ec <_sbrk>:
void *_sbrk(ptrdiff_t incr)
{
  extern uint8_t _end; /* Symbol defined in the linker script */
  extern uint8_t _estack; /* Symbol defined in the linker script */
  extern uint32_t _Min_Stack_Size; /* Symbol defined in the linker script */
  const uint32_t stack_limit = (uint32_t)&_estack - (uint32_t)&_Min_Stack_Size;
 80016ec:	490b      	ldr	r1, [pc, #44]	@ (800171c <_sbrk+0x30>)
 80016ee:	4a0c      	ldr	r2, [pc, #48]	@ (8001720 <_sbrk+0x34>)
{
 80016f0:	0003      	movs	r3, r0
  const uint32_t stack_limit = (uint32_t)&_estack - (uint32_t)&_Min_Stack_Size;
 80016f2:	1a52      	subs	r2, r2, r1
  const uint8_t *max_heap = (uint8_t *)stack_limit;
  uint8_t *prev_heap_end;

  /* Initialize heap end at first call */
  if (NULL == __sbrk_heap_end)
 80016f4:	490b      	ldr	r1, [pc, #44]	@ (8001724 <_sbrk+0x38>)
{
 80016f6:	b510      	push	{r4, lr}
  if (NULL == __sbrk_heap_end)
 80016f8:	6808      	ldr	r0, [r1, #0]
 80016fa:	2800      	cmp	r0, #0
 80016fc:	d101      	bne.n	8001702 <_sbrk+0x16>
  {
    __sbrk_heap_end = &_end;
 80016fe:	480a      	ldr	r0, [pc, #40]	@ (8001728 <_sbrk+0x3c>)
 8001700:	6008      	str	r0, [r1, #0]
  }

  /* Protect heap from growing into the reserved MSP stack */
  if (__sbrk_heap_end + incr > max_heap)
 8001702:	6808      	ldr	r0, [r1, #0]
 8001704:	18c3      	adds	r3, r0, r3
 8001706:	4293      	cmp	r3, r2
 8001708:	d906      	bls.n	8001718 <_sbrk+0x2c>
  {
    errno = ENOMEM;
 800170a:	f003 fe91 	bl	8005430 <__errno>
 800170e:	230c      	movs	r3, #12
 8001710:	6003      	str	r3, [r0, #0]
    return (void *)-1;
 8001712:	2001      	movs	r0, #1
 8001714:	4240      	negs	r0, r0

  prev_heap_end = __sbrk_heap_end;
  __sbrk_heap_end += incr;

  return (void *)prev_heap_end;
}
 8001716:	bd10      	pop	{r4, pc}
  __sbrk_heap_end += incr;
 8001718:	600b      	str	r3, [r1, #0]
  return (void *)prev_heap_end;
 800171a:	e7fc      	b.n	8001716 <_sbrk+0x2a>
 800171c:	00000400 	.word	0x00000400
 8001720:	20003000 	.word	0x20003000
 8001724:	200004d0 	.word	0x200004d0
 8001728:	20000918 	.word	0x20000918

0800172c <SystemInit>:
  
  /* Configure the Vector Table location add offset address ------------------*/
#ifdef VECT_TAB_SRAM
  SCB->VTOR = SRAM_BASE | VECT_TAB_OFFSET; /* Vector Table Relocation in Internal SRAM */
#else
  SCB->VTOR = FLASH_BASE | VECT_TAB_OFFSET; /* Vector Table Relocation in Internal FLASH */
 800172c:	2280      	movs	r2, #128	@ 0x80
 800172e:	4b02      	ldr	r3, [pc, #8]	@ (8001738 <SystemInit+0xc>)
 8001730:	0512      	lsls	r2, r2, #20
 8001732:	609a      	str	r2, [r3, #8]
#endif
}
 8001734:	4770      	bx	lr
 8001736:	46c0      	nop			@ (mov r8, r8)
 8001738:	e000ed00 	.word	0xe000ed00

0800173c <DHT11_SetPinOutput>:
    HAL_GPIO_Init(DHT11_PORT, &GPIO_InitStruct);
}
*/
void DHT11_SetPinOutput(void)
{
    LL_GPIO_InitTypeDef GPIO_InitStruct = {0};
 800173c:	2300      	movs	r3, #0
  SET_BIT(RCC->AHBENR, Periphs);
 800173e:	2004      	movs	r0, #4
{
 8001740:	b500      	push	{lr}
 8001742:	4a0b      	ldr	r2, [pc, #44]	@ (8001770 <DHT11_SetPinOutput+0x34>)
 8001744:	b089      	sub	sp, #36	@ 0x24
    LL_GPIO_InitTypeDef GPIO_InitStruct = {0};
 8001746:	9307      	str	r3, [sp, #28]
 8001748:	6b91      	ldr	r1, [r2, #56]	@ 0x38
 800174a:	4301      	orrs	r1, r0
 800174c:	6391      	str	r1, [r2, #56]	@ 0x38
  tmpreg = READ_BIT(RCC->AHBENR, Periphs);
 800174e:	6b92      	ldr	r2, [r2, #56]	@ 0x38
    GPIO_InitStruct.Pin = DHT11_PIN;
    GPIO_InitStruct.Mode = LL_GPIO_MODE_OUTPUT;
    GPIO_InitStruct.OutputType = LL_GPIO_OUTPUT_PUSHPULL;
    GPIO_InitStruct.Speed = LL_GPIO_SPEED_FREQ_LOW;
    GPIO_InitStruct.Pull = LL_GPIO_PULL_NO;
    LL_GPIO_Init(DHT11_PORT, &GPIO_InitStruct);
 8001750:	a902      	add	r1, sp, #8
 8001752:	4002      	ands	r2, r0
 8001754:	9201      	str	r2, [sp, #4]
  (void)tmpreg;
 8001756:	9a01      	ldr	r2, [sp, #4]
    GPIO_InitStruct.Pin = DHT11_PIN;
 8001758:	2240      	movs	r2, #64	@ 0x40
    LL_GPIO_Init(DHT11_PORT, &GPIO_InitStruct);
 800175a:	4806      	ldr	r0, [pc, #24]	@ (8001774 <DHT11_SetPinOutput+0x38>)
    GPIO_InitStruct.Pin = DHT11_PIN;
 800175c:	9202      	str	r2, [sp, #8]
    GPIO_InitStruct.Mode = LL_GPIO_MODE_OUTPUT;
 800175e:	3a3f      	subs	r2, #63	@ 0x3f
 8001760:	9203      	str	r2, [sp, #12]
    GPIO_InitStruct.OutputType = LL_GPIO_OUTPUT_PUSHPULL;
 8001762:	9305      	str	r3, [sp, #20]
    GPIO_InitStruct.Speed = LL_GPIO_SPEED_FREQ_LOW;
 8001764:	9304      	str	r3, [sp, #16]
    GPIO_InitStruct.Pull = LL_GPIO_PULL_NO;
 8001766:	9306      	str	r3, [sp, #24]
    LL_GPIO_Init(DHT11_PORT, &GPIO_InitStruct);
 8001768:	f001 ffb2 	bl	80036d0 <LL_GPIO_Init>
}
 800176c:	b009      	add	sp, #36	@ 0x24
 800176e:	bd00      	pop	{pc}
 8001770:	40021000 	.word	0x40021000
 8001774:	50000800 	.word	0x50000800

08001778 <DHT11_SetPinInput>:
  SET_BIT(RCC->AHBENR, Periphs);
 8001778:	2104      	movs	r1, #4
			//__HAL_TIM_CLEAR_FLAG(&htim16, TIM_FLAG_UPDATE);
}

*/
void DHT11_SetPinInput(void)
{
 800177a:	b570      	push	{r4, r5, r6, lr}
 800177c:	4b1f      	ldr	r3, [pc, #124]	@ (80017fc <DHT11_SetPinInput+0x84>)
 800177e:	b088      	sub	sp, #32
 8001780:	6b9a      	ldr	r2, [r3, #56]	@ 0x38
    LL_GPIO_InitTypeDef GPIO_InitStruct = {0};
    LL_AHB1_GRP1_EnableClock(LL_IOP_GRP1_PERIPH_GPIOC);

    GPIO_InitStruct.Pin = DHT11_PIN;
    GPIO_InitStruct.Mode = LL_GPIO_MODE_ALTERNATE;
 8001782:	2502      	movs	r5, #2
 8001784:	430a      	orrs	r2, r1
 8001786:	639a      	str	r2, [r3, #56]	@ 0x38
  tmpreg = READ_BIT(RCC->AHBENR, Periphs);
 8001788:	6b9b      	ldr	r3, [r3, #56]	@ 0x38
    GPIO_InitStruct.OutputType = LL_GPIO_OUTPUT_PUSHPULL;
    GPIO_InitStruct.Speed = LL_GPIO_SPEED_FREQ_HIGH;
    GPIO_InitStruct.Pull = LL_GPIO_PULL_NO;
    GPIO_InitStruct.Alternate = LL_GPIO_AF_1; // TIM3_CH1 alternate
 800178a:	2401      	movs	r4, #1
 800178c:	400b      	ands	r3, r1
 800178e:	9301      	str	r3, [sp, #4]
  (void)tmpreg;
 8001790:	9b01      	ldr	r3, [sp, #4]
    GPIO_InitStruct.Pin = DHT11_PIN;
 8001792:	2340      	movs	r3, #64	@ 0x40
 8001794:	9302      	str	r3, [sp, #8]
    GPIO_InitStruct.OutputType = LL_GPIO_OUTPUT_PUSHPULL;
 8001796:	2300      	movs	r3, #0
    LL_GPIO_Init(DHT11_PORT, &GPIO_InitStruct);
 8001798:	a902      	add	r1, sp, #8
 800179a:	4819      	ldr	r0, [pc, #100]	@ (8001800 <DHT11_SetPinInput+0x88>)
    GPIO_InitStruct.OutputType = LL_GPIO_OUTPUT_PUSHPULL;
 800179c:	9305      	str	r3, [sp, #20]
    GPIO_InitStruct.Pull = LL_GPIO_PULL_NO;
 800179e:	9306      	str	r3, [sp, #24]
    GPIO_InitStruct.Mode = LL_GPIO_MODE_ALTERNATE;
 80017a0:	9503      	str	r5, [sp, #12]
    GPIO_InitStruct.Speed = LL_GPIO_SPEED_FREQ_HIGH;
 80017a2:	9504      	str	r5, [sp, #16]
    GPIO_InitStruct.Alternate = LL_GPIO_AF_1; // TIM3_CH1 alternate
 80017a4:	9407      	str	r4, [sp, #28]
    LL_GPIO_Init(DHT11_PORT, &GPIO_InitStruct);
 80017a6:	f001 ff93 	bl	80036d0 <LL_GPIO_Init>
  MODIFY_REG(*pReg, ((TIM_CCMR1_CC1S) << SHIFT_TAB_ICxx[iChannel]), (ICActiveInput >> 16U) << SHIFT_TAB_ICxx[iChannel]);
 80017aa:	2103      	movs	r1, #3
  MODIFY_REG(TIMx->CCER, ((TIM_CCER_CC1NP | TIM_CCER_CC1P) << SHIFT_TAB_CCxP[iChannel]),
 80017ac:	200a      	movs	r0, #10
  MODIFY_REG(*pReg, ((TIM_CCMR1_CC1S) << SHIFT_TAB_ICxx[iChannel]), (ICActiveInput >> 16U) << SHIFT_TAB_ICxx[iChannel]);
 80017ae:	4a15      	ldr	r2, [pc, #84]	@ (8001804 <DHT11_SetPinInput+0x8c>)
    NVIC->IP[_IP_IDX(IRQn)]  = ((uint32_t)(NVIC->IP[_IP_IDX(IRQn)]  & ~(0xFFUL << _BIT_SHIFT(IRQn))) |
 80017b0:	26ff      	movs	r6, #255	@ 0xff
 80017b2:	6813      	ldr	r3, [r2, #0]
 80017b4:	438b      	bics	r3, r1
 80017b6:	4323      	orrs	r3, r4
 80017b8:	6013      	str	r3, [r2, #0]
  MODIFY_REG(TIMx->CCER, ((TIM_CCER_CC1NP | TIM_CCER_CC1P) << SHIFT_TAB_CCxP[iChannel]),
 80017ba:	4b13      	ldr	r3, [pc, #76]	@ (8001808 <DHT11_SetPinInput+0x90>)
 80017bc:	6a19      	ldr	r1, [r3, #32]
 80017be:	4301      	orrs	r1, r0
 80017c0:	6219      	str	r1, [r3, #32]
  MODIFY_REG(*pReg, ((TIM_CCMR1_IC1PSC) << SHIFT_TAB_ICxx[iChannel]), (ICPrescaler >> 16U) << SHIFT_TAB_ICxx[iChannel]);
 80017c2:	6811      	ldr	r1, [r2, #0]
 80017c4:	1940      	adds	r0, r0, r5
 80017c6:	4381      	bics	r1, r0
 80017c8:	6011      	str	r1, [r2, #0]
  MODIFY_REG(*pReg, ((TIM_CCMR1_IC1F) << SHIFT_TAB_ICxx[iChannel]), (ICFilter >> 16U) << SHIFT_TAB_ICxx[iChannel]);
 80017ca:	6811      	ldr	r1, [r2, #0]
 80017cc:	30e4      	adds	r0, #228	@ 0xe4
 80017ce:	4381      	bics	r1, r0
 80017d0:	20c4      	movs	r0, #196	@ 0xc4
 80017d2:	6011      	str	r1, [r2, #0]
 80017d4:	4a0d      	ldr	r2, [pc, #52]	@ (800180c <DHT11_SetPinInput+0x94>)
 80017d6:	0080      	lsls	r0, r0, #2
 80017d8:	5811      	ldr	r1, [r2, r0]
 80017da:	43b1      	bics	r1, r6
 80017dc:	5011      	str	r1, [r2, r0]
    NVIC->ISER[0U] = (uint32_t)(1UL << (((uint32_t)IRQn) & 0x1FUL));
 80017de:	2180      	movs	r1, #128	@ 0x80
 80017e0:	0249      	lsls	r1, r1, #9
 80017e2:	6011      	str	r1, [r2, #0]
  SET_BIT(TIMx->CCER, Channels);
 80017e4:	6a1a      	ldr	r2, [r3, #32]
 80017e6:	4322      	orrs	r2, r4
 80017e8:	621a      	str	r2, [r3, #32]
  SET_BIT(TIMx->DIER, TIM_DIER_CC1IE);
 80017ea:	68da      	ldr	r2, [r3, #12]
 80017ec:	4315      	orrs	r5, r2
 80017ee:	60dd      	str	r5, [r3, #12]
  SET_BIT(TIMx->CR1, TIM_CR1_CEN);
 80017f0:	681a      	ldr	r2, [r3, #0]
 80017f2:	4314      	orrs	r4, r2
 80017f4:	601c      	str	r4, [r3, #0]
    LL_TIM_CC_EnableChannel(TIM3, LL_TIM_CHANNEL_CH1);
    LL_TIM_EnableIT_CC1(TIM3);
    LL_TIM_EnableCounter(TIM3);


}
 80017f6:	b008      	add	sp, #32
 80017f8:	bd70      	pop	{r4, r5, r6, pc}
 80017fa:	46c0      	nop			@ (mov r8, r8)
 80017fc:	40021000 	.word	0x40021000
 8001800:	50000800 	.word	0x50000800
 8001804:	40000418 	.word	0x40000418
 8001808:	40000400 	.word	0x40000400
 800180c:	e000e100 	.word	0xe000e100

08001810 <Delay_us>:
  WRITE_REG(TIMx->CNT, Counter);
 8001810:	2200      	movs	r2, #0
 8001812:	4b03      	ldr	r3, [pc, #12]	@ (8001820 <Delay_us+0x10>)
 8001814:	625a      	str	r2, [r3, #36]	@ 0x24
  return (uint32_t)(READ_REG(TIMx->CNT));
 8001816:	6a5a      	ldr	r2, [r3, #36]	@ 0x24


void Delay_us(uint16_t us)
{
	LL_TIM_SetCounter(TIM17, 0);
	while (LL_TIM_GetCounter(TIM17) < us);
 8001818:	4290      	cmp	r0, r2
 800181a:	d8fc      	bhi.n	8001816 <Delay_us+0x6>
}
 800181c:	4770      	bx	lr
 800181e:	46c0      	nop			@ (mov r8, r8)
 8001820:	40014800 	.word	0x40014800

08001824 <Delay_ms>:

void Delay_ms(uint16_t ms)
 8001824:	b510      	push	{r4, lr}
 8001826:	f7ff fff3 	bl	8001810 <Delay_us>
 800182a:	bd10      	pop	{r4, pc}

0800182c <Reset_Handler>:

  .section .text.Reset_Handler
  .weak Reset_Handler
  .type Reset_Handler, %function
Reset_Handler:
  ldr   r0, =_estack
 800182c:	480d      	ldr	r0, [pc, #52]	@ (8001864 <LoopForever+0x2>)
  mov   sp, r0          /* set stack pointer */
 800182e:	4685      	mov	sp, r0
/* Call the clock system initialization function.*/
  bl  SystemInit
 8001830:	f7ff ff7c 	bl	800172c <SystemInit>

/* Copy the data segment initializers from flash to SRAM */
  movs r1, #0
 8001834:	2100      	movs	r1, #0
  b LoopCopyDataInit
 8001836:	e003      	b.n	8001840 <LoopCopyDataInit>

08001838 <CopyDataInit>:

CopyDataInit:
  ldr r3, =_sidata
 8001838:	4b0b      	ldr	r3, [pc, #44]	@ (8001868 <LoopForever+0x6>)
  ldr r3, [r3, r1]
 800183a:	585b      	ldr	r3, [r3, r1]
  str r3, [r0, r1]
 800183c:	5043      	str	r3, [r0, r1]
  adds r1, r1, #4
 800183e:	3104      	adds	r1, #4

08001840 <LoopCopyDataInit>:

LoopCopyDataInit:
  ldr r0, =_sdata
 8001840:	480a      	ldr	r0, [pc, #40]	@ (800186c <LoopForever+0xa>)
  ldr r3, =_edata
 8001842:	4b0b      	ldr	r3, [pc, #44]	@ (8001870 <LoopForever+0xe>)
  adds r2, r0, r1
 8001844:	1842      	adds	r2, r0, r1
  cmp r2, r3
 8001846:	429a      	cmp	r2, r3
  bcc CopyDataInit
 8001848:	d3f6      	bcc.n	8001838 <CopyDataInit>
  ldr r2, =_sbss
 800184a:	4a0a      	ldr	r2, [pc, #40]	@ (8001874 <LoopForever+0x12>)
  b LoopFillZerobss
 800184c:	e002      	b.n	8001854 <LoopFillZerobss>

0800184e <FillZerobss>:
/* Zero fill the bss segment. */
FillZerobss:
  movs r3, #0
 800184e:	2300      	movs	r3, #0
  str  r3, [r2]
 8001850:	6013      	str	r3, [r2, #0]
  adds r2, r2, #4
 8001852:	3204      	adds	r2, #4

08001854 <LoopFillZerobss>:


LoopFillZerobss:
  ldr r3, = _ebss
 8001854:	4b08      	ldr	r3, [pc, #32]	@ (8001878 <LoopForever+0x16>)
  cmp r2, r3
 8001856:	429a      	cmp	r2, r3
  bcc FillZerobss
 8001858:	d3f9      	bcc.n	800184e <FillZerobss>


/* Call static constructors */
  bl __libc_init_array
 800185a:	f003 fdef 	bl	800543c <__libc_init_array>
/* Call the application's entry point.*/
  bl main
 800185e:	f7ff f8f3 	bl	8000a48 <main>

08001862 <LoopForever>:

LoopForever:
    b LoopForever
 8001862:	e7fe      	b.n	8001862 <LoopForever>
  ldr   r0, =_estack
 8001864:	20003000 	.word	0x20003000
  ldr r3, =_sidata
 8001868:	0800784c 	.word	0x0800784c
  ldr r0, =_sdata
 800186c:	20000000 	.word	0x20000000
  ldr r3, =_edata
 8001870:	20000068 	.word	0x20000068
  ldr r2, =_sbss
 8001874:	20000068 	.word	0x20000068
  ldr r3, = _ebss
 8001878:	20000918 	.word	0x20000918

0800187c <ADC1_IRQHandler>:
 * @retval : None
*/
    .section .text.Default_Handler,"ax",%progbits
Default_Handler:
Infinite_Loop:
  b Infinite_Loop
 800187c:	e7fe      	b.n	800187c <ADC1_IRQHandler>
	...

08001880 <HAL_InitTick>:
  *       implementation  in user file.
  * @param TickPriority Tick interrupt priority.
  * @retval HAL status
  */
__weak HAL_StatusTypeDef HAL_InitTick(uint32_t TickPriority)
{
 8001880:	b570      	push	{r4, r5, r6, lr}
  HAL_StatusTypeDef  status = HAL_OK;

  if ((uint32_t)uwTickFreq != 0UL)
 8001882:	4b10      	ldr	r3, [pc, #64]	@ (80018c4 <HAL_InitTick+0x44>)
{
 8001884:	0005      	movs	r5, r0
  if ((uint32_t)uwTickFreq != 0UL)
 8001886:	7819      	ldrb	r1, [r3, #0]
 8001888:	2900      	cmp	r1, #0
 800188a:	d101      	bne.n	8001890 <HAL_InitTick+0x10>
        status = HAL_ERROR;
      }
    }
    else
    {
      status = HAL_ERROR;
 800188c:	2001      	movs	r0, #1
    status = HAL_ERROR;
  }

  /* Return function status */
  return status;
}
 800188e:	bd70      	pop	{r4, r5, r6, pc}
    if (HAL_SYSTICK_Config(SystemCoreClock / (1000UL / (uint32_t)uwTickFreq)) == 0U)
 8001890:	20fa      	movs	r0, #250	@ 0xfa
 8001892:	0080      	lsls	r0, r0, #2
 8001894:	f7fe fc4c 	bl	8000130 <__udivsi3>
 8001898:	4c0b      	ldr	r4, [pc, #44]	@ (80018c8 <HAL_InitTick+0x48>)
 800189a:	0001      	movs	r1, r0
 800189c:	6820      	ldr	r0, [r4, #0]
 800189e:	f7fe fc47 	bl	8000130 <__udivsi3>
 80018a2:	f000 fb73 	bl	8001f8c <HAL_SYSTICK_Config>
 80018a6:	1e04      	subs	r4, r0, #0
 80018a8:	d1f0      	bne.n	800188c <HAL_InitTick+0xc>
      if (TickPriority < (1UL << __NVIC_PRIO_BITS))
 80018aa:	2d03      	cmp	r5, #3
 80018ac:	d8ee      	bhi.n	800188c <HAL_InitTick+0xc>
        HAL_NVIC_SetPriority(SysTick_IRQn, TickPriority, 0U);
 80018ae:	0002      	movs	r2, r0
 80018b0:	2001      	movs	r0, #1
 80018b2:	0029      	movs	r1, r5
 80018b4:	4240      	negs	r0, r0
 80018b6:	f000 fb3f 	bl	8001f38 <HAL_NVIC_SetPriority>
        uwTickPrio = TickPriority;
 80018ba:	4b04      	ldr	r3, [pc, #16]	@ (80018cc <HAL_InitTick+0x4c>)
 80018bc:	0020      	movs	r0, r4
 80018be:	601d      	str	r5, [r3, #0]
  return status;
 80018c0:	e7e5      	b.n	800188e <HAL_InitTick+0xe>
 80018c2:	46c0      	nop			@ (mov r8, r8)
 80018c4:	20000004 	.word	0x20000004
 80018c8:	20000000 	.word	0x20000000
 80018cc:	20000008 	.word	0x20000008

080018d0 <HAL_Init>:
{
 80018d0:	b510      	push	{r4, lr}
  if (HAL_InitTick(TICK_INT_PRIORITY) != HAL_OK)
 80018d2:	2003      	movs	r0, #3
 80018d4:	f7ff ffd4 	bl	8001880 <HAL_InitTick>
 80018d8:	1e04      	subs	r4, r0, #0
 80018da:	d103      	bne.n	80018e4 <HAL_Init+0x14>
    HAL_MspInit();
 80018dc:	f7ff fddc 	bl	8001498 <HAL_MspInit>
}
 80018e0:	0020      	movs	r0, r4
 80018e2:	bd10      	pop	{r4, pc}
    status = HAL_ERROR;
 80018e4:	2401      	movs	r4, #1
 80018e6:	e7fb      	b.n	80018e0 <HAL_Init+0x10>

080018e8 <HAL_GetTick>:
  *       implementations in user file.
  * @retval tick value
  */
__weak uint32_t HAL_GetTick(void)
{
  return uwTick;
 80018e8:	4b01      	ldr	r3, [pc, #4]	@ (80018f0 <HAL_GetTick+0x8>)
 80018ea:	6818      	ldr	r0, [r3, #0]
}
 80018ec:	4770      	bx	lr
 80018ee:	46c0      	nop			@ (mov r8, r8)
 80018f0:	200004d4 	.word	0x200004d4

080018f4 <LL_ADC_REG_IsConversionOngoing>:
  * @param  ADCx ADC instance
  * @retval 0: no conversion is on going on ADC group regular.
  */
__STATIC_INLINE uint32_t LL_ADC_REG_IsConversionOngoing(const ADC_TypeDef *ADCx)
{
  return ((READ_BIT(ADCx->CR, ADC_CR_ADSTART) == (ADC_CR_ADSTART)) ? 1UL : 0UL);
 80018f4:	6880      	ldr	r0, [r0, #8]
 80018f6:	0740      	lsls	r0, r0, #29
 80018f8:	0fc0      	lsrs	r0, r0, #31
}
 80018fa:	4770      	bx	lr

080018fc <HAL_ADC_Init>:
{
  HAL_StatusTypeDef tmp_hal_status = HAL_OK;
  uint32_t tmpCFGR1 = 0UL;
  uint32_t tmpCFGR2 = 0UL;
  uint32_t tmp_adc_reg_is_conversion_on_going;
  __IO uint32_t wait_loop_index = 0UL;
 80018fc:	2300      	movs	r3, #0
{
 80018fe:	b5f0      	push	{r4, r5, r6, r7, lr}
 8001900:	b085      	sub	sp, #20
 8001902:	0004      	movs	r4, r0
  __IO uint32_t wait_loop_index = 0UL;
 8001904:	9303      	str	r3, [sp, #12]

  /* Check ADC handle */
  if (hadc == NULL)
 8001906:	4298      	cmp	r0, r3
 8001908:	d100      	bne.n	800190c <HAL_ADC_Init+0x10>
 800190a:	e0ef      	b.n	8001aec <HAL_ADC_Init+0x1f0>
  /* continuous mode is disabled.                                             */
  assert_param(!((hadc->Init.DiscontinuousConvMode == ENABLE) && (hadc->Init.ContinuousConvMode == ENABLE)));

  /* Actions performed only if ADC is coming from state reset:                */
  /* - Initialization of ADC MSP                                              */
  if (hadc->State == HAL_ADC_STATE_RESET)
 800190c:	6d85      	ldr	r5, [r0, #88]	@ 0x58
 800190e:	429d      	cmp	r5, r3
 8001910:	d105      	bne.n	800191e <HAL_ADC_Init+0x22>

    /* Init the low level hardware */
    hadc->MspInitCallback(hadc);
#else
    /* Init the low level hardware */
    HAL_ADC_MspInit(hadc);
 8001912:	f7ff fdd9 	bl	80014c8 <HAL_ADC_MspInit>

    /* Set ADC error code to none */
    ADC_CLEAR_ERRORCODE(hadc);

    /* Initialize Lock */
    hadc->Lock = HAL_UNLOCKED;
 8001916:	0023      	movs	r3, r4
 8001918:	3354      	adds	r3, #84	@ 0x54
    ADC_CLEAR_ERRORCODE(hadc);
 800191a:	65e5      	str	r5, [r4, #92]	@ 0x5c
    hadc->Lock = HAL_UNLOCKED;
 800191c:	701d      	strb	r5, [r3, #0]
  return ((READ_BIT(ADCx->CR, ADC_CR_ADVREGEN) == (ADC_CR_ADVREGEN)) ? 1UL : 0UL);
 800191e:	2380      	movs	r3, #128	@ 0x80
  }

  if (LL_ADC_IsInternalRegulatorEnabled(hadc->Instance) == 0UL)
 8001920:	6825      	ldr	r5, [r4, #0]
 8001922:	055b      	lsls	r3, r3, #21
 8001924:	68aa      	ldr	r2, [r5, #8]
 8001926:	421a      	tst	r2, r3
 8001928:	d100      	bne.n	800192c <HAL_ADC_Init+0x30>
 800192a:	e0a7      	b.n	8001a7c <HAL_ADC_Init+0x180>
  HAL_StatusTypeDef tmp_hal_status = HAL_OK;
 800192c:	2200      	movs	r2, #0
 800192e:	68ab      	ldr	r3, [r5, #8]
 8001930:	9201      	str	r2, [sp, #4]
 8001932:	00db      	lsls	r3, r3, #3
 8001934:	d408      	bmi.n	8001948 <HAL_ADC_Init+0x4c>
  /* or not ADC is coming from state reset (if any potential problem of       */
  /* clocking, voltage regulator would not be enabled).                       */
  if (LL_ADC_IsInternalRegulatorEnabled(hadc->Instance) == 0UL)
  {
    /* Update ADC state machine to error */
    SET_BIT(hadc->State, HAL_ADC_STATE_ERROR_INTERNAL);
 8001936:	2310      	movs	r3, #16

    /* Set ADC error code to ADC peripheral internal error */
    SET_BIT(hadc->ErrorCode, HAL_ADC_ERROR_INTERNAL);
 8001938:	2601      	movs	r6, #1
    SET_BIT(hadc->State, HAL_ADC_STATE_ERROR_INTERNAL);
 800193a:	6da2      	ldr	r2, [r4, #88]	@ 0x58

    tmp_hal_status = HAL_ERROR;
 800193c:	9601      	str	r6, [sp, #4]
    SET_BIT(hadc->State, HAL_ADC_STATE_ERROR_INTERNAL);
 800193e:	4313      	orrs	r3, r2
 8001940:	65a3      	str	r3, [r4, #88]	@ 0x58
    SET_BIT(hadc->ErrorCode, HAL_ADC_ERROR_INTERNAL);
 8001942:	6de3      	ldr	r3, [r4, #92]	@ 0x5c
 8001944:	4333      	orrs	r3, r6
 8001946:	65e3      	str	r3, [r4, #92]	@ 0x5c

  /* Configuration of ADC parameters if previous preliminary actions are      */
  /* correctly completed and if there is no conversion on going on regular    */
  /* group (ADC may already be enabled at this point if HAL_ADC_Init() is     */
  /* called to update a parameter on the fly).                                */
  tmp_adc_reg_is_conversion_on_going = LL_ADC_REG_IsConversionOngoing(hadc->Instance);
 8001948:	0028      	movs	r0, r5
 800194a:	f7ff ffd3 	bl	80018f4 <LL_ADC_REG_IsConversionOngoing>

  if (((hadc->State & HAL_ADC_STATE_ERROR_INTERNAL) == 0UL)
 800194e:	2210      	movs	r2, #16
 8001950:	6da3      	ldr	r3, [r4, #88]	@ 0x58
 8001952:	4013      	ands	r3, r2
 8001954:	4303      	orrs	r3, r0
 8001956:	d000      	beq.n	800195a <HAL_ADC_Init+0x5e>
 8001958:	e0cb      	b.n	8001af2 <HAL_ADC_Init+0x1f6>
      && (tmp_adc_reg_is_conversion_on_going == 0UL)
     )
  {
    /* Set ADC state */
    ADC_STATE_CLR_SET(hadc->State,
 800195a:	6da2      	ldr	r2, [r4, #88]	@ 0x58
 800195c:	4b67      	ldr	r3, [pc, #412]	@ (8001afc <HAL_ADC_Init+0x200>)
                   ADC_CFGR1_AUTOWAIT((uint32_t)hadc->Init.LowPowerAutoWait)      |
                   ADC_CFGR1_AUTOOFF((uint32_t)hadc->Init.LowPowerAutoPowerOff)   |
                   ADC_CFGR1_CONTINUOUS((uint32_t)hadc->Init.ContinuousConvMode)  |
                   ADC_CFGR1_OVERRUN(hadc->Init.Overrun)                          |
                   hadc->Init.DataAlign                                           |
                   ADC_SCAN_SEQ_MODE(hadc->Init.ScanConvMode)                     |
 800195e:	6920      	ldr	r0, [r4, #16]
    ADC_STATE_CLR_SET(hadc->State,
 8001960:	401a      	ands	r2, r3
 8001962:	3306      	adds	r3, #6
 8001964:	33ff      	adds	r3, #255	@ 0xff
 8001966:	4313      	orrs	r3, r2
 8001968:	65a3      	str	r3, [r4, #88]	@ 0x58
  return ((READ_BIT(ADCx->CR, ADC_CR_ADEN) == (ADC_CR_ADEN)) ? 1UL : 0UL);
 800196a:	68ab      	ldr	r3, [r5, #8]
 800196c:	07db      	lsls	r3, r3, #31
 800196e:	d461      	bmi.n	8001a34 <HAL_ADC_Init+0x138>
                   ADC_CFGR1_OVERRUN(hadc->Init.Overrun)                          |
 8001970:	6b27      	ldr	r7, [r4, #48]	@ 0x30
 8001972:	68e1      	ldr	r1, [r4, #12]
 8001974:	1e7b      	subs	r3, r7, #1
 8001976:	419f      	sbcs	r7, r3
 8001978:	68a3      	ldr	r3, [r4, #8]
                   ADC_CFGR1_CONTINUOUS((uint32_t)hadc->Init.ContinuousConvMode)  |
 800197a:	7ea2      	ldrb	r2, [r4, #26]
 800197c:	430b      	orrs	r3, r1
                   ADC_CFGR1_AUTOWAIT((uint32_t)hadc->Init.LowPowerAutoWait)      |
 800197e:	7e21      	ldrb	r1, [r4, #24]
                   ADC_CFGR1_OVERRUN(hadc->Init.Overrun)                          |
 8001980:	033f      	lsls	r7, r7, #12
                   ADC_CFGR1_AUTOWAIT((uint32_t)hadc->Init.LowPowerAutoWait)      |
 8001982:	0389      	lsls	r1, r1, #14
 8001984:	430b      	orrs	r3, r1
                   ADC_CFGR1_AUTOOFF((uint32_t)hadc->Init.LowPowerAutoPowerOff)   |
 8001986:	7e61      	ldrb	r1, [r4, #25]
 8001988:	03c9      	lsls	r1, r1, #15
 800198a:	430b      	orrs	r3, r1
                   ADC_CFGR1_CONTINUOUS((uint32_t)hadc->Init.ContinuousConvMode)  |
 800198c:	0351      	lsls	r1, r2, #13
 800198e:	430b      	orrs	r3, r1
 8001990:	469c      	mov	ip, r3
                   ADC_SCAN_SEQ_MODE(hadc->Init.ScanConvMode)                     |
 8001992:	2800      	cmp	r0, #0
 8001994:	db00      	blt.n	8001998 <HAL_ADC_Init+0x9c>
 8001996:	e085      	b.n	8001aa4 <HAL_ADC_Init+0x1a8>
 8001998:	0041      	lsls	r1, r0, #1
 800199a:	0849      	lsrs	r1, r1, #1
                   ADC_CFGR1_DMACONTREQ((uint32_t)hadc->Init.DMAContinuousRequests));
 800199c:	0023      	movs	r3, r4
                   ADC_SCAN_SEQ_MODE(hadc->Init.ScanConvMode)                     |
 800199e:	4666      	mov	r6, ip
                   ADC_CFGR1_DMACONTREQ((uint32_t)hadc->Init.DMAContinuousRequests));
 80019a0:	332c      	adds	r3, #44	@ 0x2c
 80019a2:	781b      	ldrb	r3, [r3, #0]
 80019a4:	005b      	lsls	r3, r3, #1
                   ADC_SCAN_SEQ_MODE(hadc->Init.ScanConvMode)                     |
 80019a6:	4333      	orrs	r3, r6
 80019a8:	433b      	orrs	r3, r7
 80019aa:	430b      	orrs	r3, r1

      /* Update setting of discontinuous mode only if continuous mode is disabled */
      if (hadc->Init.DiscontinuousConvMode == ENABLE)
 80019ac:	1c61      	adds	r1, r4, #1
 80019ae:	7fc9      	ldrb	r1, [r1, #31]
 80019b0:	2901      	cmp	r1, #1
 80019b2:	d105      	bne.n	80019c0 <HAL_ADC_Init+0xc4>
      {
        if (hadc->Init.ContinuousConvMode == DISABLE)
 80019b4:	2a00      	cmp	r2, #0
 80019b6:	d000      	beq.n	80019ba <HAL_ADC_Init+0xbe>
 80019b8:	e077      	b.n	8001aaa <HAL_ADC_Init+0x1ae>
        {
          /* Enable the selected ADC group regular discontinuous mode */
          tmpCFGR1 |= ADC_CFGR1_DISCEN;
 80019ba:	2280      	movs	r2, #128	@ 0x80
 80019bc:	0252      	lsls	r2, r2, #9
 80019be:	4313      	orrs	r3, r2
      /* Enable external trigger if trigger selection is different of software  */
      /* start.                                                                 */
      /* Note: This configuration keeps the hardware feature of parameter       */
      /*       ExternalTrigConvEdge "trigger edge none" equivalent to           */
      /*       software start.                                                  */
      if (hadc->Init.ExternalTrigConv != ADC_SOFTWARE_START)
 80019c0:	6a62      	ldr	r2, [r4, #36]	@ 0x24
 80019c2:	2a00      	cmp	r2, #0
 80019c4:	d005      	beq.n	80019d2 <HAL_ADC_Init+0xd6>
      {
        tmpCFGR1 |= ((hadc->Init.ExternalTrigConv & ADC_CFGR1_EXTSEL) |
 80019c6:	21e0      	movs	r1, #224	@ 0xe0
 80019c8:	0049      	lsls	r1, r1, #1
 80019ca:	400a      	ands	r2, r1
 80019cc:	6aa1      	ldr	r1, [r4, #40]	@ 0x28
 80019ce:	430a      	orrs	r2, r1
 80019d0:	4313      	orrs	r3, r2
                     hadc->Init.ExternalTrigConvEdge);
      }

      /* Update ADC configuration register with previous settings */
      MODIFY_REG(hadc->Instance->CFGR1,
 80019d2:	68ea      	ldr	r2, [r5, #12]
 80019d4:	494a      	ldr	r1, [pc, #296]	@ (8001b00 <HAL_ADC_Init+0x204>)
 80019d6:	400a      	ands	r2, r1
 80019d8:	4313      	orrs	r3, r2
 80019da:	60eb      	str	r3, [r5, #12]

      tmpCFGR2 |= ((hadc->Init.ClockPrescaler & ADC_CFGR2_CKMODE) |
                   hadc->Init.TriggerFrequencyMode
                  );

      if (hadc->Init.OversamplingMode == ENABLE)
 80019dc:	0023      	movs	r3, r4
      tmpCFGR2 |= ((hadc->Init.ClockPrescaler & ADC_CFGR2_CKMODE) |
 80019de:	6862      	ldr	r2, [r4, #4]
      if (hadc->Init.OversamplingMode == ENABLE)
 80019e0:	333c      	adds	r3, #60	@ 0x3c
      tmpCFGR2 |= ((hadc->Init.ClockPrescaler & ADC_CFGR2_CKMODE) |
 80019e2:	6ce1      	ldr	r1, [r4, #76]	@ 0x4c
      if (hadc->Init.OversamplingMode == ENABLE)
 80019e4:	781b      	ldrb	r3, [r3, #0]
      tmpCFGR2 |= ((hadc->Init.ClockPrescaler & ADC_CFGR2_CKMODE) |
 80019e6:	0f97      	lsrs	r7, r2, #30
 80019e8:	07bf      	lsls	r7, r7, #30
      if (hadc->Init.OversamplingMode == ENABLE)
 80019ea:	469c      	mov	ip, r3
      tmpCFGR2 |= ((hadc->Init.ClockPrescaler & ADC_CFGR2_CKMODE) |
 80019ec:	4339      	orrs	r1, r7
      if (hadc->Init.OversamplingMode == ENABLE)
 80019ee:	2b01      	cmp	r3, #1
 80019f0:	d108      	bne.n	8001a04 <HAL_ADC_Init+0x108>
      {
        tmpCFGR2 |= (ADC_CFGR2_OVSE |
 80019f2:	6c23      	ldr	r3, [r4, #64]	@ 0x40
 80019f4:	6c66      	ldr	r6, [r4, #68]	@ 0x44
 80019f6:	4333      	orrs	r3, r6
 80019f8:	430b      	orrs	r3, r1
 80019fa:	6ca1      	ldr	r1, [r4, #72]	@ 0x48
 80019fc:	430b      	orrs	r3, r1
 80019fe:	4661      	mov	r1, ip
 8001a00:	433b      	orrs	r3, r7
 8001a02:	4319      	orrs	r1, r3
                     hadc->Init.Oversampling.RightBitShift |
                     hadc->Init.Oversampling.TriggeredMode
                    );
      }

      MODIFY_REG(hadc->Instance->CFGR2,
 8001a04:	692b      	ldr	r3, [r5, #16]
 8001a06:	4f3f      	ldr	r7, [pc, #252]	@ (8001b04 <HAL_ADC_Init+0x208>)
 8001a08:	403b      	ands	r3, r7
 8001a0a:	430b      	orrs	r3, r1
                 ADC_CFGR2_TOVS,
                 tmpCFGR2);

      /* Configuration of ADC clock mode: asynchronous clock source           */
      /* with selectable prescaler.                                           */
      if (((hadc->Init.ClockPrescaler) != ADC_CLOCK_SYNC_PCLK_DIV1) &&
 8001a0c:	2180      	movs	r1, #128	@ 0x80
      MODIFY_REG(hadc->Instance->CFGR2,
 8001a0e:	612b      	str	r3, [r5, #16]
      if (((hadc->Init.ClockPrescaler) != ADC_CLOCK_SYNC_PCLK_DIV1) &&
 8001a10:	0053      	lsls	r3, r2, #1
 8001a12:	085b      	lsrs	r3, r3, #1
 8001a14:	05c9      	lsls	r1, r1, #23
 8001a16:	428b      	cmp	r3, r1
 8001a18:	d00c      	beq.n	8001a34 <HAL_ADC_Init+0x138>
          ((hadc->Init.ClockPrescaler) != ADC_CLOCK_SYNC_PCLK_DIV2) &&
 8001a1a:	2380      	movs	r3, #128	@ 0x80
 8001a1c:	061b      	lsls	r3, r3, #24
 8001a1e:	429a      	cmp	r2, r3
 8001a20:	d008      	beq.n	8001a34 <HAL_ADC_Init+0x138>
          ((hadc->Init.ClockPrescaler) != ADC_CLOCK_SYNC_PCLK_DIV4))
      {
        MODIFY_REG(ADC1_COMMON->CCR,
 8001a22:	4939      	ldr	r1, [pc, #228]	@ (8001b08 <HAL_ADC_Init+0x20c>)
 8001a24:	4f39      	ldr	r7, [pc, #228]	@ (8001b0c <HAL_ADC_Init+0x210>)
 8001a26:	680b      	ldr	r3, [r1, #0]
 8001a28:	403b      	ands	r3, r7
 8001a2a:	27f0      	movs	r7, #240	@ 0xf0
 8001a2c:	03bf      	lsls	r7, r7, #14
 8001a2e:	403a      	ands	r2, r7
 8001a30:	4313      	orrs	r3, r2
 8001a32:	600b      	str	r3, [r1, #0]
  MODIFY_REG(ADCx->SMPR,
 8001a34:	2107      	movs	r1, #7
 8001a36:	2770      	movs	r7, #112	@ 0x70
 8001a38:	696b      	ldr	r3, [r5, #20]
                   hadc->Init.ClockPrescaler & ADC_CCR_PRESC);
      }
    }

    /* Channel sampling time configuration */
    LL_ADC_SetSamplingTimeCommonChannels(hadc->Instance, LL_ADC_SAMPLINGTIME_COMMON_1, hadc->Init.SamplingTimeCommon1);
 8001a3a:	6b62      	ldr	r2, [r4, #52]	@ 0x34
 8001a3c:	438b      	bics	r3, r1
 8001a3e:	4313      	orrs	r3, r2
 8001a40:	616b      	str	r3, [r5, #20]
 8001a42:	6969      	ldr	r1, [r5, #20]
 8001a44:	6ba3      	ldr	r3, [r4, #56]	@ 0x38
 8001a46:	43b9      	bics	r1, r7
 8001a48:	011b      	lsls	r3, r3, #4
 8001a4a:	430b      	orrs	r3, r1
 8001a4c:	616b      	str	r3, [r5, #20]
    /*   emulated by software for alignment over all STM32 devices.           */
    /* - if scan mode is enabled, regular channels sequence length is set to  */
    /*   parameter "NbrOfConversion".                                         */
    /*   Channels must be configured into each rank using function            */
    /*   "HAL_ADC_ConfigChannel()".                                           */
    if (hadc->Init.ScanConvMode == ADC_SCAN_DISABLE)
 8001a4e:	2800      	cmp	r0, #0
 8001a50:	d133      	bne.n	8001aba <HAL_ADC_Init+0x1be>
    {
      /* Set sequencer scan length by clearing ranks above rank 1             */
      /* and do not modify rank 1 value.                                      */
      SET_BIT(hadc->Instance->CHSELR,
 8001a52:	2310      	movs	r3, #16
 8001a54:	6aa9      	ldr	r1, [r5, #40]	@ 0x28
 8001a56:	425b      	negs	r3, r3
      /*          therefore after the first call of "HAL_ADC_Init()",       */
      /*          each rank corresponding to parameter "NbrOfConversion"    */
      /*          must be set using "HAL_ADC_ConfigChannel()".              */
      /*  - Set sequencer scan length by clearing ranks above maximum rank  */
      /*    and do not modify other ranks value.                            */
      MODIFY_REG(hadc->Instance->CHSELR,
 8001a58:	430b      	orrs	r3, r1
 8001a5a:	62ab      	str	r3, [r5, #40]	@ 0x28
  return (uint32_t)((READ_BIT(ADCx->SMPR, ADC_SMPR_SMP1 << (SamplingTimeY & ADC_SAMPLING_TIME_SMP_SHIFT_MASK)))
 8001a5c:	2107      	movs	r1, #7
 8001a5e:	696b      	ldr	r3, [r5, #20]
 8001a60:	400b      	ands	r3, r1
    {
      /* Nothing to do */
    }
    /* Check back that ADC registers have effectively been configured to      */
    /* ensure of no potential problem of ADC core peripheral clocking.        */
    if (LL_ADC_GetSamplingTimeCommonChannels(hadc->Instance, LL_ADC_SAMPLINGTIME_COMMON_1)
 8001a62:	429a      	cmp	r2, r3
 8001a64:	d138      	bne.n	8001ad8 <HAL_ADC_Init+0x1dc>
        == hadc->Init.SamplingTimeCommon1)
    {
      /* Set ADC error code to none */
      ADC_CLEAR_ERRORCODE(hadc);
 8001a66:	2300      	movs	r3, #0
 8001a68:	65e3      	str	r3, [r4, #92]	@ 0x5c

      /* Set the ADC state */
      ADC_STATE_CLR_SET(hadc->State,
 8001a6a:	6da2      	ldr	r2, [r4, #88]	@ 0x58
 8001a6c:	3303      	adds	r3, #3
 8001a6e:	439a      	bics	r2, r3
 8001a70:	3b02      	subs	r3, #2
 8001a72:	4313      	orrs	r3, r2
 8001a74:	65a3      	str	r3, [r4, #88]	@ 0x58
    tmp_hal_status = HAL_ERROR;
  }

  /* Return function status */
  return tmp_hal_status;
}
 8001a76:	9801      	ldr	r0, [sp, #4]
 8001a78:	b005      	add	sp, #20
 8001a7a:	bdf0      	pop	{r4, r5, r6, r7, pc}
  MODIFY_REG(ADCx->CR,
 8001a7c:	68aa      	ldr	r2, [r5, #8]
 8001a7e:	4924      	ldr	r1, [pc, #144]	@ (8001b10 <HAL_ADC_Init+0x214>)
 8001a80:	400a      	ands	r2, r1
 8001a82:	4313      	orrs	r3, r2
 8001a84:	60ab      	str	r3, [r5, #8]
    wait_loop_index = ((LL_ADC_DELAY_INTERNAL_REGUL_STAB_US / 10UL) * (SystemCoreClock / (100000UL * 2UL)));
 8001a86:	4b23      	ldr	r3, [pc, #140]	@ (8001b14 <HAL_ADC_Init+0x218>)
 8001a88:	4923      	ldr	r1, [pc, #140]	@ (8001b18 <HAL_ADC_Init+0x21c>)
 8001a8a:	6818      	ldr	r0, [r3, #0]
 8001a8c:	f7fe fb50 	bl	8000130 <__udivsi3>
 8001a90:	0040      	lsls	r0, r0, #1
 8001a92:	9003      	str	r0, [sp, #12]
    while (wait_loop_index != 0UL)
 8001a94:	9b03      	ldr	r3, [sp, #12]
 8001a96:	2b00      	cmp	r3, #0
 8001a98:	d100      	bne.n	8001a9c <HAL_ADC_Init+0x1a0>
 8001a9a:	e747      	b.n	800192c <HAL_ADC_Init+0x30>
      wait_loop_index--;
 8001a9c:	9b03      	ldr	r3, [sp, #12]
 8001a9e:	3b01      	subs	r3, #1
 8001aa0:	9303      	str	r3, [sp, #12]
 8001aa2:	e7f7      	b.n	8001a94 <HAL_ADC_Init+0x198>
                   ADC_SCAN_SEQ_MODE(hadc->Init.ScanConvMode)                     |
 8001aa4:	2180      	movs	r1, #128	@ 0x80
 8001aa6:	0389      	lsls	r1, r1, #14
 8001aa8:	e778      	b.n	800199c <HAL_ADC_Init+0xa0>
          SET_BIT(hadc->State, HAL_ADC_STATE_ERROR_CONFIG);
 8001aaa:	2220      	movs	r2, #32
 8001aac:	6da7      	ldr	r7, [r4, #88]	@ 0x58
 8001aae:	433a      	orrs	r2, r7
 8001ab0:	65a2      	str	r2, [r4, #88]	@ 0x58
          SET_BIT(hadc->ErrorCode, HAL_ADC_ERROR_INTERNAL);
 8001ab2:	6de2      	ldr	r2, [r4, #92]	@ 0x5c
 8001ab4:	4311      	orrs	r1, r2
 8001ab6:	65e1      	str	r1, [r4, #92]	@ 0x5c
 8001ab8:	e782      	b.n	80019c0 <HAL_ADC_Init+0xc4>
    else if (hadc->Init.ScanConvMode == ADC_SCAN_ENABLE)
 8001aba:	2380      	movs	r3, #128	@ 0x80
 8001abc:	039b      	lsls	r3, r3, #14
 8001abe:	4298      	cmp	r0, r3
 8001ac0:	d1cc      	bne.n	8001a5c <HAL_ADC_Init+0x160>
      MODIFY_REG(hadc->Instance->CHSELR,
 8001ac2:	211c      	movs	r1, #28
 8001ac4:	6aab      	ldr	r3, [r5, #40]	@ 0x28
 8001ac6:	69e3      	ldr	r3, [r4, #28]
 8001ac8:	3b01      	subs	r3, #1
 8001aca:	009b      	lsls	r3, r3, #2
 8001acc:	400b      	ands	r3, r1
 8001ace:	392c      	subs	r1, #44	@ 0x2c
 8001ad0:	4099      	lsls	r1, r3
 8001ad2:	000b      	movs	r3, r1
 8001ad4:	6e21      	ldr	r1, [r4, #96]	@ 0x60
 8001ad6:	e7bf      	b.n	8001a58 <HAL_ADC_Init+0x15c>
      ADC_STATE_CLR_SET(hadc->State,
 8001ad8:	2312      	movs	r3, #18
 8001ada:	6da2      	ldr	r2, [r4, #88]	@ 0x58
 8001adc:	439a      	bics	r2, r3
 8001ade:	3b02      	subs	r3, #2
 8001ae0:	4313      	orrs	r3, r2
 8001ae2:	65a3      	str	r3, [r4, #88]	@ 0x58
      SET_BIT(hadc->ErrorCode, HAL_ADC_ERROR_INTERNAL);
 8001ae4:	2301      	movs	r3, #1
 8001ae6:	6de2      	ldr	r2, [r4, #92]	@ 0x5c
 8001ae8:	4313      	orrs	r3, r2
 8001aea:	65e3      	str	r3, [r4, #92]	@ 0x5c
    return HAL_ERROR;
 8001aec:	2301      	movs	r3, #1
 8001aee:	9301      	str	r3, [sp, #4]
 8001af0:	e7c1      	b.n	8001a76 <HAL_ADC_Init+0x17a>
    SET_BIT(hadc->State, HAL_ADC_STATE_ERROR_INTERNAL);
 8001af2:	6da3      	ldr	r3, [r4, #88]	@ 0x58
 8001af4:	431a      	orrs	r2, r3
 8001af6:	65a2      	str	r2, [r4, #88]	@ 0x58
    tmp_hal_status = HAL_ERROR;
 8001af8:	e7f8      	b.n	8001aec <HAL_ADC_Init+0x1f0>
 8001afa:	46c0      	nop			@ (mov r8, r8)
 8001afc:	fffffefd 	.word	0xfffffefd
 8001b00:	ffde0201 	.word	0xffde0201
 8001b04:	1ffffc02 	.word	0x1ffffc02
 8001b08:	40012708 	.word	0x40012708
 8001b0c:	ffc3ffff 	.word	0xffc3ffff
 8001b10:	6fffffe8 	.word	0x6fffffe8
 8001b14:	20000000 	.word	0x20000000
 8001b18:	00030d40 	.word	0x00030d40

08001b1c <HAL_ADC_PollForConversion>:
  * @param hadc ADC handle
  * @param Timeout Timeout value in millisecond.
  * @retval HAL status
  */
HAL_StatusTypeDef HAL_ADC_PollForConversion(ADC_HandleTypeDef *hadc, uint32_t Timeout)
{
 8001b1c:	b5f7      	push	{r0, r1, r2, r4, r5, r6, r7, lr}

  /* Check the parameters */
  assert_param(IS_ADC_ALL_INSTANCE(hadc->Instance));

  /* If end of conversion selected to end of sequence conversions */
  if (hadc->Init.EOCSelection == ADC_EOC_SEQ_CONV)
 8001b1e:	6947      	ldr	r7, [r0, #20]
{
 8001b20:	0004      	movs	r4, r0
 8001b22:	000e      	movs	r6, r1
  if (hadc->Init.EOCSelection == ADC_EOC_SEQ_CONV)
 8001b24:	2f08      	cmp	r7, #8
 8001b26:	d00a      	beq.n	8001b3e <HAL_ADC_PollForConversion+0x22>
    /* each conversion:                                                       */
    /* Particular case is ADC configured in DMA mode and ADC sequencer with   */
    /* several ranks and polling for end of each conversion.                  */
    /* For code simplicity sake, this particular case is generalized to       */
    /* ADC configured in DMA mode and and polling for end of each conversion. */
    if ((hadc->Instance->CFGR1 & ADC_CFGR1_DMAEN) != 0UL)
 8001b28:	6803      	ldr	r3, [r0, #0]
 8001b2a:	2001      	movs	r0, #1
 8001b2c:	68db      	ldr	r3, [r3, #12]

      return HAL_ERROR;
    }
    else
    {
      tmp_Flag_End = (ADC_FLAG_EOC);
 8001b2e:	2704      	movs	r7, #4
    if ((hadc->Instance->CFGR1 & ADC_CFGR1_DMAEN) != 0UL)
 8001b30:	4203      	tst	r3, r0
 8001b32:	d004      	beq.n	8001b3e <HAL_ADC_PollForConversion+0x22>
      SET_BIT(hadc->State, HAL_ADC_STATE_ERROR_CONFIG);
 8001b34:	2320      	movs	r3, #32
 8001b36:	6da2      	ldr	r2, [r4, #88]	@ 0x58
 8001b38:	4313      	orrs	r3, r2
 8001b3a:	65a3      	str	r3, [r4, #88]	@ 0x58
    __HAL_ADC_CLEAR_FLAG(hadc, (ADC_FLAG_EOC | ADC_FLAG_EOS));
  }

  /* Return function status */
  return HAL_OK;
}
 8001b3c:	bdfe      	pop	{r1, r2, r3, r4, r5, r6, r7, pc}
  tickstart = HAL_GetTick();
 8001b3e:	f7ff fed3 	bl	80018e8 <HAL_GetTick>
 8001b42:	9001      	str	r0, [sp, #4]
  while ((hadc->Instance->ISR & tmp_Flag_End) == 0UL)
 8001b44:	6825      	ldr	r5, [r4, #0]
 8001b46:	682b      	ldr	r3, [r5, #0]
 8001b48:	421f      	tst	r7, r3
 8001b4a:	d024      	beq.n	8001b96 <HAL_ADC_PollForConversion+0x7a>
  SET_BIT(hadc->State, HAL_ADC_STATE_REG_EOC);
 8001b4c:	2380      	movs	r3, #128	@ 0x80
 8001b4e:	6da2      	ldr	r2, [r4, #88]	@ 0x58
 8001b50:	009b      	lsls	r3, r3, #2
 8001b52:	4313      	orrs	r3, r2
 8001b54:	65a3      	str	r3, [r4, #88]	@ 0x58
  return ((READ_BIT(ADCx->CFGR1, ADC_CFGR1_EXTEN) == (LL_ADC_REG_TRIG_SOFTWARE & ADC_CFGR1_EXTEN)) ? 1UL : 0UL);
 8001b56:	23c0      	movs	r3, #192	@ 0xc0
 8001b58:	68ea      	ldr	r2, [r5, #12]
 8001b5a:	011b      	lsls	r3, r3, #4
 8001b5c:	421a      	tst	r2, r3
 8001b5e:	d115      	bne.n	8001b8c <HAL_ADC_PollForConversion+0x70>
      && (hadc->Init.ContinuousConvMode == DISABLE)
 8001b60:	7ea3      	ldrb	r3, [r4, #26]
 8001b62:	2b00      	cmp	r3, #0
 8001b64:	d112      	bne.n	8001b8c <HAL_ADC_PollForConversion+0x70>
    if (__HAL_ADC_GET_FLAG(hadc, ADC_FLAG_EOS))
 8001b66:	682b      	ldr	r3, [r5, #0]
 8001b68:	071b      	lsls	r3, r3, #28
 8001b6a:	d50f      	bpl.n	8001b8c <HAL_ADC_PollForConversion+0x70>
      if (LL_ADC_REG_IsConversionOngoing(hadc->Instance) == 0UL)
 8001b6c:	0028      	movs	r0, r5
 8001b6e:	f7ff fec1 	bl	80018f4 <LL_ADC_REG_IsConversionOngoing>
 8001b72:	2800      	cmp	r0, #0
 8001b74:	d123      	bne.n	8001bbe <HAL_ADC_PollForConversion+0xa2>
        __HAL_ADC_DISABLE_IT(hadc, ADC_IT_EOC | ADC_IT_EOS);
 8001b76:	220c      	movs	r2, #12
 8001b78:	686b      	ldr	r3, [r5, #4]
 8001b7a:	4393      	bics	r3, r2
 8001b7c:	606b      	str	r3, [r5, #4]
        ADC_STATE_CLR_SET(hadc->State,
 8001b7e:	6da2      	ldr	r2, [r4, #88]	@ 0x58
 8001b80:	4b15      	ldr	r3, [pc, #84]	@ (8001bd8 <HAL_ADC_PollForConversion+0xbc>)
 8001b82:	401a      	ands	r2, r3
 8001b84:	3304      	adds	r3, #4
 8001b86:	33ff      	adds	r3, #255	@ 0xff
 8001b88:	4313      	orrs	r3, r2
 8001b8a:	65a3      	str	r3, [r4, #88]	@ 0x58
  if (hadc->Init.LowPowerAutoWait == DISABLE)
 8001b8c:	7e23      	ldrb	r3, [r4, #24]
 8001b8e:	2b00      	cmp	r3, #0
 8001b90:	d01e      	beq.n	8001bd0 <HAL_ADC_PollForConversion+0xb4>
  return HAL_OK;
 8001b92:	2000      	movs	r0, #0
 8001b94:	e7d2      	b.n	8001b3c <HAL_ADC_PollForConversion+0x20>
    if (Timeout != HAL_MAX_DELAY)
 8001b96:	1c73      	adds	r3, r6, #1
 8001b98:	d0d5      	beq.n	8001b46 <HAL_ADC_PollForConversion+0x2a>
      if (((HAL_GetTick() - tickstart) > Timeout) || (Timeout == 0UL))
 8001b9a:	f7ff fea5 	bl	80018e8 <HAL_GetTick>
 8001b9e:	9b01      	ldr	r3, [sp, #4]
 8001ba0:	1ac0      	subs	r0, r0, r3
 8001ba2:	42b0      	cmp	r0, r6
 8001ba4:	d908      	bls.n	8001bb8 <HAL_ADC_PollForConversion+0x9c>
        SET_BIT(hadc->State, HAL_ADC_STATE_TIMEOUT);
 8001ba6:	2304      	movs	r3, #4
 8001ba8:	6da2      	ldr	r2, [r4, #88]	@ 0x58
        __HAL_UNLOCK(hadc);
 8001baa:	3454      	adds	r4, #84	@ 0x54
        SET_BIT(hadc->State, HAL_ADC_STATE_TIMEOUT);
 8001bac:	4313      	orrs	r3, r2
 8001bae:	6063      	str	r3, [r4, #4]
        __HAL_UNLOCK(hadc);
 8001bb0:	2300      	movs	r3, #0
        return HAL_TIMEOUT;
 8001bb2:	2003      	movs	r0, #3
        __HAL_UNLOCK(hadc);
 8001bb4:	7023      	strb	r3, [r4, #0]
        return HAL_TIMEOUT;
 8001bb6:	e7c1      	b.n	8001b3c <HAL_ADC_PollForConversion+0x20>
      if (((HAL_GetTick() - tickstart) > Timeout) || (Timeout == 0UL))
 8001bb8:	2e00      	cmp	r6, #0
 8001bba:	d1c3      	bne.n	8001b44 <HAL_ADC_PollForConversion+0x28>
 8001bbc:	e7f3      	b.n	8001ba6 <HAL_ADC_PollForConversion+0x8a>
        SET_BIT(hadc->State, HAL_ADC_STATE_ERROR_CONFIG);
 8001bbe:	2320      	movs	r3, #32
 8001bc0:	6da2      	ldr	r2, [r4, #88]	@ 0x58
 8001bc2:	4313      	orrs	r3, r2
 8001bc4:	65a3      	str	r3, [r4, #88]	@ 0x58
        SET_BIT(hadc->ErrorCode, HAL_ADC_ERROR_INTERNAL);
 8001bc6:	2301      	movs	r3, #1
 8001bc8:	6de2      	ldr	r2, [r4, #92]	@ 0x5c
 8001bca:	4313      	orrs	r3, r2
 8001bcc:	65e3      	str	r3, [r4, #92]	@ 0x5c
 8001bce:	e7dd      	b.n	8001b8c <HAL_ADC_PollForConversion+0x70>
    __HAL_ADC_CLEAR_FLAG(hadc, (ADC_FLAG_EOC | ADC_FLAG_EOS));
 8001bd0:	230c      	movs	r3, #12
 8001bd2:	602b      	str	r3, [r5, #0]
 8001bd4:	e7dd      	b.n	8001b92 <HAL_ADC_PollForConversion+0x76>
 8001bd6:	46c0      	nop			@ (mov r8, r8)
 8001bd8:	fffffefe 	.word	0xfffffefe

08001bdc <HAL_ADC_GetValue>:

  /* Note: EOC flag is not cleared here by software because automatically     */
  /*       cleared by hardware when reading register DR.                      */

  /* Return ADC converted value */
  return hadc->Instance->DR;
 8001bdc:	6803      	ldr	r3, [r0, #0]
 8001bde:	6c18      	ldr	r0, [r3, #64]	@ 0x40
}
 8001be0:	4770      	bx	lr
	...

08001be4 <HAL_ADC_ConfigChannel>:
  */
HAL_StatusTypeDef HAL_ADC_ConfigChannel(ADC_HandleTypeDef *hadc, const ADC_ChannelConfTypeDef *sConfig)
{
  HAL_StatusTypeDef tmp_hal_status = HAL_OK;
  uint32_t tmp_config_internal_channel;
  __IO uint32_t wait_loop_index = 0UL;
 8001be4:	2300      	movs	r3, #0
{
 8001be6:	b5f0      	push	{r4, r5, r6, r7, lr}
 8001be8:	b085      	sub	sp, #20
  __IO uint32_t wait_loop_index = 0UL;
 8001bea:	9303      	str	r3, [sp, #12]

    assert_param(IS_ADC_REGULAR_RANK(sConfig->Rank));
  }

  /* Process locked */
  __HAL_LOCK(hadc);
 8001bec:	0003      	movs	r3, r0
{
 8001bee:	9100      	str	r1, [sp, #0]
  __HAL_LOCK(hadc);
 8001bf0:	3354      	adds	r3, #84	@ 0x54
 8001bf2:	781a      	ldrb	r2, [r3, #0]
{
 8001bf4:	0004      	movs	r4, r0
  __HAL_LOCK(hadc);
 8001bf6:	2002      	movs	r0, #2
 8001bf8:	2a01      	cmp	r2, #1
 8001bfa:	d04d      	beq.n	8001c98 <HAL_ADC_ConfigChannel+0xb4>
 8001bfc:	2201      	movs	r2, #1
  if ((hadc->Init.ScanConvMode == ADC_SCAN_SEQ_FIXED)       ||
 8001bfe:	6927      	ldr	r7, [r4, #16]
  __HAL_LOCK(hadc);
 8001c00:	701a      	strb	r2, [r3, #0]
  /* Parameters that can be updated when ADC is disabled or enabled without   */
  /* conversion on going on regular group:                                    */
  /*  - Channel number                                                        */
  /*  - Channel sampling time                                                 */
  /*  - Management of internal measurement channels: VrefInt/TempSensor       */
  if (LL_ADC_REG_IsConversionOngoing(hadc->Instance) == 0UL)
 8001c02:	6825      	ldr	r5, [r4, #0]
 8001c04:	0028      	movs	r0, r5
 8001c06:	f7ff fe75 	bl	80018f4 <LL_ADC_REG_IsConversionOngoing>
 8001c0a:	2800      	cmp	r0, #0
 8001c0c:	d000      	beq.n	8001c10 <HAL_ADC_ConfigChannel+0x2c>
 8001c0e:	e0f9      	b.n	8001e04 <HAL_ADC_ConfigChannel+0x220>
    /* If sequencer set to not fully configurable with channel rank set to    */
    /* none, remove the channel from the sequencer.                           */
    /* Otherwise (sequencer set to fully configurable or to to not fully      */
    /* configurable with channel rank to be set), configure the selected      */
    /* channel.                                                               */
    if (sConfig->Rank != ADC_RANK_NONE)
 8001c10:	9b00      	ldr	r3, [sp, #0]
      /* Note: ADC channel configuration requires few ADC clock cycles        */
      /*       to be ready. Processing of ADC settings in this function       */
      /*       induce that a specific wait time is not necessary.             */
      /*       For more details on ADC channel configuration ready,           */
      /*       refer to function "LL_ADC_IsActiveFlag_CCRDY()".               */
      if ((hadc->Init.ScanConvMode == ADC_SCAN_SEQ_FIXED)       ||
 8001c12:	2204      	movs	r2, #4
    if (sConfig->Rank != ADC_RANK_NONE)
 8001c14:	685b      	ldr	r3, [r3, #4]
 8001c16:	2180      	movs	r1, #128	@ 0x80
 8001c18:	469c      	mov	ip, r3
      if ((hadc->Init.ScanConvMode == ADC_SCAN_SEQ_FIXED)       ||
 8001c1a:	4397      	bics	r7, r2
    if (sConfig->Rank != ADC_RANK_NONE)
 8001c1c:	4662      	mov	r2, ip
          (hadc->Init.ScanConvMode == ADC_SCAN_SEQ_FIXED_BACKWARD))
      {
        /* Sequencer set to not fully configurable:                           */
        /* Set the channel by enabling the corresponding bitfield.            */
        LL_ADC_REG_SetSequencerChAdd(hadc->Instance, sConfig->Channel);
 8001c1e:	9b00      	ldr	r3, [sp, #0]
 8001c20:	0609      	lsls	r1, r1, #24
 8001c22:	681b      	ldr	r3, [r3, #0]
    if (sConfig->Rank != ADC_RANK_NONE)
 8001c24:	2a02      	cmp	r2, #2
 8001c26:	d100      	bne.n	8001c2a <HAL_ADC_ConfigChannel+0x46>
 8001c28:	e0c7      	b.n	8001dba <HAL_ADC_ConfigChannel+0x1d6>
  SET_BIT(ADCx->CHSELR, (Channel & ADC_CHANNEL_ID_BITFIELD_MASK));
 8001c2a:	025a      	lsls	r2, r3, #9
 8001c2c:	0a52      	lsrs	r2, r2, #9
      if ((hadc->Init.ScanConvMode == ADC_SCAN_SEQ_FIXED)       ||
 8001c2e:	428f      	cmp	r7, r1
 8001c30:	d134      	bne.n	8001c9c <HAL_ADC_ConfigChannel+0xb8>
 8001c32:	6aa9      	ldr	r1, [r5, #40]	@ 0x28
  MODIFY_REG(ADCx->CHSELR,
 8001c34:	430a      	orrs	r2, r1
 8001c36:	62aa      	str	r2, [r5, #40]	@ 0x28
  MODIFY_REG(ADCx->SMPR,
 8001c38:	9a00      	ldr	r2, [sp, #0]
 8001c3a:	6968      	ldr	r0, [r5, #20]
 8001c3c:	6892      	ldr	r2, [r2, #8]
 8001c3e:	0219      	lsls	r1, r3, #8
 8001c40:	4e73      	ldr	r6, [pc, #460]	@ (8001e10 <HAL_ADC_ConfigChannel+0x22c>)
 8001c42:	400a      	ands	r2, r1
 8001c44:	4032      	ands	r2, r6
 8001c46:	4388      	bics	r0, r1
 8001c48:	4302      	orrs	r2, r0
 8001c4a:	616a      	str	r2, [r5, #20]
      /* internal measurement paths enable: If internal channel selected,     */
      /* enable dedicated internal buffers and path.                          */
      /* Note: these internal measurement paths can be disabled using         */
      /*       HAL_ADC_DeInit() or removing the channel from sequencer with   */
      /*       channel configuration parameter "Rank".                        */
      if (__LL_ADC_IS_CHANNEL_INTERNAL(sConfig->Channel))
 8001c4c:	2b00      	cmp	r3, #0
 8001c4e:	da1f      	bge.n	8001c90 <HAL_ADC_ConfigChannel+0xac>
  return (uint32_t)(READ_BIT(ADCxy_COMMON->CCR, ADC_CCR_VREFEN | ADC_CCR_TSEN));
 8001c50:	20c0      	movs	r0, #192	@ 0xc0
 8001c52:	4a70      	ldr	r2, [pc, #448]	@ (8001e14 <HAL_ADC_ConfigChannel+0x230>)
      {
        tmp_config_internal_channel = LL_ADC_GetCommonPathInternalCh(__LL_ADC_COMMON_INSTANCE(hadc->Instance));

        /* If the requested internal measurement path has already been enabled,   */
        /* bypass the configuration processing.                                   */
        if ((sConfig->Channel == ADC_CHANNEL_TEMPSENSOR) &&
 8001c54:	4970      	ldr	r1, [pc, #448]	@ (8001e18 <HAL_ADC_ConfigChannel+0x234>)
 8001c56:	6815      	ldr	r5, [r2, #0]
 8001c58:	0400      	lsls	r0, r0, #16
 8001c5a:	4028      	ands	r0, r5
 8001c5c:	428b      	cmp	r3, r1
 8001c5e:	d000      	beq.n	8001c62 <HAL_ADC_ConfigChannel+0x7e>
 8001c60:	e09b      	b.n	8001d9a <HAL_ADC_ConfigChannel+0x1b6>
            ((tmp_config_internal_channel & LL_ADC_PATH_INTERNAL_TEMPSENSOR) == 0UL))
 8001c62:	2180      	movs	r1, #128	@ 0x80
 8001c64:	0409      	lsls	r1, r1, #16
        if ((sConfig->Channel == ADC_CHANNEL_TEMPSENSOR) &&
 8001c66:	420d      	tst	r5, r1
 8001c68:	d112      	bne.n	8001c90 <HAL_ADC_ConfigChannel+0xac>
  MODIFY_REG(ADCxy_COMMON->CCR, ADC_CCR_VREFEN | ADC_CCR_TSEN, PathInternal);
 8001c6a:	6813      	ldr	r3, [r2, #0]
 8001c6c:	4d6b      	ldr	r5, [pc, #428]	@ (8001e1c <HAL_ADC_ConfigChannel+0x238>)
 8001c6e:	402b      	ands	r3, r5
 8001c70:	4303      	orrs	r3, r0
 8001c72:	4319      	orrs	r1, r3
          /* Delay for temperature sensor stabilization time */
          /* Wait loop initialization and execution */
          /* Note: Variable divided by 2 to compensate partially              */
          /*       CPU processing cycles, scaling in us split to not          */
          /*       exceed 32 bits register capacity and handle low frequency. */
          wait_loop_index = (((LL_ADC_DELAY_TEMPSENSOR_STAB_US / 10UL) * (SystemCoreClock / (100000UL * 2UL))) + 1UL);
 8001c74:	4b6a      	ldr	r3, [pc, #424]	@ (8001e20 <HAL_ADC_ConfigChannel+0x23c>)
 8001c76:	6011      	str	r1, [r2, #0]
 8001c78:	6818      	ldr	r0, [r3, #0]
 8001c7a:	496a      	ldr	r1, [pc, #424]	@ (8001e24 <HAL_ADC_ConfigChannel+0x240>)
 8001c7c:	f7fe fa58 	bl	8000130 <__udivsi3>
 8001c80:	230c      	movs	r3, #12
 8001c82:	4343      	muls	r3, r0
 8001c84:	3301      	adds	r3, #1
          while (wait_loop_index != 0UL)
          {
            wait_loop_index--;
 8001c86:	9303      	str	r3, [sp, #12]
          while (wait_loop_index != 0UL)
 8001c88:	9b03      	ldr	r3, [sp, #12]
 8001c8a:	2b00      	cmp	r3, #0
 8001c8c:	d000      	beq.n	8001c90 <HAL_ADC_ConfigChannel+0xac>
 8001c8e:	e081      	b.n	8001d94 <HAL_ADC_ConfigChannel+0x1b0>
  HAL_StatusTypeDef tmp_hal_status = HAL_OK;
 8001c90:	2000      	movs	r0, #0

    tmp_hal_status = HAL_ERROR;
  }

  /* Process unlocked */
  __HAL_UNLOCK(hadc);
 8001c92:	2300      	movs	r3, #0
 8001c94:	3454      	adds	r4, #84	@ 0x54
 8001c96:	7023      	strb	r3, [r4, #0]

  /* Return function status */
  return tmp_hal_status;
}
 8001c98:	b005      	add	sp, #20
 8001c9a:	bdf0      	pop	{r4, r5, r6, r7, pc}
        MODIFY_REG(hadc->ADCGroupRegularSequencerRanks,
 8001c9c:	211f      	movs	r1, #31
 8001c9e:	4667      	mov	r7, ip
 8001ca0:	400f      	ands	r7, r1
 8001ca2:	3910      	subs	r1, #16
 8001ca4:	40b9      	lsls	r1, r7
 8001ca6:	43ce      	mvns	r6, r1
 8001ca8:	9601      	str	r6, [sp, #4]
 8001caa:	6e26      	ldr	r6, [r4, #96]	@ 0x60
 8001cac:	438e      	bics	r6, r1
 8001cae:	0031      	movs	r1, r6
 8001cb0:	2a00      	cmp	r2, #0
 8001cb2:	d112      	bne.n	8001cda <HAL_ADC_ConfigChannel+0xf6>
 8001cb4:	0e98      	lsrs	r0, r3, #26
 8001cb6:	321f      	adds	r2, #31
 8001cb8:	4010      	ands	r0, r2
 8001cba:	40b8      	lsls	r0, r7
        if (((sConfig->Rank >> 2UL) + 1UL) <= hadc->Init.NbrOfConversion)
 8001cbc:	4662      	mov	r2, ip
        MODIFY_REG(hadc->ADCGroupRegularSequencerRanks,
 8001cbe:	4308      	orrs	r0, r1
        if (((sConfig->Rank >> 2UL) + 1UL) <= hadc->Init.NbrOfConversion)
 8001cc0:	0892      	lsrs	r2, r2, #2
 8001cc2:	69e1      	ldr	r1, [r4, #28]
 8001cc4:	3201      	adds	r2, #1
        MODIFY_REG(hadc->ADCGroupRegularSequencerRanks,
 8001cc6:	6620      	str	r0, [r4, #96]	@ 0x60
        if (((sConfig->Rank >> 2UL) + 1UL) <= hadc->Init.NbrOfConversion)
 8001cc8:	428a      	cmp	r2, r1
 8001cca:	d8b5      	bhi.n	8001c38 <HAL_ADC_ConfigChannel+0x54>
  MODIFY_REG(ADCx->CHSELR,
 8001ccc:	6aa9      	ldr	r1, [r5, #40]	@ 0x28
 8001cce:	9801      	ldr	r0, [sp, #4]
 8001cd0:	009a      	lsls	r2, r3, #2
 8001cd2:	0f12      	lsrs	r2, r2, #28
 8001cd4:	40ba      	lsls	r2, r7
 8001cd6:	4001      	ands	r1, r0
 8001cd8:	e7ac      	b.n	8001c34 <HAL_ADC_ConfigChannel+0x50>
        MODIFY_REG(hadc->ADCGroupRegularSequencerRanks,
 8001cda:	2201      	movs	r2, #1
 8001cdc:	4213      	tst	r3, r2
 8001cde:	d1ec      	bne.n	8001cba <HAL_ADC_ConfigChannel+0xd6>
 8001ce0:	1892      	adds	r2, r2, r2
 8001ce2:	4213      	tst	r3, r2
 8001ce4:	d12c      	bne.n	8001d40 <HAL_ADC_ConfigChannel+0x15c>
 8001ce6:	2604      	movs	r6, #4
 8001ce8:	4233      	tst	r3, r6
 8001cea:	d12b      	bne.n	8001d44 <HAL_ADC_ConfigChannel+0x160>
 8001cec:	071a      	lsls	r2, r3, #28
 8001cee:	d42b      	bmi.n	8001d48 <HAL_ADC_ConfigChannel+0x164>
 8001cf0:	06da      	lsls	r2, r3, #27
 8001cf2:	d42b      	bmi.n	8001d4c <HAL_ADC_ConfigChannel+0x168>
 8001cf4:	069a      	lsls	r2, r3, #26
 8001cf6:	d42b      	bmi.n	8001d50 <HAL_ADC_ConfigChannel+0x16c>
 8001cf8:	065a      	lsls	r2, r3, #25
 8001cfa:	d42b      	bmi.n	8001d54 <HAL_ADC_ConfigChannel+0x170>
 8001cfc:	061a      	lsls	r2, r3, #24
 8001cfe:	d42b      	bmi.n	8001d58 <HAL_ADC_ConfigChannel+0x174>
 8001d00:	05da      	lsls	r2, r3, #23
 8001d02:	d42b      	bmi.n	8001d5c <HAL_ADC_ConfigChannel+0x178>
 8001d04:	059a      	lsls	r2, r3, #22
 8001d06:	d42b      	bmi.n	8001d60 <HAL_ADC_ConfigChannel+0x17c>
 8001d08:	055a      	lsls	r2, r3, #21
 8001d0a:	d42b      	bmi.n	8001d64 <HAL_ADC_ConfigChannel+0x180>
 8001d0c:	051a      	lsls	r2, r3, #20
 8001d0e:	d42b      	bmi.n	8001d68 <HAL_ADC_ConfigChannel+0x184>
 8001d10:	04da      	lsls	r2, r3, #19
 8001d12:	d42b      	bmi.n	8001d6c <HAL_ADC_ConfigChannel+0x188>
 8001d14:	049a      	lsls	r2, r3, #18
 8001d16:	d42b      	bmi.n	8001d70 <HAL_ADC_ConfigChannel+0x18c>
 8001d18:	045a      	lsls	r2, r3, #17
 8001d1a:	d42b      	bmi.n	8001d74 <HAL_ADC_ConfigChannel+0x190>
 8001d1c:	041a      	lsls	r2, r3, #16
 8001d1e:	d42b      	bmi.n	8001d78 <HAL_ADC_ConfigChannel+0x194>
 8001d20:	03da      	lsls	r2, r3, #15
 8001d22:	d42b      	bmi.n	8001d7c <HAL_ADC_ConfigChannel+0x198>
 8001d24:	039a      	lsls	r2, r3, #14
 8001d26:	d42b      	bmi.n	8001d80 <HAL_ADC_ConfigChannel+0x19c>
 8001d28:	035a      	lsls	r2, r3, #13
 8001d2a:	d42b      	bmi.n	8001d84 <HAL_ADC_ConfigChannel+0x1a0>
 8001d2c:	031a      	lsls	r2, r3, #12
 8001d2e:	d42b      	bmi.n	8001d88 <HAL_ADC_ConfigChannel+0x1a4>
 8001d30:	02da      	lsls	r2, r3, #11
 8001d32:	d42b      	bmi.n	8001d8c <HAL_ADC_ConfigChannel+0x1a8>
 8001d34:	029a      	lsls	r2, r3, #10
 8001d36:	d42b      	bmi.n	8001d90 <HAL_ADC_ConfigChannel+0x1ac>
 8001d38:	025a      	lsls	r2, r3, #9
 8001d3a:	d5be      	bpl.n	8001cba <HAL_ADC_ConfigChannel+0xd6>
 8001d3c:	2016      	movs	r0, #22
 8001d3e:	e7bc      	b.n	8001cba <HAL_ADC_ConfigChannel+0xd6>
 8001d40:	2001      	movs	r0, #1
 8001d42:	e7ba      	b.n	8001cba <HAL_ADC_ConfigChannel+0xd6>
 8001d44:	0010      	movs	r0, r2
 8001d46:	e7b8      	b.n	8001cba <HAL_ADC_ConfigChannel+0xd6>
 8001d48:	2003      	movs	r0, #3
 8001d4a:	e7b6      	b.n	8001cba <HAL_ADC_ConfigChannel+0xd6>
 8001d4c:	2004      	movs	r0, #4
 8001d4e:	e7b4      	b.n	8001cba <HAL_ADC_ConfigChannel+0xd6>
 8001d50:	2005      	movs	r0, #5
 8001d52:	e7b2      	b.n	8001cba <HAL_ADC_ConfigChannel+0xd6>
 8001d54:	2006      	movs	r0, #6
 8001d56:	e7b0      	b.n	8001cba <HAL_ADC_ConfigChannel+0xd6>
 8001d58:	2007      	movs	r0, #7
 8001d5a:	e7ae      	b.n	8001cba <HAL_ADC_ConfigChannel+0xd6>
 8001d5c:	2008      	movs	r0, #8
 8001d5e:	e7ac      	b.n	8001cba <HAL_ADC_ConfigChannel+0xd6>
 8001d60:	2009      	movs	r0, #9
 8001d62:	e7aa      	b.n	8001cba <HAL_ADC_ConfigChannel+0xd6>
 8001d64:	200a      	movs	r0, #10
 8001d66:	e7a8      	b.n	8001cba <HAL_ADC_ConfigChannel+0xd6>
 8001d68:	200b      	movs	r0, #11
 8001d6a:	e7a6      	b.n	8001cba <HAL_ADC_ConfigChannel+0xd6>
 8001d6c:	200c      	movs	r0, #12
 8001d6e:	e7a4      	b.n	8001cba <HAL_ADC_ConfigChannel+0xd6>
 8001d70:	200d      	movs	r0, #13
 8001d72:	e7a2      	b.n	8001cba <HAL_ADC_ConfigChannel+0xd6>
 8001d74:	200e      	movs	r0, #14
 8001d76:	e7a0      	b.n	8001cba <HAL_ADC_ConfigChannel+0xd6>
 8001d78:	200f      	movs	r0, #15
 8001d7a:	e79e      	b.n	8001cba <HAL_ADC_ConfigChannel+0xd6>
 8001d7c:	2010      	movs	r0, #16
 8001d7e:	e79c      	b.n	8001cba <HAL_ADC_ConfigChannel+0xd6>
 8001d80:	2011      	movs	r0, #17
 8001d82:	e79a      	b.n	8001cba <HAL_ADC_ConfigChannel+0xd6>
 8001d84:	2012      	movs	r0, #18
 8001d86:	e798      	b.n	8001cba <HAL_ADC_ConfigChannel+0xd6>
 8001d88:	2013      	movs	r0, #19
 8001d8a:	e796      	b.n	8001cba <HAL_ADC_ConfigChannel+0xd6>
 8001d8c:	2014      	movs	r0, #20
 8001d8e:	e794      	b.n	8001cba <HAL_ADC_ConfigChannel+0xd6>
 8001d90:	2015      	movs	r0, #21
 8001d92:	e792      	b.n	8001cba <HAL_ADC_ConfigChannel+0xd6>
            wait_loop_index--;
 8001d94:	9b03      	ldr	r3, [sp, #12]
 8001d96:	3b01      	subs	r3, #1
 8001d98:	e775      	b.n	8001c86 <HAL_ADC_ConfigChannel+0xa2>
        else if ((sConfig->Channel == ADC_CHANNEL_VREFINT) &&
 8001d9a:	4923      	ldr	r1, [pc, #140]	@ (8001e28 <HAL_ADC_ConfigChannel+0x244>)
 8001d9c:	428b      	cmp	r3, r1
 8001d9e:	d000      	beq.n	8001da2 <HAL_ADC_ConfigChannel+0x1be>
 8001da0:	e776      	b.n	8001c90 <HAL_ADC_ConfigChannel+0xac>
                 ((tmp_config_internal_channel & LL_ADC_PATH_INTERNAL_VREFINT) == 0UL))
 8001da2:	2180      	movs	r1, #128	@ 0x80
 8001da4:	03c9      	lsls	r1, r1, #15
        else if ((sConfig->Channel == ADC_CHANNEL_VREFINT) &&
 8001da6:	420d      	tst	r5, r1
 8001da8:	d000      	beq.n	8001dac <HAL_ADC_ConfigChannel+0x1c8>
 8001daa:	e771      	b.n	8001c90 <HAL_ADC_ConfigChannel+0xac>
  MODIFY_REG(ADCxy_COMMON->CCR, ADC_CCR_VREFEN | ADC_CCR_TSEN, PathInternal);
 8001dac:	6813      	ldr	r3, [r2, #0]
 8001dae:	4d1b      	ldr	r5, [pc, #108]	@ (8001e1c <HAL_ADC_ConfigChannel+0x238>)
 8001db0:	402b      	ands	r3, r5
 8001db2:	4303      	orrs	r3, r0
 8001db4:	4319      	orrs	r1, r3
 8001db6:	6011      	str	r1, [r2, #0]
}
 8001db8:	e76a      	b.n	8001c90 <HAL_ADC_ConfigChannel+0xac>
      if ((hadc->Init.ScanConvMode == ADC_SCAN_SEQ_FIXED)       ||
 8001dba:	428f      	cmp	r7, r1
 8001dbc:	d104      	bne.n	8001dc8 <HAL_ADC_ConfigChannel+0x1e4>
  CLEAR_BIT(ADCx->CHSELR, (Channel & ADC_CHANNEL_ID_BITFIELD_MASK));
 8001dbe:	6aaa      	ldr	r2, [r5, #40]	@ 0x28
 8001dc0:	0259      	lsls	r1, r3, #9
 8001dc2:	0a49      	lsrs	r1, r1, #9
 8001dc4:	438a      	bics	r2, r1
 8001dc6:	62aa      	str	r2, [r5, #40]	@ 0x28
      if (__LL_ADC_IS_CHANNEL_INTERNAL(sConfig->Channel))
 8001dc8:	2b00      	cmp	r3, #0
 8001dca:	db00      	blt.n	8001dce <HAL_ADC_ConfigChannel+0x1ea>
 8001dcc:	e760      	b.n	8001c90 <HAL_ADC_ConfigChannel+0xac>
  return (uint32_t)(READ_BIT(ADCxy_COMMON->CCR, ADC_CCR_VREFEN | ADC_CCR_TSEN));
 8001dce:	4911      	ldr	r1, [pc, #68]	@ (8001e14 <HAL_ADC_ConfigChannel+0x230>)
        if (sConfig->Channel == ADC_CHANNEL_TEMPSENSOR)
 8001dd0:	4811      	ldr	r0, [pc, #68]	@ (8001e18 <HAL_ADC_ConfigChannel+0x234>)
 8001dd2:	680a      	ldr	r2, [r1, #0]
 8001dd4:	4283      	cmp	r3, r0
 8001dd6:	d108      	bne.n	8001dea <HAL_ADC_ConfigChannel+0x206>
          LL_ADC_SetCommonPathInternalCh(__LL_ADC_COMMON_INSTANCE(hadc->Instance),
 8001dd8:	2380      	movs	r3, #128	@ 0x80
 8001dda:	03db      	lsls	r3, r3, #15
  MODIFY_REG(ADCxy_COMMON->CCR, ADC_CCR_VREFEN | ADC_CCR_TSEN, PathInternal);
 8001ddc:	6808      	ldr	r0, [r1, #0]
 8001dde:	4013      	ands	r3, r2
 8001de0:	4a0e      	ldr	r2, [pc, #56]	@ (8001e1c <HAL_ADC_ConfigChannel+0x238>)
 8001de2:	4002      	ands	r2, r0
 8001de4:	4313      	orrs	r3, r2
 8001de6:	600b      	str	r3, [r1, #0]
}
 8001de8:	e752      	b.n	8001c90 <HAL_ADC_ConfigChannel+0xac>
        else if (sConfig->Channel == ADC_CHANNEL_VREFINT)
 8001dea:	480f      	ldr	r0, [pc, #60]	@ (8001e28 <HAL_ADC_ConfigChannel+0x244>)
 8001dec:	4283      	cmp	r3, r0
 8001dee:	d000      	beq.n	8001df2 <HAL_ADC_ConfigChannel+0x20e>
 8001df0:	e74e      	b.n	8001c90 <HAL_ADC_ConfigChannel+0xac>
          LL_ADC_SetCommonPathInternalCh(__LL_ADC_COMMON_INSTANCE(hadc->Instance),
 8001df2:	2080      	movs	r0, #128	@ 0x80
 8001df4:	0400      	lsls	r0, r0, #16
  MODIFY_REG(ADCxy_COMMON->CCR, ADC_CCR_VREFEN | ADC_CCR_TSEN, PathInternal);
 8001df6:	680b      	ldr	r3, [r1, #0]
 8001df8:	4002      	ands	r2, r0
 8001dfa:	4808      	ldr	r0, [pc, #32]	@ (8001e1c <HAL_ADC_ConfigChannel+0x238>)
 8001dfc:	4003      	ands	r3, r0
 8001dfe:	431a      	orrs	r2, r3
 8001e00:	600a      	str	r2, [r1, #0]
}
 8001e02:	e745      	b.n	8001c90 <HAL_ADC_ConfigChannel+0xac>
    SET_BIT(hadc->State, HAL_ADC_STATE_ERROR_CONFIG);
 8001e04:	2320      	movs	r3, #32
 8001e06:	6da2      	ldr	r2, [r4, #88]	@ 0x58
    tmp_hal_status = HAL_ERROR;
 8001e08:	2001      	movs	r0, #1
    SET_BIT(hadc->State, HAL_ADC_STATE_ERROR_CONFIG);
 8001e0a:	4313      	orrs	r3, r2
 8001e0c:	65a3      	str	r3, [r4, #88]	@ 0x58
    tmp_hal_status = HAL_ERROR;
 8001e0e:	e740      	b.n	8001c92 <HAL_ADC_ConfigChannel+0xae>
 8001e10:	7fffff00 	.word	0x7fffff00
 8001e14:	40012708 	.word	0x40012708
 8001e18:	a4000200 	.word	0xa4000200
 8001e1c:	ff3fffff 	.word	0xff3fffff
 8001e20:	20000000 	.word	0x20000000
 8001e24:	00030d40 	.word	0x00030d40
 8001e28:	a8000400 	.word	0xa8000400

08001e2c <ADC_Enable>:
  * @retval HAL status.
  */
HAL_StatusTypeDef ADC_Enable(ADC_HandleTypeDef *hadc)
{
  uint32_t tickstart;
  __IO uint32_t wait_loop_index = 0UL;
 8001e2c:	2300      	movs	r3, #0
{
 8001e2e:	b5f7      	push	{r0, r1, r2, r4, r5, r6, r7, lr}

  /* ADC enable and wait for ADC ready (in case of ADC is disabled or         */
  /* enabling phase not yet completed: flag ADC ready not yet set).           */
  /* Timeout implemented to not be stuck if ADC cannot be enabled (possible   */
  /* causes: ADC clock not running, ...).                                     */
  if (LL_ADC_IsEnabled(hadc->Instance) == 0UL)
 8001e30:	6802      	ldr	r2, [r0, #0]
  __IO uint32_t wait_loop_index = 0UL;
 8001e32:	9301      	str	r3, [sp, #4]
  return ((READ_BIT(ADCx->CR, ADC_CR_ADEN) == (ADC_CR_ADEN)) ? 1UL : 0UL);
 8001e34:	6891      	ldr	r1, [r2, #8]
 8001e36:	3301      	adds	r3, #1
{
 8001e38:	0004      	movs	r4, r0
 8001e3a:	4219      	tst	r1, r3
 8001e3c:	d001      	beq.n	8001e42 <ADC_Enable+0x16>
      }
    }
  }

  /* Return HAL status */
  return HAL_OK;
 8001e3e:	2000      	movs	r0, #0
}
 8001e40:	bdfe      	pop	{r1, r2, r3, r4, r5, r6, r7, pc}
    if ((hadc->Instance->CR & (ADC_CR_ADCAL | ADC_CR_ADSTP | ADC_CR_ADSTART | ADC_CR_ADDIS | ADC_CR_ADEN)) != 0UL)
 8001e42:	6890      	ldr	r0, [r2, #8]
 8001e44:	4920      	ldr	r1, [pc, #128]	@ (8001ec8 <ADC_Enable+0x9c>)
 8001e46:	4208      	tst	r0, r1
 8001e48:	d008      	beq.n	8001e5c <ADC_Enable+0x30>
      SET_BIT(hadc->State, HAL_ADC_STATE_ERROR_INTERNAL);
 8001e4a:	2210      	movs	r2, #16
 8001e4c:	6da1      	ldr	r1, [r4, #88]	@ 0x58
 8001e4e:	430a      	orrs	r2, r1
 8001e50:	65a2      	str	r2, [r4, #88]	@ 0x58
      SET_BIT(hadc->ErrorCode, HAL_ADC_ERROR_INTERNAL);
 8001e52:	6de2      	ldr	r2, [r4, #92]	@ 0x5c
          SET_BIT(hadc->ErrorCode, HAL_ADC_ERROR_INTERNAL);
 8001e54:	4313      	orrs	r3, r2
      return HAL_ERROR;
 8001e56:	2001      	movs	r0, #1
          SET_BIT(hadc->ErrorCode, HAL_ADC_ERROR_INTERNAL);
 8001e58:	65e3      	str	r3, [r4, #92]	@ 0x5c
          return HAL_ERROR;
 8001e5a:	e7f1      	b.n	8001e40 <ADC_Enable+0x14>
  MODIFY_REG(ADCx->CR,
 8001e5c:	6891      	ldr	r1, [r2, #8]
 8001e5e:	4f1b      	ldr	r7, [pc, #108]	@ (8001ecc <ADC_Enable+0xa0>)
 8001e60:	4039      	ands	r1, r7
 8001e62:	430b      	orrs	r3, r1
 8001e64:	6093      	str	r3, [r2, #8]
  return (uint32_t)(READ_BIT(ADCxy_COMMON->CCR, ADC_CCR_VREFEN | ADC_CCR_TSEN));
 8001e66:	4b1a      	ldr	r3, [pc, #104]	@ (8001ed0 <ADC_Enable+0xa4>)
 8001e68:	681b      	ldr	r3, [r3, #0]
    if ((LL_ADC_GetCommonPathInternalCh(__LL_ADC_COMMON_INSTANCE(hadc->Instance)) & LL_ADC_PATH_INTERNAL_TEMPSENSOR)
 8001e6a:	021b      	lsls	r3, r3, #8
 8001e6c:	d41d      	bmi.n	8001eaa <ADC_Enable+0x7e>
    if (hadc->Init.LowPowerAutoPowerOff != ENABLE)
 8001e6e:	7e63      	ldrb	r3, [r4, #25]
 8001e70:	2b01      	cmp	r3, #1
 8001e72:	d0e4      	beq.n	8001e3e <ADC_Enable+0x12>
      tickstart = HAL_GetTick();
 8001e74:	f7ff fd38 	bl	80018e8 <HAL_GetTick>
      while (__HAL_ADC_GET_FLAG(hadc, ADC_FLAG_RDY) == 0UL)
 8001e78:	2501      	movs	r5, #1
      tickstart = HAL_GetTick();
 8001e7a:	0006      	movs	r6, r0
      while (__HAL_ADC_GET_FLAG(hadc, ADC_FLAG_RDY) == 0UL)
 8001e7c:	6822      	ldr	r2, [r4, #0]
 8001e7e:	6813      	ldr	r3, [r2, #0]
 8001e80:	422b      	tst	r3, r5
 8001e82:	d1dc      	bne.n	8001e3e <ADC_Enable+0x12>
  return ((READ_BIT(ADCx->CR, ADC_CR_ADEN) == (ADC_CR_ADEN)) ? 1UL : 0UL);
 8001e84:	6893      	ldr	r3, [r2, #8]
 8001e86:	422b      	tst	r3, r5
 8001e88:	d103      	bne.n	8001e92 <ADC_Enable+0x66>
  MODIFY_REG(ADCx->CR,
 8001e8a:	6893      	ldr	r3, [r2, #8]
 8001e8c:	403b      	ands	r3, r7
 8001e8e:	432b      	orrs	r3, r5
 8001e90:	6093      	str	r3, [r2, #8]
        if ((HAL_GetTick() - tickstart) > ADC_ENABLE_TIMEOUT)
 8001e92:	f7ff fd29 	bl	80018e8 <HAL_GetTick>
 8001e96:	1b80      	subs	r0, r0, r6
 8001e98:	2802      	cmp	r0, #2
 8001e9a:	d9ef      	bls.n	8001e7c <ADC_Enable+0x50>
          SET_BIT(hadc->State, HAL_ADC_STATE_ERROR_INTERNAL);
 8001e9c:	2310      	movs	r3, #16
 8001e9e:	6da2      	ldr	r2, [r4, #88]	@ 0x58
 8001ea0:	4313      	orrs	r3, r2
 8001ea2:	65a3      	str	r3, [r4, #88]	@ 0x58
          SET_BIT(hadc->ErrorCode, HAL_ADC_ERROR_INTERNAL);
 8001ea4:	6de2      	ldr	r2, [r4, #92]	@ 0x5c
 8001ea6:	2301      	movs	r3, #1
 8001ea8:	e7d4      	b.n	8001e54 <ADC_Enable+0x28>
                         * ((SystemCoreClock / (100000UL * 2UL)) + 1UL));
 8001eaa:	4b0a      	ldr	r3, [pc, #40]	@ (8001ed4 <ADC_Enable+0xa8>)
 8001eac:	490a      	ldr	r1, [pc, #40]	@ (8001ed8 <ADC_Enable+0xac>)
 8001eae:	6818      	ldr	r0, [r3, #0]
 8001eb0:	f7fe f93e 	bl	8000130 <__udivsi3>
 8001eb4:	3001      	adds	r0, #1
      wait_loop_index = ((LL_ADC_DELAY_TEMPSENSOR_BUFFER_STAB_US / 10UL)
 8001eb6:	9001      	str	r0, [sp, #4]
      while (wait_loop_index != 0UL)
 8001eb8:	9b01      	ldr	r3, [sp, #4]
 8001eba:	2b00      	cmp	r3, #0
 8001ebc:	d0d7      	beq.n	8001e6e <ADC_Enable+0x42>
        wait_loop_index--;
 8001ebe:	9b01      	ldr	r3, [sp, #4]
 8001ec0:	3b01      	subs	r3, #1
 8001ec2:	9301      	str	r3, [sp, #4]
 8001ec4:	e7f8      	b.n	8001eb8 <ADC_Enable+0x8c>
 8001ec6:	46c0      	nop			@ (mov r8, r8)
 8001ec8:	80000017 	.word	0x80000017
 8001ecc:	7fffffe8 	.word	0x7fffffe8
 8001ed0:	40012708 	.word	0x40012708
 8001ed4:	20000000 	.word	0x20000000
 8001ed8:	00030d40 	.word	0x00030d40

08001edc <HAL_ADC_Start>:
{
 8001edc:	b570      	push	{r4, r5, r6, lr}
 8001ede:	0004      	movs	r4, r0
  if (LL_ADC_REG_IsConversionOngoing(hadc->Instance) == 0UL)
 8001ee0:	6800      	ldr	r0, [r0, #0]
 8001ee2:	f7ff fd07 	bl	80018f4 <LL_ADC_REG_IsConversionOngoing>
 8001ee6:	0006      	movs	r6, r0
    __HAL_LOCK(hadc);
 8001ee8:	2002      	movs	r0, #2
  if (LL_ADC_REG_IsConversionOngoing(hadc->Instance) == 0UL)
 8001eea:	2e00      	cmp	r6, #0
 8001eec:	d11d      	bne.n	8001f2a <HAL_ADC_Start+0x4e>
    __HAL_LOCK(hadc);
 8001eee:	0025      	movs	r5, r4
 8001ef0:	3554      	adds	r5, #84	@ 0x54
 8001ef2:	782b      	ldrb	r3, [r5, #0]
 8001ef4:	2b01      	cmp	r3, #1
 8001ef6:	d018      	beq.n	8001f2a <HAL_ADC_Start+0x4e>
 8001ef8:	2301      	movs	r3, #1
    tmp_hal_status = ADC_Enable(hadc);
 8001efa:	0020      	movs	r0, r4
    __HAL_LOCK(hadc);
 8001efc:	702b      	strb	r3, [r5, #0]
    tmp_hal_status = ADC_Enable(hadc);
 8001efe:	f7ff ff95 	bl	8001e2c <ADC_Enable>
    if (tmp_hal_status == HAL_OK)
 8001f02:	2800      	cmp	r0, #0
 8001f04:	d112      	bne.n	8001f2c <HAL_ADC_Start+0x50>
      ADC_STATE_CLR_SET(hadc->State,
 8001f06:	6da2      	ldr	r2, [r4, #88]	@ 0x58
 8001f08:	4b09      	ldr	r3, [pc, #36]	@ (8001f30 <HAL_ADC_Start+0x54>)
 8001f0a:	401a      	ands	r2, r3
 8001f0c:	2380      	movs	r3, #128	@ 0x80
 8001f0e:	005b      	lsls	r3, r3, #1
 8001f10:	4313      	orrs	r3, r2
      __HAL_ADC_CLEAR_FLAG(hadc, (ADC_FLAG_EOC | ADC_FLAG_EOS | ADC_FLAG_OVR));
 8001f12:	221c      	movs	r2, #28
      ADC_STATE_CLR_SET(hadc->State,
 8001f14:	65a3      	str	r3, [r4, #88]	@ 0x58
      __HAL_ADC_CLEAR_FLAG(hadc, (ADC_FLAG_EOC | ADC_FLAG_EOS | ADC_FLAG_OVR));
 8001f16:	6823      	ldr	r3, [r4, #0]
      ADC_CLEAR_ERRORCODE(hadc);
 8001f18:	65e0      	str	r0, [r4, #92]	@ 0x5c
      __HAL_ADC_CLEAR_FLAG(hadc, (ADC_FLAG_EOC | ADC_FLAG_EOS | ADC_FLAG_OVR));
 8001f1a:	601a      	str	r2, [r3, #0]
      __HAL_UNLOCK(hadc);
 8001f1c:	7028      	strb	r0, [r5, #0]
  MODIFY_REG(ADCx->CR,
 8001f1e:	6899      	ldr	r1, [r3, #8]
 8001f20:	4a04      	ldr	r2, [pc, #16]	@ (8001f34 <HAL_ADC_Start+0x58>)
 8001f22:	4011      	ands	r1, r2
 8001f24:	2204      	movs	r2, #4
 8001f26:	430a      	orrs	r2, r1
 8001f28:	609a      	str	r2, [r3, #8]
}
 8001f2a:	bd70      	pop	{r4, r5, r6, pc}
      __HAL_UNLOCK(hadc);
 8001f2c:	702e      	strb	r6, [r5, #0]
 8001f2e:	e7fc      	b.n	8001f2a <HAL_ADC_Start+0x4e>
 8001f30:	fffff0fe 	.word	0xfffff0fe
 8001f34:	7fffffe8 	.word	0x7fffffe8

08001f38 <HAL_NVIC_SetPriority>:
  *         with stm32c0xx devices, this parameter is a dummy value and it is ignored, because
  *         no subpriority supported in Cortex M0+ based products.
  * @retval None
  */
void HAL_NVIC_SetPriority(IRQn_Type IRQn, uint32_t PreemptPriority, uint32_t SubPriority)
{
 8001f38:	b510      	push	{r4, lr}
    NVIC->IP[_IP_IDX(IRQn)]  = ((uint32_t)(NVIC->IP[_IP_IDX(IRQn)]  & ~(0xFFUL << _BIT_SHIFT(IRQn))) |
 8001f3a:	24ff      	movs	r4, #255	@ 0xff
 8001f3c:	2203      	movs	r2, #3
 8001f3e:	000b      	movs	r3, r1
 8001f40:	0021      	movs	r1, r4
 8001f42:	4002      	ands	r2, r0
 8001f44:	00d2      	lsls	r2, r2, #3
 8001f46:	4091      	lsls	r1, r2
       (((priority << (8U - __NVIC_PRIO_BITS)) & (uint32_t)0xFFUL) << _BIT_SHIFT(IRQn)));
 8001f48:	019b      	lsls	r3, r3, #6
 8001f4a:	4023      	ands	r3, r4
    NVIC->IP[_IP_IDX(IRQn)]  = ((uint32_t)(NVIC->IP[_IP_IDX(IRQn)]  & ~(0xFFUL << _BIT_SHIFT(IRQn))) |
 8001f4c:	43c9      	mvns	r1, r1
       (((priority << (8U - __NVIC_PRIO_BITS)) & (uint32_t)0xFFUL) << _BIT_SHIFT(IRQn)));
 8001f4e:	4093      	lsls	r3, r2
  if ((int32_t)(IRQn) >= 0)
 8001f50:	2800      	cmp	r0, #0
 8001f52:	db0a      	blt.n	8001f6a <HAL_NVIC_SetPriority+0x32>
    NVIC->IP[_IP_IDX(IRQn)]  = ((uint32_t)(NVIC->IP[_IP_IDX(IRQn)]  & ~(0xFFUL << _BIT_SHIFT(IRQn))) |
 8001f54:	24c0      	movs	r4, #192	@ 0xc0
 8001f56:	4a0b      	ldr	r2, [pc, #44]	@ (8001f84 <HAL_NVIC_SetPriority+0x4c>)
 8001f58:	0880      	lsrs	r0, r0, #2
 8001f5a:	0080      	lsls	r0, r0, #2
 8001f5c:	1880      	adds	r0, r0, r2
 8001f5e:	00a4      	lsls	r4, r4, #2
 8001f60:	5902      	ldr	r2, [r0, r4]
 8001f62:	400a      	ands	r2, r1
 8001f64:	4313      	orrs	r3, r2
 8001f66:	5103      	str	r3, [r0, r4]
  /* Prevent unused argument(s) compilation warning */
  UNUSED(SubPriority);
  /* Check the parameters */
  assert_param(IS_NVIC_PREEMPTION_PRIORITY(PreemptPriority));
  NVIC_SetPriority(IRQn, PreemptPriority);
}
 8001f68:	bd10      	pop	{r4, pc}
    SCB->SHP[_SHP_IDX(IRQn)] = ((uint32_t)(SCB->SHP[_SHP_IDX(IRQn)] & ~(0xFFUL << _BIT_SHIFT(IRQn))) |
 8001f6a:	220f      	movs	r2, #15
 8001f6c:	4010      	ands	r0, r2
 8001f6e:	3808      	subs	r0, #8
 8001f70:	4a05      	ldr	r2, [pc, #20]	@ (8001f88 <HAL_NVIC_SetPriority+0x50>)
 8001f72:	0880      	lsrs	r0, r0, #2
 8001f74:	0080      	lsls	r0, r0, #2
 8001f76:	1880      	adds	r0, r0, r2
 8001f78:	69c2      	ldr	r2, [r0, #28]
 8001f7a:	4011      	ands	r1, r2
 8001f7c:	4319      	orrs	r1, r3
 8001f7e:	61c1      	str	r1, [r0, #28]
 8001f80:	e7f2      	b.n	8001f68 <HAL_NVIC_SetPriority+0x30>
 8001f82:	46c0      	nop			@ (mov r8, r8)
 8001f84:	e000e100 	.word	0xe000e100
 8001f88:	e000ed00 	.word	0xe000ed00

08001f8c <HAL_SYSTICK_Config>:
  if ((ticks - 1UL) > SysTick_LOAD_RELOAD_Msk)
 8001f8c:	2280      	movs	r2, #128	@ 0x80
 8001f8e:	1e43      	subs	r3, r0, #1
 8001f90:	0452      	lsls	r2, r2, #17
    return (1UL);                                                   /* Reload value impossible */
 8001f92:	2001      	movs	r0, #1
  if ((ticks - 1UL) > SysTick_LOAD_RELOAD_Msk)
 8001f94:	4293      	cmp	r3, r2
 8001f96:	d20d      	bcs.n	8001fb4 <HAL_SYSTICK_Config+0x28>
    SCB->SHP[_SHP_IDX(IRQn)] = ((uint32_t)(SCB->SHP[_SHP_IDX(IRQn)] & ~(0xFFUL << _BIT_SHIFT(IRQn))) |
 8001f98:	21c0      	movs	r1, #192	@ 0xc0
  SysTick->LOAD  = (uint32_t)(ticks - 1UL);                         /* set reload register */
 8001f9a:	4a07      	ldr	r2, [pc, #28]	@ (8001fb8 <HAL_SYSTICK_Config+0x2c>)
    SCB->SHP[_SHP_IDX(IRQn)] = ((uint32_t)(SCB->SHP[_SHP_IDX(IRQn)] & ~(0xFFUL << _BIT_SHIFT(IRQn))) |
 8001f9c:	4807      	ldr	r0, [pc, #28]	@ (8001fbc <HAL_SYSTICK_Config+0x30>)
  SysTick->LOAD  = (uint32_t)(ticks - 1UL);                         /* set reload register */
 8001f9e:	6053      	str	r3, [r2, #4]
    SCB->SHP[_SHP_IDX(IRQn)] = ((uint32_t)(SCB->SHP[_SHP_IDX(IRQn)] & ~(0xFFUL << _BIT_SHIFT(IRQn))) |
 8001fa0:	6a03      	ldr	r3, [r0, #32]
 8001fa2:	0609      	lsls	r1, r1, #24
 8001fa4:	021b      	lsls	r3, r3, #8
 8001fa6:	0a1b      	lsrs	r3, r3, #8
 8001fa8:	430b      	orrs	r3, r1
 8001faa:	6203      	str	r3, [r0, #32]
  SysTick->VAL   = 0UL;                                             /* Load the SysTick Counter Value */
 8001fac:	2000      	movs	r0, #0
  SysTick->CTRL  = SysTick_CTRL_CLKSOURCE_Msk |
 8001fae:	2307      	movs	r3, #7
  SysTick->VAL   = 0UL;                                             /* Load the SysTick Counter Value */
 8001fb0:	6090      	str	r0, [r2, #8]
  SysTick->CTRL  = SysTick_CTRL_CLKSOURCE_Msk |
 8001fb2:	6013      	str	r3, [r2, #0]
  *                  - 1  Function failed.
  */
uint32_t HAL_SYSTICK_Config(uint32_t TicksNumb)
{
  return SysTick_Config(TicksNumb);
}
 8001fb4:	4770      	bx	lr
 8001fb6:	46c0      	nop			@ (mov r8, r8)
 8001fb8:	e000e010 	.word	0xe000e010
 8001fbc:	e000ed00 	.word	0xe000ed00

08001fc0 <HAL_GPIO_Init>:
  */
void HAL_GPIO_Init(GPIO_TypeDef  *GPIOx, const GPIO_InitTypeDef *pGPIO_Init)
{
  uint32_t tmp;
  uint32_t iocurrent;
  uint32_t position = 0U;
 8001fc0:	2300      	movs	r3, #0
 8001fc2:	469c      	mov	ip, r3
{
 8001fc4:	b5f0      	push	{r4, r5, r6, r7, lr}
 8001fc6:	b085      	sub	sp, #20
  assert_param(IS_GPIO_ALL_INSTANCE(GPIOx));
  assert_param(IS_GPIO_PIN(pGPIO_Init->Pin));
  assert_param(IS_GPIO_MODE(pGPIO_Init->Mode));

  /* Configure the port pins */
  while (((pGPIO_Init->Pin) >> position) != 0U)
 8001fc8:	680b      	ldr	r3, [r1, #0]
 8001fca:	4664      	mov	r4, ip
 8001fcc:	001a      	movs	r2, r3
 8001fce:	40e2      	lsrs	r2, r4
 8001fd0:	d101      	bne.n	8001fd6 <HAL_GPIO_Init+0x16>
      }
    }

    position++;
  }
}
 8001fd2:	b005      	add	sp, #20
 8001fd4:	bdf0      	pop	{r4, r5, r6, r7, pc}
    iocurrent = (pGPIO_Init->Pin) & (1UL << position);
 8001fd6:	4662      	mov	r2, ip
 8001fd8:	2601      	movs	r6, #1
 8001fda:	4096      	lsls	r6, r2
 8001fdc:	001a      	movs	r2, r3
 8001fde:	4032      	ands	r2, r6
 8001fe0:	9201      	str	r2, [sp, #4]
    if (iocurrent != 0U)
 8001fe2:	4233      	tst	r3, r6
 8001fe4:	d100      	bne.n	8001fe8 <HAL_GPIO_Init+0x28>
 8001fe6:	e084      	b.n	80020f2 <HAL_GPIO_Init+0x132>
      if ((pGPIO_Init->Mode == GPIO_MODE_AF_PP) || (pGPIO_Init->Mode == GPIO_MODE_AF_OD))
 8001fe8:	684f      	ldr	r7, [r1, #4]
 8001fea:	2310      	movs	r3, #16
 8001fec:	003d      	movs	r5, r7
 8001fee:	439d      	bics	r5, r3
 8001ff0:	9503      	str	r5, [sp, #12]
 8001ff2:	2d02      	cmp	r5, #2
 8001ff4:	d114      	bne.n	8002020 <HAL_GPIO_Init+0x60>
        tmp = GPIOx->AFR[position >> 3U];
 8001ff6:	4663      	mov	r3, ip
 8001ff8:	08da      	lsrs	r2, r3, #3
 8001ffa:	0092      	lsls	r2, r2, #2
 8001ffc:	1882      	adds	r2, r0, r2
 8001ffe:	6a13      	ldr	r3, [r2, #32]
        tmp &= ~(0xFUL << ((position & 0x07U) * GPIO_AFRL_AFSEL1_Pos)) ;
 8002000:	2407      	movs	r4, #7
        tmp = GPIOx->AFR[position >> 3U];
 8002002:	001d      	movs	r5, r3
        tmp &= ~(0xFUL << ((position & 0x07U) * GPIO_AFRL_AFSEL1_Pos)) ;
 8002004:	4663      	mov	r3, ip
 8002006:	401c      	ands	r4, r3
 8002008:	230f      	movs	r3, #15
 800200a:	00a4      	lsls	r4, r4, #2
 800200c:	40a3      	lsls	r3, r4
 800200e:	439d      	bics	r5, r3
 8002010:	9502      	str	r5, [sp, #8]
        tmp |= ((pGPIO_Init->Alternate & 0x0FUL) << ((position & 0x07U) * GPIO_AFRL_AFSEL1_Pos));
 8002012:	250f      	movs	r5, #15
 8002014:	690b      	ldr	r3, [r1, #16]
 8002016:	402b      	ands	r3, r5
 8002018:	40a3      	lsls	r3, r4
 800201a:	9c02      	ldr	r4, [sp, #8]
 800201c:	4323      	orrs	r3, r4
        GPIOx->AFR[position >> 3U] = tmp;
 800201e:	6213      	str	r3, [r2, #32]
      tmp = GPIOx->MODER;
 8002020:	4663      	mov	r3, ip
 8002022:	005a      	lsls	r2, r3, #1
      tmp &= ~(GPIO_MODER_MODE0 << (position * GPIO_MODER_MODE1_Pos));
 8002024:	2303      	movs	r3, #3
 8002026:	4093      	lsls	r3, r2
      tmp = GPIOx->MODER;
 8002028:	6804      	ldr	r4, [r0, #0]
      tmp &= ~(GPIO_MODER_MODE0 << (position * GPIO_MODER_MODE1_Pos));
 800202a:	43dd      	mvns	r5, r3
 800202c:	439c      	bics	r4, r3
      tmp |= ((pGPIO_Init->Mode & GPIO_MODE) << (position * GPIO_MODER_MODE1_Pos));
 800202e:	2303      	movs	r3, #3
 8002030:	403b      	ands	r3, r7
 8002032:	4093      	lsls	r3, r2
      tmp &= ~(GPIO_MODER_MODE0 << (position * GPIO_MODER_MODE1_Pos));
 8002034:	9502      	str	r5, [sp, #8]
      if ((pGPIO_Init->Mode == GPIO_MODE_OUTPUT_PP) || (pGPIO_Init->Mode == GPIO_MODE_AF_PP) ||
 8002036:	9d03      	ldr	r5, [sp, #12]
      tmp |= ((pGPIO_Init->Mode & GPIO_MODE) << (position * GPIO_MODER_MODE1_Pos));
 8002038:	4323      	orrs	r3, r4
      if ((pGPIO_Init->Mode == GPIO_MODE_OUTPUT_PP) || (pGPIO_Init->Mode == GPIO_MODE_AF_PP) ||
 800203a:	3d01      	subs	r5, #1
      GPIOx->MODER = tmp;
 800203c:	6003      	str	r3, [r0, #0]
      if ((pGPIO_Init->Mode == GPIO_MODE_OUTPUT_PP) || (pGPIO_Init->Mode == GPIO_MODE_AF_PP) ||
 800203e:	2d01      	cmp	r5, #1
 8002040:	d95a      	bls.n	80020f8 <HAL_GPIO_Init+0x138>
      if (pGPIO_Init->Mode != GPIO_MODE_ANALOG)
 8002042:	2f03      	cmp	r7, #3
 8002044:	d055      	beq.n	80020f2 <HAL_GPIO_Init+0x132>
        tmp = GPIOx->PUPDR;
 8002046:	68c4      	ldr	r4, [r0, #12]
        tmp &= ~(GPIO_PUPDR_PUPD0 << (position * GPIO_PUPDR_PUPD1_Pos));
 8002048:	9b02      	ldr	r3, [sp, #8]
 800204a:	401c      	ands	r4, r3
        tmp |= ((pGPIO_Init->Pull) << (position * GPIO_PUPDR_PUPD1_Pos));
 800204c:	688b      	ldr	r3, [r1, #8]
 800204e:	4093      	lsls	r3, r2
 8002050:	4323      	orrs	r3, r4
        GPIOx->PUPDR = tmp;
 8002052:	60c3      	str	r3, [r0, #12]
      if ((pGPIO_Init->Mode & EXTI_MODE) == EXTI_MODE)
 8002054:	2380      	movs	r3, #128	@ 0x80
 8002056:	055b      	lsls	r3, r3, #21
 8002058:	421f      	tst	r7, r3
 800205a:	d04a      	beq.n	80020f2 <HAL_GPIO_Init+0x132>
        tmp = EXTI->EXTICR[position >> 2U];
 800205c:	4663      	mov	r3, ip
 800205e:	089a      	lsrs	r2, r3, #2
 8002060:	4b2d      	ldr	r3, [pc, #180]	@ (8002118 <HAL_GPIO_Init+0x158>)
 8002062:	0092      	lsls	r2, r2, #2
 8002064:	18d2      	adds	r2, r2, r3
        tmp &= ~((0x0FUL) << ((position & 0x03U) * EXTI_EXTICR1_EXTI1_Pos));
 8002066:	2403      	movs	r4, #3
 8002068:	4663      	mov	r3, ip
 800206a:	401c      	ands	r4, r3
 800206c:	230f      	movs	r3, #15
 800206e:	00e4      	lsls	r4, r4, #3
 8002070:	40a3      	lsls	r3, r4
        tmp |= (GPIO_GET_INDEX(GPIOx) << ((position & 0x03U) * EXTI_EXTICR1_EXTI1_Pos));
 8002072:	26a0      	movs	r6, #160	@ 0xa0
        tmp = EXTI->EXTICR[position >> 2U];
 8002074:	6e15      	ldr	r5, [r2, #96]	@ 0x60
        tmp |= (GPIO_GET_INDEX(GPIOx) << ((position & 0x03U) * EXTI_EXTICR1_EXTI1_Pos));
 8002076:	05f6      	lsls	r6, r6, #23
        tmp &= ~((0x0FUL) << ((position & 0x03U) * EXTI_EXTICR1_EXTI1_Pos));
 8002078:	439d      	bics	r5, r3
        tmp |= (GPIO_GET_INDEX(GPIOx) << ((position & 0x03U) * EXTI_EXTICR1_EXTI1_Pos));
 800207a:	2300      	movs	r3, #0
 800207c:	42b0      	cmp	r0, r6
 800207e:	d010      	beq.n	80020a2 <HAL_GPIO_Init+0xe2>
 8002080:	4e26      	ldr	r6, [pc, #152]	@ (800211c <HAL_GPIO_Init+0x15c>)
 8002082:	3301      	adds	r3, #1
 8002084:	42b0      	cmp	r0, r6
 8002086:	d00c      	beq.n	80020a2 <HAL_GPIO_Init+0xe2>
 8002088:	4e25      	ldr	r6, [pc, #148]	@ (8002120 <HAL_GPIO_Init+0x160>)
 800208a:	3301      	adds	r3, #1
 800208c:	42b0      	cmp	r0, r6
 800208e:	d008      	beq.n	80020a2 <HAL_GPIO_Init+0xe2>
 8002090:	4e24      	ldr	r6, [pc, #144]	@ (8002124 <HAL_GPIO_Init+0x164>)
 8002092:	3301      	adds	r3, #1
 8002094:	42b0      	cmp	r0, r6
 8002096:	d004      	beq.n	80020a2 <HAL_GPIO_Init+0xe2>
 8002098:	4b23      	ldr	r3, [pc, #140]	@ (8002128 <HAL_GPIO_Init+0x168>)
 800209a:	18c3      	adds	r3, r0, r3
 800209c:	1e5e      	subs	r6, r3, #1
 800209e:	41b3      	sbcs	r3, r6
 80020a0:	3305      	adds	r3, #5
 80020a2:	40a3      	lsls	r3, r4
 80020a4:	432b      	orrs	r3, r5
        EXTI->EXTICR[position >> 2U] = tmp;
 80020a6:	6613      	str	r3, [r2, #96]	@ 0x60
        tmp = EXTI->IMR1;
 80020a8:	4b20      	ldr	r3, [pc, #128]	@ (800212c <HAL_GPIO_Init+0x16c>)
        tmp &= ~((uint32_t)iocurrent);
 80020aa:	9a01      	ldr	r2, [sp, #4]
        tmp = EXTI->IMR1;
 80020ac:	6fdd      	ldr	r5, [r3, #124]	@ 0x7c
          tmp |= iocurrent;
 80020ae:	9c01      	ldr	r4, [sp, #4]
        tmp &= ~((uint32_t)iocurrent);
 80020b0:	43d2      	mvns	r2, r2
          tmp |= iocurrent;
 80020b2:	432c      	orrs	r4, r5
        if ((pGPIO_Init->Mode & GPIO_MODE_IT) == GPIO_MODE_IT)
 80020b4:	03fe      	lsls	r6, r7, #15
 80020b6:	d401      	bmi.n	80020bc <HAL_GPIO_Init+0xfc>
        tmp &= ~((uint32_t)iocurrent);
 80020b8:	002c      	movs	r4, r5
 80020ba:	4014      	ands	r4, r2
        EXTI->IMR1 = tmp;
 80020bc:	67dc      	str	r4, [r3, #124]	@ 0x7c
        tmp = EXTI->EMR1;
 80020be:	4c1c      	ldr	r4, [pc, #112]	@ (8002130 <HAL_GPIO_Init+0x170>)
          tmp |= iocurrent;
 80020c0:	9d01      	ldr	r5, [sp, #4]
        tmp = EXTI->EMR1;
 80020c2:	6fe3      	ldr	r3, [r4, #124]	@ 0x7c
          tmp |= iocurrent;
 80020c4:	431d      	orrs	r5, r3
        if ((pGPIO_Init->Mode & GPIO_MODE_EVT) == GPIO_MODE_EVT)
 80020c6:	03be      	lsls	r6, r7, #14
 80020c8:	d401      	bmi.n	80020ce <HAL_GPIO_Init+0x10e>
        tmp &= ~((uint32_t)iocurrent);
 80020ca:	4013      	ands	r3, r2
 80020cc:	001d      	movs	r5, r3
        EXTI->EMR1 = tmp;
 80020ce:	4b12      	ldr	r3, [pc, #72]	@ (8002118 <HAL_GPIO_Init+0x158>)
 80020d0:	67e5      	str	r5, [r4, #124]	@ 0x7c
        tmp = EXTI->RTSR1;
 80020d2:	681d      	ldr	r5, [r3, #0]
          tmp |= iocurrent;
 80020d4:	9c01      	ldr	r4, [sp, #4]
 80020d6:	432c      	orrs	r4, r5
        if ((pGPIO_Init->Mode & RISING_EDGE) == RISING_EDGE)
 80020d8:	02fe      	lsls	r6, r7, #11
 80020da:	d401      	bmi.n	80020e0 <HAL_GPIO_Init+0x120>
        tmp &= ~((uint32_t)iocurrent);
 80020dc:	002c      	movs	r4, r5
 80020de:	4014      	ands	r4, r2
        EXTI->RTSR1 = tmp;
 80020e0:	601c      	str	r4, [r3, #0]
        tmp = EXTI->FTSR1;
 80020e2:	685c      	ldr	r4, [r3, #4]
          tmp |= iocurrent;
 80020e4:	9d01      	ldr	r5, [sp, #4]
 80020e6:	4325      	orrs	r5, r4
        if ((pGPIO_Init->Mode & FALLING_EDGE) == FALLING_EDGE)
 80020e8:	02bf      	lsls	r7, r7, #10
 80020ea:	d401      	bmi.n	80020f0 <HAL_GPIO_Init+0x130>
        tmp &= ~((uint32_t)iocurrent);
 80020ec:	4014      	ands	r4, r2
 80020ee:	0025      	movs	r5, r4
        EXTI->FTSR1 = tmp;
 80020f0:	605d      	str	r5, [r3, #4]
    position++;
 80020f2:	2301      	movs	r3, #1
 80020f4:	449c      	add	ip, r3
 80020f6:	e767      	b.n	8001fc8 <HAL_GPIO_Init+0x8>
        tmp = GPIOx->OSPEEDR;
 80020f8:	6884      	ldr	r4, [r0, #8]
        tmp &= ~(GPIO_OSPEEDR_OSPEED0 << (position * GPIO_OSPEEDR_OSPEED1_Pos));
 80020fa:	9b02      	ldr	r3, [sp, #8]
        tmp |= (((pGPIO_Init->Mode & GPIO_OUTPUT_TYPE) >> 4U) << position);
 80020fc:	4665      	mov	r5, ip
        tmp &= ~(GPIO_OSPEEDR_OSPEED0 << (position * GPIO_OSPEEDR_OSPEED1_Pos));
 80020fe:	401c      	ands	r4, r3
        tmp |= (pGPIO_Init->Speed << (position * GPIO_OSPEEDR_OSPEED1_Pos));
 8002100:	68cb      	ldr	r3, [r1, #12]
 8002102:	4093      	lsls	r3, r2
 8002104:	4323      	orrs	r3, r4
        GPIOx->OSPEEDR = tmp;
 8002106:	6083      	str	r3, [r0, #8]
        tmp |= (((pGPIO_Init->Mode & GPIO_OUTPUT_TYPE) >> 4U) << position);
 8002108:	093b      	lsrs	r3, r7, #4
 800210a:	40ab      	lsls	r3, r5
        tmp = GPIOx->OTYPER;
 800210c:	6844      	ldr	r4, [r0, #4]
        tmp &= ~(GPIO_OTYPER_OT0 << position) ;
 800210e:	43b4      	bics	r4, r6
        tmp |= (((pGPIO_Init->Mode & GPIO_OUTPUT_TYPE) >> 4U) << position);
 8002110:	4323      	orrs	r3, r4
        GPIOx->OTYPER = tmp;
 8002112:	6043      	str	r3, [r0, #4]
      if (pGPIO_Init->Mode != GPIO_MODE_ANALOG)
 8002114:	e797      	b.n	8002046 <HAL_GPIO_Init+0x86>
 8002116:	46c0      	nop			@ (mov r8, r8)
 8002118:	40021800 	.word	0x40021800
 800211c:	50000400 	.word	0x50000400
 8002120:	50000800 	.word	0x50000800
 8002124:	50000c00 	.word	0x50000c00
 8002128:	afffec00 	.word	0xafffec00
 800212c:	40021804 	.word	0x40021804
 8002130:	40021808 	.word	0x40021808

08002134 <HAL_GPIO_WritePin>:
{
  /* Check the parameters */
  assert_param(IS_GPIO_PIN(GPIO_Pin));
  assert_param(IS_GPIO_PIN_ACTION(PinState));

  if (PinState != GPIO_PIN_RESET)
 8002134:	2a00      	cmp	r2, #0
 8002136:	d001      	beq.n	800213c <HAL_GPIO_WritePin+0x8>
  {
    GPIOx->BSRR = (uint32_t)GPIO_Pin;
 8002138:	6181      	str	r1, [r0, #24]
  }
  else
  {
    GPIOx->BRR = (uint32_t)GPIO_Pin;
  }
}
 800213a:	4770      	bx	lr
    GPIOx->BRR = (uint32_t)GPIO_Pin;
 800213c:	6281      	str	r1, [r0, #40]	@ 0x28
}
 800213e:	e7fc      	b.n	800213a <HAL_GPIO_WritePin+0x6>

08002140 <HAL_GPIO_EXTI_Falling_Callback>:
/**
  * @brief  EXTI line detection callback.
  * @param  GPIO_Pin Specifies the port pin connected to corresponding EXTI line.
  * @retval None
  */
__weak void HAL_GPIO_EXTI_Falling_Callback(uint16_t GPIO_Pin)
 8002140:	4770      	bx	lr
	...

08002144 <HAL_GPIO_EXTI_IRQHandler>:
{
 8002144:	b570      	push	{r4, r5, r6, lr}
  if (__HAL_GPIO_EXTI_GET_RISING_IT(GPIO_Pin) != 0U)
 8002146:	4d08      	ldr	r5, [pc, #32]	@ (8002168 <HAL_GPIO_EXTI_IRQHandler+0x24>)
{
 8002148:	0004      	movs	r4, r0
  if (__HAL_GPIO_EXTI_GET_RISING_IT(GPIO_Pin) != 0U)
 800214a:	68eb      	ldr	r3, [r5, #12]
 800214c:	4218      	tst	r0, r3
 800214e:	d002      	beq.n	8002156 <HAL_GPIO_EXTI_IRQHandler+0x12>
    __HAL_GPIO_EXTI_CLEAR_RISING_IT(GPIO_Pin);
 8002150:	60e8      	str	r0, [r5, #12]
    HAL_GPIO_EXTI_Rising_Callback(GPIO_Pin);
 8002152:	f7fe fb13 	bl	800077c <HAL_GPIO_EXTI_Rising_Callback>
  if (__HAL_GPIO_EXTI_GET_FALLING_IT(GPIO_Pin) != 0U)
 8002156:	692b      	ldr	r3, [r5, #16]
 8002158:	4223      	tst	r3, r4
 800215a:	d003      	beq.n	8002164 <HAL_GPIO_EXTI_IRQHandler+0x20>
    HAL_GPIO_EXTI_Falling_Callback(GPIO_Pin);
 800215c:	0020      	movs	r0, r4
    __HAL_GPIO_EXTI_CLEAR_FALLING_IT(GPIO_Pin);
 800215e:	612c      	str	r4, [r5, #16]
    HAL_GPIO_EXTI_Falling_Callback(GPIO_Pin);
 8002160:	f7ff ffee 	bl	8002140 <HAL_GPIO_EXTI_Falling_Callback>
}
 8002164:	bd70      	pop	{r4, r5, r6, pc}
 8002166:	46c0      	nop			@ (mov r8, r8)
 8002168:	40021800 	.word	0x40021800

0800216c <I2C_Flush_TXDR>:
  */
static void I2C_Flush_TXDR(I2C_HandleTypeDef *hi2c)
{
  /* If a pending TXIS flag is set */
  /* Write a dummy data in TXDR to clear it */
  if (__HAL_I2C_GET_FLAG(hi2c, I2C_FLAG_TXIS) != RESET)
 800216c:	6803      	ldr	r3, [r0, #0]
 800216e:	699a      	ldr	r2, [r3, #24]
 8002170:	0792      	lsls	r2, r2, #30
 8002172:	d501      	bpl.n	8002178 <I2C_Flush_TXDR+0xc>
  {
    hi2c->Instance->TXDR = 0x00U;
 8002174:	2200      	movs	r2, #0
 8002176:	629a      	str	r2, [r3, #40]	@ 0x28
  }

  /* Flush TX register if not empty */
  if (__HAL_I2C_GET_FLAG(hi2c, I2C_FLAG_TXE) == RESET)
 8002178:	2201      	movs	r2, #1
 800217a:	6999      	ldr	r1, [r3, #24]
 800217c:	4211      	tst	r1, r2
 800217e:	d102      	bne.n	8002186 <I2C_Flush_TXDR+0x1a>
  {
    __HAL_I2C_CLEAR_FLAG(hi2c, I2C_FLAG_TXE);
 8002180:	6999      	ldr	r1, [r3, #24]
 8002182:	430a      	orrs	r2, r1
 8002184:	619a      	str	r2, [r3, #24]
  }
}
 8002186:	4770      	bx	lr

08002188 <I2C_TransferConfig>:
  *     @arg @ref I2C_GENERATE_START_WRITE Generate Restart for write request.
  * @retval None
  */
static void I2C_TransferConfig(I2C_HandleTypeDef *hi2c, uint16_t DevAddress, uint8_t Size, uint32_t Mode,
                               uint32_t Request)
{
 8002188:	b530      	push	{r4, r5, lr}
 800218a:	9c03      	ldr	r4, [sp, #12]
  tmp = ((uint32_t)(((uint32_t)DevAddress & I2C_CR2_SADD) | \
                    (((uint32_t)Size << I2C_CR2_NBYTES_Pos) & I2C_CR2_NBYTES) | \
                    (uint32_t)Mode | (uint32_t)Request) & (~0x80000000U));

  /* update CR2 register */
  MODIFY_REG(hi2c->Instance->CR2, \
 800218c:	6800      	ldr	r0, [r0, #0]
  tmp = ((uint32_t)(((uint32_t)DevAddress & I2C_CR2_SADD) | \
 800218e:	4323      	orrs	r3, r4
                    (((uint32_t)Size << I2C_CR2_NBYTES_Pos) & I2C_CR2_NBYTES) | \
 8002190:	0412      	lsls	r2, r2, #16
  tmp = ((uint32_t)(((uint32_t)DevAddress & I2C_CR2_SADD) | \
 8002192:	0589      	lsls	r1, r1, #22
 8002194:	431a      	orrs	r2, r3
 8002196:	0d89      	lsrs	r1, r1, #22
  MODIFY_REG(hi2c->Instance->CR2, \
 8002198:	4b05      	ldr	r3, [pc, #20]	@ (80021b0 <I2C_TransferConfig+0x28>)
 800219a:	6845      	ldr	r5, [r0, #4]
  tmp = ((uint32_t)(((uint32_t)DevAddress & I2C_CR2_SADD) | \
 800219c:	430a      	orrs	r2, r1
  MODIFY_REG(hi2c->Instance->CR2, \
 800219e:	0d64      	lsrs	r4, r4, #21
 80021a0:	4323      	orrs	r3, r4
  tmp = ((uint32_t)(((uint32_t)DevAddress & I2C_CR2_SADD) | \
 80021a2:	0052      	lsls	r2, r2, #1
  MODIFY_REG(hi2c->Instance->CR2, \
 80021a4:	439d      	bics	r5, r3
  tmp = ((uint32_t)(((uint32_t)DevAddress & I2C_CR2_SADD) | \
 80021a6:	0852      	lsrs	r2, r2, #1
  MODIFY_REG(hi2c->Instance->CR2, \
 80021a8:	432a      	orrs	r2, r5
 80021aa:	6042      	str	r2, [r0, #4]
             ((I2C_CR2_SADD | I2C_CR2_NBYTES | I2C_CR2_RELOAD | I2C_CR2_AUTOEND | \
               (I2C_CR2_RD_WRN & (uint32_t)(Request >> (31U - I2C_CR2_RD_WRN_Pos))) | \
               I2C_CR2_START | I2C_CR2_STOP)), tmp);
}
 80021ac:	bd30      	pop	{r4, r5, pc}
 80021ae:	46c0      	nop			@ (mov r8, r8)
 80021b0:	03ff63ff 	.word	0x03ff63ff

080021b4 <I2C_IsErrorOccurred>:
{
 80021b4:	b5f7      	push	{r0, r1, r2, r4, r5, r6, r7, lr}
 80021b6:	0015      	movs	r5, r2
  uint32_t itflag   = hi2c->Instance->ISR;
 80021b8:	6802      	ldr	r2, [r0, #0]
{
 80021ba:	000e      	movs	r6, r1
  uint32_t itflag   = hi2c->Instance->ISR;
 80021bc:	6991      	ldr	r1, [r2, #24]
  if (HAL_IS_BIT_SET(itflag, I2C_FLAG_AF))
 80021be:	2310      	movs	r3, #16
 80021c0:	000f      	movs	r7, r1
{
 80021c2:	0004      	movs	r4, r0
  if (HAL_IS_BIT_SET(itflag, I2C_FLAG_AF))
 80021c4:	401f      	ands	r7, r3
  HAL_StatusTypeDef status = HAL_OK;
 80021c6:	2000      	movs	r0, #0
  if (HAL_IS_BIT_SET(itflag, I2C_FLAG_AF))
 80021c8:	4219      	tst	r1, r3
 80021ca:	d00d      	beq.n	80021e8 <I2C_IsErrorOccurred+0x34>
  HAL_StatusTypeDef status = HAL_OK;
 80021cc:	0007      	movs	r7, r0
    __HAL_I2C_CLEAR_FLAG(hi2c, I2C_FLAG_AF);
 80021ce:	61d3      	str	r3, [r2, #28]
  uint32_t error_code = 0;
 80021d0:	9001      	str	r0, [sp, #4]
    while ((__HAL_I2C_GET_FLAG(hi2c, I2C_FLAG_STOPF) == RESET) && (status == HAL_OK))
 80021d2:	6823      	ldr	r3, [r4, #0]
 80021d4:	2120      	movs	r1, #32
 80021d6:	699a      	ldr	r2, [r3, #24]
 80021d8:	420a      	tst	r2, r1
 80021da:	d15f      	bne.n	800229c <I2C_IsErrorOccurred+0xe8>
 80021dc:	2f00      	cmp	r7, #0
 80021de:	d031      	beq.n	8002244 <I2C_IsErrorOccurred+0x90>
    error_code |= HAL_I2C_ERROR_AF;
 80021e0:	2704      	movs	r7, #4
    status = HAL_ERROR;
 80021e2:	2001      	movs	r0, #1
    error_code |= HAL_I2C_ERROR_AF;
 80021e4:	9b01      	ldr	r3, [sp, #4]
 80021e6:	431f      	orrs	r7, r3
  if (HAL_IS_BIT_SET(itflag, I2C_FLAG_BERR))
 80021e8:	2280      	movs	r2, #128	@ 0x80
  itflag = hi2c->Instance->ISR;
 80021ea:	6825      	ldr	r5, [r4, #0]
  if (HAL_IS_BIT_SET(itflag, I2C_FLAG_BERR))
 80021ec:	0052      	lsls	r2, r2, #1
  itflag = hi2c->Instance->ISR;
 80021ee:	69ab      	ldr	r3, [r5, #24]
  if (HAL_IS_BIT_SET(itflag, I2C_FLAG_BERR))
 80021f0:	4213      	tst	r3, r2
 80021f2:	d002      	beq.n	80021fa <I2C_IsErrorOccurred+0x46>
    error_code |= HAL_I2C_ERROR_BERR;
 80021f4:	2001      	movs	r0, #1
    __HAL_I2C_CLEAR_FLAG(hi2c, I2C_FLAG_BERR);
 80021f6:	61ea      	str	r2, [r5, #28]
    error_code |= HAL_I2C_ERROR_BERR;
 80021f8:	4307      	orrs	r7, r0
  if (HAL_IS_BIT_SET(itflag, I2C_FLAG_OVR))
 80021fa:	2280      	movs	r2, #128	@ 0x80
 80021fc:	00d2      	lsls	r2, r2, #3
 80021fe:	4213      	tst	r3, r2
 8002200:	d003      	beq.n	800220a <I2C_IsErrorOccurred+0x56>
    error_code |= HAL_I2C_ERROR_OVR;
 8002202:	2108      	movs	r1, #8
    status = HAL_ERROR;
 8002204:	2001      	movs	r0, #1
    error_code |= HAL_I2C_ERROR_OVR;
 8002206:	430f      	orrs	r7, r1
    __HAL_I2C_CLEAR_FLAG(hi2c, I2C_FLAG_OVR);
 8002208:	61ea      	str	r2, [r5, #28]
  if (HAL_IS_BIT_SET(itflag, I2C_FLAG_ARLO))
 800220a:	2280      	movs	r2, #128	@ 0x80
 800220c:	0092      	lsls	r2, r2, #2
 800220e:	4213      	tst	r3, r2
 8002210:	d049      	beq.n	80022a6 <I2C_IsErrorOccurred+0xf2>
    error_code |= HAL_I2C_ERROR_ARLO;
 8002212:	2302      	movs	r3, #2
    __HAL_I2C_CLEAR_FLAG(hi2c, I2C_FLAG_ARLO);
 8002214:	61ea      	str	r2, [r5, #28]
    error_code |= HAL_I2C_ERROR_ARLO;
 8002216:	431f      	orrs	r7, r3
    I2C_Flush_TXDR(hi2c);
 8002218:	0020      	movs	r0, r4
 800221a:	f7ff ffa7 	bl	800216c <I2C_Flush_TXDR>
    I2C_RESET_CR2(hi2c);
 800221e:	686b      	ldr	r3, [r5, #4]
 8002220:	4a22      	ldr	r2, [pc, #136]	@ (80022ac <I2C_IsErrorOccurred+0xf8>)
    __HAL_UNLOCK(hi2c);
 8002222:	2001      	movs	r0, #1
    I2C_RESET_CR2(hi2c);
 8002224:	4013      	ands	r3, r2
 8002226:	606b      	str	r3, [r5, #4]
    hi2c->ErrorCode |= error_code;
 8002228:	6c63      	ldr	r3, [r4, #68]	@ 0x44
    hi2c->State = HAL_I2C_STATE_READY;
 800222a:	2220      	movs	r2, #32
    hi2c->ErrorCode |= error_code;
 800222c:	433b      	orrs	r3, r7
 800222e:	6463      	str	r3, [r4, #68]	@ 0x44
    hi2c->State = HAL_I2C_STATE_READY;
 8002230:	0023      	movs	r3, r4
 8002232:	3341      	adds	r3, #65	@ 0x41
 8002234:	701a      	strb	r2, [r3, #0]
    hi2c->Mode = HAL_I2C_MODE_NONE;
 8002236:	0022      	movs	r2, r4
 8002238:	2300      	movs	r3, #0
 800223a:	3242      	adds	r2, #66	@ 0x42
    __HAL_UNLOCK(hi2c);
 800223c:	3440      	adds	r4, #64	@ 0x40
    hi2c->Mode = HAL_I2C_MODE_NONE;
 800223e:	7013      	strb	r3, [r2, #0]
    __HAL_UNLOCK(hi2c);
 8002240:	7023      	strb	r3, [r4, #0]
 8002242:	e032      	b.n	80022aa <I2C_IsErrorOccurred+0xf6>
      if (Timeout != HAL_MAX_DELAY)
 8002244:	1c72      	adds	r2, r6, #1
 8002246:	d0c5      	beq.n	80021d4 <I2C_IsErrorOccurred+0x20>
        if (((HAL_GetTick() - tickstart) > Timeout) || (Timeout == 0U))
 8002248:	f7ff fb4e 	bl	80018e8 <HAL_GetTick>
 800224c:	1b40      	subs	r0, r0, r5
 800224e:	42b0      	cmp	r0, r6
 8002250:	d801      	bhi.n	8002256 <I2C_IsErrorOccurred+0xa2>
 8002252:	2e00      	cmp	r6, #0
 8002254:	d1bd      	bne.n	80021d2 <I2C_IsErrorOccurred+0x1e>
          tmp2 = hi2c->Mode;
 8002256:	0022      	movs	r2, r4
          tmp1 = (uint32_t)(hi2c->Instance->CR2 & I2C_CR2_STOP);
 8002258:	6823      	ldr	r3, [r4, #0]
          tmp2 = hi2c->Mode;
 800225a:	3242      	adds	r2, #66	@ 0x42
          tmp1 = (uint32_t)(hi2c->Instance->CR2 & I2C_CR2_STOP);
 800225c:	6858      	ldr	r0, [r3, #4]
          tmp2 = hi2c->Mode;
 800225e:	7811      	ldrb	r1, [r2, #0]
          if ((__HAL_I2C_GET_FLAG(hi2c, I2C_FLAG_BUSY) != RESET) && \
 8002260:	699a      	ldr	r2, [r3, #24]
          tmp2 = hi2c->Mode;
 8002262:	b2c9      	uxtb	r1, r1
          if ((__HAL_I2C_GET_FLAG(hi2c, I2C_FLAG_BUSY) != RESET) && \
 8002264:	0412      	lsls	r2, r2, #16
 8002266:	d50b      	bpl.n	8002280 <I2C_IsErrorOccurred+0xcc>
          tmp1 = (uint32_t)(hi2c->Instance->CR2 & I2C_CR2_STOP);
 8002268:	2280      	movs	r2, #128	@ 0x80
 800226a:	01d2      	lsls	r2, r2, #7
          if ((__HAL_I2C_GET_FLAG(hi2c, I2C_FLAG_BUSY) != RESET) && \
 800226c:	4210      	tst	r0, r2
 800226e:	d107      	bne.n	8002280 <I2C_IsErrorOccurred+0xcc>
              (tmp1 != I2C_CR2_STOP) && \
 8002270:	2920      	cmp	r1, #32
 8002272:	d005      	beq.n	8002280 <I2C_IsErrorOccurred+0xcc>
            hi2c->Instance->CR2 |= I2C_CR2_STOP;
 8002274:	6859      	ldr	r1, [r3, #4]
 8002276:	430a      	orrs	r2, r1
 8002278:	605a      	str	r2, [r3, #4]
            tickstart = HAL_GetTick();
 800227a:	f7ff fb35 	bl	80018e8 <HAL_GetTick>
 800227e:	0005      	movs	r5, r0
          while (__HAL_I2C_GET_FLAG(hi2c, I2C_FLAG_STOPF) == RESET)
 8002280:	2220      	movs	r2, #32
 8002282:	6823      	ldr	r3, [r4, #0]
 8002284:	699b      	ldr	r3, [r3, #24]
 8002286:	4213      	tst	r3, r2
 8002288:	d1a3      	bne.n	80021d2 <I2C_IsErrorOccurred+0x1e>
            if ((HAL_GetTick() - tickstart) > I2C_TIMEOUT_STOPF)
 800228a:	f7ff fb2d 	bl	80018e8 <HAL_GetTick>
 800228e:	1b40      	subs	r0, r0, r5
 8002290:	2819      	cmp	r0, #25
 8002292:	d9f5      	bls.n	8002280 <I2C_IsErrorOccurred+0xcc>
              error_code |= HAL_I2C_ERROR_TIMEOUT;
 8002294:	2320      	movs	r3, #32
              status = HAL_ERROR;
 8002296:	2701      	movs	r7, #1
              error_code |= HAL_I2C_ERROR_TIMEOUT;
 8002298:	9301      	str	r3, [sp, #4]
 800229a:	e79a      	b.n	80021d2 <I2C_IsErrorOccurred+0x1e>
    if (status == HAL_OK)
 800229c:	2f00      	cmp	r7, #0
 800229e:	d19f      	bne.n	80021e0 <I2C_IsErrorOccurred+0x2c>
      __HAL_I2C_CLEAR_FLAG(hi2c, I2C_FLAG_STOPF);
 80022a0:	2220      	movs	r2, #32
 80022a2:	61da      	str	r2, [r3, #28]
 80022a4:	e79c      	b.n	80021e0 <I2C_IsErrorOccurred+0x2c>
  if (status != HAL_OK)
 80022a6:	2800      	cmp	r0, #0
 80022a8:	d1b6      	bne.n	8002218 <I2C_IsErrorOccurred+0x64>
}
 80022aa:	bdfe      	pop	{r1, r2, r3, r4, r5, r6, r7, pc}
 80022ac:	fe00e800 	.word	0xfe00e800

080022b0 <I2C_WaitOnTXISFlagUntilTimeout>:
{
 80022b0:	b5f8      	push	{r3, r4, r5, r6, r7, lr}
 80022b2:	0004      	movs	r4, r0
 80022b4:	000d      	movs	r5, r1
 80022b6:	0016      	movs	r6, r2
  while (__HAL_I2C_GET_FLAG(hi2c, I2C_FLAG_TXIS) == RESET)
 80022b8:	2702      	movs	r7, #2
 80022ba:	6823      	ldr	r3, [r4, #0]
 80022bc:	699b      	ldr	r3, [r3, #24]
 80022be:	423b      	tst	r3, r7
 80022c0:	d001      	beq.n	80022c6 <I2C_WaitOnTXISFlagUntilTimeout+0x16>
  return HAL_OK;
 80022c2:	2000      	movs	r0, #0
 80022c4:	e021      	b.n	800230a <I2C_WaitOnTXISFlagUntilTimeout+0x5a>
    if (I2C_IsErrorOccurred(hi2c, Timeout, Tickstart) != HAL_OK)
 80022c6:	0032      	movs	r2, r6
 80022c8:	0029      	movs	r1, r5
 80022ca:	0020      	movs	r0, r4
 80022cc:	f7ff ff72 	bl	80021b4 <I2C_IsErrorOccurred>
 80022d0:	2800      	cmp	r0, #0
 80022d2:	d119      	bne.n	8002308 <I2C_WaitOnTXISFlagUntilTimeout+0x58>
    if (Timeout != HAL_MAX_DELAY)
 80022d4:	1c6b      	adds	r3, r5, #1
 80022d6:	d0f0      	beq.n	80022ba <I2C_WaitOnTXISFlagUntilTimeout+0xa>
      if (((HAL_GetTick() - Tickstart) > Timeout) || (Timeout == 0U))
 80022d8:	f7ff fb06 	bl	80018e8 <HAL_GetTick>
 80022dc:	1b80      	subs	r0, r0, r6
 80022de:	42a8      	cmp	r0, r5
 80022e0:	d801      	bhi.n	80022e6 <I2C_WaitOnTXISFlagUntilTimeout+0x36>
 80022e2:	2d00      	cmp	r5, #0
 80022e4:	d1e9      	bne.n	80022ba <I2C_WaitOnTXISFlagUntilTimeout+0xa>
        if (__HAL_I2C_GET_FLAG(hi2c, I2C_FLAG_TXIS) == RESET)
 80022e6:	6823      	ldr	r3, [r4, #0]
 80022e8:	6999      	ldr	r1, [r3, #24]
 80022ea:	2302      	movs	r3, #2
 80022ec:	000a      	movs	r2, r1
 80022ee:	401a      	ands	r2, r3
 80022f0:	4219      	tst	r1, r3
 80022f2:	d1e2      	bne.n	80022ba <I2C_WaitOnTXISFlagUntilTimeout+0xa>
          hi2c->ErrorCode |= HAL_I2C_ERROR_TIMEOUT;
 80022f4:	2120      	movs	r1, #32
 80022f6:	6c63      	ldr	r3, [r4, #68]	@ 0x44
 80022f8:	430b      	orrs	r3, r1
 80022fa:	6463      	str	r3, [r4, #68]	@ 0x44
          hi2c->State = HAL_I2C_STATE_READY;
 80022fc:	0023      	movs	r3, r4
          __HAL_UNLOCK(hi2c);
 80022fe:	3440      	adds	r4, #64	@ 0x40
          hi2c->State = HAL_I2C_STATE_READY;
 8002300:	3341      	adds	r3, #65	@ 0x41
 8002302:	7019      	strb	r1, [r3, #0]
          hi2c->Mode = HAL_I2C_MODE_NONE;
 8002304:	705a      	strb	r2, [r3, #1]
          __HAL_UNLOCK(hi2c);
 8002306:	7022      	strb	r2, [r4, #0]
      return HAL_ERROR;
 8002308:	2001      	movs	r0, #1
}
 800230a:	bdf8      	pop	{r3, r4, r5, r6, r7, pc}

0800230c <I2C_WaitOnFlagUntilTimeout>:
{
 800230c:	b5f8      	push	{r3, r4, r5, r6, r7, lr}
 800230e:	0004      	movs	r4, r0
 8002310:	000d      	movs	r5, r1
 8002312:	0017      	movs	r7, r2
 8002314:	001e      	movs	r6, r3
  while (__HAL_I2C_GET_FLAG(hi2c, Flag) == Status)
 8002316:	6823      	ldr	r3, [r4, #0]
 8002318:	699b      	ldr	r3, [r3, #24]
 800231a:	402b      	ands	r3, r5
 800231c:	1b5b      	subs	r3, r3, r5
 800231e:	425a      	negs	r2, r3
 8002320:	4153      	adcs	r3, r2
 8002322:	42bb      	cmp	r3, r7
 8002324:	d001      	beq.n	800232a <I2C_WaitOnFlagUntilTimeout+0x1e>
  return HAL_OK;
 8002326:	2000      	movs	r0, #0
 8002328:	e026      	b.n	8002378 <I2C_WaitOnFlagUntilTimeout+0x6c>
    if (I2C_IsErrorOccurred(hi2c, Timeout, Tickstart) != HAL_OK)
 800232a:	0031      	movs	r1, r6
 800232c:	0020      	movs	r0, r4
 800232e:	9a06      	ldr	r2, [sp, #24]
 8002330:	f7ff ff40 	bl	80021b4 <I2C_IsErrorOccurred>
 8002334:	2800      	cmp	r0, #0
 8002336:	d11e      	bne.n	8002376 <I2C_WaitOnFlagUntilTimeout+0x6a>
    if (Timeout != HAL_MAX_DELAY)
 8002338:	1c73      	adds	r3, r6, #1
 800233a:	d0ec      	beq.n	8002316 <I2C_WaitOnFlagUntilTimeout+0xa>
      if (((HAL_GetTick() - Tickstart) > Timeout) || (Timeout == 0U))
 800233c:	f7ff fad4 	bl	80018e8 <HAL_GetTick>
 8002340:	9b06      	ldr	r3, [sp, #24]
 8002342:	1ac0      	subs	r0, r0, r3
 8002344:	42b0      	cmp	r0, r6
 8002346:	d801      	bhi.n	800234c <I2C_WaitOnFlagUntilTimeout+0x40>
 8002348:	2e00      	cmp	r6, #0
 800234a:	d1e4      	bne.n	8002316 <I2C_WaitOnFlagUntilTimeout+0xa>
        if (__HAL_I2C_GET_FLAG(hi2c, Flag) == Status)
 800234c:	6823      	ldr	r3, [r4, #0]
 800234e:	699b      	ldr	r3, [r3, #24]
 8002350:	402b      	ands	r3, r5
 8002352:	1b5b      	subs	r3, r3, r5
 8002354:	425a      	negs	r2, r3
 8002356:	4153      	adcs	r3, r2
 8002358:	42bb      	cmp	r3, r7
 800235a:	d1dc      	bne.n	8002316 <I2C_WaitOnFlagUntilTimeout+0xa>
          hi2c->ErrorCode |= HAL_I2C_ERROR_TIMEOUT;
 800235c:	2220      	movs	r2, #32
 800235e:	6c63      	ldr	r3, [r4, #68]	@ 0x44
 8002360:	4313      	orrs	r3, r2
 8002362:	6463      	str	r3, [r4, #68]	@ 0x44
          hi2c->State = HAL_I2C_STATE_READY;
 8002364:	0023      	movs	r3, r4
 8002366:	3341      	adds	r3, #65	@ 0x41
 8002368:	701a      	strb	r2, [r3, #0]
          hi2c->Mode = HAL_I2C_MODE_NONE;
 800236a:	0022      	movs	r2, r4
 800236c:	2300      	movs	r3, #0
 800236e:	3242      	adds	r2, #66	@ 0x42
          __HAL_UNLOCK(hi2c);
 8002370:	3440      	adds	r4, #64	@ 0x40
          hi2c->Mode = HAL_I2C_MODE_NONE;
 8002372:	7013      	strb	r3, [r2, #0]
          __HAL_UNLOCK(hi2c);
 8002374:	7023      	strb	r3, [r4, #0]
      return HAL_ERROR;
 8002376:	2001      	movs	r0, #1
}
 8002378:	bdf8      	pop	{r3, r4, r5, r6, r7, pc}

0800237a <I2C_WaitOnSTOPFlagUntilTimeout>:
{
 800237a:	b5f8      	push	{r3, r4, r5, r6, r7, lr}
 800237c:	0004      	movs	r4, r0
 800237e:	000e      	movs	r6, r1
 8002380:	0017      	movs	r7, r2
  while (__HAL_I2C_GET_FLAG(hi2c, I2C_FLAG_STOPF) == RESET)
 8002382:	2520      	movs	r5, #32
 8002384:	6823      	ldr	r3, [r4, #0]
 8002386:	699b      	ldr	r3, [r3, #24]
 8002388:	422b      	tst	r3, r5
 800238a:	d001      	beq.n	8002390 <I2C_WaitOnSTOPFlagUntilTimeout+0x16>
  return HAL_OK;
 800238c:	2000      	movs	r0, #0
 800238e:	e01d      	b.n	80023cc <I2C_WaitOnSTOPFlagUntilTimeout+0x52>
    if (I2C_IsErrorOccurred(hi2c, Timeout, Tickstart) != HAL_OK)
 8002390:	003a      	movs	r2, r7
 8002392:	0031      	movs	r1, r6
 8002394:	0020      	movs	r0, r4
 8002396:	f7ff ff0d 	bl	80021b4 <I2C_IsErrorOccurred>
 800239a:	2800      	cmp	r0, #0
 800239c:	d115      	bne.n	80023ca <I2C_WaitOnSTOPFlagUntilTimeout+0x50>
    if (((HAL_GetTick() - Tickstart) > Timeout) || (Timeout == 0U))
 800239e:	f7ff faa3 	bl	80018e8 <HAL_GetTick>
 80023a2:	1bc0      	subs	r0, r0, r7
 80023a4:	42b0      	cmp	r0, r6
 80023a6:	d801      	bhi.n	80023ac <I2C_WaitOnSTOPFlagUntilTimeout+0x32>
 80023a8:	2e00      	cmp	r6, #0
 80023aa:	d1eb      	bne.n	8002384 <I2C_WaitOnSTOPFlagUntilTimeout+0xa>
      if (__HAL_I2C_GET_FLAG(hi2c, I2C_FLAG_STOPF) == RESET)
 80023ac:	6823      	ldr	r3, [r4, #0]
 80023ae:	699b      	ldr	r3, [r3, #24]
 80023b0:	001a      	movs	r2, r3
 80023b2:	402a      	ands	r2, r5
 80023b4:	422b      	tst	r3, r5
 80023b6:	d1e5      	bne.n	8002384 <I2C_WaitOnSTOPFlagUntilTimeout+0xa>
        hi2c->ErrorCode |= HAL_I2C_ERROR_TIMEOUT;
 80023b8:	6c63      	ldr	r3, [r4, #68]	@ 0x44
 80023ba:	432b      	orrs	r3, r5
 80023bc:	6463      	str	r3, [r4, #68]	@ 0x44
        hi2c->State = HAL_I2C_STATE_READY;
 80023be:	0023      	movs	r3, r4
        __HAL_UNLOCK(hi2c);
 80023c0:	3440      	adds	r4, #64	@ 0x40
        hi2c->State = HAL_I2C_STATE_READY;
 80023c2:	3341      	adds	r3, #65	@ 0x41
 80023c4:	701d      	strb	r5, [r3, #0]
        hi2c->Mode = HAL_I2C_MODE_NONE;
 80023c6:	705a      	strb	r2, [r3, #1]
        __HAL_UNLOCK(hi2c);
 80023c8:	7022      	strb	r2, [r4, #0]
      return HAL_ERROR;
 80023ca:	2001      	movs	r0, #1
}
 80023cc:	bdf8      	pop	{r3, r4, r5, r6, r7, pc}
	...

080023d0 <HAL_I2C_Init>:
{
 80023d0:	b570      	push	{r4, r5, r6, lr}
 80023d2:	0004      	movs	r4, r0
    return HAL_ERROR;
 80023d4:	2001      	movs	r0, #1
  if (hi2c == NULL)
 80023d6:	2c00      	cmp	r4, #0
 80023d8:	d04e      	beq.n	8002478 <HAL_I2C_Init+0xa8>
  if (hi2c->State == HAL_I2C_STATE_RESET)
 80023da:	0025      	movs	r5, r4
 80023dc:	3541      	adds	r5, #65	@ 0x41
 80023de:	782b      	ldrb	r3, [r5, #0]
 80023e0:	b2da      	uxtb	r2, r3
 80023e2:	2b00      	cmp	r3, #0
 80023e4:	d105      	bne.n	80023f2 <HAL_I2C_Init+0x22>
    hi2c->Lock = HAL_UNLOCKED;
 80023e6:	0023      	movs	r3, r4
 80023e8:	3340      	adds	r3, #64	@ 0x40
    HAL_I2C_MspInit(hi2c);
 80023ea:	0020      	movs	r0, r4
    hi2c->Lock = HAL_UNLOCKED;
 80023ec:	701a      	strb	r2, [r3, #0]
    HAL_I2C_MspInit(hi2c);
 80023ee:	f7ff f8a9 	bl	8001544 <HAL_I2C_MspInit>
  hi2c->State = HAL_I2C_STATE_BUSY;
 80023f2:	2324      	movs	r3, #36	@ 0x24
  __HAL_I2C_DISABLE(hi2c);
 80023f4:	2101      	movs	r1, #1
  hi2c->State = HAL_I2C_STATE_BUSY;
 80023f6:	702b      	strb	r3, [r5, #0]
  __HAL_I2C_DISABLE(hi2c);
 80023f8:	6823      	ldr	r3, [r4, #0]
  if (hi2c->Init.AddressingMode == I2C_ADDRESSINGMODE_7BIT)
 80023fa:	68e0      	ldr	r0, [r4, #12]
  __HAL_I2C_DISABLE(hi2c);
 80023fc:	681a      	ldr	r2, [r3, #0]
    hi2c->Instance->OAR1 = (I2C_OAR1_OA1EN | hi2c->Init.OwnAddress1);
 80023fe:	68a6      	ldr	r6, [r4, #8]
  __HAL_I2C_DISABLE(hi2c);
 8002400:	438a      	bics	r2, r1
 8002402:	601a      	str	r2, [r3, #0]
  hi2c->Instance->TIMINGR = hi2c->Init.Timing & TIMING_CLEAR_MASK;
 8002404:	491d      	ldr	r1, [pc, #116]	@ (800247c <HAL_I2C_Init+0xac>)
 8002406:	6862      	ldr	r2, [r4, #4]
 8002408:	400a      	ands	r2, r1
 800240a:	611a      	str	r2, [r3, #16]
  hi2c->Instance->OAR1 &= ~I2C_OAR1_OA1EN;
 800240c:	689a      	ldr	r2, [r3, #8]
 800240e:	491c      	ldr	r1, [pc, #112]	@ (8002480 <HAL_I2C_Init+0xb0>)
 8002410:	400a      	ands	r2, r1
 8002412:	609a      	str	r2, [r3, #8]
  if (hi2c->Init.AddressingMode == I2C_ADDRESSINGMODE_7BIT)
 8002414:	2801      	cmp	r0, #1
 8002416:	d107      	bne.n	8002428 <HAL_I2C_Init+0x58>
    hi2c->Instance->OAR1 = (I2C_OAR1_OA1EN | hi2c->Init.OwnAddress1);
 8002418:	2280      	movs	r2, #128	@ 0x80
 800241a:	0212      	lsls	r2, r2, #8
 800241c:	4332      	orrs	r2, r6
 800241e:	609a      	str	r2, [r3, #8]
    CLEAR_BIT(hi2c->Instance->CR2, I2C_CR2_ADD10);
 8002420:	685a      	ldr	r2, [r3, #4]
 8002422:	4818      	ldr	r0, [pc, #96]	@ (8002484 <HAL_I2C_Init+0xb4>)
 8002424:	4002      	ands	r2, r0
 8002426:	e009      	b.n	800243c <HAL_I2C_Init+0x6c>
    hi2c->Instance->OAR1 = (I2C_OAR1_OA1EN | I2C_OAR1_OA1MODE | hi2c->Init.OwnAddress1);
 8002428:	2284      	movs	r2, #132	@ 0x84
 800242a:	0212      	lsls	r2, r2, #8
 800242c:	4332      	orrs	r2, r6
 800242e:	609a      	str	r2, [r3, #8]
  if (hi2c->Init.AddressingMode == I2C_ADDRESSINGMODE_10BIT)
 8002430:	2802      	cmp	r0, #2
 8002432:	d1f5      	bne.n	8002420 <HAL_I2C_Init+0x50>
    SET_BIT(hi2c->Instance->CR2, I2C_CR2_ADD10);
 8002434:	2280      	movs	r2, #128	@ 0x80
 8002436:	6858      	ldr	r0, [r3, #4]
 8002438:	0112      	lsls	r2, r2, #4
 800243a:	4302      	orrs	r2, r0
    CLEAR_BIT(hi2c->Instance->CR2, I2C_CR2_ADD10);
 800243c:	605a      	str	r2, [r3, #4]
  hi2c->Instance->CR2 |= (I2C_CR2_AUTOEND | I2C_CR2_NACK);
 800243e:	6858      	ldr	r0, [r3, #4]
 8002440:	4a11      	ldr	r2, [pc, #68]	@ (8002488 <HAL_I2C_Init+0xb8>)
 8002442:	4302      	orrs	r2, r0
 8002444:	605a      	str	r2, [r3, #4]
  hi2c->Instance->OAR2 &= ~I2C_DUALADDRESS_ENABLE;
 8002446:	68da      	ldr	r2, [r3, #12]
  hi2c->ErrorCode = HAL_I2C_ERROR_NONE;
 8002448:	2000      	movs	r0, #0
  hi2c->Instance->OAR2 &= ~I2C_DUALADDRESS_ENABLE;
 800244a:	400a      	ands	r2, r1
 800244c:	60da      	str	r2, [r3, #12]
  hi2c->Instance->OAR2 = (hi2c->Init.DualAddressMode | hi2c->Init.OwnAddress2 | \
 800244e:	6961      	ldr	r1, [r4, #20]
 8002450:	6922      	ldr	r2, [r4, #16]
 8002452:	430a      	orrs	r2, r1
                          (hi2c->Init.OwnAddress2Masks << 8));
 8002454:	69a1      	ldr	r1, [r4, #24]
 8002456:	0209      	lsls	r1, r1, #8
  hi2c->Instance->OAR2 = (hi2c->Init.DualAddressMode | hi2c->Init.OwnAddress2 | \
 8002458:	430a      	orrs	r2, r1
 800245a:	60da      	str	r2, [r3, #12]
  hi2c->Instance->CR1 = (hi2c->Init.GeneralCallMode | hi2c->Init.NoStretchMode);
 800245c:	6a21      	ldr	r1, [r4, #32]
 800245e:	69e2      	ldr	r2, [r4, #28]
 8002460:	430a      	orrs	r2, r1
 8002462:	601a      	str	r2, [r3, #0]
  __HAL_I2C_ENABLE(hi2c);
 8002464:	2201      	movs	r2, #1
 8002466:	6819      	ldr	r1, [r3, #0]
 8002468:	430a      	orrs	r2, r1
 800246a:	601a      	str	r2, [r3, #0]
  hi2c->State = HAL_I2C_STATE_READY;
 800246c:	2320      	movs	r3, #32
  hi2c->ErrorCode = HAL_I2C_ERROR_NONE;
 800246e:	6460      	str	r0, [r4, #68]	@ 0x44
  hi2c->State = HAL_I2C_STATE_READY;
 8002470:	702b      	strb	r3, [r5, #0]
  hi2c->PreviousState = I2C_STATE_NONE;
 8002472:	6320      	str	r0, [r4, #48]	@ 0x30
  hi2c->Mode = HAL_I2C_MODE_NONE;
 8002474:	3442      	adds	r4, #66	@ 0x42
 8002476:	7020      	strb	r0, [r4, #0]
}
 8002478:	bd70      	pop	{r4, r5, r6, pc}
 800247a:	46c0      	nop			@ (mov r8, r8)
 800247c:	f0ffffff 	.word	0xf0ffffff
 8002480:	ffff7fff 	.word	0xffff7fff
 8002484:	fffff7ff 	.word	0xfffff7ff
 8002488:	02008000 	.word	0x02008000

0800248c <HAL_I2C_Mem_Write>:
{
 800248c:	b5f0      	push	{r4, r5, r6, r7, lr}
  if (hi2c->State == HAL_I2C_STATE_READY)
 800248e:	0007      	movs	r7, r0
{
 8002490:	b087      	sub	sp, #28
 8002492:	9303      	str	r3, [sp, #12]
 8002494:	ab0c      	add	r3, sp, #48	@ 0x30
 8002496:	9202      	str	r2, [sp, #8]
 8002498:	cb04      	ldmia	r3!, {r2}
  if (hi2c->State == HAL_I2C_STATE_READY)
 800249a:	3741      	adds	r7, #65	@ 0x41
{
 800249c:	881b      	ldrh	r3, [r3, #0]
 800249e:	9204      	str	r2, [sp, #16]
 80024a0:	9305      	str	r3, [sp, #20]
  if (hi2c->State == HAL_I2C_STATE_READY)
 80024a2:	783b      	ldrb	r3, [r7, #0]
{
 80024a4:	0004      	movs	r4, r0
 80024a6:	000e      	movs	r6, r1
    __HAL_LOCK(hi2c);
 80024a8:	2002      	movs	r0, #2
  if (hi2c->State == HAL_I2C_STATE_READY)
 80024aa:	2b20      	cmp	r3, #32
 80024ac:	d108      	bne.n	80024c0 <HAL_I2C_Mem_Write+0x34>
    if ((pData == NULL) || (Size == 0U))
 80024ae:	2a00      	cmp	r2, #0
 80024b0:	d002      	beq.n	80024b8 <HAL_I2C_Mem_Write+0x2c>
 80024b2:	9b05      	ldr	r3, [sp, #20]
 80024b4:	2b00      	cmp	r3, #0
 80024b6:	d105      	bne.n	80024c4 <HAL_I2C_Mem_Write+0x38>
      hi2c->ErrorCode = HAL_I2C_ERROR_INVALID_PARAM;
 80024b8:	2380      	movs	r3, #128	@ 0x80
 80024ba:	009b      	lsls	r3, r3, #2
 80024bc:	6463      	str	r3, [r4, #68]	@ 0x44
      return  HAL_ERROR;
 80024be:	2001      	movs	r0, #1
}
 80024c0:	b007      	add	sp, #28
 80024c2:	bdf0      	pop	{r4, r5, r6, r7, pc}
    __HAL_LOCK(hi2c);
 80024c4:	0023      	movs	r3, r4
 80024c6:	3340      	adds	r3, #64	@ 0x40
 80024c8:	781a      	ldrb	r2, [r3, #0]
 80024ca:	2002      	movs	r0, #2
 80024cc:	2a01      	cmp	r2, #1
 80024ce:	d0f7      	beq.n	80024c0 <HAL_I2C_Mem_Write+0x34>
 80024d0:	2201      	movs	r2, #1
 80024d2:	701a      	strb	r2, [r3, #0]
    tickstart = HAL_GetTick();
 80024d4:	f7ff fa08 	bl	80018e8 <HAL_GetTick>
    if (I2C_WaitOnFlagUntilTimeout(hi2c, I2C_FLAG_BUSY, SET, I2C_TIMEOUT_BUSY, tickstart) != HAL_OK)
 80024d8:	2180      	movs	r1, #128	@ 0x80
    tickstart = HAL_GetTick();
 80024da:	0005      	movs	r5, r0
    if (I2C_WaitOnFlagUntilTimeout(hi2c, I2C_FLAG_BUSY, SET, I2C_TIMEOUT_BUSY, tickstart) != HAL_OK)
 80024dc:	9000      	str	r0, [sp, #0]
 80024de:	2319      	movs	r3, #25
 80024e0:	2201      	movs	r2, #1
 80024e2:	0020      	movs	r0, r4
 80024e4:	0209      	lsls	r1, r1, #8
 80024e6:	f7ff ff11 	bl	800230c <I2C_WaitOnFlagUntilTimeout>
 80024ea:	2800      	cmp	r0, #0
 80024ec:	d1e7      	bne.n	80024be <HAL_I2C_Mem_Write+0x32>
    hi2c->State     = HAL_I2C_STATE_BUSY_TX;
 80024ee:	2321      	movs	r3, #33	@ 0x21
 80024f0:	703b      	strb	r3, [r7, #0]
    hi2c->Mode      = HAL_I2C_MODE_MEM;
 80024f2:	0027      	movs	r7, r4
 80024f4:	331f      	adds	r3, #31
 80024f6:	3742      	adds	r7, #66	@ 0x42
 80024f8:	703b      	strb	r3, [r7, #0]
    hi2c->pBuffPtr  = pData;
 80024fa:	9b04      	ldr	r3, [sp, #16]
    hi2c->ErrorCode = HAL_I2C_ERROR_NONE;
 80024fc:	6460      	str	r0, [r4, #68]	@ 0x44
    hi2c->pBuffPtr  = pData;
 80024fe:	6263      	str	r3, [r4, #36]	@ 0x24
    hi2c->XferCount = Size;
 8002500:	9b05      	ldr	r3, [sp, #20]
    hi2c->XferISR   = NULL;
 8002502:	6360      	str	r0, [r4, #52]	@ 0x34
    hi2c->XferCount = Size;
 8002504:	8563      	strh	r3, [r4, #42]	@ 0x2a
  I2C_TransferConfig(hi2c, DevAddress, (uint8_t)MemAddSize, I2C_RELOAD_MODE, I2C_GENERATE_START_WRITE);
 8002506:	466b      	mov	r3, sp
 8002508:	7b1a      	ldrb	r2, [r3, #12]
 800250a:	4b4b      	ldr	r3, [pc, #300]	@ (8002638 <HAL_I2C_Mem_Write+0x1ac>)
 800250c:	0031      	movs	r1, r6
 800250e:	9300      	str	r3, [sp, #0]
 8002510:	2380      	movs	r3, #128	@ 0x80
 8002512:	0020      	movs	r0, r4
 8002514:	045b      	lsls	r3, r3, #17
 8002516:	f7ff fe37 	bl	8002188 <I2C_TransferConfig>
  if (I2C_WaitOnTXISFlagUntilTimeout(hi2c, Timeout, Tickstart) != HAL_OK)
 800251a:	002a      	movs	r2, r5
 800251c:	0020      	movs	r0, r4
 800251e:	990e      	ldr	r1, [sp, #56]	@ 0x38
 8002520:	f7ff fec6 	bl	80022b0 <I2C_WaitOnTXISFlagUntilTimeout>
 8002524:	2800      	cmp	r0, #0
 8002526:	d129      	bne.n	800257c <HAL_I2C_Mem_Write+0xf0>
  if (MemAddSize == I2C_MEMADD_SIZE_8BIT)
 8002528:	9a03      	ldr	r2, [sp, #12]
    hi2c->Instance->TXDR = I2C_MEM_ADD_LSB(MemAddress);
 800252a:	6823      	ldr	r3, [r4, #0]
  if (MemAddSize == I2C_MEMADD_SIZE_8BIT)
 800252c:	2a01      	cmp	r2, #1
 800252e:	d116      	bne.n	800255e <HAL_I2C_Mem_Write+0xd2>
    hi2c->Instance->TXDR = I2C_MEM_ADD_LSB(MemAddress);
 8002530:	466a      	mov	r2, sp
 8002532:	7a12      	ldrb	r2, [r2, #8]
 8002534:	629a      	str	r2, [r3, #40]	@ 0x28
  if (I2C_WaitOnFlagUntilTimeout(hi2c, I2C_FLAG_TCR, RESET, Timeout, Tickstart) != HAL_OK)
 8002536:	2200      	movs	r2, #0
 8002538:	2180      	movs	r1, #128	@ 0x80
 800253a:	0020      	movs	r0, r4
 800253c:	9b0e      	ldr	r3, [sp, #56]	@ 0x38
 800253e:	9500      	str	r5, [sp, #0]
 8002540:	f7ff fee4 	bl	800230c <I2C_WaitOnFlagUntilTimeout>
 8002544:	2800      	cmp	r0, #0
 8002546:	d119      	bne.n	800257c <HAL_I2C_Mem_Write+0xf0>
    if (hi2c->XferCount > MAX_NBYTE_SIZE)
 8002548:	8d63      	ldrh	r3, [r4, #42]	@ 0x2a
 800254a:	2bff      	cmp	r3, #255	@ 0xff
 800254c:	d81a      	bhi.n	8002584 <HAL_I2C_Mem_Write+0xf8>
      I2C_TransferConfig(hi2c, DevAddress, (uint8_t)hi2c->XferSize, I2C_AUTOEND_MODE, I2C_NO_STARTSTOP);
 800254e:	2380      	movs	r3, #128	@ 0x80
      hi2c->XferSize = hi2c->XferCount;
 8002550:	8d62      	ldrh	r2, [r4, #42]	@ 0x2a
      I2C_TransferConfig(hi2c, DevAddress, (uint8_t)hi2c->XferSize, I2C_AUTOEND_MODE, I2C_NO_STARTSTOP);
 8002552:	049b      	lsls	r3, r3, #18
      hi2c->XferSize = hi2c->XferCount;
 8002554:	b292      	uxth	r2, r2
 8002556:	8522      	strh	r2, [r4, #40]	@ 0x28
      I2C_TransferConfig(hi2c, DevAddress, (uint8_t)hi2c->XferSize, I2C_AUTOEND_MODE, I2C_NO_STARTSTOP);
 8002558:	b2d2      	uxtb	r2, r2
 800255a:	9000      	str	r0, [sp, #0]
 800255c:	e017      	b.n	800258e <HAL_I2C_Mem_Write+0x102>
    hi2c->Instance->TXDR = I2C_MEM_ADD_MSB(MemAddress);
 800255e:	9a02      	ldr	r2, [sp, #8]
    if (I2C_WaitOnTXISFlagUntilTimeout(hi2c, Timeout, Tickstart) != HAL_OK)
 8002560:	0020      	movs	r0, r4
    hi2c->Instance->TXDR = I2C_MEM_ADD_MSB(MemAddress);
 8002562:	0a12      	lsrs	r2, r2, #8
 8002564:	629a      	str	r2, [r3, #40]	@ 0x28
    if (I2C_WaitOnTXISFlagUntilTimeout(hi2c, Timeout, Tickstart) != HAL_OK)
 8002566:	990e      	ldr	r1, [sp, #56]	@ 0x38
 8002568:	002a      	movs	r2, r5
 800256a:	f7ff fea1 	bl	80022b0 <I2C_WaitOnTXISFlagUntilTimeout>
 800256e:	2800      	cmp	r0, #0
 8002570:	d104      	bne.n	800257c <HAL_I2C_Mem_Write+0xf0>
    hi2c->Instance->TXDR = I2C_MEM_ADD_LSB(MemAddress);
 8002572:	466b      	mov	r3, sp
 8002574:	6822      	ldr	r2, [r4, #0]
 8002576:	7a1b      	ldrb	r3, [r3, #8]
 8002578:	6293      	str	r3, [r2, #40]	@ 0x28
 800257a:	e7dc      	b.n	8002536 <HAL_I2C_Mem_Write+0xaa>
      __HAL_UNLOCK(hi2c);
 800257c:	2300      	movs	r3, #0
 800257e:	3440      	adds	r4, #64	@ 0x40
 8002580:	7023      	strb	r3, [r4, #0]
      return HAL_ERROR;
 8002582:	e79c      	b.n	80024be <HAL_I2C_Mem_Write+0x32>
      hi2c->XferSize = MAX_NBYTE_SIZE;
 8002584:	22ff      	movs	r2, #255	@ 0xff
      I2C_TransferConfig(hi2c, DevAddress, (uint8_t)hi2c->XferSize, I2C_RELOAD_MODE, I2C_NO_STARTSTOP);
 8002586:	2380      	movs	r3, #128	@ 0x80
      hi2c->XferSize = MAX_NBYTE_SIZE;
 8002588:	8522      	strh	r2, [r4, #40]	@ 0x28
      I2C_TransferConfig(hi2c, DevAddress, (uint8_t)hi2c->XferSize, I2C_RELOAD_MODE, I2C_NO_STARTSTOP);
 800258a:	045b      	lsls	r3, r3, #17
 800258c:	9000      	str	r0, [sp, #0]
      I2C_TransferConfig(hi2c, DevAddress, (uint8_t)hi2c->XferSize, I2C_AUTOEND_MODE, I2C_NO_STARTSTOP);
 800258e:	0031      	movs	r1, r6
 8002590:	0020      	movs	r0, r4
 8002592:	f7ff fdf9 	bl	8002188 <I2C_TransferConfig>
      if (I2C_WaitOnTXISFlagUntilTimeout(hi2c, Timeout, tickstart) != HAL_OK)
 8002596:	002a      	movs	r2, r5
 8002598:	0020      	movs	r0, r4
 800259a:	990e      	ldr	r1, [sp, #56]	@ 0x38
 800259c:	f7ff fe88 	bl	80022b0 <I2C_WaitOnTXISFlagUntilTimeout>
 80025a0:	2800      	cmp	r0, #0
 80025a2:	d000      	beq.n	80025a6 <HAL_I2C_Mem_Write+0x11a>
 80025a4:	e78b      	b.n	80024be <HAL_I2C_Mem_Write+0x32>
      hi2c->Instance->TXDR = *hi2c->pBuffPtr;
 80025a6:	6a63      	ldr	r3, [r4, #36]	@ 0x24
 80025a8:	6822      	ldr	r2, [r4, #0]
 80025aa:	7819      	ldrb	r1, [r3, #0]
      hi2c->pBuffPtr++;
 80025ac:	3301      	adds	r3, #1
      hi2c->Instance->TXDR = *hi2c->pBuffPtr;
 80025ae:	6291      	str	r1, [r2, #40]	@ 0x28
      hi2c->pBuffPtr++;
 80025b0:	6263      	str	r3, [r4, #36]	@ 0x24
      hi2c->XferCount--;
 80025b2:	8d63      	ldrh	r3, [r4, #42]	@ 0x2a
      hi2c->XferSize--;
 80025b4:	8d22      	ldrh	r2, [r4, #40]	@ 0x28
      hi2c->XferCount--;
 80025b6:	3b01      	subs	r3, #1
 80025b8:	b29b      	uxth	r3, r3
 80025ba:	8563      	strh	r3, [r4, #42]	@ 0x2a
      hi2c->XferSize--;
 80025bc:	3a01      	subs	r2, #1
      if ((hi2c->XferCount != 0U) && (hi2c->XferSize == 0U))
 80025be:	8d63      	ldrh	r3, [r4, #42]	@ 0x2a
      hi2c->XferSize--;
 80025c0:	b292      	uxth	r2, r2
 80025c2:	8522      	strh	r2, [r4, #40]	@ 0x28
      if ((hi2c->XferCount != 0U) && (hi2c->XferSize == 0U))
 80025c4:	2b00      	cmp	r3, #0
 80025c6:	d016      	beq.n	80025f6 <HAL_I2C_Mem_Write+0x16a>
 80025c8:	2a00      	cmp	r2, #0
 80025ca:	d114      	bne.n	80025f6 <HAL_I2C_Mem_Write+0x16a>
        if (I2C_WaitOnFlagUntilTimeout(hi2c, I2C_FLAG_TCR, RESET, Timeout, tickstart) != HAL_OK)
 80025cc:	2180      	movs	r1, #128	@ 0x80
 80025ce:	0020      	movs	r0, r4
 80025d0:	9b0e      	ldr	r3, [sp, #56]	@ 0x38
 80025d2:	9500      	str	r5, [sp, #0]
 80025d4:	f7ff fe9a 	bl	800230c <I2C_WaitOnFlagUntilTimeout>
 80025d8:	2800      	cmp	r0, #0
 80025da:	d000      	beq.n	80025de <HAL_I2C_Mem_Write+0x152>
 80025dc:	e76f      	b.n	80024be <HAL_I2C_Mem_Write+0x32>
        if (hi2c->XferCount > MAX_NBYTE_SIZE)
 80025de:	8d63      	ldrh	r3, [r4, #42]	@ 0x2a
 80025e0:	2bff      	cmp	r3, #255	@ 0xff
 80025e2:	d921      	bls.n	8002628 <HAL_I2C_Mem_Write+0x19c>
          hi2c->XferSize = MAX_NBYTE_SIZE;
 80025e4:	22ff      	movs	r2, #255	@ 0xff
          I2C_TransferConfig(hi2c, DevAddress, (uint8_t)hi2c->XferSize, I2C_RELOAD_MODE,
 80025e6:	2380      	movs	r3, #128	@ 0x80
          hi2c->XferSize = MAX_NBYTE_SIZE;
 80025e8:	8522      	strh	r2, [r4, #40]	@ 0x28
          I2C_TransferConfig(hi2c, DevAddress, (uint8_t)hi2c->XferSize, I2C_RELOAD_MODE,
 80025ea:	045b      	lsls	r3, r3, #17
 80025ec:	9000      	str	r0, [sp, #0]
          I2C_TransferConfig(hi2c, DevAddress, (uint8_t)hi2c->XferSize, I2C_AUTOEND_MODE,
 80025ee:	0031      	movs	r1, r6
 80025f0:	0020      	movs	r0, r4
 80025f2:	f7ff fdc9 	bl	8002188 <I2C_TransferConfig>
    } while (hi2c->XferCount > 0U);
 80025f6:	8d63      	ldrh	r3, [r4, #42]	@ 0x2a
 80025f8:	2b00      	cmp	r3, #0
 80025fa:	d1cc      	bne.n	8002596 <HAL_I2C_Mem_Write+0x10a>
    if (I2C_WaitOnSTOPFlagUntilTimeout(hi2c, Timeout, tickstart) != HAL_OK)
 80025fc:	002a      	movs	r2, r5
 80025fe:	0020      	movs	r0, r4
 8002600:	990e      	ldr	r1, [sp, #56]	@ 0x38
 8002602:	f7ff feba 	bl	800237a <I2C_WaitOnSTOPFlagUntilTimeout>
 8002606:	2800      	cmp	r0, #0
 8002608:	d000      	beq.n	800260c <HAL_I2C_Mem_Write+0x180>
 800260a:	e758      	b.n	80024be <HAL_I2C_Mem_Write+0x32>
    __HAL_I2C_CLEAR_FLAG(hi2c, I2C_FLAG_STOPF);
 800260c:	2120      	movs	r1, #32
 800260e:	6823      	ldr	r3, [r4, #0]
    I2C_RESET_CR2(hi2c);
 8002610:	4d0a      	ldr	r5, [pc, #40]	@ (800263c <HAL_I2C_Mem_Write+0x1b0>)
    __HAL_I2C_CLEAR_FLAG(hi2c, I2C_FLAG_STOPF);
 8002612:	61d9      	str	r1, [r3, #28]
    I2C_RESET_CR2(hi2c);
 8002614:	685a      	ldr	r2, [r3, #4]
 8002616:	402a      	ands	r2, r5
 8002618:	605a      	str	r2, [r3, #4]
    hi2c->State = HAL_I2C_STATE_READY;
 800261a:	0023      	movs	r3, r4
    __HAL_UNLOCK(hi2c);
 800261c:	3440      	adds	r4, #64	@ 0x40
    hi2c->State = HAL_I2C_STATE_READY;
 800261e:	3341      	adds	r3, #65	@ 0x41
 8002620:	7019      	strb	r1, [r3, #0]
    hi2c->Mode  = HAL_I2C_MODE_NONE;
 8002622:	7038      	strb	r0, [r7, #0]
    __HAL_UNLOCK(hi2c);
 8002624:	7020      	strb	r0, [r4, #0]
    return HAL_OK;
 8002626:	e74b      	b.n	80024c0 <HAL_I2C_Mem_Write+0x34>
          I2C_TransferConfig(hi2c, DevAddress, (uint8_t)hi2c->XferSize, I2C_AUTOEND_MODE,
 8002628:	2380      	movs	r3, #128	@ 0x80
          hi2c->XferSize = hi2c->XferCount;
 800262a:	8d62      	ldrh	r2, [r4, #42]	@ 0x2a
          I2C_TransferConfig(hi2c, DevAddress, (uint8_t)hi2c->XferSize, I2C_AUTOEND_MODE,
 800262c:	049b      	lsls	r3, r3, #18
          hi2c->XferSize = hi2c->XferCount;
 800262e:	b292      	uxth	r2, r2
 8002630:	8522      	strh	r2, [r4, #40]	@ 0x28
          I2C_TransferConfig(hi2c, DevAddress, (uint8_t)hi2c->XferSize, I2C_AUTOEND_MODE,
 8002632:	b2d2      	uxtb	r2, r2
 8002634:	9000      	str	r0, [sp, #0]
 8002636:	e7da      	b.n	80025ee <HAL_I2C_Mem_Write+0x162>
 8002638:	80002000 	.word	0x80002000
 800263c:	fe00e800 	.word	0xfe00e800

08002640 <HAL_I2C_Mem_Read>:
{
 8002640:	b5f0      	push	{r4, r5, r6, r7, lr}
  if (hi2c->State == HAL_I2C_STATE_READY)
 8002642:	0006      	movs	r6, r0
{
 8002644:	b087      	sub	sp, #28
 8002646:	9303      	str	r3, [sp, #12]
 8002648:	ab0c      	add	r3, sp, #48	@ 0x30
 800264a:	9202      	str	r2, [sp, #8]
 800264c:	cb04      	ldmia	r3!, {r2}
  if (hi2c->State == HAL_I2C_STATE_READY)
 800264e:	3641      	adds	r6, #65	@ 0x41
{
 8002650:	881b      	ldrh	r3, [r3, #0]
 8002652:	9204      	str	r2, [sp, #16]
 8002654:	9305      	str	r3, [sp, #20]
  if (hi2c->State == HAL_I2C_STATE_READY)
 8002656:	7833      	ldrb	r3, [r6, #0]
{
 8002658:	0004      	movs	r4, r0
 800265a:	000f      	movs	r7, r1
    __HAL_LOCK(hi2c);
 800265c:	2002      	movs	r0, #2
  if (hi2c->State == HAL_I2C_STATE_READY)
 800265e:	2b20      	cmp	r3, #32
 8002660:	d108      	bne.n	8002674 <HAL_I2C_Mem_Read+0x34>
    if ((pData == NULL) || (Size == 0U))
 8002662:	2a00      	cmp	r2, #0
 8002664:	d002      	beq.n	800266c <HAL_I2C_Mem_Read+0x2c>
 8002666:	9b05      	ldr	r3, [sp, #20]
 8002668:	2b00      	cmp	r3, #0
 800266a:	d105      	bne.n	8002678 <HAL_I2C_Mem_Read+0x38>
      hi2c->ErrorCode = HAL_I2C_ERROR_INVALID_PARAM;
 800266c:	2380      	movs	r3, #128	@ 0x80
 800266e:	009b      	lsls	r3, r3, #2
 8002670:	6463      	str	r3, [r4, #68]	@ 0x44
      return  HAL_ERROR;
 8002672:	2001      	movs	r0, #1
}
 8002674:	b007      	add	sp, #28
 8002676:	bdf0      	pop	{r4, r5, r6, r7, pc}
    __HAL_LOCK(hi2c);
 8002678:	0023      	movs	r3, r4
 800267a:	3340      	adds	r3, #64	@ 0x40
 800267c:	781a      	ldrb	r2, [r3, #0]
 800267e:	2002      	movs	r0, #2
 8002680:	2a01      	cmp	r2, #1
 8002682:	d0f7      	beq.n	8002674 <HAL_I2C_Mem_Read+0x34>
 8002684:	2201      	movs	r2, #1
 8002686:	701a      	strb	r2, [r3, #0]
    tickstart = HAL_GetTick();
 8002688:	f7ff f92e 	bl	80018e8 <HAL_GetTick>
    if (I2C_WaitOnFlagUntilTimeout(hi2c, I2C_FLAG_BUSY, SET, I2C_TIMEOUT_BUSY, tickstart) != HAL_OK)
 800268c:	2180      	movs	r1, #128	@ 0x80
 800268e:	2319      	movs	r3, #25
 8002690:	9000      	str	r0, [sp, #0]
    tickstart = HAL_GetTick();
 8002692:	0005      	movs	r5, r0
    if (I2C_WaitOnFlagUntilTimeout(hi2c, I2C_FLAG_BUSY, SET, I2C_TIMEOUT_BUSY, tickstart) != HAL_OK)
 8002694:	2201      	movs	r2, #1
 8002696:	0020      	movs	r0, r4
 8002698:	0209      	lsls	r1, r1, #8
 800269a:	f7ff fe37 	bl	800230c <I2C_WaitOnFlagUntilTimeout>
 800269e:	1e03      	subs	r3, r0, #0
 80026a0:	d1e7      	bne.n	8002672 <HAL_I2C_Mem_Read+0x32>
    hi2c->State     = HAL_I2C_STATE_BUSY_RX;
 80026a2:	2222      	movs	r2, #34	@ 0x22
 80026a4:	7032      	strb	r2, [r6, #0]
    hi2c->Mode      = HAL_I2C_MODE_MEM;
 80026a6:	0026      	movs	r6, r4
 80026a8:	321e      	adds	r2, #30
 80026aa:	3642      	adds	r6, #66	@ 0x42
 80026ac:	7032      	strb	r2, [r6, #0]
    hi2c->pBuffPtr  = pData;
 80026ae:	9a04      	ldr	r2, [sp, #16]
    hi2c->ErrorCode = HAL_I2C_ERROR_NONE;
 80026b0:	6460      	str	r0, [r4, #68]	@ 0x44
    hi2c->pBuffPtr  = pData;
 80026b2:	6262      	str	r2, [r4, #36]	@ 0x24
    hi2c->XferCount = Size;
 80026b4:	9a05      	ldr	r2, [sp, #20]
  I2C_TransferConfig(hi2c, DevAddress, (uint8_t)MemAddSize, I2C_SOFTEND_MODE, I2C_GENERATE_START_WRITE);
 80026b6:	494e      	ldr	r1, [pc, #312]	@ (80027f0 <HAL_I2C_Mem_Read+0x1b0>)
    hi2c->XferCount = Size;
 80026b8:	8562      	strh	r2, [r4, #42]	@ 0x2a
  I2C_TransferConfig(hi2c, DevAddress, (uint8_t)MemAddSize, I2C_SOFTEND_MODE, I2C_GENERATE_START_WRITE);
 80026ba:	466a      	mov	r2, sp
    hi2c->XferISR   = NULL;
 80026bc:	6360      	str	r0, [r4, #52]	@ 0x34
  I2C_TransferConfig(hi2c, DevAddress, (uint8_t)MemAddSize, I2C_SOFTEND_MODE, I2C_GENERATE_START_WRITE);
 80026be:	7b12      	ldrb	r2, [r2, #12]
 80026c0:	0020      	movs	r0, r4
 80026c2:	9100      	str	r1, [sp, #0]
 80026c4:	0039      	movs	r1, r7
 80026c6:	f7ff fd5f 	bl	8002188 <I2C_TransferConfig>
  if (I2C_WaitOnTXISFlagUntilTimeout(hi2c, Timeout, Tickstart) != HAL_OK)
 80026ca:	002a      	movs	r2, r5
 80026cc:	0020      	movs	r0, r4
 80026ce:	990e      	ldr	r1, [sp, #56]	@ 0x38
 80026d0:	f7ff fdee 	bl	80022b0 <I2C_WaitOnTXISFlagUntilTimeout>
 80026d4:	2800      	cmp	r0, #0
 80026d6:	d12a      	bne.n	800272e <HAL_I2C_Mem_Read+0xee>
  if (MemAddSize == I2C_MEMADD_SIZE_8BIT)
 80026d8:	9a03      	ldr	r2, [sp, #12]
    hi2c->Instance->TXDR = I2C_MEM_ADD_LSB(MemAddress);
 80026da:	6823      	ldr	r3, [r4, #0]
  if (MemAddSize == I2C_MEMADD_SIZE_8BIT)
 80026dc:	2a01      	cmp	r2, #1
 80026de:	d117      	bne.n	8002710 <HAL_I2C_Mem_Read+0xd0>
    hi2c->Instance->TXDR = I2C_MEM_ADD_LSB(MemAddress);
 80026e0:	466a      	mov	r2, sp
 80026e2:	7a12      	ldrb	r2, [r2, #8]
 80026e4:	629a      	str	r2, [r3, #40]	@ 0x28
  if (I2C_WaitOnFlagUntilTimeout(hi2c, I2C_FLAG_TC, RESET, Timeout, Tickstart) != HAL_OK)
 80026e6:	2200      	movs	r2, #0
 80026e8:	2140      	movs	r1, #64	@ 0x40
 80026ea:	0020      	movs	r0, r4
 80026ec:	9b0e      	ldr	r3, [sp, #56]	@ 0x38
 80026ee:	9500      	str	r5, [sp, #0]
 80026f0:	f7ff fe0c 	bl	800230c <I2C_WaitOnFlagUntilTimeout>
 80026f4:	2800      	cmp	r0, #0
 80026f6:	d11a      	bne.n	800272e <HAL_I2C_Mem_Read+0xee>
    if (hi2c->XferCount > MAX_NBYTE_SIZE)
 80026f8:	8d62      	ldrh	r2, [r4, #42]	@ 0x2a
 80026fa:	4b3e      	ldr	r3, [pc, #248]	@ (80027f4 <HAL_I2C_Mem_Read+0x1b4>)
 80026fc:	2aff      	cmp	r2, #255	@ 0xff
 80026fe:	d81a      	bhi.n	8002736 <HAL_I2C_Mem_Read+0xf6>
      hi2c->XferSize = hi2c->XferCount;
 8002700:	8d62      	ldrh	r2, [r4, #42]	@ 0x2a
 8002702:	b292      	uxth	r2, r2
 8002704:	8522      	strh	r2, [r4, #40]	@ 0x28
      I2C_TransferConfig(hi2c, DevAddress, (uint8_t)hi2c->XferSize, I2C_AUTOEND_MODE,
 8002706:	9300      	str	r3, [sp, #0]
 8002708:	2380      	movs	r3, #128	@ 0x80
 800270a:	b2d2      	uxtb	r2, r2
 800270c:	049b      	lsls	r3, r3, #18
 800270e:	e017      	b.n	8002740 <HAL_I2C_Mem_Read+0x100>
    hi2c->Instance->TXDR = I2C_MEM_ADD_MSB(MemAddress);
 8002710:	9a02      	ldr	r2, [sp, #8]
    if (I2C_WaitOnTXISFlagUntilTimeout(hi2c, Timeout, Tickstart) != HAL_OK)
 8002712:	0020      	movs	r0, r4
    hi2c->Instance->TXDR = I2C_MEM_ADD_MSB(MemAddress);
 8002714:	0a12      	lsrs	r2, r2, #8
 8002716:	629a      	str	r2, [r3, #40]	@ 0x28
    if (I2C_WaitOnTXISFlagUntilTimeout(hi2c, Timeout, Tickstart) != HAL_OK)
 8002718:	990e      	ldr	r1, [sp, #56]	@ 0x38
 800271a:	002a      	movs	r2, r5
 800271c:	f7ff fdc8 	bl	80022b0 <I2C_WaitOnTXISFlagUntilTimeout>
 8002720:	2800      	cmp	r0, #0
 8002722:	d104      	bne.n	800272e <HAL_I2C_Mem_Read+0xee>
    hi2c->Instance->TXDR = I2C_MEM_ADD_LSB(MemAddress);
 8002724:	466b      	mov	r3, sp
 8002726:	6822      	ldr	r2, [r4, #0]
 8002728:	7a1b      	ldrb	r3, [r3, #8]
 800272a:	6293      	str	r3, [r2, #40]	@ 0x28
 800272c:	e7db      	b.n	80026e6 <HAL_I2C_Mem_Read+0xa6>
      __HAL_UNLOCK(hi2c);
 800272e:	2300      	movs	r3, #0
 8002730:	3440      	adds	r4, #64	@ 0x40
 8002732:	7023      	strb	r3, [r4, #0]
      return HAL_ERROR;
 8002734:	e79d      	b.n	8002672 <HAL_I2C_Mem_Read+0x32>
      hi2c->XferSize = MAX_NBYTE_SIZE;
 8002736:	22ff      	movs	r2, #255	@ 0xff
 8002738:	8522      	strh	r2, [r4, #40]	@ 0x28
      I2C_TransferConfig(hi2c, DevAddress, (uint8_t)hi2c->XferSize, I2C_RELOAD_MODE,
 800273a:	9300      	str	r3, [sp, #0]
 800273c:	2380      	movs	r3, #128	@ 0x80
 800273e:	045b      	lsls	r3, r3, #17
      I2C_TransferConfig(hi2c, DevAddress, (uint8_t)hi2c->XferSize, I2C_AUTOEND_MODE,
 8002740:	0039      	movs	r1, r7
 8002742:	0020      	movs	r0, r4
 8002744:	f7ff fd20 	bl	8002188 <I2C_TransferConfig>
      if (I2C_WaitOnFlagUntilTimeout(hi2c, I2C_FLAG_RXNE, RESET, Timeout, tickstart) != HAL_OK)
 8002748:	2200      	movs	r2, #0
 800274a:	2104      	movs	r1, #4
 800274c:	0020      	movs	r0, r4
 800274e:	9b0e      	ldr	r3, [sp, #56]	@ 0x38
 8002750:	9500      	str	r5, [sp, #0]
 8002752:	f7ff fddb 	bl	800230c <I2C_WaitOnFlagUntilTimeout>
 8002756:	2800      	cmp	r0, #0
 8002758:	d000      	beq.n	800275c <HAL_I2C_Mem_Read+0x11c>
 800275a:	e78a      	b.n	8002672 <HAL_I2C_Mem_Read+0x32>
      *hi2c->pBuffPtr = (uint8_t)hi2c->Instance->RXDR;
 800275c:	6823      	ldr	r3, [r4, #0]
 800275e:	6a5a      	ldr	r2, [r3, #36]	@ 0x24
 8002760:	6a63      	ldr	r3, [r4, #36]	@ 0x24
 8002762:	701a      	strb	r2, [r3, #0]
      hi2c->pBuffPtr++;
 8002764:	6a63      	ldr	r3, [r4, #36]	@ 0x24
      hi2c->XferSize--;
 8002766:	8d22      	ldrh	r2, [r4, #40]	@ 0x28
      hi2c->pBuffPtr++;
 8002768:	3301      	adds	r3, #1
 800276a:	6263      	str	r3, [r4, #36]	@ 0x24
      hi2c->XferCount--;
 800276c:	8d63      	ldrh	r3, [r4, #42]	@ 0x2a
      hi2c->XferSize--;
 800276e:	3a01      	subs	r2, #1
      hi2c->XferCount--;
 8002770:	3b01      	subs	r3, #1
 8002772:	b29b      	uxth	r3, r3
 8002774:	8563      	strh	r3, [r4, #42]	@ 0x2a
      if ((hi2c->XferCount != 0U) && (hi2c->XferSize == 0U))
 8002776:	8d63      	ldrh	r3, [r4, #42]	@ 0x2a
      hi2c->XferSize--;
 8002778:	b292      	uxth	r2, r2
 800277a:	8522      	strh	r2, [r4, #40]	@ 0x28
      if ((hi2c->XferCount != 0U) && (hi2c->XferSize == 0U))
 800277c:	2b00      	cmp	r3, #0
 800277e:	d016      	beq.n	80027ae <HAL_I2C_Mem_Read+0x16e>
 8002780:	2a00      	cmp	r2, #0
 8002782:	d114      	bne.n	80027ae <HAL_I2C_Mem_Read+0x16e>
        if (I2C_WaitOnFlagUntilTimeout(hi2c, I2C_FLAG_TCR, RESET, Timeout, tickstart) != HAL_OK)
 8002784:	2180      	movs	r1, #128	@ 0x80
 8002786:	0020      	movs	r0, r4
 8002788:	9b0e      	ldr	r3, [sp, #56]	@ 0x38
 800278a:	9500      	str	r5, [sp, #0]
 800278c:	f7ff fdbe 	bl	800230c <I2C_WaitOnFlagUntilTimeout>
 8002790:	2800      	cmp	r0, #0
 8002792:	d000      	beq.n	8002796 <HAL_I2C_Mem_Read+0x156>
 8002794:	e76d      	b.n	8002672 <HAL_I2C_Mem_Read+0x32>
        if (hi2c->XferCount > MAX_NBYTE_SIZE)
 8002796:	8d63      	ldrh	r3, [r4, #42]	@ 0x2a
 8002798:	2bff      	cmp	r3, #255	@ 0xff
 800279a:	d921      	bls.n	80027e0 <HAL_I2C_Mem_Read+0x1a0>
          hi2c->XferSize = MAX_NBYTE_SIZE;
 800279c:	22ff      	movs	r2, #255	@ 0xff
          I2C_TransferConfig(hi2c, DevAddress, (uint8_t) hi2c->XferSize, I2C_RELOAD_MODE,
 800279e:	2380      	movs	r3, #128	@ 0x80
          hi2c->XferSize = MAX_NBYTE_SIZE;
 80027a0:	8522      	strh	r2, [r4, #40]	@ 0x28
          I2C_TransferConfig(hi2c, DevAddress, (uint8_t) hi2c->XferSize, I2C_RELOAD_MODE,
 80027a2:	045b      	lsls	r3, r3, #17
 80027a4:	9000      	str	r0, [sp, #0]
          I2C_TransferConfig(hi2c, DevAddress, (uint8_t)hi2c->XferSize, I2C_AUTOEND_MODE,
 80027a6:	0039      	movs	r1, r7
 80027a8:	0020      	movs	r0, r4
 80027aa:	f7ff fced 	bl	8002188 <I2C_TransferConfig>
    } while (hi2c->XferCount > 0U);
 80027ae:	8d63      	ldrh	r3, [r4, #42]	@ 0x2a
 80027b0:	2b00      	cmp	r3, #0
 80027b2:	d1c9      	bne.n	8002748 <HAL_I2C_Mem_Read+0x108>
    if (I2C_WaitOnSTOPFlagUntilTimeout(hi2c, Timeout, tickstart) != HAL_OK)
 80027b4:	002a      	movs	r2, r5
 80027b6:	0020      	movs	r0, r4
 80027b8:	990e      	ldr	r1, [sp, #56]	@ 0x38
 80027ba:	f7ff fdde 	bl	800237a <I2C_WaitOnSTOPFlagUntilTimeout>
 80027be:	2800      	cmp	r0, #0
 80027c0:	d000      	beq.n	80027c4 <HAL_I2C_Mem_Read+0x184>
 80027c2:	e756      	b.n	8002672 <HAL_I2C_Mem_Read+0x32>
    __HAL_I2C_CLEAR_FLAG(hi2c, I2C_FLAG_STOPF);
 80027c4:	2120      	movs	r1, #32
 80027c6:	6823      	ldr	r3, [r4, #0]
    I2C_RESET_CR2(hi2c);
 80027c8:	4d0b      	ldr	r5, [pc, #44]	@ (80027f8 <HAL_I2C_Mem_Read+0x1b8>)
    __HAL_I2C_CLEAR_FLAG(hi2c, I2C_FLAG_STOPF);
 80027ca:	61d9      	str	r1, [r3, #28]
    I2C_RESET_CR2(hi2c);
 80027cc:	685a      	ldr	r2, [r3, #4]
 80027ce:	402a      	ands	r2, r5
 80027d0:	605a      	str	r2, [r3, #4]
    hi2c->State = HAL_I2C_STATE_READY;
 80027d2:	0023      	movs	r3, r4
    __HAL_UNLOCK(hi2c);
 80027d4:	3440      	adds	r4, #64	@ 0x40
    hi2c->State = HAL_I2C_STATE_READY;
 80027d6:	3341      	adds	r3, #65	@ 0x41
 80027d8:	7019      	strb	r1, [r3, #0]
    hi2c->Mode  = HAL_I2C_MODE_NONE;
 80027da:	7030      	strb	r0, [r6, #0]
    __HAL_UNLOCK(hi2c);
 80027dc:	7020      	strb	r0, [r4, #0]
    return HAL_OK;
 80027de:	e749      	b.n	8002674 <HAL_I2C_Mem_Read+0x34>
          I2C_TransferConfig(hi2c, DevAddress, (uint8_t)hi2c->XferSize, I2C_AUTOEND_MODE,
 80027e0:	2380      	movs	r3, #128	@ 0x80
          hi2c->XferSize = hi2c->XferCount;
 80027e2:	8d62      	ldrh	r2, [r4, #42]	@ 0x2a
          I2C_TransferConfig(hi2c, DevAddress, (uint8_t)hi2c->XferSize, I2C_AUTOEND_MODE,
 80027e4:	049b      	lsls	r3, r3, #18
          hi2c->XferSize = hi2c->XferCount;
 80027e6:	b292      	uxth	r2, r2
 80027e8:	8522      	strh	r2, [r4, #40]	@ 0x28
          I2C_TransferConfig(hi2c, DevAddress, (uint8_t)hi2c->XferSize, I2C_AUTOEND_MODE,
 80027ea:	b2d2      	uxtb	r2, r2
 80027ec:	9000      	str	r0, [sp, #0]
 80027ee:	e7da      	b.n	80027a6 <HAL_I2C_Mem_Read+0x166>
 80027f0:	80002000 	.word	0x80002000
 80027f4:	80002400 	.word	0x80002400
 80027f8:	fe00e800 	.word	0xfe00e800

080027fc <HAL_I2CEx_ConfigAnalogFilter>:
  *                the configuration information for the specified I2Cx peripheral.
  * @param  AnalogFilter New state of the Analog filter.
  * @retval HAL status
  */
HAL_StatusTypeDef HAL_I2CEx_ConfigAnalogFilter(I2C_HandleTypeDef *hi2c, uint32_t AnalogFilter)
{
 80027fc:	b5f0      	push	{r4, r5, r6, r7, lr}
  /* Check the parameters */
  assert_param(IS_I2C_ALL_INSTANCE(hi2c->Instance));
  assert_param(IS_I2C_ANALOG_FILTER(AnalogFilter));

  if (hi2c->State == HAL_I2C_STATE_READY)
 80027fe:	0004      	movs	r4, r0
 8002800:	3441      	adds	r4, #65	@ 0x41
 8002802:	7822      	ldrb	r2, [r4, #0]
{
 8002804:	0003      	movs	r3, r0
 8002806:	000f      	movs	r7, r1
  {
    /* Process Locked */
    __HAL_LOCK(hi2c);
 8002808:	2002      	movs	r0, #2
  if (hi2c->State == HAL_I2C_STATE_READY)
 800280a:	b2d6      	uxtb	r6, r2
 800280c:	2a20      	cmp	r2, #32
 800280e:	d118      	bne.n	8002842 <HAL_I2CEx_ConfigAnalogFilter+0x46>
    __HAL_LOCK(hi2c);
 8002810:	001d      	movs	r5, r3
 8002812:	3540      	adds	r5, #64	@ 0x40
 8002814:	782a      	ldrb	r2, [r5, #0]
 8002816:	2a01      	cmp	r2, #1
 8002818:	d013      	beq.n	8002842 <HAL_I2CEx_ConfigAnalogFilter+0x46>

    hi2c->State = HAL_I2C_STATE_BUSY;
 800281a:	2224      	movs	r2, #36	@ 0x24
 800281c:	7022      	strb	r2, [r4, #0]

    /* Disable the selected I2C peripheral */
    __HAL_I2C_DISABLE(hi2c);
 800281e:	681b      	ldr	r3, [r3, #0]
 8002820:	3a23      	subs	r2, #35	@ 0x23
 8002822:	6819      	ldr	r1, [r3, #0]

    /* Reset I2Cx ANOFF bit */
    hi2c->Instance->CR1 &= ~(I2C_CR1_ANFOFF);
 8002824:	4807      	ldr	r0, [pc, #28]	@ (8002844 <HAL_I2CEx_ConfigAnalogFilter+0x48>)
    __HAL_I2C_DISABLE(hi2c);
 8002826:	4391      	bics	r1, r2
 8002828:	6019      	str	r1, [r3, #0]
    hi2c->Instance->CR1 &= ~(I2C_CR1_ANFOFF);
 800282a:	6819      	ldr	r1, [r3, #0]
 800282c:	4001      	ands	r1, r0
    __HAL_I2C_ENABLE(hi2c);

    hi2c->State = HAL_I2C_STATE_READY;

    /* Process Unlocked */
    __HAL_UNLOCK(hi2c);
 800282e:	2000      	movs	r0, #0
    hi2c->Instance->CR1 &= ~(I2C_CR1_ANFOFF);
 8002830:	6019      	str	r1, [r3, #0]
    hi2c->Instance->CR1 |= AnalogFilter;
 8002832:	6819      	ldr	r1, [r3, #0]
 8002834:	4339      	orrs	r1, r7
 8002836:	6019      	str	r1, [r3, #0]
    __HAL_I2C_ENABLE(hi2c);
 8002838:	6819      	ldr	r1, [r3, #0]
 800283a:	430a      	orrs	r2, r1
 800283c:	601a      	str	r2, [r3, #0]
    hi2c->State = HAL_I2C_STATE_READY;
 800283e:	7026      	strb	r6, [r4, #0]
    __HAL_UNLOCK(hi2c);
 8002840:	7028      	strb	r0, [r5, #0]
  }
  else
  {
    return HAL_BUSY;
  }
}
 8002842:	bdf0      	pop	{r4, r5, r6, r7, pc}
 8002844:	ffffefff 	.word	0xffffefff

08002848 <HAL_I2CEx_ConfigDigitalFilter>:

  /* Check the parameters */
  assert_param(IS_I2C_ALL_INSTANCE(hi2c->Instance));
  assert_param(IS_I2C_DIGITAL_FILTER(DigitalFilter));

  if (hi2c->State == HAL_I2C_STATE_READY)
 8002848:	0002      	movs	r2, r0
{
 800284a:	b5f0      	push	{r4, r5, r6, r7, lr}
  if (hi2c->State == HAL_I2C_STATE_READY)
 800284c:	3241      	adds	r2, #65	@ 0x41
 800284e:	7814      	ldrb	r4, [r2, #0]
{
 8002850:	0003      	movs	r3, r0
  if (hi2c->State == HAL_I2C_STATE_READY)
 8002852:	b2e5      	uxtb	r5, r4
  {
    /* Process Locked */
    __HAL_LOCK(hi2c);
 8002854:	2002      	movs	r0, #2
  if (hi2c->State == HAL_I2C_STATE_READY)
 8002856:	2c20      	cmp	r4, #32
 8002858:	d117      	bne.n	800288a <HAL_I2CEx_ConfigDigitalFilter+0x42>
    __HAL_LOCK(hi2c);
 800285a:	001c      	movs	r4, r3
 800285c:	3440      	adds	r4, #64	@ 0x40
 800285e:	7826      	ldrb	r6, [r4, #0]
 8002860:	2e01      	cmp	r6, #1
 8002862:	d012      	beq.n	800288a <HAL_I2CEx_ConfigDigitalFilter+0x42>

    hi2c->State = HAL_I2C_STATE_BUSY;
 8002864:	3022      	adds	r0, #34	@ 0x22
 8002866:	7010      	strb	r0, [r2, #0]

    /* Disable the selected I2C peripheral */
    __HAL_I2C_DISABLE(hi2c);
 8002868:	681b      	ldr	r3, [r3, #0]
 800286a:	3823      	subs	r0, #35	@ 0x23
 800286c:	681e      	ldr	r6, [r3, #0]

    /* Get the old register value */
    tmpreg = hi2c->Instance->CR1;

    /* Reset I2Cx DNF bits [11:8] */
    tmpreg &= ~(I2C_CR1_DNF);
 800286e:	4f07      	ldr	r7, [pc, #28]	@ (800288c <HAL_I2CEx_ConfigDigitalFilter+0x44>)
    __HAL_I2C_DISABLE(hi2c);
 8002870:	4386      	bics	r6, r0
 8002872:	601e      	str	r6, [r3, #0]
    tmpreg = hi2c->Instance->CR1;
 8002874:	681e      	ldr	r6, [r3, #0]

    /* Set I2Cx DNF coefficient */
    tmpreg |= DigitalFilter << 8U;
 8002876:	0209      	lsls	r1, r1, #8
    tmpreg &= ~(I2C_CR1_DNF);
 8002878:	403e      	ands	r6, r7
    tmpreg |= DigitalFilter << 8U;
 800287a:	4331      	orrs	r1, r6

    /* Store the new register value */
    hi2c->Instance->CR1 = tmpreg;
 800287c:	6019      	str	r1, [r3, #0]

    __HAL_I2C_ENABLE(hi2c);
 800287e:	6819      	ldr	r1, [r3, #0]
 8002880:	4308      	orrs	r0, r1
 8002882:	6018      	str	r0, [r3, #0]

    hi2c->State = HAL_I2C_STATE_READY;

    /* Process Unlocked */
    __HAL_UNLOCK(hi2c);
 8002884:	2000      	movs	r0, #0
    hi2c->State = HAL_I2C_STATE_READY;
 8002886:	7015      	strb	r5, [r2, #0]
    __HAL_UNLOCK(hi2c);
 8002888:	7020      	strb	r0, [r4, #0]
  }
  else
  {
    return HAL_BUSY;
  }
}
 800288a:	bdf0      	pop	{r4, r5, r6, r7, pc}
 800288c:	fffff0ff 	.word	0xfffff0ff

08002890 <HAL_RCC_OscConfig>:
            must adjust the number of CPU wait states in their application (SystemClock_Config() API)
            before calling the HAL_RCC_OscConfig() API to update the HSI48 clock division factor.
  * @retval HAL status
  */
HAL_StatusTypeDef HAL_RCC_OscConfig(const RCC_OscInitTypeDef  *RCC_OscInitStruct)
{
 8002890:	b5f8      	push	{r3, r4, r5, r6, r7, lr}
 8002892:	1e05      	subs	r5, r0, #0
  uint32_t tickstart;
  uint32_t temp_sysclksrc;

  /* Check Null pointer */
  if (RCC_OscInitStruct == NULL)
 8002894:	d101      	bne.n	800289a <HAL_RCC_OscConfig+0xa>
  {
    return HAL_ERROR;
 8002896:	2001      	movs	r0, #1
      }
    }
  }
#endif /* RCC_CR_HSIUSB48ON */
  return HAL_OK;
}
 8002898:	bdf8      	pop	{r3, r4, r5, r6, r7, pc}
  if (((RCC_OscInitStruct->OscillatorType) & RCC_OSCILLATORTYPE_HSE) == RCC_OSCILLATORTYPE_HSE)
 800289a:	6803      	ldr	r3, [r0, #0]
 800289c:	07db      	lsls	r3, r3, #31
 800289e:	d40d      	bmi.n	80028bc <HAL_RCC_OscConfig+0x2c>
  if (((RCC_OscInitStruct->OscillatorType) & RCC_OSCILLATORTYPE_HSI) == RCC_OSCILLATORTYPE_HSI)
 80028a0:	682b      	ldr	r3, [r5, #0]
 80028a2:	079b      	lsls	r3, r3, #30
 80028a4:	d44f      	bmi.n	8002946 <HAL_RCC_OscConfig+0xb6>
  if (((RCC_OscInitStruct->OscillatorType) & RCC_OSCILLATORTYPE_LSI) == RCC_OSCILLATORTYPE_LSI)
 80028a6:	682b      	ldr	r3, [r5, #0]
 80028a8:	071b      	lsls	r3, r3, #28
 80028aa:	d500      	bpl.n	80028ae <HAL_RCC_OscConfig+0x1e>
 80028ac:	e0a4      	b.n	80029f8 <HAL_RCC_OscConfig+0x168>
  if (((RCC_OscInitStruct->OscillatorType) & RCC_OSCILLATORTYPE_LSE) == RCC_OSCILLATORTYPE_LSE)
 80028ae:	2204      	movs	r2, #4
 80028b0:	682b      	ldr	r3, [r5, #0]
 80028b2:	4213      	tst	r3, r2
 80028b4:	d000      	beq.n	80028b8 <HAL_RCC_OscConfig+0x28>
 80028b6:	e0cf      	b.n	8002a58 <HAL_RCC_OscConfig+0x1c8>
  return HAL_OK;
 80028b8:	2000      	movs	r0, #0
 80028ba:	e7ed      	b.n	8002898 <HAL_RCC_OscConfig+0x8>
    temp_sysclksrc = __HAL_RCC_GET_SYSCLK_SOURCE();
 80028bc:	2138      	movs	r1, #56	@ 0x38
 80028be:	4c85      	ldr	r4, [pc, #532]	@ (8002ad4 <HAL_RCC_OscConfig+0x244>)
      if (RCC_OscInitStruct->HSEState == RCC_HSE_OFF)
 80028c0:	6843      	ldr	r3, [r0, #4]
    temp_sysclksrc = __HAL_RCC_GET_SYSCLK_SOURCE();
 80028c2:	68a2      	ldr	r2, [r4, #8]
 80028c4:	400a      	ands	r2, r1
    if (temp_sysclksrc == RCC_CFGR_SWS_HSE)
 80028c6:	2a08      	cmp	r2, #8
 80028c8:	d102      	bne.n	80028d0 <HAL_RCC_OscConfig+0x40>
      if (RCC_OscInitStruct->HSEState == RCC_HSE_OFF)
 80028ca:	2b00      	cmp	r3, #0
 80028cc:	d1e8      	bne.n	80028a0 <HAL_RCC_OscConfig+0x10>
 80028ce:	e7e2      	b.n	8002896 <HAL_RCC_OscConfig+0x6>
      __HAL_RCC_HSE_CONFIG(RCC_OscInitStruct->HSEState);
 80028d0:	2280      	movs	r2, #128	@ 0x80
 80028d2:	0252      	lsls	r2, r2, #9
 80028d4:	4293      	cmp	r3, r2
 80028d6:	d111      	bne.n	80028fc <HAL_RCC_OscConfig+0x6c>
 80028d8:	6822      	ldr	r2, [r4, #0]
 80028da:	4313      	orrs	r3, r2
 80028dc:	6023      	str	r3, [r4, #0]
        tickstart = HAL_GetTick();
 80028de:	f7ff f803 	bl	80018e8 <HAL_GetTick>
        while (READ_BIT(RCC->CR, RCC_CR_HSERDY) == 0U)
 80028e2:	2780      	movs	r7, #128	@ 0x80
        tickstart = HAL_GetTick();
 80028e4:	0006      	movs	r6, r0
        while (READ_BIT(RCC->CR, RCC_CR_HSERDY) == 0U)
 80028e6:	02bf      	lsls	r7, r7, #10
 80028e8:	6823      	ldr	r3, [r4, #0]
 80028ea:	423b      	tst	r3, r7
 80028ec:	d1d8      	bne.n	80028a0 <HAL_RCC_OscConfig+0x10>
          if ((HAL_GetTick() - tickstart) > RCC_HSE_TIMEOUT_VALUE)
 80028ee:	f7fe fffb 	bl	80018e8 <HAL_GetTick>
 80028f2:	1b80      	subs	r0, r0, r6
 80028f4:	2864      	cmp	r0, #100	@ 0x64
 80028f6:	d9f7      	bls.n	80028e8 <HAL_RCC_OscConfig+0x58>
            return HAL_TIMEOUT;
 80028f8:	2003      	movs	r0, #3
 80028fa:	e7cd      	b.n	8002898 <HAL_RCC_OscConfig+0x8>
      __HAL_RCC_HSE_CONFIG(RCC_OscInitStruct->HSEState);
 80028fc:	21a0      	movs	r1, #160	@ 0xa0
 80028fe:	02c9      	lsls	r1, r1, #11
 8002900:	428b      	cmp	r3, r1
 8002902:	d108      	bne.n	8002916 <HAL_RCC_OscConfig+0x86>
 8002904:	2380      	movs	r3, #128	@ 0x80
 8002906:	6821      	ldr	r1, [r4, #0]
 8002908:	02db      	lsls	r3, r3, #11
 800290a:	430b      	orrs	r3, r1
 800290c:	6023      	str	r3, [r4, #0]
 800290e:	6823      	ldr	r3, [r4, #0]
 8002910:	431a      	orrs	r2, r3
 8002912:	6022      	str	r2, [r4, #0]
      if (RCC_OscInitStruct->HSEState != RCC_HSE_OFF)
 8002914:	e7e3      	b.n	80028de <HAL_RCC_OscConfig+0x4e>
      __HAL_RCC_HSE_CONFIG(RCC_OscInitStruct->HSEState);
 8002916:	6822      	ldr	r2, [r4, #0]
 8002918:	496f      	ldr	r1, [pc, #444]	@ (8002ad8 <HAL_RCC_OscConfig+0x248>)
 800291a:	400a      	ands	r2, r1
 800291c:	6022      	str	r2, [r4, #0]
 800291e:	6822      	ldr	r2, [r4, #0]
 8002920:	496e      	ldr	r1, [pc, #440]	@ (8002adc <HAL_RCC_OscConfig+0x24c>)
 8002922:	400a      	ands	r2, r1
 8002924:	6022      	str	r2, [r4, #0]
      if (RCC_OscInitStruct->HSEState != RCC_HSE_OFF)
 8002926:	2b00      	cmp	r3, #0
 8002928:	d1d9      	bne.n	80028de <HAL_RCC_OscConfig+0x4e>
        tickstart = HAL_GetTick();
 800292a:	f7fe ffdd 	bl	80018e8 <HAL_GetTick>
        while (READ_BIT(RCC->CR, RCC_CR_HSERDY) != 0U)
 800292e:	2780      	movs	r7, #128	@ 0x80
        tickstart = HAL_GetTick();
 8002930:	0006      	movs	r6, r0
        while (READ_BIT(RCC->CR, RCC_CR_HSERDY) != 0U)
 8002932:	02bf      	lsls	r7, r7, #10
 8002934:	6823      	ldr	r3, [r4, #0]
 8002936:	423b      	tst	r3, r7
 8002938:	d0b2      	beq.n	80028a0 <HAL_RCC_OscConfig+0x10>
          if ((HAL_GetTick() - tickstart) > RCC_HSE_TIMEOUT_VALUE)
 800293a:	f7fe ffd5 	bl	80018e8 <HAL_GetTick>
 800293e:	1b80      	subs	r0, r0, r6
 8002940:	2864      	cmp	r0, #100	@ 0x64
 8002942:	d9f7      	bls.n	8002934 <HAL_RCC_OscConfig+0xa4>
 8002944:	e7d8      	b.n	80028f8 <HAL_RCC_OscConfig+0x68>
    temp_sysclksrc = __HAL_RCC_GET_SYSCLK_SOURCE();
 8002946:	2238      	movs	r2, #56	@ 0x38
 8002948:	4c62      	ldr	r4, [pc, #392]	@ (8002ad4 <HAL_RCC_OscConfig+0x244>)
      if (RCC_OscInitStruct->HSIState == RCC_HSI_OFF)
 800294a:	68eb      	ldr	r3, [r5, #12]
    temp_sysclksrc = __HAL_RCC_GET_SYSCLK_SOURCE();
 800294c:	68a1      	ldr	r1, [r4, #8]
    if (temp_sysclksrc == RCC_CFGR_SWS_HSI)
 800294e:	4211      	tst	r1, r2
 8002950:	d11c      	bne.n	800298c <HAL_RCC_OscConfig+0xfc>
      if (RCC_OscInitStruct->HSIState == RCC_HSI_OFF)
 8002952:	2b00      	cmp	r3, #0
 8002954:	d09f      	beq.n	8002896 <HAL_RCC_OscConfig+0x6>
        __HAL_RCC_HSI_CALIBRATIONVALUE_ADJUST(RCC_OscInitStruct->HSICalibrationValue);
 8002956:	6862      	ldr	r2, [r4, #4]
 8002958:	696b      	ldr	r3, [r5, #20]
 800295a:	4961      	ldr	r1, [pc, #388]	@ (8002ae0 <HAL_RCC_OscConfig+0x250>)
 800295c:	021b      	lsls	r3, r3, #8
 800295e:	400a      	ands	r2, r1
 8002960:	4313      	orrs	r3, r2
 8002962:	6063      	str	r3, [r4, #4]
          __HAL_RCC_HSI_CONFIG(RCC_OscInitStruct->HSIDiv);
 8002964:	6823      	ldr	r3, [r4, #0]
 8002966:	4a5f      	ldr	r2, [pc, #380]	@ (8002ae4 <HAL_RCC_OscConfig+0x254>)
          SystemCoreClock = (HSI_VALUE / (1UL << ((READ_BIT(RCC->CR, RCC_CR_HSIDIV)) >> RCC_CR_HSIDIV_Pos)));
 8002968:	495f      	ldr	r1, [pc, #380]	@ (8002ae8 <HAL_RCC_OscConfig+0x258>)
          __HAL_RCC_HSI_CONFIG(RCC_OscInitStruct->HSIDiv);
 800296a:	4013      	ands	r3, r2
 800296c:	692a      	ldr	r2, [r5, #16]
 800296e:	4313      	orrs	r3, r2
 8002970:	6023      	str	r3, [r4, #0]
          SystemCoreClock = (HSI_VALUE / (1UL << ((READ_BIT(RCC->CR, RCC_CR_HSIDIV)) >> RCC_CR_HSIDIV_Pos)));
 8002972:	6823      	ldr	r3, [r4, #0]
 8002974:	4a5d      	ldr	r2, [pc, #372]	@ (8002aec <HAL_RCC_OscConfig+0x25c>)
 8002976:	049b      	lsls	r3, r3, #18
 8002978:	0f5b      	lsrs	r3, r3, #29
 800297a:	40da      	lsrs	r2, r3
        if (HAL_InitTick(uwTickPrio) != HAL_OK)
 800297c:	4b5c      	ldr	r3, [pc, #368]	@ (8002af0 <HAL_RCC_OscConfig+0x260>)
          SystemCoreClock = (HSI_VALUE / (1UL << ((READ_BIT(RCC->CR, RCC_CR_HSIDIV)) >> RCC_CR_HSIDIV_Pos)));
 800297e:	600a      	str	r2, [r1, #0]
        if (HAL_InitTick(uwTickPrio) != HAL_OK)
 8002980:	6818      	ldr	r0, [r3, #0]
 8002982:	f7fe ff7d 	bl	8001880 <HAL_InitTick>
 8002986:	2800      	cmp	r0, #0
 8002988:	d08d      	beq.n	80028a6 <HAL_RCC_OscConfig+0x16>
 800298a:	e784      	b.n	8002896 <HAL_RCC_OscConfig+0x6>
      if (RCC_OscInitStruct->HSIState != RCC_HSI_OFF)
 800298c:	2b00      	cmp	r3, #0
 800298e:	d020      	beq.n	80029d2 <HAL_RCC_OscConfig+0x142>
        __HAL_RCC_HSI_CONFIG(RCC_OscInitStruct->HSIDiv);
 8002990:	6823      	ldr	r3, [r4, #0]
 8002992:	4a54      	ldr	r2, [pc, #336]	@ (8002ae4 <HAL_RCC_OscConfig+0x254>)
        while (READ_BIT(RCC->CR, RCC_CR_HSIRDY) == 0U)
 8002994:	2780      	movs	r7, #128	@ 0x80
        __HAL_RCC_HSI_CONFIG(RCC_OscInitStruct->HSIDiv);
 8002996:	4013      	ands	r3, r2
 8002998:	692a      	ldr	r2, [r5, #16]
        while (READ_BIT(RCC->CR, RCC_CR_HSIRDY) == 0U)
 800299a:	00ff      	lsls	r7, r7, #3
        __HAL_RCC_HSI_CONFIG(RCC_OscInitStruct->HSIDiv);
 800299c:	4313      	orrs	r3, r2
 800299e:	6023      	str	r3, [r4, #0]
        __HAL_RCC_HSI_ENABLE();
 80029a0:	2380      	movs	r3, #128	@ 0x80
 80029a2:	6822      	ldr	r2, [r4, #0]
 80029a4:	005b      	lsls	r3, r3, #1
 80029a6:	4313      	orrs	r3, r2
 80029a8:	6023      	str	r3, [r4, #0]
        tickstart = HAL_GetTick();
 80029aa:	f7fe ff9d 	bl	80018e8 <HAL_GetTick>
 80029ae:	0006      	movs	r6, r0
        while (READ_BIT(RCC->CR, RCC_CR_HSIRDY) == 0U)
 80029b0:	6823      	ldr	r3, [r4, #0]
 80029b2:	423b      	tst	r3, r7
 80029b4:	d007      	beq.n	80029c6 <HAL_RCC_OscConfig+0x136>
        __HAL_RCC_HSI_CALIBRATIONVALUE_ADJUST(RCC_OscInitStruct->HSICalibrationValue);
 80029b6:	6862      	ldr	r2, [r4, #4]
 80029b8:	696b      	ldr	r3, [r5, #20]
 80029ba:	4949      	ldr	r1, [pc, #292]	@ (8002ae0 <HAL_RCC_OscConfig+0x250>)
 80029bc:	021b      	lsls	r3, r3, #8
 80029be:	400a      	ands	r2, r1
 80029c0:	4313      	orrs	r3, r2
 80029c2:	6063      	str	r3, [r4, #4]
 80029c4:	e76f      	b.n	80028a6 <HAL_RCC_OscConfig+0x16>
          if ((HAL_GetTick() - tickstart) > RCC_HSI_TIMEOUT_VALUE)
 80029c6:	f7fe ff8f 	bl	80018e8 <HAL_GetTick>
 80029ca:	1b80      	subs	r0, r0, r6
 80029cc:	2802      	cmp	r0, #2
 80029ce:	d9ef      	bls.n	80029b0 <HAL_RCC_OscConfig+0x120>
 80029d0:	e792      	b.n	80028f8 <HAL_RCC_OscConfig+0x68>
        __HAL_RCC_HSI_DISABLE();
 80029d2:	6823      	ldr	r3, [r4, #0]
 80029d4:	4a47      	ldr	r2, [pc, #284]	@ (8002af4 <HAL_RCC_OscConfig+0x264>)
        while (READ_BIT(RCC->CR, RCC_CR_HSIRDY) != 0U)
 80029d6:	2780      	movs	r7, #128	@ 0x80
        __HAL_RCC_HSI_DISABLE();
 80029d8:	4013      	ands	r3, r2
 80029da:	6023      	str	r3, [r4, #0]
        tickstart = HAL_GetTick();
 80029dc:	f7fe ff84 	bl	80018e8 <HAL_GetTick>
 80029e0:	0006      	movs	r6, r0
        while (READ_BIT(RCC->CR, RCC_CR_HSIRDY) != 0U)
 80029e2:	00ff      	lsls	r7, r7, #3
 80029e4:	6823      	ldr	r3, [r4, #0]
 80029e6:	423b      	tst	r3, r7
 80029e8:	d100      	bne.n	80029ec <HAL_RCC_OscConfig+0x15c>
 80029ea:	e75c      	b.n	80028a6 <HAL_RCC_OscConfig+0x16>
          if ((HAL_GetTick() - tickstart) > RCC_HSI_TIMEOUT_VALUE)
 80029ec:	f7fe ff7c 	bl	80018e8 <HAL_GetTick>
 80029f0:	1b80      	subs	r0, r0, r6
 80029f2:	2802      	cmp	r0, #2
 80029f4:	d9f6      	bls.n	80029e4 <HAL_RCC_OscConfig+0x154>
 80029f6:	e77f      	b.n	80028f8 <HAL_RCC_OscConfig+0x68>
    if (__HAL_RCC_GET_SYSCLK_SOURCE() == RCC_CFGR_SWS_LSI)
 80029f8:	2138      	movs	r1, #56	@ 0x38
 80029fa:	4c36      	ldr	r4, [pc, #216]	@ (8002ad4 <HAL_RCC_OscConfig+0x244>)
      if (RCC_OscInitStruct->LSIState == RCC_LSI_OFF)
 80029fc:	69aa      	ldr	r2, [r5, #24]
    if (__HAL_RCC_GET_SYSCLK_SOURCE() == RCC_CFGR_SWS_LSI)
 80029fe:	68a3      	ldr	r3, [r4, #8]
 8002a00:	400b      	ands	r3, r1
 8002a02:	2b18      	cmp	r3, #24
 8002a04:	d103      	bne.n	8002a0e <HAL_RCC_OscConfig+0x17e>
      if (RCC_OscInitStruct->LSIState == RCC_LSI_OFF)
 8002a06:	2a00      	cmp	r2, #0
 8002a08:	d000      	beq.n	8002a0c <HAL_RCC_OscConfig+0x17c>
 8002a0a:	e750      	b.n	80028ae <HAL_RCC_OscConfig+0x1e>
 8002a0c:	e743      	b.n	8002896 <HAL_RCC_OscConfig+0x6>
      if (RCC_OscInitStruct->LSIState != RCC_LSI_OFF)
 8002a0e:	2301      	movs	r3, #1
 8002a10:	2a00      	cmp	r2, #0
 8002a12:	d010      	beq.n	8002a36 <HAL_RCC_OscConfig+0x1a6>
        __HAL_RCC_LSI_ENABLE();
 8002a14:	6e22      	ldr	r2, [r4, #96]	@ 0x60
        while (READ_BIT(RCC->CSR2, RCC_CSR2_LSIRDY) == 0U)
 8002a16:	2702      	movs	r7, #2
        __HAL_RCC_LSI_ENABLE();
 8002a18:	4313      	orrs	r3, r2
 8002a1a:	6623      	str	r3, [r4, #96]	@ 0x60
        tickstart = HAL_GetTick();
 8002a1c:	f7fe ff64 	bl	80018e8 <HAL_GetTick>
 8002a20:	0006      	movs	r6, r0
        while (READ_BIT(RCC->CSR2, RCC_CSR2_LSIRDY) == 0U)
 8002a22:	6e23      	ldr	r3, [r4, #96]	@ 0x60
 8002a24:	423b      	tst	r3, r7
 8002a26:	d000      	beq.n	8002a2a <HAL_RCC_OscConfig+0x19a>
 8002a28:	e741      	b.n	80028ae <HAL_RCC_OscConfig+0x1e>
          if ((HAL_GetTick() - tickstart) > RCC_LSI_TIMEOUT_VALUE)
 8002a2a:	f7fe ff5d 	bl	80018e8 <HAL_GetTick>
 8002a2e:	1b80      	subs	r0, r0, r6
 8002a30:	2802      	cmp	r0, #2
 8002a32:	d9f6      	bls.n	8002a22 <HAL_RCC_OscConfig+0x192>
 8002a34:	e760      	b.n	80028f8 <HAL_RCC_OscConfig+0x68>
        __HAL_RCC_LSI_DISABLE();
 8002a36:	6e22      	ldr	r2, [r4, #96]	@ 0x60
        while (READ_BIT(RCC->CSR2, RCC_CSR2_LSIRDY) != 0U)
 8002a38:	2702      	movs	r7, #2
        __HAL_RCC_LSI_DISABLE();
 8002a3a:	439a      	bics	r2, r3
 8002a3c:	6622      	str	r2, [r4, #96]	@ 0x60
        tickstart = HAL_GetTick();
 8002a3e:	f7fe ff53 	bl	80018e8 <HAL_GetTick>
 8002a42:	0006      	movs	r6, r0
        while (READ_BIT(RCC->CSR2, RCC_CSR2_LSIRDY) != 0U)
 8002a44:	6e23      	ldr	r3, [r4, #96]	@ 0x60
 8002a46:	423b      	tst	r3, r7
 8002a48:	d100      	bne.n	8002a4c <HAL_RCC_OscConfig+0x1bc>
 8002a4a:	e730      	b.n	80028ae <HAL_RCC_OscConfig+0x1e>
          if ((HAL_GetTick() - tickstart) > RCC_LSI_TIMEOUT_VALUE)
 8002a4c:	f7fe ff4c 	bl	80018e8 <HAL_GetTick>
 8002a50:	1b80      	subs	r0, r0, r6
 8002a52:	2802      	cmp	r0, #2
 8002a54:	d9f6      	bls.n	8002a44 <HAL_RCC_OscConfig+0x1b4>
 8002a56:	e74f      	b.n	80028f8 <HAL_RCC_OscConfig+0x68>
    if (__HAL_RCC_GET_SYSCLK_SOURCE() == RCC_CFGR_SWS_LSE)
 8002a58:	2138      	movs	r1, #56	@ 0x38
 8002a5a:	4c1e      	ldr	r4, [pc, #120]	@ (8002ad4 <HAL_RCC_OscConfig+0x244>)
      if (RCC_OscInitStruct->LSEState == RCC_LSE_OFF)
 8002a5c:	68a8      	ldr	r0, [r5, #8]
    if (__HAL_RCC_GET_SYSCLK_SOURCE() == RCC_CFGR_SWS_LSE)
 8002a5e:	68a3      	ldr	r3, [r4, #8]
 8002a60:	400b      	ands	r3, r1
 8002a62:	2b20      	cmp	r3, #32
 8002a64:	d103      	bne.n	8002a6e <HAL_RCC_OscConfig+0x1de>
      if (RCC_OscInitStruct->LSEState == RCC_LSE_OFF)
 8002a66:	4243      	negs	r3, r0
 8002a68:	4158      	adcs	r0, r3
 8002a6a:	b2c0      	uxtb	r0, r0
 8002a6c:	e714      	b.n	8002898 <HAL_RCC_OscConfig+0x8>
      __HAL_RCC_LSE_CONFIG(RCC_OscInitStruct->LSEState);
 8002a6e:	6de3      	ldr	r3, [r4, #92]	@ 0x5c
 8002a70:	2801      	cmp	r0, #1
 8002a72:	d110      	bne.n	8002a96 <HAL_RCC_OscConfig+0x206>
 8002a74:	4303      	orrs	r3, r0
 8002a76:	65e3      	str	r3, [r4, #92]	@ 0x5c
        tickstart = HAL_GetTick();
 8002a78:	f7fe ff36 	bl	80018e8 <HAL_GetTick>
        while (READ_BIT(RCC->CSR1, RCC_CSR1_LSERDY) == 0U)
 8002a7c:	2602      	movs	r6, #2
        tickstart = HAL_GetTick();
 8002a7e:	0005      	movs	r5, r0
        while (READ_BIT(RCC->CSR1, RCC_CSR1_LSERDY) == 0U)
 8002a80:	6de3      	ldr	r3, [r4, #92]	@ 0x5c
 8002a82:	4233      	tst	r3, r6
 8002a84:	d000      	beq.n	8002a88 <HAL_RCC_OscConfig+0x1f8>
 8002a86:	e717      	b.n	80028b8 <HAL_RCC_OscConfig+0x28>
          if ((HAL_GetTick() - tickstart) > RCC_LSE_TIMEOUT_VALUE)
 8002a88:	f7fe ff2e 	bl	80018e8 <HAL_GetTick>
 8002a8c:	4b1a      	ldr	r3, [pc, #104]	@ (8002af8 <HAL_RCC_OscConfig+0x268>)
 8002a8e:	1b40      	subs	r0, r0, r5
 8002a90:	4298      	cmp	r0, r3
 8002a92:	d9f5      	bls.n	8002a80 <HAL_RCC_OscConfig+0x1f0>
 8002a94:	e730      	b.n	80028f8 <HAL_RCC_OscConfig+0x68>
      __HAL_RCC_LSE_CONFIG(RCC_OscInitStruct->LSEState);
 8002a96:	2805      	cmp	r0, #5
 8002a98:	d105      	bne.n	8002aa6 <HAL_RCC_OscConfig+0x216>
 8002a9a:	4313      	orrs	r3, r2
 8002a9c:	65e3      	str	r3, [r4, #92]	@ 0x5c
 8002a9e:	2301      	movs	r3, #1
 8002aa0:	6de2      	ldr	r2, [r4, #92]	@ 0x5c
 8002aa2:	4313      	orrs	r3, r2
 8002aa4:	e7e7      	b.n	8002a76 <HAL_RCC_OscConfig+0x1e6>
 8002aa6:	2101      	movs	r1, #1
 8002aa8:	438b      	bics	r3, r1
 8002aaa:	65e3      	str	r3, [r4, #92]	@ 0x5c
 8002aac:	6de3      	ldr	r3, [r4, #92]	@ 0x5c
 8002aae:	4393      	bics	r3, r2
 8002ab0:	65e3      	str	r3, [r4, #92]	@ 0x5c
      if (RCC_OscInitStruct->LSEState != RCC_LSE_OFF)
 8002ab2:	2800      	cmp	r0, #0
 8002ab4:	d1e0      	bne.n	8002a78 <HAL_RCC_OscConfig+0x1e8>
        tickstart = HAL_GetTick();
 8002ab6:	f7fe ff17 	bl	80018e8 <HAL_GetTick>
        while (READ_BIT(RCC->CSR1, RCC_CSR1_LSERDY) != 0U)
 8002aba:	2602      	movs	r6, #2
        tickstart = HAL_GetTick();
 8002abc:	0005      	movs	r5, r0
        while (READ_BIT(RCC->CSR1, RCC_CSR1_LSERDY) != 0U)
 8002abe:	6de3      	ldr	r3, [r4, #92]	@ 0x5c
 8002ac0:	4233      	tst	r3, r6
 8002ac2:	d100      	bne.n	8002ac6 <HAL_RCC_OscConfig+0x236>
 8002ac4:	e6f8      	b.n	80028b8 <HAL_RCC_OscConfig+0x28>
          if ((HAL_GetTick() - tickstart) > RCC_LSE_TIMEOUT_VALUE)
 8002ac6:	f7fe ff0f 	bl	80018e8 <HAL_GetTick>
 8002aca:	4b0b      	ldr	r3, [pc, #44]	@ (8002af8 <HAL_RCC_OscConfig+0x268>)
 8002acc:	1b40      	subs	r0, r0, r5
 8002ace:	4298      	cmp	r0, r3
 8002ad0:	d9f5      	bls.n	8002abe <HAL_RCC_OscConfig+0x22e>
 8002ad2:	e711      	b.n	80028f8 <HAL_RCC_OscConfig+0x68>
 8002ad4:	40021000 	.word	0x40021000
 8002ad8:	fffeffff 	.word	0xfffeffff
 8002adc:	fffbffff 	.word	0xfffbffff
 8002ae0:	ffff80ff 	.word	0xffff80ff
 8002ae4:	ffffc7ff 	.word	0xffffc7ff
 8002ae8:	20000000 	.word	0x20000000
 8002aec:	02dc6c00 	.word	0x02dc6c00
 8002af0:	20000008 	.word	0x20000008
 8002af4:	fffffeff 	.word	0xfffffeff
 8002af8:	00001388 	.word	0x00001388

08002afc <HAL_RCC_GetSysClockFreq>:
  uint32_t sysclockfreq;
#if defined(RCC_CR_SYSDIV)
  uint32_t sysclockdiv = (uint32_t)(((RCC->CR & RCC_CR_SYSDIV) >> RCC_CR_SYSDIV_Pos) + 1U);
#endif /* RCC_CR_SYSDIV */

  if (__HAL_RCC_GET_SYSCLK_SOURCE() == RCC_CFGR_SWS_HSI)
 8002afc:	2238      	movs	r2, #56	@ 0x38
 8002afe:	4b0f      	ldr	r3, [pc, #60]	@ (8002b3c <HAL_RCC_GetSysClockFreq+0x40>)
 8002b00:	6899      	ldr	r1, [r3, #8]
 8002b02:	4211      	tst	r1, r2
 8002b04:	d105      	bne.n	8002b12 <HAL_RCC_GetSysClockFreq+0x16>
  {
    /* HSISYS can be derived for HSI48 */
    hsidiv = (1UL << ((READ_BIT(RCC->CR, RCC_CR_HSIDIV)) >> RCC_CR_HSIDIV_Pos));
 8002b06:	681b      	ldr	r3, [r3, #0]

    /* HSI used as system clock source */
    sysclockfreq = (HSI_VALUE / hsidiv);
 8002b08:	480d      	ldr	r0, [pc, #52]	@ (8002b40 <HAL_RCC_GetSysClockFreq+0x44>)
    hsidiv = (1UL << ((READ_BIT(RCC->CR, RCC_CR_HSIDIV)) >> RCC_CR_HSIDIV_Pos));
 8002b0a:	049b      	lsls	r3, r3, #18
 8002b0c:	0f5b      	lsrs	r3, r3, #29
    sysclockfreq = (HSI_VALUE / hsidiv);
 8002b0e:	40d8      	lsrs	r0, r3
  }
#if defined(RCC_CR_SYSDIV)
  sysclockfreq = sysclockfreq / sysclockdiv;
#endif /* RCC_CR_SYSDIV */
  return sysclockfreq;
}
 8002b10:	4770      	bx	lr
  else if (__HAL_RCC_GET_SYSCLK_SOURCE() == RCC_CFGR_SWS_HSE)
 8002b12:	6899      	ldr	r1, [r3, #8]
 8002b14:	4011      	ands	r1, r2
 8002b16:	2908      	cmp	r1, #8
 8002b18:	d00b      	beq.n	8002b32 <HAL_RCC_GetSysClockFreq+0x36>
  else if (__HAL_RCC_GET_SYSCLK_SOURCE() == RCC_CFGR_SWS_LSE)
 8002b1a:	6899      	ldr	r1, [r3, #8]
 8002b1c:	4011      	ands	r1, r2
 8002b1e:	2920      	cmp	r1, #32
 8002b20:	d009      	beq.n	8002b36 <HAL_RCC_GetSysClockFreq+0x3a>
  else if (__HAL_RCC_GET_SYSCLK_SOURCE() == RCC_CFGR_SWS_LSI)
 8002b22:	689b      	ldr	r3, [r3, #8]
    sysclockfreq = 0U;
 8002b24:	2000      	movs	r0, #0
  else if (__HAL_RCC_GET_SYSCLK_SOURCE() == RCC_CFGR_SWS_LSI)
 8002b26:	4013      	ands	r3, r2
 8002b28:	2b18      	cmp	r3, #24
 8002b2a:	d1f1      	bne.n	8002b10 <HAL_RCC_GetSysClockFreq+0x14>
    sysclockfreq = LSI_VALUE;
 8002b2c:	20fa      	movs	r0, #250	@ 0xfa
 8002b2e:	01c0      	lsls	r0, r0, #7
 8002b30:	e7ee      	b.n	8002b10 <HAL_RCC_GetSysClockFreq+0x14>
    sysclockfreq = HSE_VALUE;
 8002b32:	4803      	ldr	r0, [pc, #12]	@ (8002b40 <HAL_RCC_GetSysClockFreq+0x44>)
 8002b34:	e7ec      	b.n	8002b10 <HAL_RCC_GetSysClockFreq+0x14>
    sysclockfreq = LSE_VALUE;
 8002b36:	2080      	movs	r0, #128	@ 0x80
 8002b38:	0200      	lsls	r0, r0, #8
 8002b3a:	e7e9      	b.n	8002b10 <HAL_RCC_GetSysClockFreq+0x14>
 8002b3c:	40021000 	.word	0x40021000
 8002b40:	02dc6c00 	.word	0x02dc6c00

08002b44 <HAL_RCC_ClockConfig>:
{
 8002b44:	b5f7      	push	{r0, r1, r2, r4, r5, r6, r7, lr}
 8002b46:	0004      	movs	r4, r0
 8002b48:	000d      	movs	r5, r1
  if (RCC_ClkInitStruct == NULL)
 8002b4a:	2800      	cmp	r0, #0
 8002b4c:	d101      	bne.n	8002b52 <HAL_RCC_ClockConfig+0xe>
    return HAL_ERROR;
 8002b4e:	2001      	movs	r0, #1
}
 8002b50:	bdfe      	pop	{r1, r2, r3, r4, r5, r6, r7, pc}
  if (FLatency > __HAL_FLASH_GET_LATENCY())
 8002b52:	2707      	movs	r7, #7
 8002b54:	4e48      	ldr	r6, [pc, #288]	@ (8002c78 <HAL_RCC_ClockConfig+0x134>)
 8002b56:	6833      	ldr	r3, [r6, #0]
 8002b58:	403b      	ands	r3, r7
 8002b5a:	428b      	cmp	r3, r1
 8002b5c:	d32a      	bcc.n	8002bb4 <HAL_RCC_ClockConfig+0x70>
  if (((RCC_ClkInitStruct->ClockType) & RCC_CLOCKTYPE_HCLK) == RCC_CLOCKTYPE_HCLK)
 8002b5e:	6822      	ldr	r2, [r4, #0]
 8002b60:	0793      	lsls	r3, r2, #30
 8002b62:	d43b      	bmi.n	8002bdc <HAL_RCC_ClockConfig+0x98>
  if (((RCC_ClkInitStruct->ClockType) & RCC_CLOCKTYPE_SYSCLK) == RCC_CLOCKTYPE_SYSCLK)
 8002b64:	07d2      	lsls	r2, r2, #31
 8002b66:	d44a      	bmi.n	8002bfe <HAL_RCC_ClockConfig+0xba>
  if (FLatency < __HAL_FLASH_GET_LATENCY())
 8002b68:	2707      	movs	r7, #7
 8002b6a:	6833      	ldr	r3, [r6, #0]
 8002b6c:	403b      	ands	r3, r7
 8002b6e:	42ab      	cmp	r3, r5
 8002b70:	d90a      	bls.n	8002b88 <HAL_RCC_ClockConfig+0x44>
    __HAL_FLASH_SET_LATENCY(FLatency);
 8002b72:	6833      	ldr	r3, [r6, #0]
 8002b74:	43bb      	bics	r3, r7
 8002b76:	432b      	orrs	r3, r5
 8002b78:	6033      	str	r3, [r6, #0]
    tickstart = HAL_GetTick();
 8002b7a:	f7fe feb5 	bl	80018e8 <HAL_GetTick>
 8002b7e:	9001      	str	r0, [sp, #4]
    while ((FLASH->ACR & FLASH_ACR_LATENCY) != FLatency)
 8002b80:	6833      	ldr	r3, [r6, #0]
 8002b82:	403b      	ands	r3, r7
 8002b84:	42ab      	cmp	r3, r5
 8002b86:	d167      	bne.n	8002c58 <HAL_RCC_ClockConfig+0x114>
  if (((RCC_ClkInitStruct->ClockType) & RCC_CLOCKTYPE_PCLK1) == RCC_CLOCKTYPE_PCLK1)
 8002b88:	6823      	ldr	r3, [r4, #0]
 8002b8a:	4d3c      	ldr	r5, [pc, #240]	@ (8002c7c <HAL_RCC_ClockConfig+0x138>)
 8002b8c:	075b      	lsls	r3, r3, #29
 8002b8e:	d46b      	bmi.n	8002c68 <HAL_RCC_ClockConfig+0x124>
  SystemCoreClock = (HAL_RCC_GetSysClockFreq() >> ((AHBPrescTable[(RCC->CFGR & RCC_CFGR_HPRE) \
 8002b90:	f7ff ffb4 	bl	8002afc <HAL_RCC_GetSysClockFreq>
 8002b94:	68ab      	ldr	r3, [r5, #8]
 8002b96:	493a      	ldr	r1, [pc, #232]	@ (8002c80 <HAL_RCC_ClockConfig+0x13c>)
                                                                  >> RCC_CFGR_HPRE_Pos]) & 0x1FU));
 8002b98:	051b      	lsls	r3, r3, #20
 8002b9a:	0f1b      	lsrs	r3, r3, #28
  SystemCoreClock = (HAL_RCC_GetSysClockFreq() >> ((AHBPrescTable[(RCC->CFGR & RCC_CFGR_HPRE) \
 8002b9c:	009b      	lsls	r3, r3, #2
                                                                  >> RCC_CFGR_HPRE_Pos]) & 0x1FU));
 8002b9e:	585b      	ldr	r3, [r3, r1]
 8002ba0:	211f      	movs	r1, #31
 8002ba2:	400b      	ands	r3, r1
  SystemCoreClock = (HAL_RCC_GetSysClockFreq() >> ((AHBPrescTable[(RCC->CFGR & RCC_CFGR_HPRE) \
 8002ba4:	40d8      	lsrs	r0, r3
 8002ba6:	4a37      	ldr	r2, [pc, #220]	@ (8002c84 <HAL_RCC_ClockConfig+0x140>)
  return HAL_InitTick(uwTickPrio);
 8002ba8:	4b37      	ldr	r3, [pc, #220]	@ (8002c88 <HAL_RCC_ClockConfig+0x144>)
  SystemCoreClock = (HAL_RCC_GetSysClockFreq() >> ((AHBPrescTable[(RCC->CFGR & RCC_CFGR_HPRE) \
 8002baa:	6010      	str	r0, [r2, #0]
  return HAL_InitTick(uwTickPrio);
 8002bac:	6818      	ldr	r0, [r3, #0]
 8002bae:	f7fe fe67 	bl	8001880 <HAL_InitTick>
 8002bb2:	e7cd      	b.n	8002b50 <HAL_RCC_ClockConfig+0xc>
    __HAL_FLASH_SET_LATENCY(FLatency);
 8002bb4:	6833      	ldr	r3, [r6, #0]
 8002bb6:	43bb      	bics	r3, r7
 8002bb8:	430b      	orrs	r3, r1
 8002bba:	6033      	str	r3, [r6, #0]
    tickstart = HAL_GetTick();
 8002bbc:	f7fe fe94 	bl	80018e8 <HAL_GetTick>
 8002bc0:	9001      	str	r0, [sp, #4]
    while ((FLASH->ACR & FLASH_ACR_LATENCY) != FLatency)
 8002bc2:	6833      	ldr	r3, [r6, #0]
 8002bc4:	403b      	ands	r3, r7
 8002bc6:	42ab      	cmp	r3, r5
 8002bc8:	d0c9      	beq.n	8002b5e <HAL_RCC_ClockConfig+0x1a>
      if ((HAL_GetTick() - tickstart) > RCC_CLOCKSWITCH_TIMEOUT_VALUE)
 8002bca:	f7fe fe8d 	bl	80018e8 <HAL_GetTick>
 8002bce:	9b01      	ldr	r3, [sp, #4]
 8002bd0:	1ac0      	subs	r0, r0, r3
 8002bd2:	4b2e      	ldr	r3, [pc, #184]	@ (8002c8c <HAL_RCC_ClockConfig+0x148>)
 8002bd4:	4298      	cmp	r0, r3
 8002bd6:	d9f4      	bls.n	8002bc2 <HAL_RCC_ClockConfig+0x7e>
        return HAL_TIMEOUT;
 8002bd8:	2003      	movs	r0, #3
 8002bda:	e7b9      	b.n	8002b50 <HAL_RCC_ClockConfig+0xc>
    if (((RCC_ClkInitStruct->ClockType) & RCC_CLOCKTYPE_PCLK1) == RCC_CLOCKTYPE_PCLK1)
 8002bdc:	4927      	ldr	r1, [pc, #156]	@ (8002c7c <HAL_RCC_ClockConfig+0x138>)
 8002bde:	0753      	lsls	r3, r2, #29
 8002be0:	d506      	bpl.n	8002bf0 <HAL_RCC_ClockConfig+0xac>
      MODIFY_REG(RCC->CFGR, RCC_CFGR_PPRE, RCC_HCLK_DIV16);
 8002be2:	6888      	ldr	r0, [r1, #8]
 8002be4:	4b2a      	ldr	r3, [pc, #168]	@ (8002c90 <HAL_RCC_ClockConfig+0x14c>)
 8002be6:	4018      	ands	r0, r3
 8002be8:	23b0      	movs	r3, #176	@ 0xb0
 8002bea:	011b      	lsls	r3, r3, #4
 8002bec:	4303      	orrs	r3, r0
 8002bee:	608b      	str	r3, [r1, #8]
    MODIFY_REG(RCC->CFGR, RCC_CFGR_HPRE, RCC_ClkInitStruct->AHBCLKDivider);
 8002bf0:	688b      	ldr	r3, [r1, #8]
 8002bf2:	4828      	ldr	r0, [pc, #160]	@ (8002c94 <HAL_RCC_ClockConfig+0x150>)
 8002bf4:	4003      	ands	r3, r0
 8002bf6:	68e0      	ldr	r0, [r4, #12]
 8002bf8:	4303      	orrs	r3, r0
 8002bfa:	608b      	str	r3, [r1, #8]
 8002bfc:	e7b2      	b.n	8002b64 <HAL_RCC_ClockConfig+0x20>
    if (RCC_ClkInitStruct->SYSCLKSource == RCC_SYSCLKSOURCE_HSE)
 8002bfe:	6862      	ldr	r2, [r4, #4]
 8002c00:	4f1e      	ldr	r7, [pc, #120]	@ (8002c7c <HAL_RCC_ClockConfig+0x138>)
 8002c02:	2a01      	cmp	r2, #1
 8002c04:	d119      	bne.n	8002c3a <HAL_RCC_ClockConfig+0xf6>
      if (READ_BIT(RCC->CR, RCC_CR_HSERDY) == 0U)
 8002c06:	683b      	ldr	r3, [r7, #0]
 8002c08:	039b      	lsls	r3, r3, #14
 8002c0a:	d5a0      	bpl.n	8002b4e <HAL_RCC_ClockConfig+0xa>
    MODIFY_REG(RCC->CFGR, RCC_CFGR_SW, RCC_ClkInitStruct->SYSCLKSource);
 8002c0c:	2107      	movs	r1, #7
 8002c0e:	68bb      	ldr	r3, [r7, #8]
 8002c10:	438b      	bics	r3, r1
 8002c12:	4313      	orrs	r3, r2
 8002c14:	60bb      	str	r3, [r7, #8]
    tickstart = HAL_GetTick();
 8002c16:	f7fe fe67 	bl	80018e8 <HAL_GetTick>
 8002c1a:	9001      	str	r0, [sp, #4]
    while (__HAL_RCC_GET_SYSCLK_SOURCE() != (RCC_ClkInitStruct->SYSCLKSource << RCC_CFGR_SWS_Pos))
 8002c1c:	2338      	movs	r3, #56	@ 0x38
 8002c1e:	68ba      	ldr	r2, [r7, #8]
 8002c20:	401a      	ands	r2, r3
 8002c22:	6863      	ldr	r3, [r4, #4]
 8002c24:	00db      	lsls	r3, r3, #3
 8002c26:	429a      	cmp	r2, r3
 8002c28:	d09e      	beq.n	8002b68 <HAL_RCC_ClockConfig+0x24>
      if ((HAL_GetTick() - tickstart) > RCC_CLOCKSWITCH_TIMEOUT_VALUE)
 8002c2a:	f7fe fe5d 	bl	80018e8 <HAL_GetTick>
 8002c2e:	9b01      	ldr	r3, [sp, #4]
 8002c30:	1ac0      	subs	r0, r0, r3
 8002c32:	4b16      	ldr	r3, [pc, #88]	@ (8002c8c <HAL_RCC_ClockConfig+0x148>)
 8002c34:	4298      	cmp	r0, r3
 8002c36:	d9f1      	bls.n	8002c1c <HAL_RCC_ClockConfig+0xd8>
 8002c38:	e7ce      	b.n	8002bd8 <HAL_RCC_ClockConfig+0x94>
    else if (RCC_ClkInitStruct->SYSCLKSource == RCC_SYSCLKSOURCE_HSI)
 8002c3a:	2a00      	cmp	r2, #0
 8002c3c:	d103      	bne.n	8002c46 <HAL_RCC_ClockConfig+0x102>
      if (READ_BIT(RCC->CR, RCC_CR_HSIRDY) == 0U)
 8002c3e:	683b      	ldr	r3, [r7, #0]
 8002c40:	055b      	lsls	r3, r3, #21
 8002c42:	d4e3      	bmi.n	8002c0c <HAL_RCC_ClockConfig+0xc8>
 8002c44:	e783      	b.n	8002b4e <HAL_RCC_ClockConfig+0xa>
    else if (RCC_ClkInitStruct->SYSCLKSource == RCC_SYSCLKSOURCE_LSI)
 8002c46:	2302      	movs	r3, #2
 8002c48:	2a03      	cmp	r2, #3
 8002c4a:	d103      	bne.n	8002c54 <HAL_RCC_ClockConfig+0x110>
      if (READ_BIT(RCC->CSR2, RCC_CSR2_LSIRDY) == 0U)
 8002c4c:	6e39      	ldr	r1, [r7, #96]	@ 0x60
      if (READ_BIT(RCC->CSR1, RCC_CSR1_LSERDY) == 0U)
 8002c4e:	4219      	tst	r1, r3
 8002c50:	d1dc      	bne.n	8002c0c <HAL_RCC_ClockConfig+0xc8>
 8002c52:	e77c      	b.n	8002b4e <HAL_RCC_ClockConfig+0xa>
 8002c54:	6df9      	ldr	r1, [r7, #92]	@ 0x5c
 8002c56:	e7fa      	b.n	8002c4e <HAL_RCC_ClockConfig+0x10a>
      if ((HAL_GetTick() - tickstart) > RCC_CLOCKSWITCH_TIMEOUT_VALUE)
 8002c58:	f7fe fe46 	bl	80018e8 <HAL_GetTick>
 8002c5c:	9b01      	ldr	r3, [sp, #4]
 8002c5e:	1ac0      	subs	r0, r0, r3
 8002c60:	4b0a      	ldr	r3, [pc, #40]	@ (8002c8c <HAL_RCC_ClockConfig+0x148>)
 8002c62:	4298      	cmp	r0, r3
 8002c64:	d98c      	bls.n	8002b80 <HAL_RCC_ClockConfig+0x3c>
 8002c66:	e7b7      	b.n	8002bd8 <HAL_RCC_ClockConfig+0x94>
    MODIFY_REG(RCC->CFGR, RCC_CFGR_PPRE, RCC_ClkInitStruct->APB1CLKDivider);
 8002c68:	68ab      	ldr	r3, [r5, #8]
 8002c6a:	4a0b      	ldr	r2, [pc, #44]	@ (8002c98 <HAL_RCC_ClockConfig+0x154>)
 8002c6c:	4013      	ands	r3, r2
 8002c6e:	6922      	ldr	r2, [r4, #16]
 8002c70:	4313      	orrs	r3, r2
 8002c72:	60ab      	str	r3, [r5, #8]
 8002c74:	e78c      	b.n	8002b90 <HAL_RCC_ClockConfig+0x4c>
 8002c76:	46c0      	nop			@ (mov r8, r8)
 8002c78:	40022000 	.word	0x40022000
 8002c7c:	40021000 	.word	0x40021000
 8002c80:	080063e0 	.word	0x080063e0
 8002c84:	20000000 	.word	0x20000000
 8002c88:	20000008 	.word	0x20000008
 8002c8c:	00001388 	.word	0x00001388
 8002c90:	ffff84ff 	.word	0xffff84ff
 8002c94:	fffff0ff 	.word	0xfffff0ff
 8002c98:	ffff8fff 	.word	0xffff8fff

08002c9c <HAL_RCC_GetHCLKFreq>:
  *
  * @note   The SystemCoreClock CMSIS variable is used to store System Clock Frequency.
  * @retval HCLK frequency in Hz
  */
uint32_t HAL_RCC_GetHCLKFreq(void)
{
 8002c9c:	b510      	push	{r4, lr}
  SystemCoreClock = (HAL_RCC_GetSysClockFreq() >> ((AHBPrescTable[(RCC->CFGR & RCC_CFGR_HPRE) \
 8002c9e:	f7ff ff2d 	bl	8002afc <HAL_RCC_GetSysClockFreq>
 8002ca2:	4b06      	ldr	r3, [pc, #24]	@ (8002cbc <HAL_RCC_GetHCLKFreq+0x20>)
 8002ca4:	4a06      	ldr	r2, [pc, #24]	@ (8002cc0 <HAL_RCC_GetHCLKFreq+0x24>)
 8002ca6:	689b      	ldr	r3, [r3, #8]
                                                                  >> RCC_CFGR_HPRE_Pos]) & 0x1FU));
 8002ca8:	051b      	lsls	r3, r3, #20
 8002caa:	0f1b      	lsrs	r3, r3, #28
  SystemCoreClock = (HAL_RCC_GetSysClockFreq() >> ((AHBPrescTable[(RCC->CFGR & RCC_CFGR_HPRE) \
 8002cac:	009b      	lsls	r3, r3, #2
                                                                  >> RCC_CFGR_HPRE_Pos]) & 0x1FU));
 8002cae:	589b      	ldr	r3, [r3, r2]
 8002cb0:	221f      	movs	r2, #31
 8002cb2:	4013      	ands	r3, r2
  SystemCoreClock = (HAL_RCC_GetSysClockFreq() >> ((AHBPrescTable[(RCC->CFGR & RCC_CFGR_HPRE) \
 8002cb4:	40d8      	lsrs	r0, r3
 8002cb6:	4b03      	ldr	r3, [pc, #12]	@ (8002cc4 <HAL_RCC_GetHCLKFreq+0x28>)
 8002cb8:	6018      	str	r0, [r3, #0]
  return SystemCoreClock;
}
 8002cba:	bd10      	pop	{r4, pc}
 8002cbc:	40021000 	.word	0x40021000
 8002cc0:	080063e0 	.word	0x080063e0
 8002cc4:	20000000 	.word	0x20000000

08002cc8 <HAL_RCCEx_PeriphCLKConfig>:
  * @note (*) not available on all devices
  *
  * @retval HAL status
  */
HAL_StatusTypeDef HAL_RCCEx_PeriphCLKConfig(const RCC_PeriphCLKInitTypeDef  *PeriphClkInit)
{
 8002cc8:	b5f0      	push	{r4, r5, r6, r7, lr}

  /* Check the parameters */
  assert_param(IS_RCC_PERIPHCLOCK(PeriphClkInit->PeriphClockSelection));

  /*-------------------------- RTC clock source configuration ----------------------*/
  if ((PeriphClkInit->PeriphClockSelection & RCC_PERIPHCLK_RTC) == RCC_PERIPHCLK_RTC)
 8002cca:	6803      	ldr	r3, [r0, #0]
{
 8002ccc:	0005      	movs	r5, r0
 8002cce:	b085      	sub	sp, #20
  HAL_StatusTypeDef status = HAL_OK;   /* Final status */
 8002cd0:	2000      	movs	r0, #0
  if ((PeriphClkInit->PeriphClockSelection & RCC_PERIPHCLK_RTC) == RCC_PERIPHCLK_RTC)
 8002cd2:	065b      	lsls	r3, r3, #25
 8002cd4:	d523      	bpl.n	8002d1e <HAL_RCCEx_PeriphCLKConfig+0x56>

    /* Check for RTC Parameters used to output RTCCLK */
    assert_param(IS_RCC_RTCCLKSOURCE(PeriphClkInit->RTCClockSelection));

    /* Enable Power Clock */
    if (__HAL_RCC_PWR_IS_CLK_DISABLED())
 8002cd6:	2280      	movs	r2, #128	@ 0x80
 8002cd8:	4c39      	ldr	r4, [pc, #228]	@ (8002dc0 <HAL_RCCEx_PeriphCLKConfig+0xf8>)
 8002cda:	0552      	lsls	r2, r2, #21
 8002cdc:	6be3      	ldr	r3, [r4, #60]	@ 0x3c
    FlagStatus       pwrclkchanged = RESET;
 8002cde:	0006      	movs	r6, r0
    if (__HAL_RCC_PWR_IS_CLK_DISABLED())
 8002ce0:	4213      	tst	r3, r2
 8002ce2:	d107      	bne.n	8002cf4 <HAL_RCCEx_PeriphCLKConfig+0x2c>
    {
      __HAL_RCC_PWR_CLK_ENABLE();
 8002ce4:	6be3      	ldr	r3, [r4, #60]	@ 0x3c
      pwrclkchanged = SET;
 8002ce6:	3601      	adds	r6, #1
      __HAL_RCC_PWR_CLK_ENABLE();
 8002ce8:	4313      	orrs	r3, r2
 8002cea:	63e3      	str	r3, [r4, #60]	@ 0x3c
 8002cec:	6be3      	ldr	r3, [r4, #60]	@ 0x3c
 8002cee:	4013      	ands	r3, r2
 8002cf0:	9303      	str	r3, [sp, #12]
 8002cf2:	9b03      	ldr	r3, [sp, #12]
    }


    /* Reset the RTC domain only if the RTC Clock source selection is modified from default */
    tmpregister = READ_BIT(RCC->CSR1, RCC_CSR1_RTCSEL);
 8002cf4:	6de2      	ldr	r2, [r4, #92]	@ 0x5c
 8002cf6:	23c0      	movs	r3, #192	@ 0xc0
 8002cf8:	0011      	movs	r1, r2
 8002cfa:	009b      	lsls	r3, r3, #2

    /* Reset the RTC domain only if the RTC Clock source selection is modified */
    if ((tmpregister != RCC_RTCCLKSOURCE_NONE) && (tmpregister != PeriphClkInit->RTCClockSelection))
 8002cfc:	69a8      	ldr	r0, [r5, #24]
 8002cfe:	4f31      	ldr	r7, [pc, #196]	@ (8002dc4 <HAL_RCCEx_PeriphCLKConfig+0xfc>)
    tmpregister = READ_BIT(RCC->CSR1, RCC_CSR1_RTCSEL);
 8002d00:	4019      	ands	r1, r3
    if ((tmpregister != RCC_RTCCLKSOURCE_NONE) && (tmpregister != PeriphClkInit->RTCClockSelection))
 8002d02:	421a      	tst	r2, r3
 8002d04:	d13b      	bne.n	8002d7e <HAL_RCCEx_PeriphCLKConfig+0xb6>
  HAL_StatusTypeDef status = HAL_OK;   /* Final status */
 8002d06:	2000      	movs	r0, #0
    }

    if (ret == HAL_OK)
    {
      /* Apply new RTC clock source selection */
      __HAL_RCC_RTC_CONFIG(PeriphClkInit->RTCClockSelection);
 8002d08:	6de3      	ldr	r3, [r4, #92]	@ 0x5c
 8002d0a:	69aa      	ldr	r2, [r5, #24]
 8002d0c:	403b      	ands	r3, r7
 8002d0e:	4313      	orrs	r3, r2
 8002d10:	65e3      	str	r3, [r4, #92]	@ 0x5c
      /* set overall return value */
      status = ret;
    }

    /* Restore clock configuration if changed */
    if (pwrclkchanged == SET)
 8002d12:	2e01      	cmp	r6, #1
 8002d14:	d103      	bne.n	8002d1e <HAL_RCCEx_PeriphCLKConfig+0x56>
    {
      __HAL_RCC_PWR_CLK_DISABLE();
 8002d16:	6be3      	ldr	r3, [r4, #60]	@ 0x3c
 8002d18:	4a2b      	ldr	r2, [pc, #172]	@ (8002dc8 <HAL_RCCEx_PeriphCLKConfig+0x100>)
 8002d1a:	4013      	ands	r3, r2
 8002d1c:	63e3      	str	r3, [r4, #60]	@ 0x3c
    }
  }

  /*-------------------------- USART1 clock source configuration -------------------*/
  if (((PeriphClkInit->PeriphClockSelection) & RCC_PERIPHCLK_USART1) == RCC_PERIPHCLK_USART1)
 8002d1e:	682a      	ldr	r2, [r5, #0]
 8002d20:	07d3      	lsls	r3, r2, #31
 8002d22:	d506      	bpl.n	8002d32 <HAL_RCCEx_PeriphCLKConfig+0x6a>
  {
    /* Check the parameters */
    assert_param(IS_RCC_USART1CLKSOURCE(PeriphClkInit->Usart1ClockSelection));

    /* Configure the USART1 clock source */
    __HAL_RCC_USART1_CONFIG(PeriphClkInit->Usart1ClockSelection);
 8002d24:	2403      	movs	r4, #3
 8002d26:	4926      	ldr	r1, [pc, #152]	@ (8002dc0 <HAL_RCCEx_PeriphCLKConfig+0xf8>)
 8002d28:	6d4b      	ldr	r3, [r1, #84]	@ 0x54
 8002d2a:	43a3      	bics	r3, r4
 8002d2c:	68ac      	ldr	r4, [r5, #8]
 8002d2e:	4323      	orrs	r3, r4
 8002d30:	654b      	str	r3, [r1, #84]	@ 0x54
  }

  /*-------------------------- I2C1 clock source configuration ---------------------*/
  if (((PeriphClkInit->PeriphClockSelection) & RCC_PERIPHCLK_I2C1) == RCC_PERIPHCLK_I2C1)
 8002d32:	0793      	lsls	r3, r2, #30
 8002d34:	d506      	bpl.n	8002d44 <HAL_RCCEx_PeriphCLKConfig+0x7c>
  {
    /* Check the parameters */
    assert_param(IS_RCC_I2C1CLKSOURCE(PeriphClkInit->I2c1ClockSelection));

    /* Configure the I2C1 clock source */
    __HAL_RCC_I2C1_CONFIG(PeriphClkInit->I2c1ClockSelection);
 8002d36:	4922      	ldr	r1, [pc, #136]	@ (8002dc0 <HAL_RCCEx_PeriphCLKConfig+0xf8>)
 8002d38:	4c24      	ldr	r4, [pc, #144]	@ (8002dcc <HAL_RCCEx_PeriphCLKConfig+0x104>)
 8002d3a:	6d4b      	ldr	r3, [r1, #84]	@ 0x54
 8002d3c:	4023      	ands	r3, r4
 8002d3e:	68ec      	ldr	r4, [r5, #12]
 8002d40:	4323      	orrs	r3, r4
 8002d42:	654b      	str	r3, [r1, #84]	@ 0x54
  }

  /*-------------------------- ADC clock source configuration ----------------------*/
  if (((PeriphClkInit->PeriphClockSelection) & RCC_PERIPHCLK_ADC) == RCC_PERIPHCLK_ADC)
 8002d44:	0693      	lsls	r3, r2, #26
 8002d46:	d506      	bpl.n	8002d56 <HAL_RCCEx_PeriphCLKConfig+0x8e>
  {
    /* Check the parameters */
    assert_param(IS_RCC_ADCCLKSOURCE(PeriphClkInit->AdcClockSelection));

    /* Configure the ADC interface clock source */
    __HAL_RCC_ADC_CONFIG(PeriphClkInit->AdcClockSelection);
 8002d48:	491d      	ldr	r1, [pc, #116]	@ (8002dc0 <HAL_RCCEx_PeriphCLKConfig+0xf8>)
 8002d4a:	696c      	ldr	r4, [r5, #20]
 8002d4c:	6d4b      	ldr	r3, [r1, #84]	@ 0x54
 8002d4e:	009b      	lsls	r3, r3, #2
 8002d50:	089b      	lsrs	r3, r3, #2
 8002d52:	4323      	orrs	r3, r4
 8002d54:	654b      	str	r3, [r1, #84]	@ 0x54
    __HAL_RCC_FDCAN1_CONFIG(PeriphClkInit->Fdcan1ClockSelection);

  }
#endif /* FDCAN1 */
  /*-------------------------- I2S1 clock source configuration ---------------------*/
  if (((PeriphClkInit->PeriphClockSelection) & RCC_PERIPHCLK_I2S1) == RCC_PERIPHCLK_I2S1)
 8002d56:	0753      	lsls	r3, r2, #29
 8002d58:	d506      	bpl.n	8002d68 <HAL_RCCEx_PeriphCLKConfig+0xa0>
  {
    /* Check the parameters */
    assert_param(IS_RCC_I2S1CLKSOURCE(PeriphClkInit->I2s1ClockSelection));

    /* Configure the I2S1 clock source */
    __HAL_RCC_I2S1_CONFIG(PeriphClkInit->I2s1ClockSelection);
 8002d5a:	4919      	ldr	r1, [pc, #100]	@ (8002dc0 <HAL_RCCEx_PeriphCLKConfig+0xf8>)
 8002d5c:	4c1c      	ldr	r4, [pc, #112]	@ (8002dd0 <HAL_RCCEx_PeriphCLKConfig+0x108>)
 8002d5e:	6d4b      	ldr	r3, [r1, #84]	@ 0x54
 8002d60:	4023      	ands	r3, r4
 8002d62:	692c      	ldr	r4, [r5, #16]
 8002d64:	4323      	orrs	r3, r4
 8002d66:	654b      	str	r3, [r1, #84]	@ 0x54
  }
  /*------------------------------------ HSI Kernel clock source configuration --------------------------------------*/
  if (((PeriphClkInit->PeriphClockSelection) & RCC_PERIPHCLK_HSIKER) == RCC_PERIPHCLK_HSIKER)
 8002d68:	0612      	lsls	r2, r2, #24
 8002d6a:	d506      	bpl.n	8002d7a <HAL_RCCEx_PeriphCLKConfig+0xb2>
  {
    /* Check the parameters */
    assert_param(IS_RCC_HSIKERDIV(PeriphClkInit->HSIKerClockDivider));

    /* Configure the HSI Kernel clock source Divider */
    __HAL_RCC_HSIKER_CONFIG(PeriphClkInit->HSIKerClockDivider);
 8002d6c:	21e0      	movs	r1, #224	@ 0xe0
 8002d6e:	4a14      	ldr	r2, [pc, #80]	@ (8002dc0 <HAL_RCCEx_PeriphCLKConfig+0xf8>)
 8002d70:	6813      	ldr	r3, [r2, #0]
 8002d72:	438b      	bics	r3, r1
 8002d74:	6869      	ldr	r1, [r5, #4]
 8002d76:	430b      	orrs	r3, r1
 8002d78:	6013      	str	r3, [r2, #0]
  }
  return status;
}
 8002d7a:	b005      	add	sp, #20
 8002d7c:	bdf0      	pop	{r4, r5, r6, r7, pc}
    if ((tmpregister != RCC_RTCCLKSOURCE_NONE) && (tmpregister != PeriphClkInit->RTCClockSelection))
 8002d7e:	4288      	cmp	r0, r1
 8002d80:	d0c1      	beq.n	8002d06 <HAL_RCCEx_PeriphCLKConfig+0x3e>
      __HAL_RCC_BACKUPRESET_FORCE();
 8002d82:	2280      	movs	r2, #128	@ 0x80
      tmpregister = READ_BIT(RCC->CSR1, ~(RCC_CSR1_RTCSEL));
 8002d84:	6de3      	ldr	r3, [r4, #92]	@ 0x5c
      __HAL_RCC_BACKUPRESET_FORCE();
 8002d86:	6de0      	ldr	r0, [r4, #92]	@ 0x5c
      tmpregister = READ_BIT(RCC->CSR1, ~(RCC_CSR1_RTCSEL));
 8002d88:	0019      	movs	r1, r3
      __HAL_RCC_BACKUPRESET_FORCE();
 8002d8a:	0252      	lsls	r2, r2, #9
 8002d8c:	4302      	orrs	r2, r0
 8002d8e:	65e2      	str	r2, [r4, #92]	@ 0x5c
      __HAL_RCC_BACKUPRESET_RELEASE();
 8002d90:	6de2      	ldr	r2, [r4, #92]	@ 0x5c
 8002d92:	4810      	ldr	r0, [pc, #64]	@ (8002dd4 <HAL_RCCEx_PeriphCLKConfig+0x10c>)
      tmpregister = READ_BIT(RCC->CSR1, ~(RCC_CSR1_RTCSEL));
 8002d94:	4039      	ands	r1, r7
      __HAL_RCC_BACKUPRESET_RELEASE();
 8002d96:	4002      	ands	r2, r0
 8002d98:	65e2      	str	r2, [r4, #92]	@ 0x5c
      RCC->CSR1 = tmpregister;
 8002d9a:	65e1      	str	r1, [r4, #92]	@ 0x5c
    if (HAL_IS_BIT_SET(tmpregister, RCC_CSR1_LSEON))
 8002d9c:	07db      	lsls	r3, r3, #31
 8002d9e:	d5b2      	bpl.n	8002d06 <HAL_RCCEx_PeriphCLKConfig+0x3e>
      tickstart = HAL_GetTick();
 8002da0:	f7fe fda2 	bl	80018e8 <HAL_GetTick>
 8002da4:	9001      	str	r0, [sp, #4]
      while (READ_BIT(RCC->CSR1, RCC_CSR1_LSERDY) == 0U)
 8002da6:	2202      	movs	r2, #2
 8002da8:	6de3      	ldr	r3, [r4, #92]	@ 0x5c
 8002daa:	4213      	tst	r3, r2
 8002dac:	d1ab      	bne.n	8002d06 <HAL_RCCEx_PeriphCLKConfig+0x3e>
        if ((HAL_GetTick() - tickstart) > RCC_LSE_TIMEOUT_VALUE)
 8002dae:	f7fe fd9b 	bl	80018e8 <HAL_GetTick>
 8002db2:	9b01      	ldr	r3, [sp, #4]
 8002db4:	1ac0      	subs	r0, r0, r3
 8002db6:	4b08      	ldr	r3, [pc, #32]	@ (8002dd8 <HAL_RCCEx_PeriphCLKConfig+0x110>)
 8002db8:	4298      	cmp	r0, r3
 8002dba:	d9f4      	bls.n	8002da6 <HAL_RCCEx_PeriphCLKConfig+0xde>
      status = ret;
 8002dbc:	2003      	movs	r0, #3
 8002dbe:	e7a8      	b.n	8002d12 <HAL_RCCEx_PeriphCLKConfig+0x4a>
 8002dc0:	40021000 	.word	0x40021000
 8002dc4:	fffffcff 	.word	0xfffffcff
 8002dc8:	efffffff 	.word	0xefffffff
 8002dcc:	ffffcfff 	.word	0xffffcfff
 8002dd0:	ffff3fff 	.word	0xffff3fff
 8002dd4:	fffeffff 	.word	0xfffeffff
 8002dd8:	00001388 	.word	0x00001388

08002ddc <SPI_WaitFlagStateUntilTimeout.constprop.0>:
  * @param  State flag state to check
  * @param  Timeout Timeout duration
  * @param  Tickstart tick start value
  * @retval HAL status
  */
static HAL_StatusTypeDef SPI_WaitFlagStateUntilTimeout(SPI_HandleTypeDef *hspi, uint32_t Flag, FlagStatus State,
 8002ddc:	b5f0      	push	{r4, r5, r6, r7, lr}
 8002dde:	000e      	movs	r6, r1
 8002de0:	b085      	sub	sp, #20
 8002de2:	0015      	movs	r5, r2
 8002de4:	0004      	movs	r4, r0
  __IO uint32_t count;
  uint32_t tmp_timeout;
  uint32_t tmp_tickstart;

  /* Adjust Timeout value  in case of end of transfer */
  tmp_timeout   = Timeout - (HAL_GetTick() - Tickstart);
 8002de6:	f7fe fd7f 	bl	80018e8 <HAL_GetTick>
 8002dea:	19ad      	adds	r5, r5, r6
 8002dec:	1a2d      	subs	r5, r5, r0
  tmp_tickstart = HAL_GetTick();
 8002dee:	f7fe fd7b 	bl	80018e8 <HAL_GetTick>

  /* Calculate Timeout based on a software loop to avoid blocking issue if Systick is disabled */
  count = tmp_timeout * ((SystemCoreClock * 32U) >> 20U);

  while ((__HAL_SPI_GET_FLAG(hspi, Flag) ? SET : RESET) != State)
 8002df2:	2780      	movs	r7, #128	@ 0x80
  count = tmp_timeout * ((SystemCoreClock * 32U) >> 20U);
 8002df4:	4b25      	ldr	r3, [pc, #148]	@ (8002e8c <SPI_WaitFlagStateUntilTimeout.constprop.0+0xb0>)
  tmp_tickstart = HAL_GetTick();
 8002df6:	9001      	str	r0, [sp, #4]
  count = tmp_timeout * ((SystemCoreClock * 32U) >> 20U);
 8002df8:	681b      	ldr	r3, [r3, #0]
 8002dfa:	015b      	lsls	r3, r3, #5
 8002dfc:	0d1b      	lsrs	r3, r3, #20
 8002dfe:	436b      	muls	r3, r5
 8002e00:	9303      	str	r3, [sp, #12]
  while ((__HAL_SPI_GET_FLAG(hspi, Flag) ? SET : RESET) != State)
 8002e02:	6822      	ldr	r2, [r4, #0]
 8002e04:	6893      	ldr	r3, [r2, #8]
 8002e06:	0018      	movs	r0, r3
 8002e08:	4038      	ands	r0, r7
 8002e0a:	423b      	tst	r3, r7
 8002e0c:	d032      	beq.n	8002e74 <SPI_WaitFlagStateUntilTimeout.constprop.0+0x98>
  {
    if (Timeout != HAL_MAX_DELAY)
 8002e0e:	1c73      	adds	r3, r6, #1
 8002e10:	d0f8      	beq.n	8002e04 <SPI_WaitFlagStateUntilTimeout.constprop.0+0x28>
    {
      if (((HAL_GetTick() - tmp_tickstart) >= tmp_timeout) || (tmp_timeout == 0U))
 8002e12:	f7fe fd69 	bl	80018e8 <HAL_GetTick>
 8002e16:	9b01      	ldr	r3, [sp, #4]
 8002e18:	1ac0      	subs	r0, r0, r3
 8002e1a:	42a8      	cmp	r0, r5
 8002e1c:	d32c      	bcc.n	8002e78 <SPI_WaitFlagStateUntilTimeout.constprop.0+0x9c>
        /* Disable the SPI and reset the CRC: the CRC value should be cleared
           on both master and slave sides in order to resynchronize the master
           and slave for their respective CRC calculation */

        /* Disable TXE, RXNE and ERR interrupts for the interrupt process */
        __HAL_SPI_DISABLE_IT(hspi, (SPI_IT_TXE | SPI_IT_RXNE | SPI_IT_ERR));
 8002e1e:	21e0      	movs	r1, #224	@ 0xe0
 8002e20:	6823      	ldr	r3, [r4, #0]
 8002e22:	685a      	ldr	r2, [r3, #4]
 8002e24:	438a      	bics	r2, r1
 8002e26:	605a      	str	r2, [r3, #4]

        if ((hspi->Init.Mode == SPI_MODE_MASTER) && ((hspi->Init.Direction == SPI_DIRECTION_1LINE)
 8002e28:	2282      	movs	r2, #130	@ 0x82
 8002e2a:	6861      	ldr	r1, [r4, #4]
 8002e2c:	0052      	lsls	r2, r2, #1
 8002e2e:	4291      	cmp	r1, r2
 8002e30:	d10c      	bne.n	8002e4c <SPI_WaitFlagStateUntilTimeout.constprop.0+0x70>
 8002e32:	2180      	movs	r1, #128	@ 0x80
 8002e34:	68a2      	ldr	r2, [r4, #8]
 8002e36:	0209      	lsls	r1, r1, #8
 8002e38:	428a      	cmp	r2, r1
 8002e3a:	d003      	beq.n	8002e44 <SPI_WaitFlagStateUntilTimeout.constprop.0+0x68>
                                                     || (hspi->Init.Direction == SPI_DIRECTION_2LINES_RXONLY)))
 8002e3c:	2180      	movs	r1, #128	@ 0x80
 8002e3e:	00c9      	lsls	r1, r1, #3
 8002e40:	428a      	cmp	r2, r1
 8002e42:	d103      	bne.n	8002e4c <SPI_WaitFlagStateUntilTimeout.constprop.0+0x70>
        {
          /* Disable SPI peripheral */
          __HAL_SPI_DISABLE(hspi);
 8002e44:	2140      	movs	r1, #64	@ 0x40
 8002e46:	681a      	ldr	r2, [r3, #0]
 8002e48:	438a      	bics	r2, r1
 8002e4a:	601a      	str	r2, [r3, #0]
        }

        /* Reset CRC Calculation */
        if (hspi->Init.CRCCalculation == SPI_CRCCALCULATION_ENABLE)
 8002e4c:	2180      	movs	r1, #128	@ 0x80
 8002e4e:	6aa2      	ldr	r2, [r4, #40]	@ 0x28
 8002e50:	0189      	lsls	r1, r1, #6
 8002e52:	428a      	cmp	r2, r1
 8002e54:	d106      	bne.n	8002e64 <SPI_WaitFlagStateUntilTimeout.constprop.0+0x88>
        {
          SPI_RESET_CRC(hspi);
 8002e56:	6819      	ldr	r1, [r3, #0]
 8002e58:	480d      	ldr	r0, [pc, #52]	@ (8002e90 <SPI_WaitFlagStateUntilTimeout.constprop.0+0xb4>)
 8002e5a:	4001      	ands	r1, r0
 8002e5c:	6019      	str	r1, [r3, #0]
 8002e5e:	6819      	ldr	r1, [r3, #0]
 8002e60:	430a      	orrs	r2, r1
 8002e62:	601a      	str	r2, [r3, #0]
        }

        hspi->State = HAL_SPI_STATE_READY;
 8002e64:	0023      	movs	r3, r4
 8002e66:	2201      	movs	r2, #1
 8002e68:	335d      	adds	r3, #93	@ 0x5d
 8002e6a:	701a      	strb	r2, [r3, #0]

        /* Process Unlocked */
        __HAL_UNLOCK(hspi);
 8002e6c:	2300      	movs	r3, #0

        return HAL_TIMEOUT;
 8002e6e:	2003      	movs	r0, #3
        __HAL_UNLOCK(hspi);
 8002e70:	345c      	adds	r4, #92	@ 0x5c
 8002e72:	7023      	strb	r3, [r4, #0]
      count--;
    }
  }

  return HAL_OK;
}
 8002e74:	b005      	add	sp, #20
 8002e76:	bdf0      	pop	{r4, r5, r6, r7, pc}
      if (count == 0U)
 8002e78:	9b03      	ldr	r3, [sp, #12]
 8002e7a:	2b00      	cmp	r3, #0
 8002e7c:	d000      	beq.n	8002e80 <SPI_WaitFlagStateUntilTimeout.constprop.0+0xa4>
 8002e7e:	002b      	movs	r3, r5
      count--;
 8002e80:	9a03      	ldr	r2, [sp, #12]
 8002e82:	001d      	movs	r5, r3
 8002e84:	3a01      	subs	r2, #1
 8002e86:	9203      	str	r2, [sp, #12]
 8002e88:	e7bb      	b.n	8002e02 <SPI_WaitFlagStateUntilTimeout.constprop.0+0x26>
 8002e8a:	46c0      	nop			@ (mov r8, r8)
 8002e8c:	20000000 	.word	0x20000000
 8002e90:	ffffdfff 	.word	0xffffdfff

08002e94 <SPI_WaitFifoStateUntilTimeout.constprop.0>:
  * @param  State Fifo state to check
  * @param  Timeout Timeout duration
  * @param  Tickstart tick start value
  * @retval HAL status
  */
static HAL_StatusTypeDef SPI_WaitFifoStateUntilTimeout(SPI_HandleTypeDef *hspi, uint32_t Fifo, uint32_t State,
 8002e94:	b5f0      	push	{r4, r5, r6, r7, lr}
 8002e96:	0017      	movs	r7, r2
{
  __IO uint32_t count;
  uint32_t tmp_timeout;
  uint32_t tmp_tickstart;
  __IO const uint8_t  *ptmpreg8;
  __IO uint8_t  tmpreg8 = 0;
 8002e98:	2200      	movs	r2, #0
static HAL_StatusTypeDef SPI_WaitFifoStateUntilTimeout(SPI_HandleTypeDef *hspi, uint32_t Fifo, uint32_t State,
 8002e9a:	b085      	sub	sp, #20
 8002e9c:	001d      	movs	r5, r3
  __IO uint8_t  tmpreg8 = 0;
 8002e9e:	ab02      	add	r3, sp, #8
 8002ea0:	70da      	strb	r2, [r3, #3]
static HAL_StatusTypeDef SPI_WaitFifoStateUntilTimeout(SPI_HandleTypeDef *hspi, uint32_t Fifo, uint32_t State,
 8002ea2:	0004      	movs	r4, r0
 8002ea4:	000e      	movs	r6, r1

  /* Adjust Timeout value  in case of end of transfer */
  tmp_timeout = Timeout - (HAL_GetTick() - Tickstart);
 8002ea6:	f7fe fd1f 	bl	80018e8 <HAL_GetTick>
 8002eaa:	19ed      	adds	r5, r5, r7
 8002eac:	1a2d      	subs	r5, r5, r0
  tmp_tickstart = HAL_GetTick();
 8002eae:	f7fe fd1b 	bl	80018e8 <HAL_GetTick>

  /* Initialize the 8bit temporary pointer */
  ptmpreg8 = (__IO uint8_t *)&hspi->Instance->DR;

  /* Calculate Timeout based on a software loop to avoid blocking issue if Systick is disabled */
  count = tmp_timeout * ((SystemCoreClock * 35U) >> 20U);
 8002eb2:	2223      	movs	r2, #35	@ 0x23
  ptmpreg8 = (__IO uint8_t *)&hspi->Instance->DR;
 8002eb4:	6823      	ldr	r3, [r4, #0]
  tmp_tickstart = HAL_GetTick();
 8002eb6:	9000      	str	r0, [sp, #0]
  ptmpreg8 = (__IO uint8_t *)&hspi->Instance->DR;
 8002eb8:	9301      	str	r3, [sp, #4]
  count = tmp_timeout * ((SystemCoreClock * 35U) >> 20U);
 8002eba:	4b2a      	ldr	r3, [pc, #168]	@ (8002f64 <SPI_WaitFifoStateUntilTimeout.constprop.0+0xd0>)
 8002ebc:	681b      	ldr	r3, [r3, #0]
 8002ebe:	4353      	muls	r3, r2
 8002ec0:	0d1b      	lsrs	r3, r3, #20
 8002ec2:	436b      	muls	r3, r5
 8002ec4:	9303      	str	r3, [sp, #12]
  while ((hspi->Instance->SR & Fifo) != State)
  {
    if ((Fifo == SPI_SR_FRLVL) && (State == SPI_FRLVL_EMPTY))
    {
      /* Flush Data Register by a blank read */
      tmpreg8 = *ptmpreg8;
 8002ec6:	ab02      	add	r3, sp, #8
  while ((hspi->Instance->SR & Fifo) != State)
 8002ec8:	6821      	ldr	r1, [r4, #0]
      tmpreg8 = *ptmpreg8;
 8002eca:	1cda      	adds	r2, r3, #3
  while ((hspi->Instance->SR & Fifo) != State)
 8002ecc:	688b      	ldr	r3, [r1, #8]
 8002ece:	0018      	movs	r0, r3
 8002ed0:	4030      	ands	r0, r6
 8002ed2:	4233      	tst	r3, r6
 8002ed4:	d03b      	beq.n	8002f4e <SPI_WaitFifoStateUntilTimeout.constprop.0+0xba>
    if ((Fifo == SPI_SR_FRLVL) && (State == SPI_FRLVL_EMPTY))
 8002ed6:	23c0      	movs	r3, #192	@ 0xc0
 8002ed8:	00db      	lsls	r3, r3, #3
 8002eda:	429e      	cmp	r6, r3
 8002edc:	d104      	bne.n	8002ee8 <SPI_WaitFifoStateUntilTimeout.constprop.0+0x54>
      tmpreg8 = *ptmpreg8;
 8002ede:	9b01      	ldr	r3, [sp, #4]
 8002ee0:	7b1b      	ldrb	r3, [r3, #12]
 8002ee2:	b2db      	uxtb	r3, r3
 8002ee4:	7013      	strb	r3, [r2, #0]
      /* To avoid GCC warning */
      UNUSED(tmpreg8);
 8002ee6:	7813      	ldrb	r3, [r2, #0]
    }

    if (Timeout != HAL_MAX_DELAY)
 8002ee8:	1c7b      	adds	r3, r7, #1
 8002eea:	d0ef      	beq.n	8002ecc <SPI_WaitFifoStateUntilTimeout.constprop.0+0x38>
    {
      if (((HAL_GetTick() - tmp_tickstart) >= tmp_timeout) || (tmp_timeout == 0U))
 8002eec:	f7fe fcfc 	bl	80018e8 <HAL_GetTick>
 8002ef0:	9b00      	ldr	r3, [sp, #0]
 8002ef2:	1ac0      	subs	r0, r0, r3
 8002ef4:	42a8      	cmp	r0, r5
 8002ef6:	d32c      	bcc.n	8002f52 <SPI_WaitFifoStateUntilTimeout.constprop.0+0xbe>
        /* Disable the SPI and reset the CRC: the CRC value should be cleared
           on both master and slave sides in order to resynchronize the master
           and slave for their respective CRC calculation */

        /* Disable TXE, RXNE and ERR interrupts for the interrupt process */
        __HAL_SPI_DISABLE_IT(hspi, (SPI_IT_TXE | SPI_IT_RXNE | SPI_IT_ERR));
 8002ef8:	21e0      	movs	r1, #224	@ 0xe0
 8002efa:	6823      	ldr	r3, [r4, #0]
 8002efc:	685a      	ldr	r2, [r3, #4]
 8002efe:	438a      	bics	r2, r1
 8002f00:	605a      	str	r2, [r3, #4]

        if ((hspi->Init.Mode == SPI_MODE_MASTER) && ((hspi->Init.Direction == SPI_DIRECTION_1LINE)
 8002f02:	2282      	movs	r2, #130	@ 0x82
 8002f04:	6861      	ldr	r1, [r4, #4]
 8002f06:	0052      	lsls	r2, r2, #1
 8002f08:	4291      	cmp	r1, r2
 8002f0a:	d10c      	bne.n	8002f26 <SPI_WaitFifoStateUntilTimeout.constprop.0+0x92>
 8002f0c:	2180      	movs	r1, #128	@ 0x80
 8002f0e:	68a2      	ldr	r2, [r4, #8]
 8002f10:	0209      	lsls	r1, r1, #8
 8002f12:	428a      	cmp	r2, r1
 8002f14:	d003      	beq.n	8002f1e <SPI_WaitFifoStateUntilTimeout.constprop.0+0x8a>
                                                     || (hspi->Init.Direction == SPI_DIRECTION_2LINES_RXONLY)))
 8002f16:	2180      	movs	r1, #128	@ 0x80
 8002f18:	00c9      	lsls	r1, r1, #3
 8002f1a:	428a      	cmp	r2, r1
 8002f1c:	d103      	bne.n	8002f26 <SPI_WaitFifoStateUntilTimeout.constprop.0+0x92>
        {
          /* Disable SPI peripheral */
          __HAL_SPI_DISABLE(hspi);
 8002f1e:	2140      	movs	r1, #64	@ 0x40
 8002f20:	681a      	ldr	r2, [r3, #0]
 8002f22:	438a      	bics	r2, r1
 8002f24:	601a      	str	r2, [r3, #0]
        }

        /* Reset CRC Calculation */
        if (hspi->Init.CRCCalculation == SPI_CRCCALCULATION_ENABLE)
 8002f26:	2180      	movs	r1, #128	@ 0x80
 8002f28:	6aa2      	ldr	r2, [r4, #40]	@ 0x28
 8002f2a:	0189      	lsls	r1, r1, #6
 8002f2c:	428a      	cmp	r2, r1
 8002f2e:	d106      	bne.n	8002f3e <SPI_WaitFifoStateUntilTimeout.constprop.0+0xaa>
        {
          SPI_RESET_CRC(hspi);
 8002f30:	6819      	ldr	r1, [r3, #0]
 8002f32:	480d      	ldr	r0, [pc, #52]	@ (8002f68 <SPI_WaitFifoStateUntilTimeout.constprop.0+0xd4>)
 8002f34:	4001      	ands	r1, r0
 8002f36:	6019      	str	r1, [r3, #0]
 8002f38:	6819      	ldr	r1, [r3, #0]
 8002f3a:	430a      	orrs	r2, r1
 8002f3c:	601a      	str	r2, [r3, #0]
        }

        hspi->State = HAL_SPI_STATE_READY;
 8002f3e:	0023      	movs	r3, r4
 8002f40:	2201      	movs	r2, #1
 8002f42:	335d      	adds	r3, #93	@ 0x5d
 8002f44:	701a      	strb	r2, [r3, #0]

        /* Process Unlocked */
        __HAL_UNLOCK(hspi);
 8002f46:	2300      	movs	r3, #0

        return HAL_TIMEOUT;
 8002f48:	2003      	movs	r0, #3
        __HAL_UNLOCK(hspi);
 8002f4a:	345c      	adds	r4, #92	@ 0x5c
 8002f4c:	7023      	strb	r3, [r4, #0]
      count--;
    }
  }

  return HAL_OK;
}
 8002f4e:	b005      	add	sp, #20
 8002f50:	bdf0      	pop	{r4, r5, r6, r7, pc}
      if (count == 0U)
 8002f52:	9b03      	ldr	r3, [sp, #12]
 8002f54:	2b00      	cmp	r3, #0
 8002f56:	d000      	beq.n	8002f5a <SPI_WaitFifoStateUntilTimeout.constprop.0+0xc6>
 8002f58:	002b      	movs	r3, r5
      count--;
 8002f5a:	9a03      	ldr	r2, [sp, #12]
 8002f5c:	001d      	movs	r5, r3
 8002f5e:	3a01      	subs	r2, #1
 8002f60:	9203      	str	r2, [sp, #12]
 8002f62:	e7b0      	b.n	8002ec6 <SPI_WaitFifoStateUntilTimeout.constprop.0+0x32>
 8002f64:	20000000 	.word	0x20000000
 8002f68:	ffffdfff 	.word	0xffffdfff

08002f6c <SPI_EndRxTransaction>:
  * @param  Timeout Timeout duration
  * @param  Tickstart tick start value
  * @retval HAL status
  */
static HAL_StatusTypeDef SPI_EndRxTransaction(SPI_HandleTypeDef *hspi,  uint32_t Timeout, uint32_t Tickstart)
{
 8002f6c:	b5f8      	push	{r3, r4, r5, r6, r7, lr}
  if ((hspi->Init.Mode == SPI_MODE_MASTER) && ((hspi->Init.Direction == SPI_DIRECTION_1LINE)
 8002f6e:	2382      	movs	r3, #130	@ 0x82
{
 8002f70:	0017      	movs	r7, r2
  if ((hspi->Init.Mode == SPI_MODE_MASTER) && ((hspi->Init.Direction == SPI_DIRECTION_1LINE)
 8002f72:	6842      	ldr	r2, [r0, #4]
{
 8002f74:	0004      	movs	r4, r0
 8002f76:	000e      	movs	r6, r1
  if ((hspi->Init.Mode == SPI_MODE_MASTER) && ((hspi->Init.Direction == SPI_DIRECTION_1LINE)
 8002f78:	005b      	lsls	r3, r3, #1
 8002f7a:	429a      	cmp	r2, r3
 8002f7c:	d10d      	bne.n	8002f9a <SPI_EndRxTransaction+0x2e>
 8002f7e:	2280      	movs	r2, #128	@ 0x80
 8002f80:	6883      	ldr	r3, [r0, #8]
 8002f82:	0212      	lsls	r2, r2, #8
 8002f84:	4293      	cmp	r3, r2
 8002f86:	d003      	beq.n	8002f90 <SPI_EndRxTransaction+0x24>
                                               || (hspi->Init.Direction == SPI_DIRECTION_2LINES_RXONLY)))
 8002f88:	2280      	movs	r2, #128	@ 0x80
 8002f8a:	00d2      	lsls	r2, r2, #3
 8002f8c:	4293      	cmp	r3, r2
 8002f8e:	d104      	bne.n	8002f9a <SPI_EndRxTransaction+0x2e>
  {
    /* Disable SPI peripheral */
    __HAL_SPI_DISABLE(hspi);
 8002f90:	2140      	movs	r1, #64	@ 0x40
 8002f92:	6822      	ldr	r2, [r4, #0]
 8002f94:	6813      	ldr	r3, [r2, #0]
 8002f96:	438b      	bics	r3, r1
 8002f98:	6013      	str	r3, [r2, #0]
  }

  /* Control the BSY flag */
  if (SPI_WaitFlagStateUntilTimeout(hspi, SPI_FLAG_BSY, RESET, Timeout, Tickstart) != HAL_OK)
 8002f9a:	003a      	movs	r2, r7
 8002f9c:	0031      	movs	r1, r6
 8002f9e:	0020      	movs	r0, r4
 8002fa0:	f7ff ff1c 	bl	8002ddc <SPI_WaitFlagStateUntilTimeout.constprop.0>
 8002fa4:	1e05      	subs	r5, r0, #0
 8002fa6:	d005      	beq.n	8002fb4 <SPI_EndRxTransaction+0x48>
                                               || (hspi->Init.Direction == SPI_DIRECTION_2LINES_RXONLY)))
  {
    /* Empty the FRLVL fifo */
    if (SPI_WaitFifoStateUntilTimeout(hspi, SPI_FLAG_FRLVL, SPI_FRLVL_EMPTY, Timeout, Tickstart) != HAL_OK)
    {
      SET_BIT(hspi->ErrorCode, HAL_SPI_ERROR_FLAG);
 8002fa8:	2320      	movs	r3, #32
 8002faa:	6e22      	ldr	r2, [r4, #96]	@ 0x60
    return HAL_TIMEOUT;
 8002fac:	2503      	movs	r5, #3
      SET_BIT(hspi->ErrorCode, HAL_SPI_ERROR_FLAG);
 8002fae:	4313      	orrs	r3, r2
 8002fb0:	6623      	str	r3, [r4, #96]	@ 0x60
      return HAL_TIMEOUT;
 8002fb2:	e016      	b.n	8002fe2 <SPI_EndRxTransaction+0x76>
  if ((hspi->Init.Mode == SPI_MODE_MASTER) && ((hspi->Init.Direction == SPI_DIRECTION_1LINE)
 8002fb4:	2382      	movs	r3, #130	@ 0x82
 8002fb6:	6862      	ldr	r2, [r4, #4]
 8002fb8:	005b      	lsls	r3, r3, #1
 8002fba:	429a      	cmp	r2, r3
 8002fbc:	d111      	bne.n	8002fe2 <SPI_EndRxTransaction+0x76>
 8002fbe:	2280      	movs	r2, #128	@ 0x80
 8002fc0:	68a3      	ldr	r3, [r4, #8]
 8002fc2:	0212      	lsls	r2, r2, #8
 8002fc4:	4293      	cmp	r3, r2
 8002fc6:	d003      	beq.n	8002fd0 <SPI_EndRxTransaction+0x64>
                                               || (hspi->Init.Direction == SPI_DIRECTION_2LINES_RXONLY)))
 8002fc8:	2280      	movs	r2, #128	@ 0x80
 8002fca:	00d2      	lsls	r2, r2, #3
 8002fcc:	4293      	cmp	r3, r2
 8002fce:	d108      	bne.n	8002fe2 <SPI_EndRxTransaction+0x76>
    if (SPI_WaitFifoStateUntilTimeout(hspi, SPI_FLAG_FRLVL, SPI_FRLVL_EMPTY, Timeout, Tickstart) != HAL_OK)
 8002fd0:	21c0      	movs	r1, #192	@ 0xc0
 8002fd2:	003b      	movs	r3, r7
 8002fd4:	0032      	movs	r2, r6
 8002fd6:	0020      	movs	r0, r4
 8002fd8:	00c9      	lsls	r1, r1, #3
 8002fda:	f7ff ff5b 	bl	8002e94 <SPI_WaitFifoStateUntilTimeout.constprop.0>
 8002fde:	2800      	cmp	r0, #0
 8002fe0:	d1e2      	bne.n	8002fa8 <SPI_EndRxTransaction+0x3c>
    }
  }
  return HAL_OK;
}
 8002fe2:	0028      	movs	r0, r5
 8002fe4:	bdf8      	pop	{r3, r4, r5, r6, r7, pc}

08002fe6 <SPI_EndRxTxTransaction>:
  * @param  Timeout Timeout duration
  * @param  Tickstart tick start value
  * @retval HAL status
  */
static HAL_StatusTypeDef SPI_EndRxTxTransaction(SPI_HandleTypeDef *hspi, uint32_t Timeout, uint32_t Tickstart)
{
 8002fe6:	b570      	push	{r4, r5, r6, lr}
  /* Control if the TX fifo is empty */
  if (SPI_WaitFifoStateUntilTimeout(hspi, SPI_FLAG_FTLVL, SPI_FTLVL_EMPTY, Timeout, Tickstart) != HAL_OK)
 8002fe8:	0013      	movs	r3, r2
{
 8002fea:	000d      	movs	r5, r1
 8002fec:	0016      	movs	r6, r2
  if (SPI_WaitFifoStateUntilTimeout(hspi, SPI_FLAG_FTLVL, SPI_FTLVL_EMPTY, Timeout, Tickstart) != HAL_OK)
 8002fee:	000a      	movs	r2, r1
 8002ff0:	21c0      	movs	r1, #192	@ 0xc0
 8002ff2:	0149      	lsls	r1, r1, #5
{
 8002ff4:	0004      	movs	r4, r0
  if (SPI_WaitFifoStateUntilTimeout(hspi, SPI_FLAG_FTLVL, SPI_FTLVL_EMPTY, Timeout, Tickstart) != HAL_OK)
 8002ff6:	f7ff ff4d 	bl	8002e94 <SPI_WaitFifoStateUntilTimeout.constprop.0>
 8002ffa:	2800      	cmp	r0, #0
 8002ffc:	d005      	beq.n	800300a <SPI_EndRxTxTransaction+0x24>
  }

  /* Control the BSY flag */
  if (SPI_WaitFlagStateUntilTimeout(hspi, SPI_FLAG_BSY, RESET, Timeout, Tickstart) != HAL_OK)
  {
    SET_BIT(hspi->ErrorCode, HAL_SPI_ERROR_FLAG);
 8002ffe:	2320      	movs	r3, #32
    return HAL_TIMEOUT;
 8003000:	2003      	movs	r0, #3
    SET_BIT(hspi->ErrorCode, HAL_SPI_ERROR_FLAG);
 8003002:	6e22      	ldr	r2, [r4, #96]	@ 0x60
 8003004:	4313      	orrs	r3, r2
 8003006:	6623      	str	r3, [r4, #96]	@ 0x60
    SET_BIT(hspi->ErrorCode, HAL_SPI_ERROR_FLAG);
    return HAL_TIMEOUT;
  }

  return HAL_OK;
}
 8003008:	bd70      	pop	{r4, r5, r6, pc}
  if (SPI_WaitFlagStateUntilTimeout(hspi, SPI_FLAG_BSY, RESET, Timeout, Tickstart) != HAL_OK)
 800300a:	0032      	movs	r2, r6
 800300c:	0029      	movs	r1, r5
 800300e:	0020      	movs	r0, r4
 8003010:	f7ff fee4 	bl	8002ddc <SPI_WaitFlagStateUntilTimeout.constprop.0>
 8003014:	2800      	cmp	r0, #0
 8003016:	d1f2      	bne.n	8002ffe <SPI_EndRxTxTransaction+0x18>
  if (SPI_WaitFifoStateUntilTimeout(hspi, SPI_FLAG_FRLVL, SPI_FRLVL_EMPTY, Timeout, Tickstart) != HAL_OK)
 8003018:	21c0      	movs	r1, #192	@ 0xc0
 800301a:	0033      	movs	r3, r6
 800301c:	002a      	movs	r2, r5
 800301e:	0020      	movs	r0, r4
 8003020:	00c9      	lsls	r1, r1, #3
 8003022:	f7ff ff37 	bl	8002e94 <SPI_WaitFifoStateUntilTimeout.constprop.0>
 8003026:	2800      	cmp	r0, #0
 8003028:	d0ee      	beq.n	8003008 <SPI_EndRxTxTransaction+0x22>
 800302a:	e7e8      	b.n	8002ffe <SPI_EndRxTxTransaction+0x18>

0800302c <HAL_SPI_Init>:
{
 800302c:	b5f8      	push	{r3, r4, r5, r6, r7, lr}
 800302e:	0004      	movs	r4, r0
    return HAL_ERROR;
 8003030:	2001      	movs	r0, #1
  if (hspi == NULL)
 8003032:	2c00      	cmp	r4, #0
 8003034:	d067      	beq.n	8003106 <HAL_SPI_Init+0xda>
  if (hspi->Init.TIMode == SPI_TIMODE_DISABLE)
 8003036:	6a63      	ldr	r3, [r4, #36]	@ 0x24
 8003038:	2b00      	cmp	r3, #0
 800303a:	d165      	bne.n	8003108 <HAL_SPI_Init+0xdc>
    if (hspi->Init.Mode == SPI_MODE_MASTER)
 800303c:	2282      	movs	r2, #130	@ 0x82
 800303e:	6861      	ldr	r1, [r4, #4]
 8003040:	0052      	lsls	r2, r2, #1
 8003042:	4291      	cmp	r1, r2
 8003044:	d000      	beq.n	8003048 <HAL_SPI_Init+0x1c>
      hspi->Init.BaudRatePrescaler = SPI_BAUDRATEPRESCALER_2;
 8003046:	61e3      	str	r3, [r4, #28]
  hspi->Init.CRCCalculation = SPI_CRCCALCULATION_DISABLE;
 8003048:	2300      	movs	r3, #0
  if (hspi->State == HAL_SPI_STATE_RESET)
 800304a:	0025      	movs	r5, r4
  hspi->Init.CRCCalculation = SPI_CRCCALCULATION_DISABLE;
 800304c:	62a3      	str	r3, [r4, #40]	@ 0x28
  if (hspi->State == HAL_SPI_STATE_RESET)
 800304e:	355d      	adds	r5, #93	@ 0x5d
 8003050:	782b      	ldrb	r3, [r5, #0]
 8003052:	b2da      	uxtb	r2, r3
 8003054:	2b00      	cmp	r3, #0
 8003056:	d105      	bne.n	8003064 <HAL_SPI_Init+0x38>
    hspi->Lock = HAL_UNLOCKED;
 8003058:	0023      	movs	r3, r4
 800305a:	335c      	adds	r3, #92	@ 0x5c
    HAL_SPI_MspInit(hspi);
 800305c:	0020      	movs	r0, r4
    hspi->Lock = HAL_UNLOCKED;
 800305e:	701a      	strb	r2, [r3, #0]
    HAL_SPI_MspInit(hspi);
 8003060:	f7fe fab2 	bl	80015c8 <HAL_SPI_MspInit>
  hspi->State = HAL_SPI_STATE_BUSY;
 8003064:	2302      	movs	r3, #2
  __HAL_SPI_DISABLE(hspi);
 8003066:	2240      	movs	r2, #64	@ 0x40
  hspi->State = HAL_SPI_STATE_BUSY;
 8003068:	702b      	strb	r3, [r5, #0]
  __HAL_SPI_DISABLE(hspi);
 800306a:	6821      	ldr	r1, [r4, #0]
  if (hspi->Init.DataSize > SPI_DATASIZE_8BIT)
 800306c:	68e6      	ldr	r6, [r4, #12]
  __HAL_SPI_DISABLE(hspi);
 800306e:	680b      	ldr	r3, [r1, #0]
 8003070:	4393      	bics	r3, r2
  if (hspi->Init.DataSize > SPI_DATASIZE_8BIT)
 8003072:	22e0      	movs	r2, #224	@ 0xe0
  __HAL_SPI_DISABLE(hspi);
 8003074:	600b      	str	r3, [r1, #0]
  if (hspi->Init.DataSize > SPI_DATASIZE_8BIT)
 8003076:	00d2      	lsls	r2, r2, #3
 8003078:	2300      	movs	r3, #0
 800307a:	4296      	cmp	r6, r2
 800307c:	d948      	bls.n	8003110 <HAL_SPI_Init+0xe4>
  if ((hspi->Init.DataSize != SPI_DATASIZE_16BIT) && (hspi->Init.DataSize != SPI_DATASIZE_8BIT))
 800307e:	22f0      	movs	r2, #240	@ 0xf0
 8003080:	0018      	movs	r0, r3
 8003082:	0112      	lsls	r2, r2, #4
 8003084:	4296      	cmp	r6, r2
 8003086:	d000      	beq.n	800308a <HAL_SPI_Init+0x5e>
    hspi->Init.CRCCalculation = SPI_CRCCALCULATION_DISABLE;
 8003088:	62a3      	str	r3, [r4, #40]	@ 0x28
  WRITE_REG(hspi->Instance->CR1, ((hspi->Init.Mode & (SPI_CR1_MSTR | SPI_CR1_SSI)) |
 800308a:	2282      	movs	r2, #130	@ 0x82
 800308c:	2784      	movs	r7, #132	@ 0x84
 800308e:	6863      	ldr	r3, [r4, #4]
 8003090:	0052      	lsls	r2, r2, #1
 8003092:	4013      	ands	r3, r2
 8003094:	68a2      	ldr	r2, [r4, #8]
 8003096:	023f      	lsls	r7, r7, #8
 8003098:	403a      	ands	r2, r7
 800309a:	2702      	movs	r7, #2
 800309c:	4313      	orrs	r3, r2
 800309e:	6922      	ldr	r2, [r4, #16]
 80030a0:	69a5      	ldr	r5, [r4, #24]
 80030a2:	403a      	ands	r2, r7
 80030a4:	4313      	orrs	r3, r2
 80030a6:	2201      	movs	r2, #1
 80030a8:	6967      	ldr	r7, [r4, #20]
 80030aa:	4017      	ands	r7, r2
 80030ac:	433b      	orrs	r3, r7
 80030ae:	2780      	movs	r7, #128	@ 0x80
 80030b0:	00bf      	lsls	r7, r7, #2
 80030b2:	402f      	ands	r7, r5
 80030b4:	433b      	orrs	r3, r7
 80030b6:	69e7      	ldr	r7, [r4, #28]
 80030b8:	3237      	adds	r2, #55	@ 0x37
 80030ba:	4017      	ands	r7, r2
 80030bc:	433b      	orrs	r3, r7
 80030be:	6a27      	ldr	r7, [r4, #32]
 80030c0:	3248      	adds	r2, #72	@ 0x48
 80030c2:	4017      	ands	r7, r2
 80030c4:	2280      	movs	r2, #128	@ 0x80
 80030c6:	433b      	orrs	r3, r7
 80030c8:	6aa7      	ldr	r7, [r4, #40]	@ 0x28
 80030ca:	0192      	lsls	r2, r2, #6
 80030cc:	4017      	ands	r7, r2
 80030ce:	433b      	orrs	r3, r7
  WRITE_REG(hspi->Instance->CR2, (((hspi->Init.NSS >> 16U) & SPI_CR2_SSOE) |
 80030d0:	2710      	movs	r7, #16
 80030d2:	2208      	movs	r2, #8
  WRITE_REG(hspi->Instance->CR1, ((hspi->Init.Mode & (SPI_CR1_MSTR | SPI_CR1_SSI)) |
 80030d4:	600b      	str	r3, [r1, #0]
  WRITE_REG(hspi->Instance->CR2, (((hspi->Init.NSS >> 16U) & SPI_CR2_SSOE) |
 80030d6:	6a63      	ldr	r3, [r4, #36]	@ 0x24
 80030d8:	0c2d      	lsrs	r5, r5, #16
 80030da:	403b      	ands	r3, r7
 80030dc:	6b67      	ldr	r7, [r4, #52]	@ 0x34
 80030de:	4017      	ands	r7, r2
 80030e0:	433b      	orrs	r3, r7
 80030e2:	27f0      	movs	r7, #240	@ 0xf0
 80030e4:	013f      	lsls	r7, r7, #4
 80030e6:	403e      	ands	r6, r7
 80030e8:	4333      	orrs	r3, r6
 80030ea:	2604      	movs	r6, #4
 80030ec:	4035      	ands	r5, r6
 80030ee:	432b      	orrs	r3, r5
 80030f0:	4303      	orrs	r3, r0
 80030f2:	604b      	str	r3, [r1, #4]
  CLEAR_BIT(hspi->Instance->I2SCFGR, SPI_I2SCFGR_I2SMOD);
 80030f4:	69cb      	ldr	r3, [r1, #28]
 80030f6:	4808      	ldr	r0, [pc, #32]	@ (8003118 <HAL_SPI_Init+0xec>)
 80030f8:	4003      	ands	r3, r0
  hspi->ErrorCode = HAL_SPI_ERROR_NONE;
 80030fa:	2000      	movs	r0, #0
  CLEAR_BIT(hspi->Instance->I2SCFGR, SPI_I2SCFGR_I2SMOD);
 80030fc:	61cb      	str	r3, [r1, #28]
  hspi->State     = HAL_SPI_STATE_READY;
 80030fe:	2301      	movs	r3, #1
  hspi->ErrorCode = HAL_SPI_ERROR_NONE;
 8003100:	6620      	str	r0, [r4, #96]	@ 0x60
  hspi->State     = HAL_SPI_STATE_READY;
 8003102:	345d      	adds	r4, #93	@ 0x5d
 8003104:	7023      	strb	r3, [r4, #0]
}
 8003106:	bdf8      	pop	{r3, r4, r5, r6, r7, pc}
    hspi->Init.CLKPolarity = SPI_POLARITY_LOW;
 8003108:	2300      	movs	r3, #0
 800310a:	6123      	str	r3, [r4, #16]
    hspi->Init.CLKPhase    = SPI_PHASE_1EDGE;
 800310c:	6163      	str	r3, [r4, #20]
 800310e:	e79b      	b.n	8003048 <HAL_SPI_Init+0x1c>
 8003110:	2080      	movs	r0, #128	@ 0x80
 8003112:	0140      	lsls	r0, r0, #5
 8003114:	e7b6      	b.n	8003084 <HAL_SPI_Init+0x58>
 8003116:	46c0      	nop			@ (mov r8, r8)
 8003118:	fffff7ff 	.word	0xfffff7ff

0800311c <HAL_SPI_Transmit>:
{
 800311c:	b5f0      	push	{r4, r5, r6, r7, lr}
 800311e:	0004      	movs	r4, r0
 8003120:	b085      	sub	sp, #20
 8003122:	001e      	movs	r6, r3
 8003124:	000d      	movs	r5, r1
 8003126:	0017      	movs	r7, r2
  tickstart = HAL_GetTick();
 8003128:	f7fe fbde 	bl	80018e8 <HAL_GetTick>
  if (hspi->State != HAL_SPI_STATE_READY)
 800312c:	0023      	movs	r3, r4
 800312e:	335d      	adds	r3, #93	@ 0x5d
  tickstart = HAL_GetTick();
 8003130:	9000      	str	r0, [sp, #0]
  if (hspi->State != HAL_SPI_STATE_READY)
 8003132:	9301      	str	r3, [sp, #4]
 8003134:	781b      	ldrb	r3, [r3, #0]
 8003136:	b2d8      	uxtb	r0, r3
 8003138:	2b01      	cmp	r3, #1
 800313a:	d000      	beq.n	800313e <HAL_SPI_Transmit+0x22>
 800313c:	e0c6      	b.n	80032cc <HAL_SPI_Transmit+0x1b0>
  if ((pData == NULL) || (Size == 0U))
 800313e:	2d00      	cmp	r5, #0
 8003140:	d100      	bne.n	8003144 <HAL_SPI_Transmit+0x28>
 8003142:	e080      	b.n	8003246 <HAL_SPI_Transmit+0x12a>
 8003144:	2f00      	cmp	r7, #0
 8003146:	d100      	bne.n	800314a <HAL_SPI_Transmit+0x2e>
 8003148:	e07d      	b.n	8003246 <HAL_SPI_Transmit+0x12a>
  __HAL_LOCK(hspi);
 800314a:	0023      	movs	r3, r4
 800314c:	335c      	adds	r3, #92	@ 0x5c
 800314e:	781a      	ldrb	r2, [r3, #0]
 8003150:	2a01      	cmp	r2, #1
 8003152:	d100      	bne.n	8003156 <HAL_SPI_Transmit+0x3a>
 8003154:	e0ba      	b.n	80032cc <HAL_SPI_Transmit+0x1b0>
 8003156:	7018      	strb	r0, [r3, #0]
  hspi->State       = HAL_SPI_STATE_BUSY_TX;
 8003158:	2303      	movs	r3, #3
 800315a:	9a01      	ldr	r2, [sp, #4]
 800315c:	7013      	strb	r3, [r2, #0]
  hspi->ErrorCode   = HAL_SPI_ERROR_NONE;
 800315e:	2300      	movs	r3, #0
  hspi->RxXferSize  = 0U;
 8003160:	1da2      	adds	r2, r4, #6
  hspi->ErrorCode   = HAL_SPI_ERROR_NONE;
 8003162:	6623      	str	r3, [r4, #96]	@ 0x60
  hspi->pRxBuffPtr  = (uint8_t *)NULL;
 8003164:	6423      	str	r3, [r4, #64]	@ 0x40
  hspi->pTxBuffPtr  = (const uint8_t *)pData;
 8003166:	63a5      	str	r5, [r4, #56]	@ 0x38
  hspi->TxXferSize  = Size;
 8003168:	87a7      	strh	r7, [r4, #60]	@ 0x3c
  hspi->TxXferCount = Size;
 800316a:	87e7      	strh	r7, [r4, #62]	@ 0x3e
  hspi->RxXferCount = 0U;
 800316c:	3202      	adds	r2, #2
  hspi->RxXferSize  = 0U;
 800316e:	8793      	strh	r3, [r2, #60]	@ 0x3c
  hspi->RxXferCount = 0U;
 8003170:	87d3      	strh	r3, [r2, #62]	@ 0x3e
  if (hspi->Init.Direction == SPI_DIRECTION_1LINE)
 8003172:	2280      	movs	r2, #128	@ 0x80
 8003174:	68a1      	ldr	r1, [r4, #8]
  hspi->TxISR       = NULL;
 8003176:	6523      	str	r3, [r4, #80]	@ 0x50
  hspi->RxISR       = NULL;
 8003178:	64e3      	str	r3, [r4, #76]	@ 0x4c
  if (hspi->Init.Direction == SPI_DIRECTION_1LINE)
 800317a:	0212      	lsls	r2, r2, #8
    __HAL_SPI_DISABLE(hspi);
 800317c:	6823      	ldr	r3, [r4, #0]
  if (hspi->Init.Direction == SPI_DIRECTION_1LINE)
 800317e:	4291      	cmp	r1, r2
 8003180:	d108      	bne.n	8003194 <HAL_SPI_Transmit+0x78>
    __HAL_SPI_DISABLE(hspi);
 8003182:	2140      	movs	r1, #64	@ 0x40
 8003184:	681a      	ldr	r2, [r3, #0]
 8003186:	438a      	bics	r2, r1
 8003188:	601a      	str	r2, [r3, #0]
    SPI_1LINE_TX(hspi);
 800318a:	2280      	movs	r2, #128	@ 0x80
 800318c:	6819      	ldr	r1, [r3, #0]
 800318e:	01d2      	lsls	r2, r2, #7
 8003190:	430a      	orrs	r2, r1
 8003192:	601a      	str	r2, [r3, #0]
  if ((hspi->Instance->CR1 & SPI_CR1_SPE) != SPI_CR1_SPE)
 8003194:	2240      	movs	r2, #64	@ 0x40
 8003196:	6819      	ldr	r1, [r3, #0]
 8003198:	4211      	tst	r1, r2
 800319a:	d102      	bne.n	80031a2 <HAL_SPI_Transmit+0x86>
    __HAL_SPI_ENABLE(hspi);
 800319c:	6819      	ldr	r1, [r3, #0]
 800319e:	430a      	orrs	r2, r1
 80031a0:	601a      	str	r2, [r3, #0]
  if (hspi->Init.DataSize > SPI_DATASIZE_8BIT)
 80031a2:	21e0      	movs	r1, #224	@ 0xe0
 80031a4:	68e0      	ldr	r0, [r4, #12]
    if ((hspi->Init.Mode == SPI_MODE_SLAVE) || (initial_TxXferCount == 0x01U))
 80031a6:	6862      	ldr	r2, [r4, #4]
  if (hspi->Init.DataSize > SPI_DATASIZE_8BIT)
 80031a8:	00c9      	lsls	r1, r1, #3
 80031aa:	4288      	cmp	r0, r1
 80031ac:	d94d      	bls.n	800324a <HAL_SPI_Transmit+0x12e>
    if ((hspi->Init.Mode == SPI_MODE_SLAVE) || (initial_TxXferCount == 0x01U))
 80031ae:	2a00      	cmp	r2, #0
 80031b0:	d001      	beq.n	80031b6 <HAL_SPI_Transmit+0x9a>
 80031b2:	2f01      	cmp	r7, #1
 80031b4:	d107      	bne.n	80031c6 <HAL_SPI_Transmit+0xaa>
      hspi->Instance->DR = *((const uint16_t *)hspi->pTxBuffPtr);
 80031b6:	882a      	ldrh	r2, [r5, #0]
      hspi->pTxBuffPtr += sizeof(uint16_t);
 80031b8:	3502      	adds	r5, #2
      hspi->Instance->DR = *((const uint16_t *)hspi->pTxBuffPtr);
 80031ba:	60da      	str	r2, [r3, #12]
      hspi->TxXferCount--;
 80031bc:	8fe3      	ldrh	r3, [r4, #62]	@ 0x3e
      hspi->pTxBuffPtr += sizeof(uint16_t);
 80031be:	63a5      	str	r5, [r4, #56]	@ 0x38
      hspi->TxXferCount--;
 80031c0:	3b01      	subs	r3, #1
 80031c2:	b29b      	uxth	r3, r3
 80031c4:	87e3      	strh	r3, [r4, #62]	@ 0x3e
      if (__HAL_SPI_GET_FLAG(hspi, SPI_FLAG_TXE))
 80031c6:	2502      	movs	r5, #2
 80031c8:	e00c      	b.n	80031e4 <HAL_SPI_Transmit+0xc8>
 80031ca:	6822      	ldr	r2, [r4, #0]
 80031cc:	6893      	ldr	r3, [r2, #8]
 80031ce:	422b      	tst	r3, r5
 80031d0:	d029      	beq.n	8003226 <HAL_SPI_Transmit+0x10a>
        hspi->Instance->DR = *((const uint16_t *)hspi->pTxBuffPtr);
 80031d2:	6ba3      	ldr	r3, [r4, #56]	@ 0x38
 80031d4:	8819      	ldrh	r1, [r3, #0]
        hspi->pTxBuffPtr += sizeof(uint16_t);
 80031d6:	3302      	adds	r3, #2
        hspi->Instance->DR = *((const uint16_t *)hspi->pTxBuffPtr);
 80031d8:	60d1      	str	r1, [r2, #12]
        hspi->pTxBuffPtr += sizeof(uint16_t);
 80031da:	63a3      	str	r3, [r4, #56]	@ 0x38
        hspi->TxXferCount--;
 80031dc:	8fe3      	ldrh	r3, [r4, #62]	@ 0x3e
 80031de:	3b01      	subs	r3, #1
 80031e0:	b29b      	uxth	r3, r3
 80031e2:	87e3      	strh	r3, [r4, #62]	@ 0x3e
    while (hspi->TxXferCount > 0U)
 80031e4:	8fe3      	ldrh	r3, [r4, #62]	@ 0x3e
 80031e6:	2b00      	cmp	r3, #0
 80031e8:	d1ef      	bne.n	80031ca <HAL_SPI_Transmit+0xae>
  if (SPI_EndRxTxTransaction(hspi, Timeout, tickstart) != HAL_OK)
 80031ea:	0031      	movs	r1, r6
 80031ec:	0020      	movs	r0, r4
 80031ee:	9a00      	ldr	r2, [sp, #0]
 80031f0:	f7ff fef9 	bl	8002fe6 <SPI_EndRxTxTransaction>
 80031f4:	2800      	cmp	r0, #0
 80031f6:	d000      	beq.n	80031fa <HAL_SPI_Transmit+0xde>
 80031f8:	e065      	b.n	80032c6 <HAL_SPI_Transmit+0x1aa>
  if (hspi->Init.Direction == SPI_DIRECTION_2LINES)
 80031fa:	68a3      	ldr	r3, [r4, #8]
 80031fc:	2b00      	cmp	r3, #0
 80031fe:	d106      	bne.n	800320e <HAL_SPI_Transmit+0xf2>
    __HAL_SPI_CLEAR_OVRFLAG(hspi);
 8003200:	9303      	str	r3, [sp, #12]
 8003202:	6823      	ldr	r3, [r4, #0]
 8003204:	68da      	ldr	r2, [r3, #12]
 8003206:	9203      	str	r2, [sp, #12]
 8003208:	689b      	ldr	r3, [r3, #8]
 800320a:	9303      	str	r3, [sp, #12]
 800320c:	9b03      	ldr	r3, [sp, #12]
  hspi->State = HAL_SPI_STATE_READY;
 800320e:	2301      	movs	r3, #1
 8003210:	9a01      	ldr	r2, [sp, #4]
 8003212:	7013      	strb	r3, [r2, #0]
  __HAL_UNLOCK(hspi);
 8003214:	0023      	movs	r3, r4
 8003216:	2200      	movs	r2, #0
 8003218:	335c      	adds	r3, #92	@ 0x5c
 800321a:	701a      	strb	r2, [r3, #0]
  if (hspi->ErrorCode != HAL_SPI_ERROR_NONE)
 800321c:	6e20      	ldr	r0, [r4, #96]	@ 0x60
 800321e:	1e43      	subs	r3, r0, #1
 8003220:	4198      	sbcs	r0, r3
 8003222:	b2c0      	uxtb	r0, r0
 8003224:	e00f      	b.n	8003246 <HAL_SPI_Transmit+0x12a>
        if ((((HAL_GetTick() - tickstart) >=  Timeout) && (Timeout != HAL_MAX_DELAY)) || (Timeout == 0U))
 8003226:	f7fe fb5f 	bl	80018e8 <HAL_GetTick>
 800322a:	9b00      	ldr	r3, [sp, #0]
 800322c:	1ac0      	subs	r0, r0, r3
 800322e:	42b0      	cmp	r0, r6
 8003230:	d3d8      	bcc.n	80031e4 <HAL_SPI_Transmit+0xc8>
 8003232:	1c73      	adds	r3, r6, #1
 8003234:	d0d6      	beq.n	80031e4 <HAL_SPI_Transmit+0xc8>
          hspi->State = HAL_SPI_STATE_READY;
 8003236:	0023      	movs	r3, r4
 8003238:	2201      	movs	r2, #1
 800323a:	335d      	adds	r3, #93	@ 0x5d
 800323c:	701a      	strb	r2, [r3, #0]
          __HAL_UNLOCK(hspi);
 800323e:	2300      	movs	r3, #0
          return HAL_TIMEOUT;
 8003240:	2003      	movs	r0, #3
          __HAL_UNLOCK(hspi);
 8003242:	345c      	adds	r4, #92	@ 0x5c
 8003244:	7023      	strb	r3, [r4, #0]
}
 8003246:	b005      	add	sp, #20
 8003248:	bdf0      	pop	{r4, r5, r6, r7, pc}
    if ((hspi->Init.Mode == SPI_MODE_SLAVE) || (initial_TxXferCount == 0x01U))
 800324a:	2a00      	cmp	r2, #0
 800324c:	d001      	beq.n	8003252 <HAL_SPI_Transmit+0x136>
 800324e:	2f01      	cmp	r7, #1
 8003250:	d10a      	bne.n	8003268 <HAL_SPI_Transmit+0x14c>
      if (hspi->TxXferCount > 1U)
 8003252:	8fe2      	ldrh	r2, [r4, #62]	@ 0x3e
 8003254:	2a01      	cmp	r2, #1
 8003256:	d909      	bls.n	800326c <HAL_SPI_Transmit+0x150>
        hspi->Instance->DR = *((const uint16_t *)hspi->pTxBuffPtr);
 8003258:	882a      	ldrh	r2, [r5, #0]
        hspi->pTxBuffPtr += sizeof(uint16_t);
 800325a:	3502      	adds	r5, #2
        hspi->Instance->DR = *((const uint16_t *)hspi->pTxBuffPtr);
 800325c:	60da      	str	r2, [r3, #12]
        hspi->TxXferCount -= 2U;
 800325e:	8fe3      	ldrh	r3, [r4, #62]	@ 0x3e
        hspi->pTxBuffPtr += sizeof(uint16_t);
 8003260:	63a5      	str	r5, [r4, #56]	@ 0x38
        hspi->TxXferCount -= 2U;
 8003262:	3b02      	subs	r3, #2
        hspi->TxXferCount--;
 8003264:	b29b      	uxth	r3, r3
 8003266:	87e3      	strh	r3, [r4, #62]	@ 0x3e
      if (__HAL_SPI_GET_FLAG(hspi, SPI_FLAG_TXE))
 8003268:	2502      	movs	r5, #2
 800326a:	e017      	b.n	800329c <HAL_SPI_Transmit+0x180>
        *((__IO uint8_t *)&hspi->Instance->DR) = *((const uint8_t *)hspi->pTxBuffPtr);
 800326c:	782a      	ldrb	r2, [r5, #0]
 800326e:	731a      	strb	r2, [r3, #12]
        hspi->pTxBuffPtr ++;
 8003270:	6ba3      	ldr	r3, [r4, #56]	@ 0x38
 8003272:	3301      	adds	r3, #1
 8003274:	63a3      	str	r3, [r4, #56]	@ 0x38
        hspi->TxXferCount--;
 8003276:	8fe3      	ldrh	r3, [r4, #62]	@ 0x3e
 8003278:	3b01      	subs	r3, #1
 800327a:	e7f3      	b.n	8003264 <HAL_SPI_Transmit+0x148>
      if (__HAL_SPI_GET_FLAG(hspi, SPI_FLAG_TXE))
 800327c:	6822      	ldr	r2, [r4, #0]
 800327e:	6893      	ldr	r3, [r2, #8]
 8003280:	422b      	tst	r3, r5
 8003282:	d017      	beq.n	80032b4 <HAL_SPI_Transmit+0x198>
        if (hspi->TxXferCount > 1U)
 8003284:	8fe1      	ldrh	r1, [r4, #62]	@ 0x3e
          hspi->Instance->DR = *((const uint16_t *)hspi->pTxBuffPtr);
 8003286:	6ba3      	ldr	r3, [r4, #56]	@ 0x38
        if (hspi->TxXferCount > 1U)
 8003288:	2901      	cmp	r1, #1
 800328a:	d90b      	bls.n	80032a4 <HAL_SPI_Transmit+0x188>
          hspi->Instance->DR = *((const uint16_t *)hspi->pTxBuffPtr);
 800328c:	8819      	ldrh	r1, [r3, #0]
          hspi->pTxBuffPtr += sizeof(uint16_t);
 800328e:	3302      	adds	r3, #2
          hspi->Instance->DR = *((const uint16_t *)hspi->pTxBuffPtr);
 8003290:	60d1      	str	r1, [r2, #12]
          hspi->pTxBuffPtr += sizeof(uint16_t);
 8003292:	63a3      	str	r3, [r4, #56]	@ 0x38
          hspi->TxXferCount -= 2U;
 8003294:	8fe3      	ldrh	r3, [r4, #62]	@ 0x3e
 8003296:	3b02      	subs	r3, #2
          hspi->TxXferCount--;
 8003298:	b29b      	uxth	r3, r3
 800329a:	87e3      	strh	r3, [r4, #62]	@ 0x3e
    while (hspi->TxXferCount > 0U)
 800329c:	8fe3      	ldrh	r3, [r4, #62]	@ 0x3e
 800329e:	2b00      	cmp	r3, #0
 80032a0:	d1ec      	bne.n	800327c <HAL_SPI_Transmit+0x160>
 80032a2:	e7a2      	b.n	80031ea <HAL_SPI_Transmit+0xce>
          *((__IO uint8_t *)&hspi->Instance->DR) = *((const uint8_t *)hspi->pTxBuffPtr);
 80032a4:	781b      	ldrb	r3, [r3, #0]
 80032a6:	7313      	strb	r3, [r2, #12]
          hspi->pTxBuffPtr++;
 80032a8:	6ba3      	ldr	r3, [r4, #56]	@ 0x38
 80032aa:	3301      	adds	r3, #1
 80032ac:	63a3      	str	r3, [r4, #56]	@ 0x38
          hspi->TxXferCount--;
 80032ae:	8fe3      	ldrh	r3, [r4, #62]	@ 0x3e
 80032b0:	3b01      	subs	r3, #1
 80032b2:	e7f1      	b.n	8003298 <HAL_SPI_Transmit+0x17c>
        if ((((HAL_GetTick() - tickstart) >=  Timeout) && (Timeout != HAL_MAX_DELAY)) || (Timeout == 0U))
 80032b4:	f7fe fb18 	bl	80018e8 <HAL_GetTick>
 80032b8:	9b00      	ldr	r3, [sp, #0]
 80032ba:	1ac0      	subs	r0, r0, r3
 80032bc:	42b0      	cmp	r0, r6
 80032be:	d3ed      	bcc.n	800329c <HAL_SPI_Transmit+0x180>
 80032c0:	1c73      	adds	r3, r6, #1
 80032c2:	d0eb      	beq.n	800329c <HAL_SPI_Transmit+0x180>
 80032c4:	e7b7      	b.n	8003236 <HAL_SPI_Transmit+0x11a>
    hspi->ErrorCode = HAL_SPI_ERROR_FLAG;
 80032c6:	2320      	movs	r3, #32
 80032c8:	6623      	str	r3, [r4, #96]	@ 0x60
 80032ca:	e796      	b.n	80031fa <HAL_SPI_Transmit+0xde>
    return HAL_BUSY;
 80032cc:	2002      	movs	r0, #2
 80032ce:	e7ba      	b.n	8003246 <HAL_SPI_Transmit+0x12a>

080032d0 <HAL_SPI_TransmitReceive>:
{
 80032d0:	b5f7      	push	{r0, r1, r2, r4, r5, r6, r7, lr}
 80032d2:	0004      	movs	r4, r0
 80032d4:	000d      	movs	r5, r1
 80032d6:	0017      	movs	r7, r2
 80032d8:	001e      	movs	r6, r3
  tickstart = HAL_GetTick();
 80032da:	f7fe fb05 	bl	80018e8 <HAL_GetTick>
  tmp_state           = hspi->State;
 80032de:	0023      	movs	r3, r4
  tickstart = HAL_GetTick();
 80032e0:	9001      	str	r0, [sp, #4]
  tmp_state           = hspi->State;
 80032e2:	335d      	adds	r3, #93	@ 0x5d
 80032e4:	781b      	ldrb	r3, [r3, #0]
  tmp_mode            = hspi->Init.Mode;
 80032e6:	6861      	ldr	r1, [r4, #4]
  tmp_state           = hspi->State;
 80032e8:	b2da      	uxtb	r2, r3
  if (!((tmp_state == HAL_SPI_STATE_READY) || \
 80032ea:	2b01      	cmp	r3, #1
 80032ec:	d00c      	beq.n	8003308 <HAL_SPI_TransmitReceive+0x38>
 80032ee:	2382      	movs	r3, #130	@ 0x82
    return HAL_BUSY;
 80032f0:	2002      	movs	r0, #2
  if (!((tmp_state == HAL_SPI_STATE_READY) || \
 80032f2:	005b      	lsls	r3, r3, #1
 80032f4:	4299      	cmp	r1, r3
 80032f6:	d000      	beq.n	80032fa <HAL_SPI_TransmitReceive+0x2a>
 80032f8:	e0a4      	b.n	8003444 <HAL_SPI_TransmitReceive+0x174>
        ((tmp_mode == SPI_MODE_MASTER) && (hspi->Init.Direction == SPI_DIRECTION_2LINES) && (tmp_state == HAL_SPI_STATE_BUSY_RX))))
 80032fa:	68a3      	ldr	r3, [r4, #8]
 80032fc:	2b00      	cmp	r3, #0
 80032fe:	d000      	beq.n	8003302 <HAL_SPI_TransmitReceive+0x32>
 8003300:	e0a0      	b.n	8003444 <HAL_SPI_TransmitReceive+0x174>
 8003302:	2a04      	cmp	r2, #4
 8003304:	d000      	beq.n	8003308 <HAL_SPI_TransmitReceive+0x38>
 8003306:	e09d      	b.n	8003444 <HAL_SPI_TransmitReceive+0x174>
  if ((pTxData == NULL) || (pRxData == NULL) || (Size == 0U))
 8003308:	2d00      	cmp	r5, #0
 800330a:	d05c      	beq.n	80033c6 <HAL_SPI_TransmitReceive+0xf6>
 800330c:	2f00      	cmp	r7, #0
 800330e:	d05a      	beq.n	80033c6 <HAL_SPI_TransmitReceive+0xf6>
 8003310:	2e00      	cmp	r6, #0
 8003312:	d058      	beq.n	80033c6 <HAL_SPI_TransmitReceive+0xf6>
  __HAL_LOCK(hspi);
 8003314:	0023      	movs	r3, r4
 8003316:	335c      	adds	r3, #92	@ 0x5c
 8003318:	781a      	ldrb	r2, [r3, #0]
    return HAL_BUSY;
 800331a:	2002      	movs	r0, #2
  __HAL_LOCK(hspi);
 800331c:	2a01      	cmp	r2, #1
 800331e:	d100      	bne.n	8003322 <HAL_SPI_TransmitReceive+0x52>
 8003320:	e090      	b.n	8003444 <HAL_SPI_TransmitReceive+0x174>
 8003322:	2201      	movs	r2, #1
 8003324:	701a      	strb	r2, [r3, #0]
  if (hspi->State != HAL_SPI_STATE_BUSY_RX)
 8003326:	785a      	ldrb	r2, [r3, #1]
 8003328:	3301      	adds	r3, #1
 800332a:	2a04      	cmp	r2, #4
 800332c:	d001      	beq.n	8003332 <HAL_SPI_TransmitReceive+0x62>
    hspi->State = HAL_SPI_STATE_BUSY_TX_RX;
 800332e:	2205      	movs	r2, #5
 8003330:	701a      	strb	r2, [r3, #0]
  hspi->RxXferCount = Size;
 8003332:	0022      	movs	r2, r4
  hspi->ErrorCode   = HAL_SPI_ERROR_NONE;
 8003334:	2300      	movs	r3, #0
  hspi->RxXferCount = Size;
 8003336:	3208      	adds	r2, #8
  hspi->ErrorCode   = HAL_SPI_ERROR_NONE;
 8003338:	6623      	str	r3, [r4, #96]	@ 0x60
  hspi->pRxBuffPtr  = (uint8_t *)pRxData;
 800333a:	6427      	str	r7, [r4, #64]	@ 0x40
  hspi->RxXferCount = Size;
 800333c:	87d6      	strh	r6, [r2, #62]	@ 0x3e
  hspi->RxXferSize  = Size;
 800333e:	1da2      	adds	r2, r4, #6
 8003340:	87d6      	strh	r6, [r2, #62]	@ 0x3e
  hspi->RxISR       = NULL;
 8003342:	64e3      	str	r3, [r4, #76]	@ 0x4c
  hspi->TxISR       = NULL;
 8003344:	6523      	str	r3, [r4, #80]	@ 0x50
  if ((hspi->Init.DataSize > SPI_DATASIZE_8BIT) || (initial_RxXferCount > 1U))
 8003346:	23e0      	movs	r3, #224	@ 0xe0
 8003348:	68e0      	ldr	r0, [r4, #12]
    SET_BIT(hspi->Instance->CR2, SPI_RXFIFO_THRESHOLD);
 800334a:	6822      	ldr	r2, [r4, #0]
  hspi->pTxBuffPtr  = (const uint8_t *)pTxData;
 800334c:	63a5      	str	r5, [r4, #56]	@ 0x38
  hspi->TxXferCount = Size;
 800334e:	87e6      	strh	r6, [r4, #62]	@ 0x3e
  hspi->TxXferSize  = Size;
 8003350:	87a6      	strh	r6, [r4, #60]	@ 0x3c
  if ((hspi->Init.DataSize > SPI_DATASIZE_8BIT) || (initial_RxXferCount > 1U))
 8003352:	00db      	lsls	r3, r3, #3
 8003354:	4298      	cmp	r0, r3
 8003356:	d801      	bhi.n	800335c <HAL_SPI_TransmitReceive+0x8c>
 8003358:	2e01      	cmp	r6, #1
 800335a:	d036      	beq.n	80033ca <HAL_SPI_TransmitReceive+0xfa>
    CLEAR_BIT(hspi->Instance->CR2, SPI_RXFIFO_THRESHOLD);
 800335c:	6853      	ldr	r3, [r2, #4]
 800335e:	4f7a      	ldr	r7, [pc, #488]	@ (8003548 <HAL_SPI_TransmitReceive+0x278>)
 8003360:	403b      	ands	r3, r7
    SET_BIT(hspi->Instance->CR2, SPI_RXFIFO_THRESHOLD);
 8003362:	6053      	str	r3, [r2, #4]
  if ((hspi->Instance->CR1 & SPI_CR1_SPE) != SPI_CR1_SPE)
 8003364:	2340      	movs	r3, #64	@ 0x40
 8003366:	6817      	ldr	r7, [r2, #0]
 8003368:	421f      	tst	r7, r3
 800336a:	d102      	bne.n	8003372 <HAL_SPI_TransmitReceive+0xa2>
    __HAL_SPI_ENABLE(hspi);
 800336c:	6817      	ldr	r7, [r2, #0]
 800336e:	433b      	orrs	r3, r7
 8003370:	6013      	str	r3, [r2, #0]
  if (hspi->Init.DataSize > SPI_DATASIZE_8BIT)
 8003372:	23e0      	movs	r3, #224	@ 0xe0
 8003374:	00db      	lsls	r3, r3, #3
 8003376:	4298      	cmp	r0, r3
 8003378:	d800      	bhi.n	800337c <HAL_SPI_TransmitReceive+0xac>
 800337a:	e064      	b.n	8003446 <HAL_SPI_TransmitReceive+0x176>
    if ((hspi->Init.Mode == SPI_MODE_SLAVE) || (initial_TxXferCount == 0x01U))
 800337c:	2900      	cmp	r1, #0
 800337e:	d001      	beq.n	8003384 <HAL_SPI_TransmitReceive+0xb4>
 8003380:	2e01      	cmp	r6, #1
 8003382:	d107      	bne.n	8003394 <HAL_SPI_TransmitReceive+0xc4>
      hspi->Instance->DR = *((const uint16_t *)hspi->pTxBuffPtr);
 8003384:	882b      	ldrh	r3, [r5, #0]
      hspi->pTxBuffPtr += sizeof(uint16_t);
 8003386:	3502      	adds	r5, #2
      hspi->Instance->DR = *((const uint16_t *)hspi->pTxBuffPtr);
 8003388:	60d3      	str	r3, [r2, #12]
      hspi->TxXferCount--;
 800338a:	8fe3      	ldrh	r3, [r4, #62]	@ 0x3e
      hspi->pTxBuffPtr += sizeof(uint16_t);
 800338c:	63a5      	str	r5, [r4, #56]	@ 0x38
      hspi->TxXferCount--;
 800338e:	3b01      	subs	r3, #1
 8003390:	b29b      	uxth	r3, r3
 8003392:	87e3      	strh	r3, [r4, #62]	@ 0x3e
        txallowed = 1U;
 8003394:	2501      	movs	r5, #1
      if ((__HAL_SPI_GET_FLAG(hspi, SPI_FLAG_TXE)) && (hspi->TxXferCount > 0U) && (txallowed == 1U))
 8003396:	2702      	movs	r7, #2
      if ((__HAL_SPI_GET_FLAG(hspi, SPI_FLAG_RXNE)) && (hspi->RxXferCount > 0U))
 8003398:	002e      	movs	r6, r5
    while ((hspi->TxXferCount > 0U) || (hspi->RxXferCount > 0U))
 800339a:	8fe3      	ldrh	r3, [r4, #62]	@ 0x3e
 800339c:	2b00      	cmp	r3, #0
 800339e:	d119      	bne.n	80033d4 <HAL_SPI_TransmitReceive+0x104>
 80033a0:	0023      	movs	r3, r4
 80033a2:	3308      	adds	r3, #8
 80033a4:	8fdb      	ldrh	r3, [r3, #62]	@ 0x3e
 80033a6:	2b00      	cmp	r3, #0
 80033a8:	d114      	bne.n	80033d4 <HAL_SPI_TransmitReceive+0x104>
  if (SPI_EndRxTxTransaction(hspi, Timeout, tickstart) != HAL_OK)
 80033aa:	0020      	movs	r0, r4
 80033ac:	9a01      	ldr	r2, [sp, #4]
 80033ae:	9908      	ldr	r1, [sp, #32]
 80033b0:	f7ff fe19 	bl	8002fe6 <SPI_EndRxTxTransaction>
 80033b4:	0023      	movs	r3, r4
 80033b6:	335c      	adds	r3, #92	@ 0x5c
 80033b8:	2800      	cmp	r0, #0
 80033ba:	d100      	bne.n	80033be <HAL_SPI_TransmitReceive+0xee>
 80033bc:	e0b9      	b.n	8003532 <HAL_SPI_TransmitReceive+0x262>
    hspi->ErrorCode = HAL_SPI_ERROR_FLAG;
 80033be:	2220      	movs	r2, #32
 80033c0:	6622      	str	r2, [r4, #96]	@ 0x60
    __HAL_UNLOCK(hspi);
 80033c2:	2200      	movs	r2, #0
 80033c4:	701a      	strb	r2, [r3, #0]
    return HAL_ERROR;
 80033c6:	2001      	movs	r0, #1
 80033c8:	e03c      	b.n	8003444 <HAL_SPI_TransmitReceive+0x174>
    SET_BIT(hspi->Instance->CR2, SPI_RXFIFO_THRESHOLD);
 80033ca:	2380      	movs	r3, #128	@ 0x80
 80033cc:	6857      	ldr	r7, [r2, #4]
 80033ce:	015b      	lsls	r3, r3, #5
 80033d0:	433b      	orrs	r3, r7
 80033d2:	e7c6      	b.n	8003362 <HAL_SPI_TransmitReceive+0x92>
      if ((__HAL_SPI_GET_FLAG(hspi, SPI_FLAG_TXE)) && (hspi->TxXferCount > 0U) && (txallowed == 1U))
 80033d4:	6820      	ldr	r0, [r4, #0]
 80033d6:	6883      	ldr	r3, [r0, #8]
 80033d8:	423b      	tst	r3, r7
 80033da:	d00e      	beq.n	80033fa <HAL_SPI_TransmitReceive+0x12a>
 80033dc:	8fe3      	ldrh	r3, [r4, #62]	@ 0x3e
 80033de:	2b00      	cmp	r3, #0
 80033e0:	d00b      	beq.n	80033fa <HAL_SPI_TransmitReceive+0x12a>
 80033e2:	2d01      	cmp	r5, #1
 80033e4:	d108      	bne.n	80033f8 <HAL_SPI_TransmitReceive+0x128>
        hspi->Instance->DR = *((const uint16_t *)hspi->pTxBuffPtr);
 80033e6:	6ba3      	ldr	r3, [r4, #56]	@ 0x38
 80033e8:	881a      	ldrh	r2, [r3, #0]
        hspi->pTxBuffPtr += sizeof(uint16_t);
 80033ea:	3302      	adds	r3, #2
        hspi->Instance->DR = *((const uint16_t *)hspi->pTxBuffPtr);
 80033ec:	60c2      	str	r2, [r0, #12]
        hspi->pTxBuffPtr += sizeof(uint16_t);
 80033ee:	63a3      	str	r3, [r4, #56]	@ 0x38
        hspi->TxXferCount--;
 80033f0:	8fe3      	ldrh	r3, [r4, #62]	@ 0x3e
 80033f2:	3b01      	subs	r3, #1
 80033f4:	b29b      	uxth	r3, r3
 80033f6:	87e3      	strh	r3, [r4, #62]	@ 0x3e
{
 80033f8:	2500      	movs	r5, #0
      if ((__HAL_SPI_GET_FLAG(hspi, SPI_FLAG_RXNE)) && (hspi->RxXferCount > 0U))
 80033fa:	6883      	ldr	r3, [r0, #8]
 80033fc:	0019      	movs	r1, r3
 80033fe:	4031      	ands	r1, r6
 8003400:	4233      	tst	r3, r6
 8003402:	d00e      	beq.n	8003422 <HAL_SPI_TransmitReceive+0x152>
 8003404:	0022      	movs	r2, r4
 8003406:	3208      	adds	r2, #8
 8003408:	8fd3      	ldrh	r3, [r2, #62]	@ 0x3e
 800340a:	2b00      	cmp	r3, #0
 800340c:	d009      	beq.n	8003422 <HAL_SPI_TransmitReceive+0x152>
        txallowed = 1U;
 800340e:	000d      	movs	r5, r1
        *((uint16_t *)hspi->pRxBuffPtr) = (uint16_t)hspi->Instance->DR;
 8003410:	68c0      	ldr	r0, [r0, #12]
 8003412:	6c23      	ldr	r3, [r4, #64]	@ 0x40
 8003414:	8018      	strh	r0, [r3, #0]
        hspi->pRxBuffPtr += sizeof(uint16_t);
 8003416:	3302      	adds	r3, #2
 8003418:	6423      	str	r3, [r4, #64]	@ 0x40
        hspi->RxXferCount--;
 800341a:	8fd3      	ldrh	r3, [r2, #62]	@ 0x3e
 800341c:	3b01      	subs	r3, #1
 800341e:	b29b      	uxth	r3, r3
 8003420:	87d3      	strh	r3, [r2, #62]	@ 0x3e
      if (((HAL_GetTick() - tickstart) >=  Timeout) && (Timeout != HAL_MAX_DELAY))
 8003422:	f7fe fa61 	bl	80018e8 <HAL_GetTick>
 8003426:	9b01      	ldr	r3, [sp, #4]
 8003428:	1ac0      	subs	r0, r0, r3
 800342a:	9b08      	ldr	r3, [sp, #32]
 800342c:	4298      	cmp	r0, r3
 800342e:	d3b4      	bcc.n	800339a <HAL_SPI_TransmitReceive+0xca>
 8003430:	3301      	adds	r3, #1
 8003432:	d0b2      	beq.n	800339a <HAL_SPI_TransmitReceive+0xca>
        hspi->State = HAL_SPI_STATE_READY;
 8003434:	0023      	movs	r3, r4
 8003436:	2201      	movs	r2, #1
 8003438:	335d      	adds	r3, #93	@ 0x5d
 800343a:	701a      	strb	r2, [r3, #0]
        __HAL_UNLOCK(hspi);
 800343c:	2300      	movs	r3, #0
        return HAL_TIMEOUT;
 800343e:	2003      	movs	r0, #3
        __HAL_UNLOCK(hspi);
 8003440:	345c      	adds	r4, #92	@ 0x5c
 8003442:	7023      	strb	r3, [r4, #0]
}
 8003444:	bdfe      	pop	{r1, r2, r3, r4, r5, r6, r7, pc}
    if ((hspi->Init.Mode == SPI_MODE_SLAVE) || (initial_TxXferCount == 0x01U))
 8003446:	2900      	cmp	r1, #0
 8003448:	d001      	beq.n	800344e <HAL_SPI_TransmitReceive+0x17e>
 800344a:	2e01      	cmp	r6, #1
 800344c:	d10a      	bne.n	8003464 <HAL_SPI_TransmitReceive+0x194>
      if (hspi->TxXferCount > 1U)
 800344e:	8fe3      	ldrh	r3, [r4, #62]	@ 0x3e
 8003450:	2b01      	cmp	r3, #1
 8003452:	d90b      	bls.n	800346c <HAL_SPI_TransmitReceive+0x19c>
        hspi->Instance->DR = *((const uint16_t *)hspi->pTxBuffPtr);
 8003454:	882b      	ldrh	r3, [r5, #0]
        hspi->pTxBuffPtr += sizeof(uint16_t);
 8003456:	3502      	adds	r5, #2
        hspi->Instance->DR = *((const uint16_t *)hspi->pTxBuffPtr);
 8003458:	60d3      	str	r3, [r2, #12]
        hspi->TxXferCount -= 2U;
 800345a:	8fe3      	ldrh	r3, [r4, #62]	@ 0x3e
        hspi->pTxBuffPtr += sizeof(uint16_t);
 800345c:	63a5      	str	r5, [r4, #56]	@ 0x38
        hspi->TxXferCount -= 2U;
 800345e:	3b02      	subs	r3, #2
        hspi->TxXferCount--;
 8003460:	b29b      	uxth	r3, r3
 8003462:	87e3      	strh	r3, [r4, #62]	@ 0x3e
        txallowed = 1U;
 8003464:	2501      	movs	r5, #1
      if ((__HAL_SPI_GET_FLAG(hspi, SPI_FLAG_TXE)) && (hspi->TxXferCount > 0U) && (txallowed == 1U))
 8003466:	2702      	movs	r7, #2
      if ((__HAL_SPI_GET_FLAG(hspi, SPI_FLAG_RXNE)) && (hspi->RxXferCount > 0U))
 8003468:	002e      	movs	r6, r5
 800346a:	e047      	b.n	80034fc <HAL_SPI_TransmitReceive+0x22c>
        *(__IO uint8_t *)&hspi->Instance->DR = *((const uint8_t *)hspi->pTxBuffPtr);
 800346c:	782b      	ldrb	r3, [r5, #0]
 800346e:	7313      	strb	r3, [r2, #12]
        hspi->pTxBuffPtr++;
 8003470:	6ba3      	ldr	r3, [r4, #56]	@ 0x38
 8003472:	3301      	adds	r3, #1
 8003474:	63a3      	str	r3, [r4, #56]	@ 0x38
        hspi->TxXferCount--;
 8003476:	8fe3      	ldrh	r3, [r4, #62]	@ 0x3e
 8003478:	3b01      	subs	r3, #1
 800347a:	e7f1      	b.n	8003460 <HAL_SPI_TransmitReceive+0x190>
      if ((__HAL_SPI_GET_FLAG(hspi, SPI_FLAG_TXE)) && (hspi->TxXferCount > 0U) && (txallowed == 1U))
 800347c:	6822      	ldr	r2, [r4, #0]
 800347e:	6893      	ldr	r3, [r2, #8]
 8003480:	423b      	tst	r3, r7
 8003482:	d011      	beq.n	80034a8 <HAL_SPI_TransmitReceive+0x1d8>
 8003484:	8fe3      	ldrh	r3, [r4, #62]	@ 0x3e
 8003486:	2b00      	cmp	r3, #0
 8003488:	d00e      	beq.n	80034a8 <HAL_SPI_TransmitReceive+0x1d8>
 800348a:	2d01      	cmp	r5, #1
 800348c:	d10b      	bne.n	80034a6 <HAL_SPI_TransmitReceive+0x1d6>
        if (hspi->TxXferCount > 1U)
 800348e:	8fe1      	ldrh	r1, [r4, #62]	@ 0x3e
          hspi->Instance->DR = *((const uint16_t *)hspi->pTxBuffPtr);
 8003490:	6ba3      	ldr	r3, [r4, #56]	@ 0x38
        if (hspi->TxXferCount > 1U)
 8003492:	2901      	cmp	r1, #1
 8003494:	d93b      	bls.n	800350e <HAL_SPI_TransmitReceive+0x23e>
          hspi->Instance->DR = *((const uint16_t *)hspi->pTxBuffPtr);
 8003496:	8819      	ldrh	r1, [r3, #0]
          hspi->pTxBuffPtr += sizeof(uint16_t);
 8003498:	3302      	adds	r3, #2
          hspi->Instance->DR = *((const uint16_t *)hspi->pTxBuffPtr);
 800349a:	60d1      	str	r1, [r2, #12]
          hspi->pTxBuffPtr += sizeof(uint16_t);
 800349c:	63a3      	str	r3, [r4, #56]	@ 0x38
          hspi->TxXferCount -= 2U;
 800349e:	8fe3      	ldrh	r3, [r4, #62]	@ 0x3e
 80034a0:	3b02      	subs	r3, #2
          hspi->TxXferCount--;
 80034a2:	b29b      	uxth	r3, r3
 80034a4:	87e3      	strh	r3, [r4, #62]	@ 0x3e
        txallowed = 1U;
 80034a6:	2500      	movs	r5, #0
      if ((__HAL_SPI_GET_FLAG(hspi, SPI_FLAG_RXNE)) && (hspi->RxXferCount > 0U))
 80034a8:	6822      	ldr	r2, [r4, #0]
 80034aa:	6893      	ldr	r3, [r2, #8]
 80034ac:	0019      	movs	r1, r3
 80034ae:	4031      	ands	r1, r6
 80034b0:	4233      	tst	r3, r6
 80034b2:	d019      	beq.n	80034e8 <HAL_SPI_TransmitReceive+0x218>
 80034b4:	0023      	movs	r3, r4
 80034b6:	3308      	adds	r3, #8
 80034b8:	8fd8      	ldrh	r0, [r3, #62]	@ 0x3e
 80034ba:	2800      	cmp	r0, #0
 80034bc:	d014      	beq.n	80034e8 <HAL_SPI_TransmitReceive+0x218>
        if (hspi->RxXferCount > 1U)
 80034be:	8fdd      	ldrh	r5, [r3, #62]	@ 0x3e
          *((uint16_t *)hspi->pRxBuffPtr) = (uint16_t)hspi->Instance->DR;
 80034c0:	6c20      	ldr	r0, [r4, #64]	@ 0x40
        if (hspi->RxXferCount > 1U)
 80034c2:	2d01      	cmp	r5, #1
 80034c4:	d92b      	bls.n	800351e <HAL_SPI_TransmitReceive+0x24e>
          *((uint16_t *)hspi->pRxBuffPtr) = (uint16_t)hspi->Instance->DR;
 80034c6:	68d5      	ldr	r5, [r2, #12]
 80034c8:	8005      	strh	r5, [r0, #0]
          hspi->pRxBuffPtr += sizeof(uint16_t);
 80034ca:	3002      	adds	r0, #2
 80034cc:	6420      	str	r0, [r4, #64]	@ 0x40
          hspi->RxXferCount -= 2U;
 80034ce:	8fd8      	ldrh	r0, [r3, #62]	@ 0x3e
 80034d0:	3802      	subs	r0, #2
 80034d2:	b280      	uxth	r0, r0
 80034d4:	87d8      	strh	r0, [r3, #62]	@ 0x3e
          if (hspi->RxXferCount <= 1U)
 80034d6:	8fdb      	ldrh	r3, [r3, #62]	@ 0x3e
 80034d8:	2b01      	cmp	r3, #1
 80034da:	d804      	bhi.n	80034e6 <HAL_SPI_TransmitReceive+0x216>
            SET_BIT(hspi->Instance->CR2, SPI_RXFIFO_THRESHOLD);
 80034dc:	2380      	movs	r3, #128	@ 0x80
 80034de:	6850      	ldr	r0, [r2, #4]
 80034e0:	015b      	lsls	r3, r3, #5
 80034e2:	4303      	orrs	r3, r0
 80034e4:	6053      	str	r3, [r2, #4]
        txallowed = 1U;
 80034e6:	000d      	movs	r5, r1
      if ((((HAL_GetTick() - tickstart) >=  Timeout) && ((Timeout != HAL_MAX_DELAY))) || (Timeout == 0U))
 80034e8:	f7fe f9fe 	bl	80018e8 <HAL_GetTick>
 80034ec:	9b01      	ldr	r3, [sp, #4]
 80034ee:	1ac0      	subs	r0, r0, r3
 80034f0:	9b08      	ldr	r3, [sp, #32]
 80034f2:	4298      	cmp	r0, r3
 80034f4:	d302      	bcc.n	80034fc <HAL_SPI_TransmitReceive+0x22c>
 80034f6:	3301      	adds	r3, #1
 80034f8:	d000      	beq.n	80034fc <HAL_SPI_TransmitReceive+0x22c>
 80034fa:	e79b      	b.n	8003434 <HAL_SPI_TransmitReceive+0x164>
    while ((hspi->TxXferCount > 0U) || (hspi->RxXferCount > 0U))
 80034fc:	8fe3      	ldrh	r3, [r4, #62]	@ 0x3e
 80034fe:	2b00      	cmp	r3, #0
 8003500:	d1bc      	bne.n	800347c <HAL_SPI_TransmitReceive+0x1ac>
 8003502:	0023      	movs	r3, r4
 8003504:	3308      	adds	r3, #8
 8003506:	8fdb      	ldrh	r3, [r3, #62]	@ 0x3e
 8003508:	2b00      	cmp	r3, #0
 800350a:	d1b7      	bne.n	800347c <HAL_SPI_TransmitReceive+0x1ac>
 800350c:	e74d      	b.n	80033aa <HAL_SPI_TransmitReceive+0xda>
          *(__IO uint8_t *)&hspi->Instance->DR = *((const uint8_t *)hspi->pTxBuffPtr);
 800350e:	781b      	ldrb	r3, [r3, #0]
 8003510:	7313      	strb	r3, [r2, #12]
          hspi->pTxBuffPtr++;
 8003512:	6ba3      	ldr	r3, [r4, #56]	@ 0x38
 8003514:	3301      	adds	r3, #1
 8003516:	63a3      	str	r3, [r4, #56]	@ 0x38
          hspi->TxXferCount--;
 8003518:	8fe3      	ldrh	r3, [r4, #62]	@ 0x3e
 800351a:	3b01      	subs	r3, #1
 800351c:	e7c1      	b.n	80034a2 <HAL_SPI_TransmitReceive+0x1d2>
          (*(uint8_t *)hspi->pRxBuffPtr) = *(__IO uint8_t *)&hspi->Instance->DR;
 800351e:	7b12      	ldrb	r2, [r2, #12]
 8003520:	7002      	strb	r2, [r0, #0]
          hspi->pRxBuffPtr++;
 8003522:	6c22      	ldr	r2, [r4, #64]	@ 0x40
 8003524:	3201      	adds	r2, #1
 8003526:	6422      	str	r2, [r4, #64]	@ 0x40
          hspi->RxXferCount--;
 8003528:	8fda      	ldrh	r2, [r3, #62]	@ 0x3e
 800352a:	3a01      	subs	r2, #1
 800352c:	b292      	uxth	r2, r2
 800352e:	87da      	strh	r2, [r3, #62]	@ 0x3e
 8003530:	e7d9      	b.n	80034e6 <HAL_SPI_TransmitReceive+0x216>
  hspi->State = HAL_SPI_STATE_READY;
 8003532:	0022      	movs	r2, r4
 8003534:	2101      	movs	r1, #1
 8003536:	325d      	adds	r2, #93	@ 0x5d
 8003538:	7011      	strb	r1, [r2, #0]
  __HAL_UNLOCK(hspi);
 800353a:	7018      	strb	r0, [r3, #0]
  if (hspi->ErrorCode != HAL_SPI_ERROR_NONE)
 800353c:	6e20      	ldr	r0, [r4, #96]	@ 0x60
 800353e:	1e43      	subs	r3, r0, #1
 8003540:	4198      	sbcs	r0, r3
 8003542:	b2c0      	uxtb	r0, r0
 8003544:	e77e      	b.n	8003444 <HAL_SPI_TransmitReceive+0x174>
 8003546:	46c0      	nop			@ (mov r8, r8)
 8003548:	ffffefff 	.word	0xffffefff

0800354c <HAL_SPI_Receive>:
{
 800354c:	b5f0      	push	{r4, r5, r6, r7, lr}
  if (hspi->State != HAL_SPI_STATE_READY)
 800354e:	0007      	movs	r7, r0
{
 8003550:	b087      	sub	sp, #28
 8003552:	9102      	str	r1, [sp, #8]
 8003554:	9203      	str	r2, [sp, #12]
  if (hspi->State != HAL_SPI_STATE_READY)
 8003556:	375d      	adds	r7, #93	@ 0x5d
{
 8003558:	001e      	movs	r6, r3
  if (hspi->State != HAL_SPI_STATE_READY)
 800355a:	783b      	ldrb	r3, [r7, #0]
{
 800355c:	0004      	movs	r4, r0
  if (hspi->State != HAL_SPI_STATE_READY)
 800355e:	b2dd      	uxtb	r5, r3
 8003560:	2b01      	cmp	r3, #1
 8003562:	d003      	beq.n	800356c <HAL_SPI_Receive+0x20>
    return HAL_BUSY;
 8003564:	2502      	movs	r5, #2
}
 8003566:	0028      	movs	r0, r5
 8003568:	b007      	add	sp, #28
 800356a:	bdf0      	pop	{r4, r5, r6, r7, pc}
  if ((hspi->Init.Mode == SPI_MODE_MASTER) && (hspi->Init.Direction == SPI_DIRECTION_2LINES))
 800356c:	2382      	movs	r3, #130	@ 0x82
 800356e:	6842      	ldr	r2, [r0, #4]
 8003570:	005b      	lsls	r3, r3, #1
 8003572:	429a      	cmp	r2, r3
 8003574:	d10c      	bne.n	8003590 <HAL_SPI_Receive+0x44>
 8003576:	6883      	ldr	r3, [r0, #8]
 8003578:	2b00      	cmp	r3, #0
 800357a:	d109      	bne.n	8003590 <HAL_SPI_Receive+0x44>
    return HAL_SPI_TransmitReceive(hspi, pData, pData, Size, Timeout);
 800357c:	9a02      	ldr	r2, [sp, #8]
    hspi->State = HAL_SPI_STATE_BUSY_RX;
 800357e:	3304      	adds	r3, #4
 8003580:	703b      	strb	r3, [r7, #0]
    return HAL_SPI_TransmitReceive(hspi, pData, pData, Size, Timeout);
 8003582:	0011      	movs	r1, r2
 8003584:	9b03      	ldr	r3, [sp, #12]
 8003586:	9600      	str	r6, [sp, #0]
 8003588:	f7ff fea2 	bl	80032d0 <HAL_SPI_TransmitReceive>
 800358c:	0005      	movs	r5, r0
 800358e:	e7ea      	b.n	8003566 <HAL_SPI_Receive+0x1a>
  tickstart = HAL_GetTick();
 8003590:	f7fe f9aa 	bl	80018e8 <HAL_GetTick>
  if ((pData == NULL) || (Size == 0U))
 8003594:	9b02      	ldr	r3, [sp, #8]
  tickstart = HAL_GetTick();
 8003596:	9005      	str	r0, [sp, #20]
  if ((pData == NULL) || (Size == 0U))
 8003598:	2b00      	cmp	r3, #0
 800359a:	d0e4      	beq.n	8003566 <HAL_SPI_Receive+0x1a>
 800359c:	9b03      	ldr	r3, [sp, #12]
 800359e:	2b00      	cmp	r3, #0
 80035a0:	d0e1      	beq.n	8003566 <HAL_SPI_Receive+0x1a>
  __HAL_LOCK(hspi);
 80035a2:	0023      	movs	r3, r4
 80035a4:	335c      	adds	r3, #92	@ 0x5c
 80035a6:	9304      	str	r3, [sp, #16]
 80035a8:	781b      	ldrb	r3, [r3, #0]
 80035aa:	2b01      	cmp	r3, #1
 80035ac:	d0da      	beq.n	8003564 <HAL_SPI_Receive+0x18>
 80035ae:	2301      	movs	r3, #1
 80035b0:	9a04      	ldr	r2, [sp, #16]
  hspi->RxXferSize  = Size;
 80035b2:	9903      	ldr	r1, [sp, #12]
  __HAL_LOCK(hspi);
 80035b4:	7013      	strb	r3, [r2, #0]
  hspi->State       = HAL_SPI_STATE_BUSY_RX;
 80035b6:	3303      	adds	r3, #3
 80035b8:	703b      	strb	r3, [r7, #0]
  hspi->ErrorCode   = HAL_SPI_ERROR_NONE;
 80035ba:	2300      	movs	r3, #0
  hspi->pRxBuffPtr  = (uint8_t *)pData;
 80035bc:	9a02      	ldr	r2, [sp, #8]
  hspi->ErrorCode   = HAL_SPI_ERROR_NONE;
 80035be:	6623      	str	r3, [r4, #96]	@ 0x60
  hspi->pRxBuffPtr  = (uint8_t *)pData;
 80035c0:	6422      	str	r2, [r4, #64]	@ 0x40
  hspi->RxXferSize  = Size;
 80035c2:	1da2      	adds	r2, r4, #6
 80035c4:	87d1      	strh	r1, [r2, #62]	@ 0x3e
  hspi->RxXferCount = Size;
 80035c6:	3202      	adds	r2, #2
 80035c8:	87d1      	strh	r1, [r2, #62]	@ 0x3e
  if (hspi->Init.DataSize > SPI_DATASIZE_8BIT)
 80035ca:	22e0      	movs	r2, #224	@ 0xe0
 80035cc:	68e1      	ldr	r1, [r4, #12]
  hspi->pTxBuffPtr  = (uint8_t *)NULL;
 80035ce:	63a3      	str	r3, [r4, #56]	@ 0x38
  hspi->TxXferSize  = 0U;
 80035d0:	87a3      	strh	r3, [r4, #60]	@ 0x3c
  hspi->TxXferCount = 0U;
 80035d2:	87e3      	strh	r3, [r4, #62]	@ 0x3e
  hspi->RxISR       = NULL;
 80035d4:	64e3      	str	r3, [r4, #76]	@ 0x4c
  hspi->TxISR       = NULL;
 80035d6:	6523      	str	r3, [r4, #80]	@ 0x50
  if (hspi->Init.DataSize > SPI_DATASIZE_8BIT)
 80035d8:	00d2      	lsls	r2, r2, #3
    CLEAR_BIT(hspi->Instance->CR2, SPI_RXFIFO_THRESHOLD);
 80035da:	6823      	ldr	r3, [r4, #0]
  if (hspi->Init.DataSize > SPI_DATASIZE_8BIT)
 80035dc:	4291      	cmp	r1, r2
 80035de:	d92f      	bls.n	8003640 <HAL_SPI_Receive+0xf4>
    CLEAR_BIT(hspi->Instance->CR2, SPI_RXFIFO_THRESHOLD);
 80035e0:	685a      	ldr	r2, [r3, #4]
 80035e2:	4839      	ldr	r0, [pc, #228]	@ (80036c8 <HAL_SPI_Receive+0x17c>)
 80035e4:	4002      	ands	r2, r0
    SET_BIT(hspi->Instance->CR2, SPI_RXFIFO_THRESHOLD);
 80035e6:	605a      	str	r2, [r3, #4]
  if (hspi->Init.Direction == SPI_DIRECTION_1LINE)
 80035e8:	2280      	movs	r2, #128	@ 0x80
 80035ea:	68a0      	ldr	r0, [r4, #8]
 80035ec:	0212      	lsls	r2, r2, #8
 80035ee:	4290      	cmp	r0, r2
 80035f0:	d107      	bne.n	8003602 <HAL_SPI_Receive+0xb6>
    __HAL_SPI_DISABLE(hspi);
 80035f2:	2040      	movs	r0, #64	@ 0x40
 80035f4:	681a      	ldr	r2, [r3, #0]
 80035f6:	4382      	bics	r2, r0
 80035f8:	601a      	str	r2, [r3, #0]
    SPI_1LINE_RX(hspi);
 80035fa:	681a      	ldr	r2, [r3, #0]
 80035fc:	4833      	ldr	r0, [pc, #204]	@ (80036cc <HAL_SPI_Receive+0x180>)
 80035fe:	4002      	ands	r2, r0
 8003600:	601a      	str	r2, [r3, #0]
  if ((hspi->Instance->CR1 & SPI_CR1_SPE) != SPI_CR1_SPE)
 8003602:	2240      	movs	r2, #64	@ 0x40
 8003604:	6818      	ldr	r0, [r3, #0]
 8003606:	4210      	tst	r0, r2
 8003608:	d102      	bne.n	8003610 <HAL_SPI_Receive+0xc4>
    __HAL_SPI_ENABLE(hspi);
 800360a:	6818      	ldr	r0, [r3, #0]
 800360c:	4302      	orrs	r2, r0
 800360e:	601a      	str	r2, [r3, #0]
  if (hspi->Init.DataSize <= SPI_DATASIZE_8BIT)
 8003610:	23e0      	movs	r3, #224	@ 0xe0
 8003612:	0025      	movs	r5, r4
 8003614:	00db      	lsls	r3, r3, #3
 8003616:	3508      	adds	r5, #8
 8003618:	4299      	cmp	r1, r3
 800361a:	d925      	bls.n	8003668 <HAL_SPI_Receive+0x11c>
    while (hspi->RxXferCount > 0U)
 800361c:	8feb      	ldrh	r3, [r5, #62]	@ 0x3e
 800361e:	2b00      	cmp	r3, #0
 8003620:	d025      	beq.n	800366e <HAL_SPI_Receive+0x122>
      if (__HAL_SPI_GET_FLAG(hspi, SPI_FLAG_RXNE))
 8003622:	2101      	movs	r1, #1
 8003624:	6823      	ldr	r3, [r4, #0]
 8003626:	689a      	ldr	r2, [r3, #8]
 8003628:	420a      	tst	r2, r1
 800362a:	d040      	beq.n	80036ae <HAL_SPI_Receive+0x162>
        *((uint16_t *)hspi->pRxBuffPtr) = (uint16_t)hspi->Instance->DR;
 800362c:	68da      	ldr	r2, [r3, #12]
 800362e:	6c23      	ldr	r3, [r4, #64]	@ 0x40
 8003630:	801a      	strh	r2, [r3, #0]
        hspi->pRxBuffPtr += sizeof(uint16_t);
 8003632:	3302      	adds	r3, #2
 8003634:	6423      	str	r3, [r4, #64]	@ 0x40
        hspi->RxXferCount--;
 8003636:	8feb      	ldrh	r3, [r5, #62]	@ 0x3e
 8003638:	3b01      	subs	r3, #1
 800363a:	b29b      	uxth	r3, r3
 800363c:	87eb      	strh	r3, [r5, #62]	@ 0x3e
 800363e:	e7ed      	b.n	800361c <HAL_SPI_Receive+0xd0>
    SET_BIT(hspi->Instance->CR2, SPI_RXFIFO_THRESHOLD);
 8003640:	2280      	movs	r2, #128	@ 0x80
 8003642:	6858      	ldr	r0, [r3, #4]
 8003644:	0152      	lsls	r2, r2, #5
 8003646:	4302      	orrs	r2, r0
 8003648:	e7cd      	b.n	80035e6 <HAL_SPI_Receive+0x9a>
      if (__HAL_SPI_GET_FLAG(hspi, SPI_FLAG_RXNE))
 800364a:	2101      	movs	r1, #1
 800364c:	6823      	ldr	r3, [r4, #0]
 800364e:	689a      	ldr	r2, [r3, #8]
 8003650:	420a      	tst	r2, r1
 8003652:	d01d      	beq.n	8003690 <HAL_SPI_Receive+0x144>
        (* (uint8_t *)hspi->pRxBuffPtr) = *(__IO uint8_t *)&hspi->Instance->DR;
 8003654:	7b1b      	ldrb	r3, [r3, #12]
 8003656:	6c22      	ldr	r2, [r4, #64]	@ 0x40
 8003658:	7013      	strb	r3, [r2, #0]
        hspi->pRxBuffPtr += sizeof(uint8_t);
 800365a:	6c23      	ldr	r3, [r4, #64]	@ 0x40
 800365c:	185b      	adds	r3, r3, r1
 800365e:	6423      	str	r3, [r4, #64]	@ 0x40
        hspi->RxXferCount--;
 8003660:	8feb      	ldrh	r3, [r5, #62]	@ 0x3e
 8003662:	3b01      	subs	r3, #1
 8003664:	b29b      	uxth	r3, r3
 8003666:	87eb      	strh	r3, [r5, #62]	@ 0x3e
    while (hspi->RxXferCount > 0U)
 8003668:	8feb      	ldrh	r3, [r5, #62]	@ 0x3e
 800366a:	2b00      	cmp	r3, #0
 800366c:	d1ed      	bne.n	800364a <HAL_SPI_Receive+0xfe>
  if (SPI_EndRxTransaction(hspi, Timeout, tickstart) != HAL_OK)
 800366e:	0031      	movs	r1, r6
 8003670:	0020      	movs	r0, r4
 8003672:	9a05      	ldr	r2, [sp, #20]
 8003674:	f7ff fc7a 	bl	8002f6c <SPI_EndRxTransaction>
 8003678:	2800      	cmp	r0, #0
 800367a:	d121      	bne.n	80036c0 <HAL_SPI_Receive+0x174>
  hspi->State = HAL_SPI_STATE_READY;
 800367c:	2301      	movs	r3, #1
 800367e:	703b      	strb	r3, [r7, #0]
  __HAL_UNLOCK(hspi);
 8003680:	2300      	movs	r3, #0
 8003682:	9a04      	ldr	r2, [sp, #16]
 8003684:	7013      	strb	r3, [r2, #0]
  if (hspi->ErrorCode != HAL_SPI_ERROR_NONE)
 8003686:	6e25      	ldr	r5, [r4, #96]	@ 0x60
 8003688:	1e6b      	subs	r3, r5, #1
 800368a:	419d      	sbcs	r5, r3
 800368c:	b2ed      	uxtb	r5, r5
 800368e:	e76a      	b.n	8003566 <HAL_SPI_Receive+0x1a>
        if ((((HAL_GetTick() - tickstart) >=  Timeout) && (Timeout != HAL_MAX_DELAY)) || (Timeout == 0U))
 8003690:	f7fe f92a 	bl	80018e8 <HAL_GetTick>
 8003694:	9b05      	ldr	r3, [sp, #20]
 8003696:	1ac0      	subs	r0, r0, r3
 8003698:	42b0      	cmp	r0, r6
 800369a:	d3e5      	bcc.n	8003668 <HAL_SPI_Receive+0x11c>
 800369c:	1c73      	adds	r3, r6, #1
 800369e:	d0e3      	beq.n	8003668 <HAL_SPI_Receive+0x11c>
          hspi->State = HAL_SPI_STATE_READY;
 80036a0:	2301      	movs	r3, #1
 80036a2:	703b      	strb	r3, [r7, #0]
          __HAL_UNLOCK(hspi);
 80036a4:	2300      	movs	r3, #0
 80036a6:	9a04      	ldr	r2, [sp, #16]
          return HAL_TIMEOUT;
 80036a8:	2503      	movs	r5, #3
          __HAL_UNLOCK(hspi);
 80036aa:	7013      	strb	r3, [r2, #0]
 80036ac:	e75b      	b.n	8003566 <HAL_SPI_Receive+0x1a>
        if ((((HAL_GetTick() - tickstart) >=  Timeout) && (Timeout != HAL_MAX_DELAY)) || (Timeout == 0U))
 80036ae:	f7fe f91b 	bl	80018e8 <HAL_GetTick>
 80036b2:	9b05      	ldr	r3, [sp, #20]
 80036b4:	1ac0      	subs	r0, r0, r3
 80036b6:	42b0      	cmp	r0, r6
 80036b8:	d3b0      	bcc.n	800361c <HAL_SPI_Receive+0xd0>
 80036ba:	1c73      	adds	r3, r6, #1
 80036bc:	d0ae      	beq.n	800361c <HAL_SPI_Receive+0xd0>
 80036be:	e7ef      	b.n	80036a0 <HAL_SPI_Receive+0x154>
    hspi->ErrorCode = HAL_SPI_ERROR_FLAG;
 80036c0:	2320      	movs	r3, #32
 80036c2:	6623      	str	r3, [r4, #96]	@ 0x60
 80036c4:	e7da      	b.n	800367c <HAL_SPI_Receive+0x130>
 80036c6:	46c0      	nop			@ (mov r8, r8)
 80036c8:	ffffefff 	.word	0xffffefff
 80036cc:	ffffbfff 	.word	0xffffbfff

080036d0 <LL_GPIO_Init>:
  * @retval An ErrorStatus enumeration value:
  *          - SUCCESS: GPIO registers are initialized according to GPIO_InitStruct content
  *          - ERROR:   Not applicable
  */
ErrorStatus LL_GPIO_Init(GPIO_TypeDef *GPIOx, LL_GPIO_InitTypeDef *GPIO_InitStruct)
{
 80036d0:	b5f7      	push	{r0, r1, r2, r4, r5, r6, r7, lr}
 80036d2:	0002      	movs	r2, r0
  assert_param(IS_LL_GPIO_MODE(GPIO_InitStruct->Mode));
  assert_param(IS_LL_GPIO_PULL(GPIO_InitStruct->Pull));

  /* ------------------------- Configure the port pins ---------------- */
  /* Initialize  pinpos on first pin set */
  pinpos = 0;
 80036d4:	2600      	movs	r6, #0

  /* Configure the port pins */
  while (((GPIO_InitStruct->Pin) >> pinpos) != 0x00u)
 80036d6:	680c      	ldr	r4, [r1, #0]
 80036d8:	0020      	movs	r0, r4
 80036da:	40f0      	lsrs	r0, r6
 80036dc:	d100      	bne.n	80036e0 <LL_GPIO_Init+0x10>
    }
    pinpos++;
  }

  return (SUCCESS);
}
 80036de:	bdfe      	pop	{r1, r2, r3, r4, r5, r6, r7, pc}
    currentpin = (GPIO_InitStruct->Pin) & (0x00000001uL << pinpos);
 80036e0:	2001      	movs	r0, #1
 80036e2:	0023      	movs	r3, r4
 80036e4:	40b0      	lsls	r0, r6
 80036e6:	4003      	ands	r3, r0
    if (currentpin != 0x00u)
 80036e8:	4204      	tst	r4, r0
 80036ea:	d033      	beq.n	8003754 <LL_GPIO_Init+0x84>
      if ((GPIO_InitStruct->Mode == LL_GPIO_MODE_OUTPUT) || (GPIO_InitStruct->Mode == LL_GPIO_MODE_ALTERNATE))
 80036ec:	6848      	ldr	r0, [r1, #4]
  *         @arg @ref LL_GPIO_SPEED_FREQ_VERY_HIGH
  * @retval None
  */
__STATIC_INLINE void LL_GPIO_SetPinSpeed(GPIO_TypeDef *GPIOx, uint32_t Pin, uint32_t  Speed)
{
  MODIFY_REG(GPIOx->OSPEEDR, ((Pin * Pin) * GPIO_OSPEEDR_OSPEED0), ((Pin * Pin) * Speed));
 80036ee:	2403      	movs	r4, #3
 80036f0:	9000      	str	r0, [sp, #0]
 80036f2:	0018      	movs	r0, r3
 80036f4:	4358      	muls	r0, r3
 80036f6:	4344      	muls	r4, r0
 80036f8:	9d00      	ldr	r5, [sp, #0]
 80036fa:	43e4      	mvns	r4, r4
 80036fc:	3d01      	subs	r5, #1
 80036fe:	2d01      	cmp	r5, #1
 8003700:	d80b      	bhi.n	800371a <LL_GPIO_Init+0x4a>
 8003702:	688d      	ldr	r5, [r1, #8]
 8003704:	6897      	ldr	r7, [r2, #8]
 8003706:	4345      	muls	r5, r0
 8003708:	4027      	ands	r7, r4
 800370a:	433d      	orrs	r5, r7
  MODIFY_REG(GPIOx->OTYPER, PinMask, (PinMask * OutputType));
 800370c:	68cf      	ldr	r7, [r1, #12]
  MODIFY_REG(GPIOx->OSPEEDR, ((Pin * Pin) * GPIO_OSPEEDR_OSPEED0), ((Pin * Pin) * Speed));
 800370e:	6095      	str	r5, [r2, #8]
  MODIFY_REG(GPIOx->OTYPER, PinMask, (PinMask * OutputType));
 8003710:	435f      	muls	r7, r3
 8003712:	6855      	ldr	r5, [r2, #4]
 8003714:	439d      	bics	r5, r3
 8003716:	433d      	orrs	r5, r7
 8003718:	6055      	str	r5, [r2, #4]
  *         @arg @ref LL_GPIO_PULL_DOWN
  * @retval None
  */
__STATIC_INLINE void LL_GPIO_SetPinPull(GPIO_TypeDef *GPIOx, uint32_t Pin, uint32_t Pull)
{
  MODIFY_REG(GPIOx->PUPDR, ((Pin * Pin) * GPIO_PUPDR_PUPD0), ((Pin * Pin) * Pull));
 800371a:	690d      	ldr	r5, [r1, #16]
 800371c:	68d7      	ldr	r7, [r2, #12]
 800371e:	4345      	muls	r5, r0
 8003720:	4027      	ands	r7, r4
 8003722:	433d      	orrs	r5, r7
 8003724:	60d5      	str	r5, [r2, #12]
      if (GPIO_InitStruct->Mode == LL_GPIO_MODE_ALTERNATE)
 8003726:	9d00      	ldr	r5, [sp, #0]
 8003728:	2d02      	cmp	r5, #2
 800372a:	d10d      	bne.n	8003748 <LL_GPIO_Init+0x78>
          LL_GPIO_SetAFPin_0_7(GPIOx, currentpin, GPIO_InitStruct->Alternate);
 800372c:	694d      	ldr	r5, [r1, #20]
 800372e:	9501      	str	r5, [sp, #4]
        if (currentpin < LL_GPIO_PIN_8)
 8003730:	2bff      	cmp	r3, #255	@ 0xff
 8003732:	d811      	bhi.n	8003758 <LL_GPIO_Init+0x88>
  *         @arg @ref LL_GPIO_AF_15
  * @retval None
  */
__STATIC_INLINE void LL_GPIO_SetAFPin_0_7(GPIO_TypeDef *GPIOx, uint32_t Pin, uint32_t Alternate)
{
  MODIFY_REG(GPIOx->AFR[0], ((((Pin * Pin) * Pin) * Pin) * GPIO_AFRL_AFSEL0),
 8003734:	0005      	movs	r5, r0
 8003736:	270f      	movs	r7, #15
 8003738:	4345      	muls	r5, r0
 800373a:	436f      	muls	r7, r5
 800373c:	6a13      	ldr	r3, [r2, #32]
 800373e:	43bb      	bics	r3, r7
 8003740:	9f01      	ldr	r7, [sp, #4]
 8003742:	436f      	muls	r7, r5
 8003744:	433b      	orrs	r3, r7
 8003746:	6213      	str	r3, [r2, #32]
  MODIFY_REG(GPIOx->MODER, ((Pin * Pin) * GPIO_MODER_MODE0), ((Pin * Pin) * Mode));
 8003748:	6813      	ldr	r3, [r2, #0]
 800374a:	4023      	ands	r3, r4
 800374c:	9c00      	ldr	r4, [sp, #0]
 800374e:	4360      	muls	r0, r4
 8003750:	4303      	orrs	r3, r0
 8003752:	6013      	str	r3, [r2, #0]
    pinpos++;
 8003754:	3601      	adds	r6, #1
 8003756:	e7be      	b.n	80036d6 <LL_GPIO_Init+0x6>
  *         @arg @ref LL_GPIO_AF_15
  * @retval None
  */
__STATIC_INLINE void LL_GPIO_SetAFPin_8_15(GPIO_TypeDef *GPIOx, uint32_t Pin, uint32_t Alternate)
{
  MODIFY_REG(GPIOx->AFR[1], (((((Pin >> 8U) * (Pin >> 8U)) * (Pin >> 8U)) * (Pin >> 8U)) * GPIO_AFRH_AFSEL8),
 8003758:	270f      	movs	r7, #15
 800375a:	0a1b      	lsrs	r3, r3, #8
 800375c:	435b      	muls	r3, r3
 800375e:	435b      	muls	r3, r3
 8003760:	435f      	muls	r7, r3
 8003762:	6a55      	ldr	r5, [r2, #36]	@ 0x24
 8003764:	43bd      	bics	r5, r7
 8003766:	9f01      	ldr	r7, [sp, #4]
 8003768:	435f      	muls	r7, r3
 800376a:	433d      	orrs	r5, r7
 800376c:	6255      	str	r5, [r2, #36]	@ 0x24
             (((((Pin >> 8U) * (Pin >> 8U)) * (Pin >> 8U)) * (Pin >> 8U)) * Alternate));
}
 800376e:	e7eb      	b.n	8003748 <LL_GPIO_Init+0x78>

08003770 <LL_RCC_HSI_IsReady>:
  * @rmtoll CR           HSIRDY        LL_RCC_HSI_IsReady
  * @retval State of bit (1 or 0).
  */
__STATIC_INLINE uint32_t LL_RCC_HSI_IsReady(void)
{
  return ((READ_BIT(RCC->CR, RCC_CR_HSIRDY) == (RCC_CR_HSIRDY)) ? 1UL : 0UL);
 8003770:	4b02      	ldr	r3, [pc, #8]	@ (800377c <LL_RCC_HSI_IsReady+0xc>)
 8003772:	6818      	ldr	r0, [r3, #0]
 8003774:	0540      	lsls	r0, r0, #21
 8003776:	0fc0      	lsrs	r0, r0, #31
}
 8003778:	4770      	bx	lr
 800377a:	46c0      	nop			@ (mov r8, r8)
 800377c:	40021000 	.word	0x40021000

08003780 <RCC_GetSystemClockFreq>:
  *         @arg @ref LL_RCC_SYS_CLKSOURCE_STATUS_LSE
  * @note (*) peripheral not available on all devices
  */
__STATIC_INLINE uint32_t LL_RCC_GetSysClkSource(void)
{
  return (uint32_t)(READ_BIT(RCC->CFGR, RCC_CFGR_SWS));
 8003780:	2138      	movs	r1, #56	@ 0x38
 8003782:	4a0e      	ldr	r2, [pc, #56]	@ (80037bc <RCC_GetSystemClockFreq+0x3c>)
 8003784:	6893      	ldr	r3, [r2, #8]
 8003786:	400b      	ands	r3, r1
#if defined(RCC_CR_SYSDIV)
  uint32_t sysdiv = (uint32_t)(((RCC->CR & RCC_CR_SYSDIV) >> RCC_CR_SYSDIV_Pos) + 1U);
#endif /* RCC_CR_SYSDIV */

  /* Get SYSCLK source -------------------------------------------------------*/
  switch (LL_RCC_GetSysClkSource())
 8003788:	2b18      	cmp	r3, #24
 800378a:	d014      	beq.n	80037b6 <RCC_GetSystemClockFreq+0x36>
 800378c:	d809      	bhi.n	80037a2 <RCC_GetSystemClockFreq+0x22>
 800378e:	480c      	ldr	r0, [pc, #48]	@ (80037c0 <RCC_GetSystemClockFreq+0x40>)
 8003790:	2b00      	cmp	r3, #0
 8003792:	d00b      	beq.n	80037ac <RCC_GetSystemClockFreq+0x2c>
 8003794:	2b08      	cmp	r3, #8
 8003796:	d00d      	beq.n	80037b4 <RCC_GetSystemClockFreq+0x34>
      frequency = HSI48_VALUE;
      break;
#endif /* RCC_HSI48_SUPPORT */

    default:
      hsidiv = (1UL << ((READ_BIT(RCC->CR, RCC_CR_HSIDIV)) >> RCC_CR_HSIDIV_Pos));
 8003798:	6813      	ldr	r3, [r2, #0]
      frequency = (HSI_VALUE / hsidiv);
 800379a:	4809      	ldr	r0, [pc, #36]	@ (80037c0 <RCC_GetSystemClockFreq+0x40>)
      hsidiv = (1UL << ((READ_BIT(RCC->CR, RCC_CR_HSIDIV)) >> RCC_CR_HSIDIV_Pos));
 800379c:	049b      	lsls	r3, r3, #18
 800379e:	0f5b      	lsrs	r3, r3, #29
 80037a0:	e007      	b.n	80037b2 <RCC_GetSystemClockFreq+0x32>
  switch (LL_RCC_GetSysClkSource())
 80037a2:	2b20      	cmp	r3, #32
 80037a4:	d1f8      	bne.n	8003798 <RCC_GetSystemClockFreq+0x18>
 80037a6:	2080      	movs	r0, #128	@ 0x80
 80037a8:	0200      	lsls	r0, r0, #8
  }
#if defined(RCC_CR_SYSDIV)
  frequency = frequency / sysdiv;
#endif /* RCC_CR_SYSDIV */

  return frequency;
 80037aa:	e003      	b.n	80037b4 <RCC_GetSystemClockFreq+0x34>
      hsidiv = (1UL << ((READ_BIT(RCC->CR, RCC_CR_HSIDIV)) >> RCC_CR_HSIDIV_Pos));
 80037ac:	6813      	ldr	r3, [r2, #0]
 80037ae:	049b      	lsls	r3, r3, #18
 80037b0:	0f5b      	lsrs	r3, r3, #29
      frequency = (HSI_VALUE / hsidiv);
 80037b2:	40d8      	lsrs	r0, r3
}
 80037b4:	4770      	bx	lr
      frequency = LSI_VALUE;
 80037b6:	20fa      	movs	r0, #250	@ 0xfa
 80037b8:	01c0      	lsls	r0, r0, #7
 80037ba:	e7fb      	b.n	80037b4 <RCC_GetSystemClockFreq+0x34>
 80037bc:	40021000 	.word	0x40021000
 80037c0:	02dc6c00 	.word	0x02dc6c00

080037c4 <RCC_GetHCLKClockFreq>:
  *         @arg @ref LL_RCC_HCLK_DIV_256
  *         @arg @ref LL_RCC_HCLK_DIV_512
  */
__STATIC_INLINE uint32_t LL_RCC_GetAHBPrescaler(void)
{
  return (uint32_t)(READ_BIT(RCC->CFGR, RCC_CFGR_HPRE));
 80037c4:	4b05      	ldr	r3, [pc, #20]	@ (80037dc <RCC_GetHCLKClockFreq+0x18>)
  * @retval HCLK clock frequency (in Hz)
  */
uint32_t RCC_GetHCLKClockFreq(uint32_t SYSCLK_Frequency)
{
  /* HCLK clock frequency */
  return __LL_RCC_CALC_HCLK_FREQ(SYSCLK_Frequency, LL_RCC_GetAHBPrescaler());
 80037c6:	4a06      	ldr	r2, [pc, #24]	@ (80037e0 <RCC_GetHCLKClockFreq+0x1c>)
 80037c8:	689b      	ldr	r3, [r3, #8]
 80037ca:	051b      	lsls	r3, r3, #20
 80037cc:	0f1b      	lsrs	r3, r3, #28
 80037ce:	009b      	lsls	r3, r3, #2
 80037d0:	589b      	ldr	r3, [r3, r2]
 80037d2:	221f      	movs	r2, #31
 80037d4:	4013      	ands	r3, r2
 80037d6:	40d8      	lsrs	r0, r3
}
 80037d8:	4770      	bx	lr
 80037da:	46c0      	nop			@ (mov r8, r8)
 80037dc:	40021000 	.word	0x40021000
 80037e0:	080063e0 	.word	0x080063e0

080037e4 <RCC_GetPCLK1ClockFreq>:
  *         @arg @ref LL_RCC_APB1_DIV_8
  *         @arg @ref LL_RCC_APB1_DIV_16
  */
__STATIC_INLINE uint32_t LL_RCC_GetAPB1Prescaler(void)
{
  return (uint32_t)(READ_BIT(RCC->CFGR, RCC_CFGR_PPRE));
 80037e4:	4b05      	ldr	r3, [pc, #20]	@ (80037fc <RCC_GetPCLK1ClockFreq+0x18>)
  * @retval PCLK1 clock frequency (in Hz)
  */
uint32_t RCC_GetPCLK1ClockFreq(uint32_t HCLK_Frequency)
{
  /* PCLK1 clock frequency */
  return __LL_RCC_CALC_PCLK1_FREQ(HCLK_Frequency, LL_RCC_GetAPB1Prescaler());
 80037e6:	4a06      	ldr	r2, [pc, #24]	@ (8003800 <RCC_GetPCLK1ClockFreq+0x1c>)
 80037e8:	689b      	ldr	r3, [r3, #8]
 80037ea:	045b      	lsls	r3, r3, #17
 80037ec:	0f5b      	lsrs	r3, r3, #29
 80037ee:	009b      	lsls	r3, r3, #2
 80037f0:	589b      	ldr	r3, [r3, r2]
 80037f2:	221f      	movs	r2, #31
 80037f4:	4013      	ands	r3, r2
 80037f6:	40d8      	lsrs	r0, r3
}
 80037f8:	4770      	bx	lr
 80037fa:	46c0      	nop			@ (mov r8, r8)
 80037fc:	40021000 	.word	0x40021000
 8003800:	080063c0 	.word	0x080063c0

08003804 <LL_RCC_GetSystemClocksFreq>:
{
 8003804:	b510      	push	{r4, lr}
 8003806:	0004      	movs	r4, r0
  RCC_Clocks->SYSCLK_Frequency = RCC_GetSystemClockFreq();
 8003808:	f7ff ffba 	bl	8003780 <RCC_GetSystemClockFreq>
 800380c:	6020      	str	r0, [r4, #0]
  RCC_Clocks->HCLK_Frequency   = RCC_GetHCLKClockFreq(RCC_Clocks->SYSCLK_Frequency);
 800380e:	f7ff ffd9 	bl	80037c4 <RCC_GetHCLKClockFreq>
 8003812:	6060      	str	r0, [r4, #4]
  RCC_Clocks->PCLK1_Frequency  = RCC_GetPCLK1ClockFreq(RCC_Clocks->HCLK_Frequency);
 8003814:	f7ff ffe6 	bl	80037e4 <RCC_GetPCLK1ClockFreq>
 8003818:	60a0      	str	r0, [r4, #8]
}
 800381a:	bd10      	pop	{r4, pc}

0800381c <LL_RCC_GetUSARTClockFreq>:
{
 800381c:	b510      	push	{r4, lr}
  if (USARTxSource == LL_RCC_USART1_CLKSOURCE)
 800381e:	2803      	cmp	r0, #3
 8003820:	d001      	beq.n	8003826 <LL_RCC_GetUSARTClockFreq+0xa>
  uint32_t usart_frequency = LL_RCC_PERIPH_FREQUENCY_NO;
 8003822:	2000      	movs	r0, #0
}
 8003824:	bd10      	pop	{r4, pc}
  *         @arg @ref LL_RCC_USART1_CLKSOURCE_HSIKER
  *         @arg @ref LL_RCC_USART1_CLKSOURCE_LSE
  */
__STATIC_INLINE uint32_t LL_RCC_GetUSARTClockSource(uint32_t USARTx)
{
  return (uint32_t)(READ_BIT(RCC->CCIPR, USARTx) | (USARTx << 16U));
 8003826:	4c15      	ldr	r4, [pc, #84]	@ (800387c <LL_RCC_GetUSARTClockFreq+0x60>)
 8003828:	6d63      	ldr	r3, [r4, #84]	@ 0x54
 800382a:	4003      	ands	r3, r0
 800382c:	20c0      	movs	r0, #192	@ 0xc0
 800382e:	0280      	lsls	r0, r0, #10
 8003830:	4318      	orrs	r0, r3
    switch (LL_RCC_GetUSARTClockSource(USARTxSource))
 8003832:	4b13      	ldr	r3, [pc, #76]	@ (8003880 <LL_RCC_GetUSARTClockFreq+0x64>)
 8003834:	4298      	cmp	r0, r3
 8003836:	d008      	beq.n	800384a <LL_RCC_GetUSARTClockFreq+0x2e>
 8003838:	4b12      	ldr	r3, [pc, #72]	@ (8003884 <LL_RCC_GetUSARTClockFreq+0x68>)
 800383a:	4298      	cmp	r0, r3
 800383c:	d011      	beq.n	8003862 <LL_RCC_GetUSARTClockFreq+0x46>
 800383e:	4b12      	ldr	r3, [pc, #72]	@ (8003888 <LL_RCC_GetUSARTClockFreq+0x6c>)
 8003840:	4298      	cmp	r0, r3
 8003842:	d113      	bne.n	800386c <LL_RCC_GetUSARTClockFreq+0x50>
        usart_frequency = RCC_GetSystemClockFreq();
 8003844:	f7ff ff9c 	bl	8003780 <RCC_GetSystemClockFreq>
        break;
 8003848:	e7ec      	b.n	8003824 <LL_RCC_GetUSARTClockFreq+0x8>
        if (LL_RCC_HSI_IsReady() == 1U)
 800384a:	f7ff ff91 	bl	8003770 <LL_RCC_HSI_IsReady>
 800384e:	2801      	cmp	r0, #1
 8003850:	d1e7      	bne.n	8003822 <LL_RCC_GetUSARTClockFreq+0x6>
  return (READ_BIT(RCC->CR, RCC_CR_HSIKERDIV));
 8003852:	6821      	ldr	r1, [r4, #0]
          usart_frequency = (HSI_VALUE / ((LL_RCC_HSIKER_GetDivider() >> RCC_CR_HSIKERDIV_Pos) + 1U));
 8003854:	480d      	ldr	r0, [pc, #52]	@ (800388c <LL_RCC_GetUSARTClockFreq+0x70>)
 8003856:	0609      	lsls	r1, r1, #24
 8003858:	0f49      	lsrs	r1, r1, #29
 800385a:	3101      	adds	r1, #1
 800385c:	f7fc fc68 	bl	8000130 <__udivsi3>
 8003860:	e7e0      	b.n	8003824 <LL_RCC_GetUSARTClockFreq+0x8>
  return ((READ_BIT(RCC->CSR1, RCC_CSR1_LSERDY) == (RCC_CSR1_LSERDY)) ? 1UL : 0UL);
 8003862:	6de0      	ldr	r0, [r4, #92]	@ 0x5c
 8003864:	0780      	lsls	r0, r0, #30
 8003866:	0fc0      	lsrs	r0, r0, #31
 8003868:	03c0      	lsls	r0, r0, #15
 800386a:	e7db      	b.n	8003824 <LL_RCC_GetUSARTClockFreq+0x8>
        usart_frequency = RCC_GetPCLK1ClockFreq(RCC_GetHCLKClockFreq(RCC_GetSystemClockFreq()));
 800386c:	f7ff ff88 	bl	8003780 <RCC_GetSystemClockFreq>
 8003870:	f7ff ffa8 	bl	80037c4 <RCC_GetHCLKClockFreq>
 8003874:	f7ff ffb6 	bl	80037e4 <RCC_GetPCLK1ClockFreq>
  return usart_frequency;
 8003878:	e7d4      	b.n	8003824 <LL_RCC_GetUSARTClockFreq+0x8>
 800387a:	46c0      	nop			@ (mov r8, r8)
 800387c:	40021000 	.word	0x40021000
 8003880:	00030002 	.word	0x00030002
 8003884:	00030003 	.word	0x00030003
 8003888:	00030001 	.word	0x00030001
 800388c:	02dc6c00 	.word	0x02dc6c00

08003890 <LL_TIM_Init>:
  * @retval An ErrorStatus enumeration value:
  *          - SUCCESS: TIMx registers are de-initialized
  *          - ERROR: not applicable
  */
ErrorStatus LL_TIM_Init(TIM_TypeDef *TIMx, const LL_TIM_InitTypeDef *TIM_InitStruct)
{
 8003890:	b510      	push	{r4, lr}
  assert_param(IS_LL_TIM_COUNTERMODE(TIM_InitStruct->CounterMode));
  assert_param(IS_LL_TIM_CLOCKDIVISION(TIM_InitStruct->ClockDivision));

  tmpcr1 = LL_TIM_ReadReg(TIMx, CR1);

  if (IS_TIM_COUNTER_MODE_SELECT_INSTANCE(TIMx))
 8003892:	4c17      	ldr	r4, [pc, #92]	@ (80038f0 <LL_TIM_Init+0x60>)
  tmpcr1 = LL_TIM_ReadReg(TIMx, CR1);
 8003894:	6803      	ldr	r3, [r0, #0]
  if (IS_TIM_COUNTER_MODE_SELECT_INSTANCE(TIMx))
 8003896:	42a0      	cmp	r0, r4
 8003898:	d00a      	beq.n	80038b0 <LL_TIM_Init+0x20>
 800389a:	4a16      	ldr	r2, [pc, #88]	@ (80038f4 <LL_TIM_Init+0x64>)
 800389c:	4290      	cmp	r0, r2
 800389e:	d007      	beq.n	80038b0 <LL_TIM_Init+0x20>
  {
    /* Select the Counter Mode */
    MODIFY_REG(tmpcr1, (TIM_CR1_DIR | TIM_CR1_CMS), TIM_InitStruct->CounterMode);
  }

  if (IS_TIM_CLOCK_DIVISION_INSTANCE(TIMx))
 80038a0:	4a15      	ldr	r2, [pc, #84]	@ (80038f8 <LL_TIM_Init+0x68>)
 80038a2:	4290      	cmp	r0, r2
 80038a4:	d109      	bne.n	80038ba <LL_TIM_Init+0x2a>
  {
    /* Set the clock division */
    MODIFY_REG(tmpcr1, TIM_CR1_CKD, TIM_InitStruct->ClockDivision);
 80038a6:	4a15      	ldr	r2, [pc, #84]	@ (80038fc <LL_TIM_Init+0x6c>)
 80038a8:	401a      	ands	r2, r3
 80038aa:	68cb      	ldr	r3, [r1, #12]
 80038ac:	4313      	orrs	r3, r2
 80038ae:	e00a      	b.n	80038c6 <LL_TIM_Init+0x36>
    MODIFY_REG(tmpcr1, (TIM_CR1_DIR | TIM_CR1_CMS), TIM_InitStruct->CounterMode);
 80038b0:	2270      	movs	r2, #112	@ 0x70
 80038b2:	4393      	bics	r3, r2
 80038b4:	684a      	ldr	r2, [r1, #4]
 80038b6:	4313      	orrs	r3, r2
  if (IS_TIM_CLOCK_DIVISION_INSTANCE(TIMx))
 80038b8:	e7f5      	b.n	80038a6 <LL_TIM_Init+0x16>
 80038ba:	4a11      	ldr	r2, [pc, #68]	@ (8003900 <LL_TIM_Init+0x70>)
 80038bc:	4290      	cmp	r0, r2
 80038be:	d0f2      	beq.n	80038a6 <LL_TIM_Init+0x16>
 80038c0:	4a10      	ldr	r2, [pc, #64]	@ (8003904 <LL_TIM_Init+0x74>)
 80038c2:	4290      	cmp	r0, r2
 80038c4:	d0ef      	beq.n	80038a6 <LL_TIM_Init+0x16>
  }

  /* Write to TIMx CR1 */
  LL_TIM_WriteReg(TIMx, CR1, tmpcr1);
 80038c6:	6003      	str	r3, [r0, #0]

  /* Set the Autoreload value */
  LL_TIM_SetAutoReload(TIMx, TIM_InitStruct->Autoreload);
 80038c8:	688b      	ldr	r3, [r1, #8]
  WRITE_REG(TIMx->ARR, AutoReload);
 80038ca:	62c3      	str	r3, [r0, #44]	@ 0x2c

  /* Set the Prescaler value */
  LL_TIM_SetPrescaler(TIMx, TIM_InitStruct->Prescaler);
 80038cc:	880b      	ldrh	r3, [r1, #0]
  WRITE_REG(TIMx->PSC, Prescaler);
 80038ce:	6283      	str	r3, [r0, #40]	@ 0x28

  if (IS_TIM_REPETITION_COUNTER_INSTANCE(TIMx))
 80038d0:	42a0      	cmp	r0, r4
 80038d2:	d005      	beq.n	80038e0 <LL_TIM_Init+0x50>
 80038d4:	4b0a      	ldr	r3, [pc, #40]	@ (8003900 <LL_TIM_Init+0x70>)
 80038d6:	4298      	cmp	r0, r3
 80038d8:	d002      	beq.n	80038e0 <LL_TIM_Init+0x50>
 80038da:	4b0a      	ldr	r3, [pc, #40]	@ (8003904 <LL_TIM_Init+0x74>)
 80038dc:	4298      	cmp	r0, r3
 80038de:	d101      	bne.n	80038e4 <LL_TIM_Init+0x54>
  {
    /* Set the Repetition Counter value */
    LL_TIM_SetRepetitionCounter(TIMx, TIM_InitStruct->RepetitionCounter);
 80038e0:	690b      	ldr	r3, [r1, #16]
  WRITE_REG(TIMx->RCR, RepetitionCounter);
 80038e2:	6303      	str	r3, [r0, #48]	@ 0x30
  SET_BIT(TIMx->EGR, TIM_EGR_UG);
 80038e4:	2301      	movs	r3, #1
 80038e6:	6942      	ldr	r2, [r0, #20]
 80038e8:	4313      	orrs	r3, r2
 80038ea:	6143      	str	r3, [r0, #20]
  /* Generate an update event to reload the Prescaler
     and the repetition counter value (if applicable) immediately */
  LL_TIM_GenerateEvent_UPDATE(TIMx);

  return SUCCESS;
}
 80038ec:	2000      	movs	r0, #0
 80038ee:	bd10      	pop	{r4, pc}
 80038f0:	40012c00 	.word	0x40012c00
 80038f4:	40000400 	.word	0x40000400
 80038f8:	40002000 	.word	0x40002000
 80038fc:	fffffcff 	.word	0xfffffcff
 8003900:	40014400 	.word	0x40014400
 8003904:	40014800 	.word	0x40014800

08003908 <LL_USART_Init>:
  * @retval An ErrorStatus enumeration value:
  *          - SUCCESS: USART registers are initialized according to USART_InitStruct content
  *          - ERROR: Problem occurred during USART Registers initialization
  */
ErrorStatus LL_USART_Init(USART_TypeDef *USARTx, const LL_USART_InitTypeDef *USART_InitStruct)
{
 8003908:	b57f      	push	{r0, r1, r2, r3, r4, r5, r6, lr}
 800390a:	0004      	movs	r4, r0
  return ((READ_BIT(USARTx->CR1, USART_CR1_UE) == (USART_CR1_UE)) ? 1UL : 0UL);
 800390c:	6803      	ldr	r3, [r0, #0]
  ErrorStatus status = ERROR;
 800390e:	2001      	movs	r0, #1
{
 8003910:	000d      	movs	r5, r1
 8003912:	4203      	tst	r3, r0
 8003914:	d148      	bne.n	80039a8 <LL_USART_Init+0xa0>
     * - DataWidth:          USART_CR1_M bits according to USART_InitStruct->DataWidth value
     * - Parity:             USART_CR1_PCE, USART_CR1_PS bits according to USART_InitStruct->Parity value
     * - TransferDirection:  USART_CR1_TE, USART_CR1_RE bits according to USART_InitStruct->TransferDirection value
     * - Oversampling:       USART_CR1_OVER8 bit according to USART_InitStruct->OverSampling value.
     */
    MODIFY_REG(USARTx->CR1,
 8003916:	688b      	ldr	r3, [r1, #8]
 8003918:	6909      	ldr	r1, [r1, #16]
 800391a:	6822      	ldr	r2, [r4, #0]
 800391c:	430b      	orrs	r3, r1
 800391e:	6969      	ldr	r1, [r5, #20]
 8003920:	430b      	orrs	r3, r1
 8003922:	69e9      	ldr	r1, [r5, #28]
 8003924:	430b      	orrs	r3, r1
 8003926:	4927      	ldr	r1, [pc, #156]	@ (80039c4 <LL_USART_Init+0xbc>)
 8003928:	400a      	ands	r2, r1
 800392a:	4313      	orrs	r3, r2
 800392c:	6023      	str	r3, [r4, #0]
  MODIFY_REG(USARTx->CR2, USART_CR2_STOP, StopBits);
 800392e:	6863      	ldr	r3, [r4, #4]
 8003930:	4a25      	ldr	r2, [pc, #148]	@ (80039c8 <LL_USART_Init+0xc0>)
 8003932:	4013      	ands	r3, r2
 8003934:	68ea      	ldr	r2, [r5, #12]
 8003936:	4313      	orrs	r3, r2
 8003938:	6063      	str	r3, [r4, #4]
  MODIFY_REG(USARTx->CR3, USART_CR3_RTSE | USART_CR3_CTSE, HardwareFlowControl);
 800393a:	68a3      	ldr	r3, [r4, #8]
 800393c:	4a23      	ldr	r2, [pc, #140]	@ (80039cc <LL_USART_Init+0xc4>)
 800393e:	4013      	ands	r3, r2
 8003940:	69aa      	ldr	r2, [r5, #24]
 8003942:	4313      	orrs	r3, r2
 8003944:	60a3      	str	r3, [r4, #8]
    LL_USART_SetHWFlowCtrl(USARTx, USART_InitStruct->HardwareFlowControl);

    /*---------------------------- USART BRR Configuration ---------------------
     * Retrieve Clock frequency used for USART Peripheral
     */
    if (USARTx == USART1)
 8003946:	4b22      	ldr	r3, [pc, #136]	@ (80039d0 <LL_USART_Init+0xc8>)
 8003948:	429c      	cmp	r4, r3
 800394a:	d122      	bne.n	8003992 <LL_USART_Init+0x8a>
    {
      periphclk = LL_RCC_GetUSARTClockFreq(LL_RCC_USART1_CLKSOURCE);
 800394c:	3002      	adds	r0, #2
 800394e:	f7ff ff65 	bl	800381c <LL_RCC_GetUSARTClockFreq>
        && (USART_InitStruct->BaudRate != 0U))
    {
      status = SUCCESS;
      LL_USART_SetBaudRate(USARTx,
                           periphclk,
                           USART_InitStruct->PrescalerValue,
 8003952:	682b      	ldr	r3, [r5, #0]
    if ((periphclk != LL_RCC_PERIPH_FREQUENCY_NO)
 8003954:	2800      	cmp	r0, #0
 8003956:	d01f      	beq.n	8003998 <LL_USART_Init+0x90>
        && (USART_InitStruct->BaudRate != 0U))
 8003958:	686e      	ldr	r6, [r5, #4]
 800395a:	2e00      	cmp	r6, #0
 800395c:	d01c      	beq.n	8003998 <LL_USART_Init+0x90>
  if (PrescalerValue > LL_USART_PRESCALER_DIV256)
 800395e:	2b0b      	cmp	r3, #11
 8003960:	d815      	bhi.n	800398e <LL_USART_Init+0x86>
    usartdiv = (uint16_t)(__LL_USART_DIV_SAMPLING8(PeriphClk, (uint8_t)PrescalerValue, BaudRate));
 8003962:	4a1c      	ldr	r2, [pc, #112]	@ (80039d4 <LL_USART_Init+0xcc>)
 8003964:	009b      	lsls	r3, r3, #2
 8003966:	5899      	ldr	r1, [r3, r2]
 8003968:	f7fc fbe2 	bl	8000130 <__udivsi3>
  else if (OverSampling == LL_USART_OVERSAMPLING_8)
 800396c:	2280      	movs	r2, #128	@ 0x80
 800396e:	69e9      	ldr	r1, [r5, #28]
    usartdiv = (uint16_t)(__LL_USART_DIV_SAMPLING8(PeriphClk, (uint8_t)PrescalerValue, BaudRate));
 8003970:	0873      	lsrs	r3, r6, #1
  else if (OverSampling == LL_USART_OVERSAMPLING_8)
 8003972:	0212      	lsls	r2, r2, #8
 8003974:	4291      	cmp	r1, r2
 8003976:	d11e      	bne.n	80039b6 <LL_USART_Init+0xae>
    usartdiv = (uint16_t)(__LL_USART_DIV_SAMPLING8(PeriphClk, (uint8_t)PrescalerValue, BaudRate));
 8003978:	0040      	lsls	r0, r0, #1
 800397a:	18c0      	adds	r0, r0, r3
 800397c:	0031      	movs	r1, r6
 800397e:	f7fc fbd7 	bl	8000130 <__udivsi3>
    brrtemp = usartdiv & 0xFFF0U;
 8003982:	4b15      	ldr	r3, [pc, #84]	@ (80039d8 <LL_USART_Init+0xd0>)
 8003984:	4003      	ands	r3, r0
    brrtemp |= (uint16_t)((usartdiv & (uint16_t)0x000FU) >> 1U);
 8003986:	0700      	lsls	r0, r0, #28
 8003988:	0f40      	lsrs	r0, r0, #29
 800398a:	4318      	orrs	r0, r3
    USARTx->BRR = (uint16_t)(__LL_USART_DIV_SAMPLING16(PeriphClk, (uint8_t)PrescalerValue, BaudRate));
 800398c:	60e0      	str	r0, [r4, #12]
      status = SUCCESS;
 800398e:	2000      	movs	r0, #0
 8003990:	e003      	b.n	800399a <LL_USART_Init+0x92>
    else if (USARTx == USART2)
 8003992:	4b12      	ldr	r3, [pc, #72]	@ (80039dc <LL_USART_Init+0xd4>)
 8003994:	429c      	cmp	r4, r3
 8003996:	d009      	beq.n	80039ac <LL_USART_Init+0xa4>
  ErrorStatus status = ERROR;
 8003998:	2001      	movs	r0, #1
  MODIFY_REG(USARTx->PRESC, USART_PRESC_PRESCALER, (uint16_t)PrescalerValue);
 800399a:	210f      	movs	r1, #15
 800399c:	6ae2      	ldr	r2, [r4, #44]	@ 0x2c
 800399e:	682b      	ldr	r3, [r5, #0]
 80039a0:	438a      	bics	r2, r1
 80039a2:	b29b      	uxth	r3, r3
 80039a4:	4313      	orrs	r3, r2
 80039a6:	62e3      	str	r3, [r4, #44]	@ 0x2c
    LL_USART_SetPrescaler(USARTx, USART_InitStruct->PrescalerValue);
  }
  /* Endif (=> USART not in Disabled state => return ERROR) */

  return (status);
}
 80039a8:	b004      	add	sp, #16
 80039aa:	bd70      	pop	{r4, r5, r6, pc}
      LL_RCC_GetSystemClocksFreq(&RCC_Clocks);
 80039ac:	a801      	add	r0, sp, #4
 80039ae:	f7ff ff29 	bl	8003804 <LL_RCC_GetSystemClocksFreq>
      periphclk = RCC_Clocks.PCLK1_Frequency;
 80039b2:	9803      	ldr	r0, [sp, #12]
 80039b4:	e7cd      	b.n	8003952 <LL_USART_Init+0x4a>
    USARTx->BRR = (uint16_t)(__LL_USART_DIV_SAMPLING16(PeriphClk, (uint8_t)PrescalerValue, BaudRate));
 80039b6:	0031      	movs	r1, r6
 80039b8:	1818      	adds	r0, r3, r0
 80039ba:	f7fc fbb9 	bl	8000130 <__udivsi3>
 80039be:	b280      	uxth	r0, r0
 80039c0:	e7e4      	b.n	800398c <LL_USART_Init+0x84>
 80039c2:	46c0      	nop			@ (mov r8, r8)
 80039c4:	efff69f3 	.word	0xefff69f3
 80039c8:	ffffcfff 	.word	0xffffcfff
 80039cc:	fffffcff 	.word	0xfffffcff
 80039d0:	40013800 	.word	0x40013800
 80039d4:	08006420 	.word	0x08006420
 80039d8:	0000fff0 	.word	0x0000fff0
 80039dc:	40004400 	.word	0x40004400

080039e0 <QF_int_disable_>:
// Additionally, the function also asserts that the interrupts are
// NOT disabled upon the entry to the function, which means that
// this interrupt management policy CANNOT nest.
__attribute__ ((naked, weak))
void QF_int_disable_(void) {
__asm volatile (
 80039e0:	f3ef 8010 	mrs	r0, PRIMASK
 80039e4:	b672      	cpsid	i
 80039e6:	2800      	cmp	r0, #0
 80039e8:	d100      	bne.n	80039ec <QF_int_disable_error>
 80039ea:	4770      	bx	lr

080039ec <QF_int_disable_error>:
 80039ec:	4801      	ldr	r0, [pc, #4]	@ (80039f4 <QF_int_disable_error+0x8>)
 80039ee:	2164      	movs	r1, #100	@ 0x64
 80039f0:	4a01      	ldr	r2, [pc, #4]	@ (80039f8 <QF_int_disable_error+0xc>)
 80039f2:	4710      	bx	r2
    "  LDR     r0,=QF_port_module_ \n"
    "  MOVS    r1,#100          \n"
    "  LDR     r2,=Q_onError    \n"
    "  BX      r2               \n"
    );
}
 80039f4:	08006460 	.word	0x08006460
 80039f8:	08000615 	.word	0x08000615

080039fc <QF_int_enable_>:
// Additionally, the function also asserts that the interrupts ARE
// disabled upon the entry to the function, which means that
// this interrupt management policy CANNOT nest.
__attribute__ ((naked, weak))
void QF_int_enable_(void) {
__asm volatile (
 80039fc:	f3ef 8010 	mrs	r0, PRIMASK
 8003a00:	2800      	cmp	r0, #0
 8003a02:	d001      	beq.n	8003a08 <QF_int_enable_error>
 8003a04:	b662      	cpsie	i
 8003a06:	4770      	bx	lr

08003a08 <QF_int_enable_error>:
 8003a08:	4801      	ldr	r0, [pc, #4]	@ (8003a10 <QF_int_enable_error+0x8>)
 8003a0a:	2165      	movs	r1, #101	@ 0x65
 8003a0c:	4a01      	ldr	r2, [pc, #4]	@ (8003a14 <QF_int_enable_error+0xc>)
 8003a0e:	4710      	bx	r2
    "  LDR     r0,=QF_port_module_ \n"
    "  MOVS    r1,#101          \n"
    "  LDR     r2,=Q_onError    \n"
    "  BX      r2               \n"
    );
}
 8003a10:	08006460 	.word	0x08006460
 8003a14:	08000615 	.word	0x08000615

08003a18 <QF_crit_entry_>:
// Additionally, the function also asserts that the interrupts are
// NOT disabled upon the entry to the function, which means that
// this critical section CANNOT nest.
__attribute__ ((naked, weak))
void QF_crit_entry_(void) {
__asm volatile (
 8003a18:	f3ef 8010 	mrs	r0, PRIMASK
 8003a1c:	b672      	cpsid	i
 8003a1e:	2800      	cmp	r0, #0
 8003a20:	d100      	bne.n	8003a24 <QF_crit_entry_error>
 8003a22:	4770      	bx	lr

08003a24 <QF_crit_entry_error>:
 8003a24:	4801      	ldr	r0, [pc, #4]	@ (8003a2c <QF_crit_entry_error+0x8>)
 8003a26:	216e      	movs	r1, #110	@ 0x6e
 8003a28:	4a01      	ldr	r2, [pc, #4]	@ (8003a30 <QF_crit_entry_error+0xc>)
 8003a2a:	4710      	bx	r2
    "  LDR     r0,=QF_port_module_ \n"
    "  MOVS    r1,#110          \n"
    "  LDR     r2,=Q_onError    \n"
    "  BX      r2               \n"
    );
}
 8003a2c:	08006460 	.word	0x08006460
 8003a30:	08000615 	.word	0x08000615

08003a34 <QF_crit_exit_>:
// Additionally, the function also asserts that the interrupts ARE
// disabled upon the entry to the function, which means that
// this critical section CANNOT nest.
__attribute__ ((naked, weak))
void QF_crit_exit_(void) {
__asm volatile (
 8003a34:	f3ef 8010 	mrs	r0, PRIMASK
 8003a38:	2800      	cmp	r0, #0
 8003a3a:	d001      	beq.n	8003a40 <QF_crit_exit_error>
 8003a3c:	b662      	cpsie	i
 8003a3e:	4770      	bx	lr

08003a40 <QF_crit_exit_error>:
 8003a40:	4801      	ldr	r0, [pc, #4]	@ (8003a48 <QF_crit_exit_error+0x8>)
 8003a42:	216f      	movs	r1, #111	@ 0x6f
 8003a44:	4a01      	ldr	r2, [pc, #4]	@ (8003a4c <QF_crit_exit_error+0xc>)
 8003a46:	4710      	bx	r2
    "  LDR     r0,=QF_port_module_ \n"
    "  MOVS    r1,#111          \n"
    "  LDR     r2,=Q_onError    \n"
    "  BX      r2               \n"
    );
}
 8003a48:	08006460 	.word	0x08006460
 8003a4c:	08000615 	.word	0x08000615

08003a50 <QK_init>:
    }

#endif                  //--------- use BASEPRI for critical section

    // SCB_SYSPRI[2]: PendSV set to priority 0xFF (lowest)
    SCB_SYSPRI[2] = (SCB_SYSPRI[2] | (0xFFU << 16U));
 8003a50:	23ff      	movs	r3, #255	@ 0xff
 8003a52:	4a03      	ldr	r2, [pc, #12]	@ (8003a60 <QK_init+0x10>)
 8003a54:	041b      	lsls	r3, r3, #16
 8003a56:	6811      	ldr	r1, [r2, #0]
 8003a58:	430b      	orrs	r3, r1
 8003a5a:	6013      	str	r3, [r2, #0]
    SCB_CPACR = (SCB_CPACR | ((3UL << 20U) | (3UL << 22U)));

    // FPU automatic state preservation (ASPEN) lazy stacking (LSPEN)
    FPU_FPCCR = (FPU_FPCCR | (1U << 30U) | (1U << 31U));
#endif                  //--------- VFP available
}
 8003a5c:	4770      	bx	lr
 8003a5e:	46c0      	nop			@ (mov r8, r8)
 8003a60:	e000ed20 	.word	0xe000ed20

08003a64 <PendSV_Handler>:
// The inline GNU assembler does not accept mnemonics MOVS, LSRS and ADDS,
// but for ARMv6-M the mnemonics MOV, LSR and ADD always set the condition
// flags in the PSR.
__attribute__ ((naked, optimize("-fno-stack-protector")))
void PendSV_Handler(void) {
__asm volatile (
 8003a64:	b501      	push	{r0, lr}
 8003a66:	4808      	ldr	r0, [pc, #32]	@ (8003a88 <PendSV_Handler+0x24>)
 8003a68:	4780      	blx	r0
 8003a6a:	4a08      	ldr	r2, [pc, #32]	@ (8003a8c <PendSV_Handler+0x28>)
 8003a6c:	2101      	movs	r1, #1
 8003a6e:	06c9      	lsls	r1, r1, #27
 8003a70:	6011      	str	r1, [r2, #0]
 8003a72:	08cb      	lsrs	r3, r1, #3
 8003a74:	4a06      	ldr	r2, [pc, #24]	@ (8003a90 <PendSV_Handler+0x2c>)
 8003a76:	3a01      	subs	r2, #1
 8003a78:	4906      	ldr	r1, [pc, #24]	@ (8003a94 <PendSV_Handler+0x30>)
 8003a7a:	b088      	sub	sp, #32
 8003a7c:	a805      	add	r0, sp, #20
 8003a7e:	c00e      	stmia	r0!, {r1, r2, r3}
 8003a80:	2006      	movs	r0, #6
 8003a82:	43c0      	mvns	r0, r0
 8003a84:	4700      	bx	r0
#if (__ARM_ARCH != 6)   //--------- if ARMv7-M and higher...
    "  DSB                      \n" // ARM Erratum 838869
#endif                  //--------- ARMv7-M and higher
    "  BX      r0               \n" // exception-return to the QK activator
    );
}
 8003a86:	0000      	.short	0x0000
 8003a88:	080039e1 	.word	0x080039e1
 8003a8c:	e000ed04 	.word	0xe000ed04
 8003a90:	08004585 	.word	0x08004585
 8003a94:	08003a99 	.word	0x08003a99

08003a98 <QK_thread_ret>:
// The inline GNU assembler does not accept mnemonics MOVS, LSRS and ADDS,
// but for ARMv6-M the mnemonics MOV, LSR and ADD always set the condition
// flags in the PSR.
__attribute__ ((naked, used))
void QK_thread_ret(void) {
    __asm volatile (
 8003a98:	4804      	ldr	r0, [pc, #16]	@ (8003aac <QK_thread_ret+0x14>)
 8003a9a:	2101      	movs	r1, #1
 8003a9c:	07c9      	lsls	r1, r1, #31
 8003a9e:	6001      	str	r1, [r0, #0]
 8003aa0:	4803      	ldr	r0, [pc, #12]	@ (8003ab0 <QK_thread_ret+0x18>)
 8003aa2:	4780      	blx	r0
 8003aa4:	4803      	ldr	r0, [pc, #12]	@ (8003ab4 <QK_thread_ret+0x1c>)
 8003aa6:	2179      	movs	r1, #121	@ 0x79
 8003aa8:	4a03      	ldr	r2, [pc, #12]	@ (8003ab8 <QK_thread_ret+0x20>)
 8003aaa:	4710      	bx	r2
    "  LDR     r0,=QF_port_module_ \n"
    "  MOV     r1,#121          \n"
    "  LDR     r2,=Q_onError    \n"
    "  BX      r2               \n"
    );
}
 8003aac:	e000ed04 	.word	0xe000ed04
 8003ab0:	080039e1 	.word	0x080039e1
 8003ab4:	08006460 	.word	0x08006460
 8003ab8:	08000615 	.word	0x08000615

08003abc <NMI_Handler>:
#else                   //--------- IRQ NOT defined, use the NMI (default)

// NOTE: The NMI_Handler() is entered with interrupts still DISABLED!
__attribute__ ((naked))
void NMI_Handler(void) {
__asm volatile (
 8003abc:	b008      	add	sp, #32
 8003abe:	4801      	ldr	r0, [pc, #4]	@ (8003ac4 <NMI_Handler+0x8>)
 8003ac0:	4780      	blx	r0
 8003ac2:	bd01      	pop	{r0, pc}
    // it is NOT used to used to return from the exception. (See POP {r0,pc})
#endif                  //--------- interrupt disabling with PRIMASK
    "  POP     {r0,pc}          \n" // pop stack aligner and EXC_RETURN to pc
    );
    // NOTE: this causes exception-return to the preempted *thread* context
}
 8003ac4:	080039fd 	.word	0x080039fd

08003ac8 <QF_qlog2>:
// but for ARMv6-M the mnemonics MOV, LSR and ADD always set the condition
// flags in the PSR.
__attribute__ ((naked, optimize("-fno-stack-protector")))
uint_fast8_t QF_qlog2(uint32_t x) {
    Q_UNUSED_PAR(x);
__asm volatile (
 8003ac8:	2100      	movs	r1, #0
 8003aca:	0c02      	lsrs	r2, r0, #16
 8003acc:	d001      	beq.n	8003ad2 <QF_qlog2_1>
 8003ace:	2110      	movs	r1, #16
 8003ad0:	1c10      	adds	r0, r2, #0

08003ad2 <QF_qlog2_1>:
 8003ad2:	0a02      	lsrs	r2, r0, #8
 8003ad4:	d001      	beq.n	8003ada <QF_qlog2_2>
 8003ad6:	3108      	adds	r1, #8
 8003ad8:	1c10      	adds	r0, r2, #0

08003ada <QF_qlog2_2>:
 8003ada:	0902      	lsrs	r2, r0, #4
 8003adc:	d001      	beq.n	8003ae2 <QF_qlog2_3>
 8003ade:	3104      	adds	r1, #4
 8003ae0:	1c10      	adds	r0, r2, #0

08003ae2 <QF_qlog2_3>:
 8003ae2:	4a06      	ldr	r2, [pc, #24]	@ (8003afc <QF_qlog2_LUT+0x10>)
 8003ae4:	5c10      	ldrb	r0, [r2, r0]
 8003ae6:	1808      	adds	r0, r1, r0
 8003ae8:	4770      	bx	lr
 8003aea:	46c0      	nop			@ (mov r8, r8)

08003aec <QF_qlog2_LUT>:
 8003aec:	02020100 	.word	0x02020100
 8003af0:	03030303 	.word	0x03030303
 8003af4:	04040404 	.word	0x04040404
 8003af8:	04040404 	.word	0x04040404
    "  BX      lr               \n"
    "  .align                   \n"
    "QF_qlog2_LUT:              \n"
    "  .byte 0, 1, 2, 2, 3, 3, 3, 3, 4, 4, 4, 4, 4, 4, 4, 4"
    );
}
 8003afc:	08003aec 	.word	0x08003aec

08003b00 <QHsm_top>:
QState QHsm_top(QHsm const * const me, QEvt const * const e) {
    // the top state handler implementation
    Q_UNUSED_PAR(me);
    Q_UNUSED_PAR(e);
    return Q_RET_IGNORED; // the top state ignores all events
}
 8003b00:	2005      	movs	r0, #5
 8003b02:	4770      	bx	lr

08003b04 <QHsm_getStateHandler_>:
//............................................................................
//! @private @memberof QHsm
QStateHandler QHsm_getStateHandler_(QAsm const * const me) {
    // NOTE: this function does NOT apply critical section, so it can
    // be safely called from an already established critical section.
    return me->state.fun;
 8003b04:	6840      	ldr	r0, [r0, #4]
}
 8003b06:	4770      	bx	lr

08003b08 <QHsm_isIn_>:
    Q_INVARIANT_LOCAL(700,
 8003b08:	6882      	ldr	r2, [r0, #8]
 8003b0a:	6843      	ldr	r3, [r0, #4]
 8003b0c:	43d2      	mvns	r2, r2
{
 8003b0e:	b570      	push	{r4, r5, r6, lr}
 8003b10:	0004      	movs	r4, r0
 8003b12:	000d      	movs	r5, r1
    Q_INVARIANT_LOCAL(700,
 8003b14:	4293      	cmp	r3, r2
 8003b16:	d006      	beq.n	8003b26 <QHsm_isIn_+0x1e>
 8003b18:	f7ff ff7e 	bl	8003a18 <QF_crit_entry_>
 8003b1c:	21af      	movs	r1, #175	@ 0xaf
 8003b1e:	4809      	ldr	r0, [pc, #36]	@ (8003b44 <QHsm_isIn_+0x3c>)
 8003b20:	0089      	lsls	r1, r1, #2
 8003b22:	f7fc fd77 	bl	8000614 <Q_onError>
        if (s == stateHndl) { // do the states match?
 8003b26:	42ab      	cmp	r3, r5
 8003b28:	d00a      	beq.n	8003b40 <QHsm_isIn_+0x38>
        r = (*s)(me, &l_resEvt_[Q_EMPTY_SIG]);
 8003b2a:	0020      	movs	r0, r4
 8003b2c:	4906      	ldr	r1, [pc, #24]	@ (8003b48 <QHsm_isIn_+0x40>)
 8003b2e:	4798      	blx	r3
        s = me->temp.fun;
 8003b30:	68a3      	ldr	r3, [r4, #8]
    } while (r == Q_RET_SUPER);
 8003b32:	2800      	cmp	r0, #0
 8003b34:	d0f7      	beq.n	8003b26 <QHsm_isIn_+0x1e>
    bool inState = false; // assume that this HSM is NOT in 'stateHndl'
 8003b36:	2000      	movs	r0, #0
    me->temp.uint = QP_DIS_UPDATE(uintptr_t, me->state.uint);
 8003b38:	6863      	ldr	r3, [r4, #4]
 8003b3a:	43db      	mvns	r3, r3
 8003b3c:	60a3      	str	r3, [r4, #8]
}
 8003b3e:	bd70      	pop	{r4, r5, r6, pc}
            inState = true;  // 'true' means that match found
 8003b40:	2001      	movs	r0, #1
 8003b42:	e7f9      	b.n	8003b38 <QHsm_isIn_+0x30>
 8003b44:	08006498 	.word	0x08006498
 8003b48:	08006478 	.word	0x08006478

08003b4c <QHsm_enter_target_.isra.0>:
static void QHsm_enter_target_(QAsm * const me,
 8003b4c:	b5f8      	push	{r3, r4, r5, r6, r7, lr}
 8003b4e:	0004      	movs	r4, r0
 8003b50:	000e      	movs	r6, r1
 8003b52:	0015      	movs	r5, r2
    for (; ip >= 0; --ip) {
 8003b54:	2d00      	cmp	r5, #0
 8003b56:	da06      	bge.n	8003b66 <QHsm_enter_target_.isra.0+0x1a>
    while ((*t)(me, &l_resEvt_[Q_INIT_SIG]) == Q_RET_TRAN) { // tran. taken?
 8003b58:	0020      	movs	r0, r4
        t = path[0]; // tran. target becomes the new source
 8003b5a:	6837      	ldr	r7, [r6, #0]
    while ((*t)(me, &l_resEvt_[Q_INIT_SIG]) == Q_RET_TRAN) { // tran. taken?
 8003b5c:	491b      	ldr	r1, [pc, #108]	@ (8003bcc <QHsm_enter_target_.isra.0+0x80>)
 8003b5e:	47b8      	blx	r7
 8003b60:	2803      	cmp	r0, #3
 8003b62:	d007      	beq.n	8003b74 <QHsm_enter_target_.isra.0+0x28>
}
 8003b64:	bdf8      	pop	{r3, r4, r5, r6, r7, pc}
        if ((*path[ip])(me, &l_resEvt_[Q_ENTRY_SIG]) == Q_RET_HANDLED) {
 8003b66:	00ab      	lsls	r3, r5, #2
 8003b68:	0020      	movs	r0, r4
 8003b6a:	4919      	ldr	r1, [pc, #100]	@ (8003bd0 <QHsm_enter_target_.isra.0+0x84>)
 8003b6c:	58f3      	ldr	r3, [r6, r3]
 8003b6e:	4798      	blx	r3
    for (; ip >= 0; --ip) {
 8003b70:	3d01      	subs	r5, #1
 8003b72:	e7ef      	b.n	8003b54 <QHsm_enter_target_.isra.0+0x8>
        Q_ASSERT_LOCAL(650, me->temp.fun != Q_STATE_CAST(0));
 8003b74:	68a3      	ldr	r3, [r4, #8]
 8003b76:	2b00      	cmp	r3, #0
 8003b78:	d105      	bne.n	8003b86 <QHsm_enter_target_.isra.0+0x3a>
 8003b7a:	f7ff ff4d 	bl	8003a18 <QF_crit_entry_>
 8003b7e:	4815      	ldr	r0, [pc, #84]	@ (8003bd4 <QHsm_enter_target_.isra.0+0x88>)
 8003b80:	4915      	ldr	r1, [pc, #84]	@ (8003bd8 <QHsm_enter_target_.isra.0+0x8c>)
            Q_INVARIANT_LOCAL(660, ip < QHSM_MAX_NEST_DEPTH_);
 8003b82:	f7fc fd47 	bl	8000614 <Q_onError>
        ip = -1; // entry path index and fixed loop bound (one below [0])
 8003b86:	2501      	movs	r5, #1
 8003b88:	426d      	negs	r5, r5
            ++ip;
 8003b8a:	3501      	adds	r5, #1
            Q_INVARIANT_LOCAL(660, ip < QHSM_MAX_NEST_DEPTH_);
 8003b8c:	2d06      	cmp	r5, #6
 8003b8e:	d105      	bne.n	8003b9c <QHsm_enter_target_.isra.0+0x50>
 8003b90:	f7ff ff42 	bl	8003a18 <QF_crit_entry_>
 8003b94:	21a5      	movs	r1, #165	@ 0xa5
 8003b96:	480f      	ldr	r0, [pc, #60]	@ (8003bd4 <QHsm_enter_target_.isra.0+0x88>)
 8003b98:	0089      	lsls	r1, r1, #2
 8003b9a:	e7f2      	b.n	8003b82 <QHsm_enter_target_.isra.0+0x36>
            path[ip] = me->temp.fun; // store the entry path
 8003b9c:	68a3      	ldr	r3, [r4, #8]
 8003b9e:	00aa      	lsls	r2, r5, #2
            QState const r = (*me->temp.fun)(me, &l_resEvt_[Q_EMPTY_SIG]);
 8003ba0:	0020      	movs	r0, r4
 8003ba2:	490e      	ldr	r1, [pc, #56]	@ (8003bdc <QHsm_enter_target_.isra.0+0x90>)
            path[ip] = me->temp.fun; // store the entry path
 8003ba4:	50b3      	str	r3, [r6, r2]
            QState const r = (*me->temp.fun)(me, &l_resEvt_[Q_EMPTY_SIG]);
 8003ba6:	4798      	blx	r3
            Q_ASSERT_LOCAL(680, r == Q_RET_SUPER);
 8003ba8:	2800      	cmp	r0, #0
 8003baa:	d004      	beq.n	8003bb6 <QHsm_enter_target_.isra.0+0x6a>
 8003bac:	f7ff ff34 	bl	8003a18 <QF_crit_entry_>
 8003bb0:	21aa      	movs	r1, #170	@ 0xaa
 8003bb2:	4808      	ldr	r0, [pc, #32]	@ (8003bd4 <QHsm_enter_target_.isra.0+0x88>)
 8003bb4:	e7f0      	b.n	8003b98 <QHsm_enter_target_.isra.0+0x4c>
        } while (me->temp.fun != t); //loop as long as tran.target not reached
 8003bb6:	68a3      	ldr	r3, [r4, #8]
 8003bb8:	42bb      	cmp	r3, r7
 8003bba:	d1e6      	bne.n	8003b8a <QHsm_enter_target_.isra.0+0x3e>
            if ((*path[ip])(me, &l_resEvt_[Q_ENTRY_SIG]) == Q_RET_HANDLED) {
 8003bbc:	00ab      	lsls	r3, r5, #2
 8003bbe:	0020      	movs	r0, r4
 8003bc0:	4903      	ldr	r1, [pc, #12]	@ (8003bd0 <QHsm_enter_target_.isra.0+0x84>)
 8003bc2:	58f3      	ldr	r3, [r6, r3]
 8003bc4:	4798      	blx	r3
        for (; ip >= 0; --ip) {
 8003bc6:	3d01      	subs	r5, #1
 8003bc8:	d2f8      	bcs.n	8003bbc <QHsm_enter_target_.isra.0+0x70>
 8003bca:	e7c5      	b.n	8003b58 <QHsm_enter_target_.isra.0+0xc>
 8003bcc:	08006490 	.word	0x08006490
 8003bd0:	08006480 	.word	0x08006480
 8003bd4:	08006498 	.word	0x08006498
 8003bd8:	0000028a 	.word	0x0000028a
 8003bdc:	08006478 	.word	0x08006478

08003be0 <QHsm_init_>:
{
 8003be0:	b570      	push	{r4, r5, r6, lr}
    Q_REQUIRE_LOCAL(200, s == Q_STATE_CAST(&QHsm_top));
 8003be2:	6843      	ldr	r3, [r0, #4]
 8003be4:	4e24      	ldr	r6, [pc, #144]	@ (8003c78 <QHsm_init_+0x98>)
{
 8003be6:	0004      	movs	r4, r0
 8003be8:	b086      	sub	sp, #24
    Q_REQUIRE_LOCAL(200, s == Q_STATE_CAST(&QHsm_top));
 8003bea:	42b3      	cmp	r3, r6
 8003bec:	d005      	beq.n	8003bfa <QHsm_init_+0x1a>
 8003bee:	f7ff ff13 	bl	8003a18 <QF_crit_entry_>
 8003bf2:	21c8      	movs	r1, #200	@ 0xc8
 8003bf4:	4821      	ldr	r0, [pc, #132]	@ (8003c7c <QHsm_init_+0x9c>)
    Q_REQUIRE_LOCAL(210, me->temp.fun != Q_STATE_CAST(0));
 8003bf6:	f7fc fd0d 	bl	8000614 <Q_onError>
 8003bfa:	6883      	ldr	r3, [r0, #8]
 8003bfc:	2b00      	cmp	r3, #0
 8003bfe:	d104      	bne.n	8003c0a <QHsm_init_+0x2a>
 8003c00:	f7ff ff0a 	bl	8003a18 <QF_crit_entry_>
 8003c04:	21d2      	movs	r1, #210	@ 0xd2
 8003c06:	481d      	ldr	r0, [pc, #116]	@ (8003c7c <QHsm_init_+0x9c>)
 8003c08:	e7f5      	b.n	8003bf6 <QHsm_init_+0x16>
    QState const r = (*me->temp.fun)(me, Q_EVT_CAST(QEvt));
 8003c0a:	4798      	blx	r3
    Q_ASSERT_LOCAL(240, r == Q_RET_TRAN);
 8003c0c:	2803      	cmp	r0, #3
 8003c0e:	d004      	beq.n	8003c1a <QHsm_init_+0x3a>
 8003c10:	f7ff ff02 	bl	8003a18 <QF_crit_entry_>
 8003c14:	21f0      	movs	r1, #240	@ 0xf0
 8003c16:	4819      	ldr	r0, [pc, #100]	@ (8003c7c <QHsm_init_+0x9c>)
 8003c18:	e7ed      	b.n	8003bf6 <QHsm_init_+0x16>
    int_fast8_t ip = -1; // path index & fixed loop bound (one below [0])
 8003c1a:	2501      	movs	r5, #1
    Q_ASSERT_LOCAL(250, me->temp.fun != Q_STATE_CAST(0));
 8003c1c:	68a3      	ldr	r3, [r4, #8]
    int_fast8_t ip = -1; // path index & fixed loop bound (one below [0])
 8003c1e:	426d      	negs	r5, r5
    Q_ASSERT_LOCAL(250, me->temp.fun != Q_STATE_CAST(0));
 8003c20:	2b00      	cmp	r3, #0
 8003c22:	d104      	bne.n	8003c2e <QHsm_init_+0x4e>
 8003c24:	f7ff fef8 	bl	8003a18 <QF_crit_entry_>
 8003c28:	21fa      	movs	r1, #250	@ 0xfa
 8003c2a:	4814      	ldr	r0, [pc, #80]	@ (8003c7c <QHsm_init_+0x9c>)
 8003c2c:	e7e3      	b.n	8003bf6 <QHsm_init_+0x16>
        ++ip;
 8003c2e:	3501      	adds	r5, #1
        Q_INVARIANT_LOCAL(260, ip < QHSM_MAX_NEST_DEPTH_);
 8003c30:	2d06      	cmp	r5, #6
 8003c32:	d105      	bne.n	8003c40 <QHsm_init_+0x60>
 8003c34:	f7ff fef0 	bl	8003a18 <QF_crit_entry_>
 8003c38:	2182      	movs	r1, #130	@ 0x82
 8003c3a:	4810      	ldr	r0, [pc, #64]	@ (8003c7c <QHsm_init_+0x9c>)
        Q_ASSERT_LOCAL(270, me->temp.fun != Q_STATE_CAST(0));
 8003c3c:	0049      	lsls	r1, r1, #1
 8003c3e:	e7da      	b.n	8003bf6 <QHsm_init_+0x16>
 8003c40:	68a3      	ldr	r3, [r4, #8]
 8003c42:	2b00      	cmp	r3, #0
 8003c44:	d104      	bne.n	8003c50 <QHsm_init_+0x70>
 8003c46:	f7ff fee7 	bl	8003a18 <QF_crit_entry_>
 8003c4a:	2187      	movs	r1, #135	@ 0x87
 8003c4c:	480b      	ldr	r0, [pc, #44]	@ (8003c7c <QHsm_init_+0x9c>)
 8003c4e:	e7f5      	b.n	8003c3c <QHsm_init_+0x5c>
        path[ip] = me->temp.fun; // store the entry path
 8003c50:	4669      	mov	r1, sp
 8003c52:	00aa      	lsls	r2, r5, #2
 8003c54:	5053      	str	r3, [r2, r1]
        (void)(*me->temp.fun)(me, &l_resEvt_[Q_EMPTY_SIG]);
 8003c56:	0020      	movs	r0, r4
 8003c58:	4909      	ldr	r1, [pc, #36]	@ (8003c80 <QHsm_init_+0xa0>)
 8003c5a:	4798      	blx	r3
    } while (me->temp.fun != s);
 8003c5c:	68a3      	ldr	r3, [r4, #8]
 8003c5e:	42b3      	cmp	r3, r6
 8003c60:	d1e5      	bne.n	8003c2e <QHsm_init_+0x4e>
    QHsm_enter_target_(me, &path[0], ip, qsId);
 8003c62:	002a      	movs	r2, r5
 8003c64:	4669      	mov	r1, sp
 8003c66:	0020      	movs	r0, r4
 8003c68:	f7ff ff70 	bl	8003b4c <QHsm_enter_target_.isra.0>
    me->state.fun = path[0]; // change the current active state
 8003c6c:	9b00      	ldr	r3, [sp, #0]
 8003c6e:	6063      	str	r3, [r4, #4]
    me->temp.uint = QP_DIS_UPDATE(uintptr_t, me->state.uint);
 8003c70:	43db      	mvns	r3, r3
 8003c72:	60a3      	str	r3, [r4, #8]
}
 8003c74:	b006      	add	sp, #24
 8003c76:	bd70      	pop	{r4, r5, r6, pc}
 8003c78:	08003b01 	.word	0x08003b01
 8003c7c:	08006498 	.word	0x08006498
 8003c80:	08006478 	.word	0x08006478

08003c84 <QHsm_dispatch_>:
    Q_INVARIANT_LOCAL(300,
 8003c84:	6883      	ldr	r3, [r0, #8]
{
 8003c86:	b5f0      	push	{r4, r5, r6, r7, lr}
    Q_INVARIANT_LOCAL(300,
 8003c88:	43db      	mvns	r3, r3
 8003c8a:	6842      	ldr	r2, [r0, #4]
{
 8003c8c:	0004      	movs	r4, r0
 8003c8e:	000f      	movs	r7, r1
 8003c90:	b08b      	sub	sp, #44	@ 0x2c
    Q_INVARIANT_LOCAL(300,
 8003c92:	429a      	cmp	r2, r3
 8003c94:	d006      	beq.n	8003ca4 <QHsm_dispatch_+0x20>
 8003c96:	f7ff febf 	bl	8003a18 <QF_crit_entry_>
 8003c9a:	2196      	movs	r1, #150	@ 0x96
 8003c9c:	485f      	ldr	r0, [pc, #380]	@ (8003e1c <QHsm_dispatch_+0x198>)
    Q_REQUIRE_LOCAL(310, e != (QEvt *)0);
 8003c9e:	0049      	lsls	r1, r1, #1
 8003ca0:	f7fc fcb8 	bl	8000614 <Q_onError>
 8003ca4:	2900      	cmp	r1, #0
 8003ca6:	d104      	bne.n	8003cb2 <QHsm_dispatch_+0x2e>
 8003ca8:	f7ff feb6 	bl	8003a18 <QF_crit_entry_>
 8003cac:	219b      	movs	r1, #155	@ 0x9b
 8003cae:	485b      	ldr	r0, [pc, #364]	@ (8003e1c <QHsm_dispatch_+0x198>)
 8003cb0:	e7f5      	b.n	8003c9e <QHsm_dispatch_+0x1a>
    int_fast8_t ip = QHSM_MAX_NEST_DEPTH_; // path index & fixed loop bound
 8003cb2:	2506      	movs	r5, #6
    me->temp.fun = s;
 8003cb4:	6082      	str	r2, [r0, #8]
        Q_INVARIANT_LOCAL(340, ip >= 0);
 8003cb6:	3d01      	subs	r5, #1
 8003cb8:	d204      	bcs.n	8003cc4 <QHsm_dispatch_+0x40>
 8003cba:	f7ff fead 	bl	8003a18 <QF_crit_entry_>
 8003cbe:	21aa      	movs	r1, #170	@ 0xaa
 8003cc0:	4856      	ldr	r0, [pc, #344]	@ (8003e1c <QHsm_dispatch_+0x198>)
 8003cc2:	e7ec      	b.n	8003c9e <QHsm_dispatch_+0x1a>
        s = me->temp.fun; // set s to the superstate set previously
 8003cc4:	68a6      	ldr	r6, [r4, #8]
        path[ip] = s; // store the path to potential tran. source
 8003cc6:	00ab      	lsls	r3, r5, #2
 8003cc8:	aa04      	add	r2, sp, #16
        r = (*s)(me, e); // try to handle event e in state s
 8003cca:	0039      	movs	r1, r7
 8003ccc:	0020      	movs	r0, r4
        path[ip] = s; // store the path to potential tran. source
 8003cce:	509e      	str	r6, [r3, r2]
        r = (*s)(me, e); // try to handle event e in state s
 8003cd0:	47b0      	blx	r6
        if (r == Q_RET_UNHANDLED) { // unhandled due to a guard?
 8003cd2:	2801      	cmp	r0, #1
 8003cd4:	d102      	bne.n	8003cdc <QHsm_dispatch_+0x58>
            r = (*s)(me, &l_resEvt_[Q_EMPTY_SIG]);
 8003cd6:	0020      	movs	r0, r4
 8003cd8:	4951      	ldr	r1, [pc, #324]	@ (8003e20 <QHsm_dispatch_+0x19c>)
 8003cda:	47b0      	blx	r6
    } while (r == Q_RET_SUPER); // loop as long as superstate returned
 8003cdc:	2800      	cmp	r0, #0
 8003cde:	d0ea      	beq.n	8003cb6 <QHsm_dispatch_+0x32>
    if (r == Q_RET_IGNORED) { // was event e ignored?
 8003ce0:	2805      	cmp	r0, #5
 8003ce2:	d021      	beq.n	8003d28 <QHsm_dispatch_+0xa4>
    else if (r == Q_RET_HANDLED) { // did the last handler handle event e?
 8003ce4:	2802      	cmp	r0, #2
 8003ce6:	d01f      	beq.n	8003d28 <QHsm_dispatch_+0xa4>
    else if ((r == Q_RET_TRAN) || (r == Q_RET_TRAN_HIST)) { // tran. taken?
 8003ce8:	3803      	subs	r0, #3
 8003cea:	2801      	cmp	r0, #1
 8003cec:	d900      	bls.n	8003cf0 <QHsm_dispatch_+0x6c>
 8003cee:	e08f      	b.n	8003e10 <QHsm_dispatch_+0x18c>
        Q_ASSERT_LOCAL(350, me->temp.fun != Q_STATE_CAST(0));
 8003cf0:	68a3      	ldr	r3, [r4, #8]
 8003cf2:	9302      	str	r3, [sp, #8]
 8003cf4:	2b00      	cmp	r3, #0
 8003cf6:	d104      	bne.n	8003d02 <QHsm_dispatch_+0x7e>
 8003cf8:	f7ff fe8e 	bl	8003a18 <QF_crit_entry_>
 8003cfc:	21af      	movs	r1, #175	@ 0xaf
 8003cfe:	4847      	ldr	r0, [pc, #284]	@ (8003e1c <QHsm_dispatch_+0x198>)
 8003d00:	e7cd      	b.n	8003c9e <QHsm_dispatch_+0x1a>
        for (int_fast8_t iq = QHSM_MAX_NEST_DEPTH_ - 1; iq > ip; --iq) {
 8003d02:	2705      	movs	r7, #5
        path[0] = me->temp.fun; // save tran. target in path[0]
 8003d04:	9b02      	ldr	r3, [sp, #8]
 8003d06:	9304      	str	r3, [sp, #16]
        for (int_fast8_t iq = QHSM_MAX_NEST_DEPTH_ - 1; iq > ip; --iq) {
 8003d08:	42bd      	cmp	r5, r7
 8003d0a:	d112      	bne.n	8003d32 <QHsm_dispatch_+0xae>
    if (s == t) {
 8003d0c:	9b02      	ldr	r3, [sp, #8]
        path[2] = s; // save tran. source
 8003d0e:	9606      	str	r6, [sp, #24]
    if (s == t) {
 8003d10:	429e      	cmp	r6, r3
 8003d12:	d116      	bne.n	8003d42 <QHsm_dispatch_+0xbe>
        if ((*s)(me, &l_resEvt_[Q_EXIT_SIG]) == Q_RET_HANDLED) {
 8003d14:	0020      	movs	r0, r4
 8003d16:	4943      	ldr	r1, [pc, #268]	@ (8003e24 <QHsm_dispatch_+0x1a0>)
 8003d18:	47b0      	blx	r6
        ip = QHsm_tran_simple_(me, &path[0], qsId); // try simple tran. first
 8003d1a:	2200      	movs	r2, #0
        QHsm_enter_target_(me, &path[0], ip, qsId);
 8003d1c:	0020      	movs	r0, r4
 8003d1e:	a904      	add	r1, sp, #16
 8003d20:	f7ff ff14 	bl	8003b4c <QHsm_enter_target_.isra.0>
        me->state.fun = path[0]; // change the current active state
 8003d24:	9b04      	ldr	r3, [sp, #16]
 8003d26:	6063      	str	r3, [r4, #4]
    me->temp.uint = QP_DIS_UPDATE(uintptr_t, me->state.uint);
 8003d28:	6863      	ldr	r3, [r4, #4]
 8003d2a:	43db      	mvns	r3, r3
 8003d2c:	60a3      	str	r3, [r4, #8]
}
 8003d2e:	b00b      	add	sp, #44	@ 0x2c
 8003d30:	bdf0      	pop	{r4, r5, r6, r7, pc}
            if ((*path[iq])(me, &l_resEvt_[Q_EXIT_SIG]) == Q_RET_HANDLED) {
 8003d32:	00bb      	lsls	r3, r7, #2
 8003d34:	aa04      	add	r2, sp, #16
 8003d36:	0020      	movs	r0, r4
 8003d38:	493a      	ldr	r1, [pc, #232]	@ (8003e24 <QHsm_dispatch_+0x1a0>)
 8003d3a:	58d3      	ldr	r3, [r2, r3]
 8003d3c:	4798      	blx	r3
        for (int_fast8_t iq = QHSM_MAX_NEST_DEPTH_ - 1; iq > ip; --iq) {
 8003d3e:	3f01      	subs	r7, #1
 8003d40:	e7e2      	b.n	8003d08 <QHsm_dispatch_+0x84>
        QState const r =(*t)(me, &l_resEvt_[Q_EMPTY_SIG]);
 8003d42:	4b37      	ldr	r3, [pc, #220]	@ (8003e20 <QHsm_dispatch_+0x19c>)
 8003d44:	0020      	movs	r0, r4
 8003d46:	0019      	movs	r1, r3
 8003d48:	9303      	str	r3, [sp, #12]
 8003d4a:	9b02      	ldr	r3, [sp, #8]
 8003d4c:	4798      	blx	r3
 8003d4e:	1e05      	subs	r5, r0, #0
        Q_ASSERT_LOCAL(440, r == Q_RET_SUPER);
 8003d50:	d004      	beq.n	8003d5c <QHsm_dispatch_+0xd8>
 8003d52:	f7ff fe61 	bl	8003a18 <QF_crit_entry_>
 8003d56:	21dc      	movs	r1, #220	@ 0xdc
 8003d58:	4830      	ldr	r0, [pc, #192]	@ (8003e1c <QHsm_dispatch_+0x198>)
 8003d5a:	e7a0      	b.n	8003c9e <QHsm_dispatch_+0x1a>
        Q_ASSERT_LOCAL(450, me->temp.fun != Q_STATE_CAST(0));
 8003d5c:	68a7      	ldr	r7, [r4, #8]
 8003d5e:	2f00      	cmp	r7, #0
 8003d60:	d104      	bne.n	8003d6c <QHsm_dispatch_+0xe8>
 8003d62:	f7ff fe59 	bl	8003a18 <QF_crit_entry_>
 8003d66:	21e1      	movs	r1, #225	@ 0xe1
 8003d68:	482c      	ldr	r0, [pc, #176]	@ (8003e1c <QHsm_dispatch_+0x198>)
 8003d6a:	e798      	b.n	8003c9e <QHsm_dispatch_+0x1a>
        if (s != t) {
 8003d6c:	42be      	cmp	r6, r7
 8003d6e:	d0d4      	beq.n	8003d1a <QHsm_dispatch_+0x96>
            (void)(*s)(me, &l_resEvt_[Q_EMPTY_SIG]);
 8003d70:	0020      	movs	r0, r4
 8003d72:	9903      	ldr	r1, [sp, #12]
 8003d74:	47b0      	blx	r6
            if (me->temp.fun == t) {
 8003d76:	68a3      	ldr	r3, [r4, #8]
 8003d78:	9301      	str	r3, [sp, #4]
 8003d7a:	429f      	cmp	r7, r3
 8003d7c:	d0ca      	beq.n	8003d14 <QHsm_dispatch_+0x90>
            else if (me->temp.fun == path[0]) {
 8003d7e:	9b02      	ldr	r3, [sp, #8]
 8003d80:	9a01      	ldr	r2, [sp, #4]
 8003d82:	4293      	cmp	r3, r2
 8003d84:	d105      	bne.n	8003d92 <QHsm_dispatch_+0x10e>
                if ((*s)(me, &l_resEvt_[Q_EXIT_SIG]) == Q_RET_HANDLED) {
 8003d86:	0020      	movs	r0, r4
 8003d88:	4926      	ldr	r1, [pc, #152]	@ (8003e24 <QHsm_dispatch_+0x1a0>)
 8003d8a:	47b0      	blx	r6
        ip = QHsm_tran_simple_(me, &path[0], qsId); // try simple tran. first
 8003d8c:	2201      	movs	r2, #1
 8003d8e:	4252      	negs	r2, r2
 8003d90:	e7c4      	b.n	8003d1c <QHsm_dispatch_+0x98>
                path[1] = t; // save the superstate of target
 8003d92:	9705      	str	r7, [sp, #20]
    me->temp.fun = path[1];                // target->super
 8003d94:	60a7      	str	r7, [r4, #8]
        ++ip;
 8003d96:	3501      	adds	r5, #1
        Q_INVARIANT_LOCAL(540, ip < QHSM_MAX_NEST_DEPTH_);
 8003d98:	2d06      	cmp	r5, #6
 8003d9a:	d105      	bne.n	8003da8 <QHsm_dispatch_+0x124>
 8003d9c:	f7ff fe3c 	bl	8003a18 <QF_crit_entry_>
 8003da0:	2187      	movs	r1, #135	@ 0x87
 8003da2:	481e      	ldr	r0, [pc, #120]	@ (8003e1c <QHsm_dispatch_+0x198>)
 8003da4:	0089      	lsls	r1, r1, #2
 8003da6:	e77b      	b.n	8003ca0 <QHsm_dispatch_+0x1c>
        path[ip] = me->temp.fun; // store temp in the entry path array
 8003da8:	68a3      	ldr	r3, [r4, #8]
 8003daa:	00aa      	lsls	r2, r5, #2
 8003dac:	a904      	add	r1, sp, #16
 8003dae:	508b      	str	r3, [r1, r2]
        r = (*me->temp.fun)(me, &l_resEvt_[Q_EMPTY_SIG]);
 8003db0:	0020      	movs	r0, r4
 8003db2:	9903      	ldr	r1, [sp, #12]
 8003db4:	4798      	blx	r3
        if (me->temp.fun == s) { // is temp the LCA?
 8003db6:	68a3      	ldr	r3, [r4, #8]
 8003db8:	429e      	cmp	r6, r3
 8003dba:	d027      	beq.n	8003e0c <QHsm_dispatch_+0x188>
    } while (r == Q_RET_SUPER); // loop as long as superstate reached
 8003dbc:	2800      	cmp	r0, #0
 8003dbe:	d0ea      	beq.n	8003d96 <QHsm_dispatch_+0x112>
        (void)(*s)(me, &l_resEvt_[Q_EXIT_SIG]);
 8003dc0:	4f18      	ldr	r7, [pc, #96]	@ (8003e24 <QHsm_dispatch_+0x1a0>)
 8003dc2:	0020      	movs	r0, r4
 8003dc4:	0039      	movs	r1, r7
 8003dc6:	47b0      	blx	r6
        iq = ip; // outside for(;;) to comply with MC:2023 R14.2
 8003dc8:	002a      	movs	r2, r5
            if (s == path[iq]) { // is this the LCA?
 8003dca:	0093      	lsls	r3, r2, #2
 8003dcc:	a904      	add	r1, sp, #16
 8003dce:	58cb      	ldr	r3, [r1, r3]
 8003dd0:	9901      	ldr	r1, [sp, #4]
                ip = iq - 1; // do not enter the LCA
 8003dd2:	3a01      	subs	r2, #1
            if (s == path[iq]) { // is this the LCA?
 8003dd4:	4299      	cmp	r1, r3
 8003dd6:	d0a1      	beq.n	8003d1c <QHsm_dispatch_+0x98>
        for (; iq >= 0; --iq) {
 8003dd8:	1c53      	adds	r3, r2, #1
 8003dda:	d1f6      	bne.n	8003dca <QHsm_dispatch_+0x146>
                if ((*s)(me, &l_resEvt_[Q_EXIT_SIG]) == Q_RET_HANDLED) {
 8003ddc:	0039      	movs	r1, r7
 8003dde:	0020      	movs	r0, r4
 8003de0:	9b01      	ldr	r3, [sp, #4]
 8003de2:	4798      	blx	r3
 8003de4:	2802      	cmp	r0, #2
 8003de6:	d103      	bne.n	8003df0 <QHsm_dispatch_+0x16c>
                    (void)(*s)(me, &l_resEvt_[Q_EMPTY_SIG]);
 8003de8:	0020      	movs	r0, r4
 8003dea:	9903      	ldr	r1, [sp, #12]
 8003dec:	9b01      	ldr	r3, [sp, #4]
 8003dee:	4798      	blx	r3
                iq = ip; // outside for(;;) to comply with MC:2023 R14.2
 8003df0:	002a      	movs	r2, r5
                s = me->temp.fun; // set to super of s
 8003df2:	68a3      	ldr	r3, [r4, #8]
 8003df4:	9301      	str	r3, [sp, #4]
                    if (s == path[iq]) { // is this the LCA?
 8003df6:	0093      	lsls	r3, r2, #2
 8003df8:	a904      	add	r1, sp, #16
 8003dfa:	58cb      	ldr	r3, [r1, r3]
 8003dfc:	9901      	ldr	r1, [sp, #4]
                        ip = iq - 1; // indicate not to enter the LCA
 8003dfe:	3a01      	subs	r2, #1
                    if (s == path[iq]) { // is this the LCA?
 8003e00:	4299      	cmp	r1, r3
 8003e02:	d100      	bne.n	8003e06 <QHsm_dispatch_+0x182>
 8003e04:	e78a      	b.n	8003d1c <QHsm_dispatch_+0x98>
                for (; iq >= 0; --iq) {
 8003e06:	1c53      	adds	r3, r2, #1
 8003e08:	d1f5      	bne.n	8003df6 <QHsm_dispatch_+0x172>
 8003e0a:	e7e7      	b.n	8003ddc <QHsm_dispatch_+0x158>
        ++ip;
 8003e0c:	002a      	movs	r2, r5
 8003e0e:	e785      	b.n	8003d1c <QHsm_dispatch_+0x98>
        Q_ERROR_LOCAL(360); // last state handler returned impossible value
 8003e10:	f7ff fe02 	bl	8003a18 <QF_crit_entry_>
 8003e14:	21b4      	movs	r1, #180	@ 0xb4
 8003e16:	4801      	ldr	r0, [pc, #4]	@ (8003e1c <QHsm_dispatch_+0x198>)
 8003e18:	e741      	b.n	8003c9e <QHsm_dispatch_+0x1a>
 8003e1a:	46c0      	nop			@ (mov r8, r8)
 8003e1c:	08006498 	.word	0x08006498
 8003e20:	08006478 	.word	0x08006478
 8003e24:	08006488 	.word	0x08006488

08003e28 <QHsm_ctor>:
    me->super.vptr      = &vtable; // QHsm class' VTABLE
 8003e28:	4b02      	ldr	r3, [pc, #8]	@ (8003e34 <QHsm_ctor+0xc>)
    me->super.temp.fun  = initial; // the initial tran. handler
 8003e2a:	6081      	str	r1, [r0, #8]
    me->super.vptr      = &vtable; // QHsm class' VTABLE
 8003e2c:	6003      	str	r3, [r0, #0]
    me->super.state.fun = Q_STATE_CAST(&QHsm_top); // the current state (top)
 8003e2e:	4b02      	ldr	r3, [pc, #8]	@ (8003e38 <QHsm_ctor+0x10>)
 8003e30:	6043      	str	r3, [r0, #4]
}
 8003e32:	4770      	bx	lr
 8003e34:	08006468 	.word	0x08006468
 8003e38:	08003b01 	.word	0x08003b01

08003e3c <QEvt_ctor>:

//----------------------------------------------------------------------------
//! @public @memberof QEvt
void QEvt_ctor(QEvt * const me, enum_t const sig) {
    me->sig      = (QSignal)sig;
    me->poolNum_ = 0x00U; // not a pool event
 8003e3c:	4b01      	ldr	r3, [pc, #4]	@ (8003e44 <QEvt_ctor+0x8>)
    me->sig      = (QSignal)sig;
 8003e3e:	8001      	strh	r1, [r0, #0]
    me->poolNum_ = 0x00U; // not a pool event
 8003e40:	8043      	strh	r3, [r0, #2]
    me->refCtr_  = 0xE0U; // use as an "event marker"
}
 8003e42:	4770      	bx	lr
 8003e44:	ffffe000 	.word	0xffffe000

08003e48 <QEvt_refCtr_inc_>:
    Q_UNUSED_PAR(dummy);
    return me;
}
//............................................................................
//! @private @memberof QEvt
void QEvt_refCtr_inc_(QEvt const * const me) {
 8003e48:	b510      	push	{r4, lr}
    // NOTE: this function must be called *inside* a critical section

    // the event reference count must not exceed the number of AOs
    // in the system plus each AO possibly holding one event reference
    Q_REQUIRE_INCRIT(200, me->refCtr_ < (QF_MAX_ACTIVE + QF_MAX_ACTIVE));
 8003e4a:	78c3      	ldrb	r3, [r0, #3]
 8003e4c:	2b3f      	cmp	r3, #63	@ 0x3f
 8003e4e:	d903      	bls.n	8003e58 <QEvt_refCtr_inc_+0x10>
 8003e50:	21c8      	movs	r1, #200	@ 0xc8
 8003e52:	4803      	ldr	r0, [pc, #12]	@ (8003e60 <QEvt_refCtr_inc_+0x18>)
 8003e54:	f7fc fbde 	bl	8000614 <Q_onError>

    QEvt * const mut_me = (QEvt*)me; // cast 'const' away
    ++mut_me->refCtr_;
 8003e58:	3301      	adds	r3, #1
 8003e5a:	70c3      	strb	r3, [r0, #3]
}
 8003e5c:	bd10      	pop	{r4, pc}
 8003e5e:	46c0      	nop			@ (mov r8, r8)
 8003e60:	080064a0 	.word	0x080064a0

08003e64 <QEvt_refCtr_dec_>:
//............................................................................
//! @private @memberof QEvt
void QEvt_refCtr_dec_(QEvt const * const me) {
    // NOTE: this function must be called inside a critical section
    QEvt * const mut_me = (QEvt*)me; // cast 'const' away
    --mut_me->refCtr_;
 8003e64:	78c3      	ldrb	r3, [r0, #3]
 8003e66:	3b01      	subs	r3, #1
 8003e68:	70c3      	strb	r3, [r0, #3]
}
 8003e6a:	4770      	bx	lr

08003e6c <QActive_post_>:
//! @private @memberof QActive
bool QActive_post_(QActive * const me,
    QEvt const * const e,
    uint_fast16_t const margin,
    void const * const sender)
{
 8003e6c:	b570      	push	{r4, r5, r6, lr}
 8003e6e:	000e      	movs	r6, r1
 8003e70:	0004      	movs	r4, r0
 8003e72:	0015      	movs	r5, r2
    }
#endif // (Q_UTEST != 0)
#endif // def Q_UTEST

    QF_CRIT_STAT
    QF_CRIT_ENTRY();
 8003e74:	f7ff fdd0 	bl	8003a18 <QF_crit_entry_>

    // the event to post must not be NULL
    Q_REQUIRE_INCRIT(100, e != (QEvt *)0);
 8003e78:	2e00      	cmp	r6, #0
 8003e7a:	d103      	bne.n	8003e84 <QActive_post_+0x18>
 8003e7c:	2164      	movs	r1, #100	@ 0x64
 8003e7e:	4824      	ldr	r0, [pc, #144]	@ (8003f10 <QActive_post_+0xa4>)
    QEQueueCtr const nFree = me->eQueue.nFree; // get member into temporary

    bool status = (nFree > 0U);
    if (margin == QF_NO_MARGIN) { // no margin requested?
        // queue must not overflow
        Q_ASSERT_INCRIT(130, status);
 8003e80:	f7fc fbc8 	bl	8000614 <Q_onError>
    if (margin == QF_NO_MARGIN) { // no margin requested?
 8003e84:	4a23      	ldr	r2, [pc, #140]	@ (8003f14 <QActive_post_+0xa8>)
    QEQueueCtr const nFree = me->eQueue.nFree; // get member into temporary
 8003e86:	7fe3      	ldrb	r3, [r4, #31]
    if (margin == QF_NO_MARGIN) { // no margin requested?
 8003e88:	4295      	cmp	r5, r2
 8003e8a:	d105      	bne.n	8003e98 <QActive_post_+0x2c>
    bool status = (nFree > 0U);
 8003e8c:	2501      	movs	r5, #1
        Q_ASSERT_INCRIT(130, status);
 8003e8e:	2b00      	cmp	r3, #0
 8003e90:	d106      	bne.n	8003ea0 <QActive_post_+0x34>
 8003e92:	2182      	movs	r1, #130	@ 0x82
 8003e94:	481e      	ldr	r0, [pc, #120]	@ (8003f10 <QActive_post_+0xa4>)
 8003e96:	e7f3      	b.n	8003e80 <QActive_post_+0x14>
    }
    else {
        status = (nFree > (QEQueueCtr)margin);
 8003e98:	b2ed      	uxtb	r5, r5
 8003e9a:	429d      	cmp	r5, r3
 8003e9c:	41ad      	sbcs	r5, r5
 8003e9e:	426d      	negs	r5, r5
    }

#if (QF_MAX_EPOOL > 0U)
    if (e->poolNum_ != 0U) { // is it a mutable event?
 8003ea0:	78b3      	ldrb	r3, [r6, #2]
 8003ea2:	2b00      	cmp	r3, #0
 8003ea4:	d002      	beq.n	8003eac <QActive_post_+0x40>
        QEvt_refCtr_inc_(e); // increment the reference counter
 8003ea6:	0030      	movs	r0, r6
 8003ea8:	f7ff ffce 	bl	8003e48 <QEvt_refCtr_inc_>
    }
#endif // (QF_MAX_EPOOL > 0U)

    if (status) { // can post the event?
 8003eac:	2d00      	cmp	r5, #0
 8003eae:	d028      	beq.n	8003f02 <QActive_post_+0x96>
    // NOTE: this helper function is called *inside* critical section
#ifndef Q_SPY
    Q_UNUSED_PAR(sender);
#endif

    QEQueueCtr nFree = me->eQueue.nFree; // get member into temporary
 8003eb0:	7fe3      	ldrb	r3, [r4, #31]

    --nFree; // one free entry just used up
    me->eQueue.nFree = nFree; // update the original
    if (me->eQueue.nMin > nFree) {
 8003eb2:	1c62      	adds	r2, r4, #1
    --nFree; // one free entry just used up
 8003eb4:	3b01      	subs	r3, #1
 8003eb6:	b2db      	uxtb	r3, r3
    me->eQueue.nFree = nFree; // update the original
 8003eb8:	77e3      	strb	r3, [r4, #31]
    if (me->eQueue.nMin > nFree) {
 8003eba:	7fd1      	ldrb	r1, [r2, #31]
 8003ebc:	4299      	cmp	r1, r3
 8003ebe:	d900      	bls.n	8003ec2 <QActive_post_+0x56>
        me->eQueue.nMin = nFree; // update minimum so far
 8003ec0:	77d3      	strb	r3, [r2, #31]
        QS_2U8_PRE(e->poolNum_, e->refCtr_);
        QS_EQC_PRE(nFree);    // # free entries
        QS_EQC_PRE(me->eQueue.nMin); // min # free entries
    QS_END_PRE()

    if (me->eQueue.frontEvt == (QEvt *)0) { // is the queue empty?
 8003ec2:	6963      	ldr	r3, [r4, #20]
 8003ec4:	2b00      	cmp	r3, #0
 8003ec6:	d112      	bne.n	8003eee <QActive_post_+0x82>
        }
        else { // basic thread (AO)
            QACTIVE_EQUEUE_SIGNAL_(me); // signal the Active Object
        }
#else
        QACTIVE_EQUEUE_SIGNAL_(me); // signal the Active Object
 8003ec8:	7b21      	ldrb	r1, [r4, #12]
 8003eca:	4813      	ldr	r0, [pc, #76]	@ (8003f18 <QActive_post_+0xac>)
        me->eQueue.frontEvt = e; // deliver event directly
 8003ecc:	6166      	str	r6, [r4, #20]
        QACTIVE_EQUEUE_SIGNAL_(me); // signal the Active Object
 8003ece:	f000 fa21 	bl	8004314 <QPSet_insert>
#define QK_ISR_CONTEXT_()     (QK_get_IPSR() != 0U)

__attribute__((always_inline))
static inline uint32_t QK_get_IPSR(void) {
    uint32_t regIPSR;
    __asm volatile ("mrs %0,ipsr" : "=r" (regIPSR));
 8003ed2:	f3ef 8305 	mrs	r3, IPSR
 8003ed6:	2b00      	cmp	r3, #0
 8003ed8:	d105      	bne.n	8003ee6 <QActive_post_+0x7a>
 8003eda:	f000 fb1d 	bl	8004518 <QK_sched_>
 8003ede:	2800      	cmp	r0, #0
 8003ee0:	d001      	beq.n	8003ee6 <QActive_post_+0x7a>
 8003ee2:	f000 fb4f 	bl	8004584 <QK_activate_>
        QF_CRIT_EXIT();
 8003ee6:	f7ff fda5 	bl	8003a34 <QF_crit_exit_>
}
 8003eea:	0028      	movs	r0, r5
 8003eec:	bd70      	pop	{r4, r5, r6, pc}
#endif // def QXK_H_
    }
    else { // queue was not empty, insert event into the ring-buffer
        QEQueueCtr head = me->eQueue.head; // get member into temporary
 8003eee:	7f63      	ldrb	r3, [r4, #29]
        me->eQueue.ring[head] = e; // insert e into buffer
 8003ef0:	69a2      	ldr	r2, [r4, #24]
 8003ef2:	0099      	lsls	r1, r3, #2
 8003ef4:	508e      	str	r6, [r1, r2]

        if (head == 0U) { // need to wrap the head?
 8003ef6:	2b00      	cmp	r3, #0
 8003ef8:	d100      	bne.n	8003efc <QActive_post_+0x90>
            head = me->eQueue.end;
 8003efa:	7f23      	ldrb	r3, [r4, #28]
        }
        --head; // advance the head (counter-clockwise)
 8003efc:	3b01      	subs	r3, #1

        me->eQueue.head = head; // update the original
 8003efe:	7763      	strb	r3, [r4, #29]
 8003f00:	e7f1      	b.n	8003ee6 <QActive_post_+0x7a>
        QF_CRIT_EXIT();
 8003f02:	f7ff fd97 	bl	8003a34 <QF_crit_exit_>
        QF_gc(e); // recycle the event to avoid a leak
 8003f06:	0030      	movs	r0, r6
 8003f08:	f000 f8bc 	bl	8004084 <QF_gc>
 8003f0c:	e7ed      	b.n	8003eea <QActive_post_+0x7e>
 8003f0e:	46c0      	nop			@ (mov r8, r8)
 8003f10:	080064a7 	.word	0x080064a7
 8003f14:	0000ffff 	.word	0x0000ffff
 8003f18:	200005b8 	.word	0x200005b8

08003f1c <QActive_get_>:
QEvt const * QActive_get_(QActive * const me) {
 8003f1c:	b570      	push	{r4, r5, r6, lr}
 8003f1e:	0004      	movs	r4, r0
    QF_CRIT_ENTRY();
 8003f20:	f7ff fd7a 	bl	8003a18 <QF_crit_entry_>
    QEvt const * const e = me->eQueue.frontEvt;
 8003f24:	6965      	ldr	r5, [r4, #20]
    Q_REQUIRE_INCRIT(310, e != (QEvt *)0);
 8003f26:	2d00      	cmp	r5, #0
 8003f28:	d104      	bne.n	8003f34 <QActive_get_+0x18>
 8003f2a:	219b      	movs	r1, #155	@ 0x9b
 8003f2c:	4813      	ldr	r0, [pc, #76]	@ (8003f7c <QActive_get_+0x60>)
 8003f2e:	0049      	lsls	r1, r1, #1
        Q_ASSERT_INCRIT(350, frontEvt != (QEvt *)0);
 8003f30:	f7fc fb70 	bl	8000614 <Q_onError>
    QEQueueCtr nFree = me->eQueue.nFree; // get member into temporary
 8003f34:	7fe2      	ldrb	r2, [r4, #31]
    if (nFree <= me->eQueue.end) { // any events in the ring buffer?
 8003f36:	7f23      	ldrb	r3, [r4, #28]
    ++nFree; // one more free event in the queue
 8003f38:	3201      	adds	r2, #1
 8003f3a:	b2d2      	uxtb	r2, r2
    me->eQueue.nFree = nFree; // update the # free
 8003f3c:	77e2      	strb	r2, [r4, #31]
    if (nFree <= me->eQueue.end) { // any events in the ring buffer?
 8003f3e:	4293      	cmp	r3, r2
 8003f40:	d313      	bcc.n	8003f6a <QActive_get_+0x4e>
        QEQueueCtr tail = me->eQueue.tail; // get member into temporary
 8003f42:	7fa2      	ldrb	r2, [r4, #30]
        QEvt const * const frontEvt = me->eQueue.ring[tail];
 8003f44:	69a1      	ldr	r1, [r4, #24]
 8003f46:	0090      	lsls	r0, r2, #2
 8003f48:	5841      	ldr	r1, [r0, r1]
        Q_ASSERT_INCRIT(350, frontEvt != (QEvt *)0);
 8003f4a:	2900      	cmp	r1, #0
 8003f4c:	d103      	bne.n	8003f56 <QActive_get_+0x3a>
 8003f4e:	480b      	ldr	r0, [pc, #44]	@ (8003f7c <QActive_get_+0x60>)
 8003f50:	315f      	adds	r1, #95	@ 0x5f
 8003f52:	31ff      	adds	r1, #255	@ 0xff
 8003f54:	e7ec      	b.n	8003f30 <QActive_get_+0x14>
        me->eQueue.frontEvt = frontEvt; // update the original
 8003f56:	6161      	str	r1, [r4, #20]
        if (tail == 0U) { // need to wrap the tail?
 8003f58:	2a00      	cmp	r2, #0
 8003f5a:	d000      	beq.n	8003f5e <QActive_get_+0x42>
        QEQueueCtr tail = me->eQueue.tail; // get member into temporary
 8003f5c:	0013      	movs	r3, r2
        --tail; // advance the tail (counter-clockwise)
 8003f5e:	3b01      	subs	r3, #1
        me->eQueue.tail = tail; // update the original
 8003f60:	77a3      	strb	r3, [r4, #30]
    QF_CRIT_EXIT();
 8003f62:	f7ff fd67 	bl	8003a34 <QF_crit_exit_>
}
 8003f66:	0028      	movs	r0, r5
 8003f68:	bd70      	pop	{r4, r5, r6, pc}
        me->eQueue.frontEvt = (QEvt *)0; // queue becomes empty
 8003f6a:	2100      	movs	r1, #0
        Q_ASSERT_INCRIT(360, nFree == (me->eQueue.end + 1U));
 8003f6c:	3301      	adds	r3, #1
        me->eQueue.frontEvt = (QEvt *)0; // queue becomes empty
 8003f6e:	6161      	str	r1, [r4, #20]
        Q_ASSERT_INCRIT(360, nFree == (me->eQueue.end + 1U));
 8003f70:	429a      	cmp	r2, r3
 8003f72:	d0f6      	beq.n	8003f62 <QActive_get_+0x46>
 8003f74:	4801      	ldr	r0, [pc, #4]	@ (8003f7c <QActive_get_+0x60>)
 8003f76:	3169      	adds	r1, #105	@ 0x69
 8003f78:	e7eb      	b.n	8003f52 <QActive_get_+0x36>
 8003f7a:	46c0      	nop			@ (mov r8, r8)
 8003f7c:	080064a7 	.word	0x080064a7

08003f80 <QF_poolInit>:
//! @static @public @memberof QF
void QF_poolInit(
    void * const poolSto,
    uint_fast32_t const poolSize,
    uint_fast16_t const evtSize)
{
 8003f80:	b5f7      	push	{r0, r1, r2, r4, r5, r6, r7, lr}
    uint8_t const poolNum = QF_priv_.maxPool_;
 8003f82:	4b14      	ldr	r3, [pc, #80]	@ (8003fd4 <QF_poolInit+0x54>)
{
 8003f84:	9001      	str	r0, [sp, #4]
    uint8_t const poolNum = QF_priv_.maxPool_;
 8003f86:	781d      	ldrb	r5, [r3, #0]
{
 8003f88:	000f      	movs	r7, r1
 8003f8a:	0016      	movs	r6, r2
    uint8_t const poolNum = QF_priv_.maxPool_;
 8003f8c:	4c12      	ldr	r4, [pc, #72]	@ (8003fd8 <QF_poolInit+0x58>)

    QF_CRIT_STAT
    QF_CRIT_ENTRY();
 8003f8e:	f7ff fd43 	bl	8003a18 <QF_crit_entry_>

    // the maximum of initialized pools so far must be in the configured range
    Q_REQUIRE_INCRIT(100, poolNum < QF_MAX_EPOOL);
 8003f92:	2d02      	cmp	r5, #2
 8003f94:	d903      	bls.n	8003f9e <QF_poolInit+0x1e>
 8003f96:	2164      	movs	r1, #100	@ 0x64
 8003f98:	4810      	ldr	r0, [pc, #64]	@ (8003fdc <QF_poolInit+0x5c>)
    if (poolNum > 0U) { // any event pools already initialized?
        // the last initialized event pool must have event size smaller
        // than the one just being initialized
        // NOTE: QF event pools must be initialized in the increasing order
        // of their event sizes
        Q_REQUIRE_INCRIT(110,
 8003f9a:	f7fc fb3b 	bl	8000614 <Q_onError>
    if (poolNum > 0U) { // any event pools already initialized?
 8003f9e:	2d00      	cmp	r5, #0
 8003fa0:	d009      	beq.n	8003fb6 <QF_poolInit+0x36>
        Q_REQUIRE_INCRIT(110,
 8003fa2:	2314      	movs	r3, #20
 8003fa4:	1e6a      	subs	r2, r5, #1
 8003fa6:	4353      	muls	r3, r2
 8003fa8:	18e3      	adds	r3, r4, r3
 8003faa:	899b      	ldrh	r3, [r3, #12]
 8003fac:	42b3      	cmp	r3, r6
 8003fae:	d302      	bcc.n	8003fb6 <QF_poolInit+0x36>
 8003fb0:	216e      	movs	r1, #110	@ 0x6e
 8003fb2:	480a      	ldr	r0, [pc, #40]	@ (8003fdc <QF_poolInit+0x5c>)
 8003fb4:	e7f1      	b.n	8003f9a <QF_poolInit+0x1a>
            QF_EPOOL_EVENT_SIZE_(QF_priv_.ePool_[poolNum - 1U]) < evtSize);
    }
    QF_priv_.maxPool_ = poolNum + 1U; // one more pool
 8003fb6:	0023      	movs	r3, r4
 8003fb8:	1c6a      	adds	r2, r5, #1
 8003fba:	333c      	adds	r3, #60	@ 0x3c
 8003fbc:	701a      	strb	r2, [r3, #0]

    QF_CRIT_EXIT();
 8003fbe:	f7ff fd39 	bl	8003a34 <QF_crit_exit_>

    // perform the port-dependent initialization of the event-pool
    QF_EPOOL_INIT_(QF_priv_.ePool_[poolNum], poolSto, poolSize, evtSize);
 8003fc2:	2314      	movs	r3, #20
 8003fc4:	436b      	muls	r3, r5
 8003fc6:	003a      	movs	r2, r7
 8003fc8:	18e0      	adds	r0, r4, r3
 8003fca:	9901      	ldr	r1, [sp, #4]
 8003fcc:	0033      	movs	r3, r6
 8003fce:	f000 f891 	bl	80040f4 <QMPool_init>
        // replace the "?" with the one-digit pool number (1-based)
        obj_name[7] = (uint8_t)((uint8_t)'0' + QF_priv_.maxPool_);
        QS_obj_dict_pre_(&QF_priv_.ePool_[poolNum], (char const *)obj_name);
    }
#endif // Q_SPY
}
 8003fd2:	bdf7      	pop	{r0, r1, r2, r4, r5, r6, r7, pc}
 8003fd4:	20000514 	.word	0x20000514
 8003fd8:	200004d8 	.word	0x200004d8
 8003fdc:	080064af 	.word	0x080064af

08003fe0 <QF_newX_>:
//! @static @private @memberof QF
QEvt * QF_newX_(
    uint_fast16_t const evtSize,
    uint_fast16_t const margin,
    enum_t const sig)
{
 8003fe0:	b5f8      	push	{r3, r4, r5, r6, r7, lr}
 8003fe2:	0017      	movs	r7, r2
 8003fe4:	0006      	movs	r6, r0
 8003fe6:	000d      	movs	r5, r1
    QF_CRIT_STAT
    QF_CRIT_ENTRY();
 8003fe8:	f7ff fd16 	bl	8003a18 <QF_crit_entry_>

    uint8_t const maxPool = QF_priv_.maxPool_;
 8003fec:	4b1e      	ldr	r3, [pc, #120]	@ (8004068 <QF_newX_+0x88>)
 8003fee:	4c1f      	ldr	r4, [pc, #124]	@ (800406c <QF_newX_+0x8c>)
 8003ff0:	781a      	ldrb	r2, [r3, #0]

    // the maximum count of initialized pools must be in configured range
    Q_REQUIRE_INCRIT(610, maxPool <= QF_MAX_EPOOL);
 8003ff2:	2a03      	cmp	r2, #3
 8003ff4:	d80f      	bhi.n	8004016 <QF_newX_+0x36>
 8003ff6:	0021      	movs	r1, r4

    // find the pool that fits the requested event size...
    uint8_t poolNum = 0U; // zero-based poolNum initially
 8003ff8:	2300      	movs	r3, #0
    for (; poolNum < maxPool; ++poolNum) {
 8003ffa:	4293      	cmp	r3, r2
 8003ffc:	d007      	beq.n	800400e <QF_newX_+0x2e>
        // call port-specific operation for the event-size in a given pool
        if (evtSize <= QF_EPOOL_EVENT_SIZE_(QF_priv_.ePool_[poolNum])) {
 8003ffe:	8988      	ldrh	r0, [r1, #12]
 8004000:	3114      	adds	r1, #20
 8004002:	4684      	mov	ip, r0
 8004004:	1c58      	adds	r0, r3, #1
 8004006:	45b4      	cmp	ip, r6
 8004008:	d309      	bcc.n	800401e <QF_newX_+0x3e>
        }
    }

    // event pool must be found, which means that the reqeusted event size
    // fits in one of the initialized pools
    Q_ASSERT_INCRIT(620, poolNum < maxPool);
 800400a:	4293      	cmp	r3, r2
 800400c:	d309      	bcc.n	8004022 <QF_newX_+0x42>
 800400e:	219b      	movs	r1, #155	@ 0x9b
 8004010:	4817      	ldr	r0, [pc, #92]	@ (8004070 <QF_newX_+0x90>)
 8004012:	0089      	lsls	r1, r1, #2
 8004014:	e001      	b.n	800401a <QF_newX_+0x3a>
    Q_REQUIRE_INCRIT(610, maxPool <= QF_MAX_EPOOL);
 8004016:	4816      	ldr	r0, [pc, #88]	@ (8004070 <QF_newX_+0x90>)
 8004018:	4916      	ldr	r1, [pc, #88]	@ (8004074 <QF_newX_+0x94>)
    Q_ASSERT_INCRIT(620, poolNum < maxPool);
 800401a:	f7fc fafb 	bl	8000614 <Q_onError>
    for (; poolNum < maxPool; ++poolNum) {
 800401e:	b2c3      	uxtb	r3, r0
 8004020:	e7eb      	b.n	8003ffa <QF_newX_+0x1a>

    ++poolNum; // convert to 1-based poolNum
 8004022:	b2c6      	uxtb	r6, r0

    QF_CRIT_EXIT();
 8004024:	f7ff fd06 	bl	8003a34 <QF_crit_exit_>
#ifdef Q_SPY
    QF_EPOOL_GET_(QF_priv_.ePool_[poolNum - 1U], e,
                  ((margin != QF_NO_MARGIN) ? margin : 0U),
                  QS_ID_EP + poolNum);
#else
    QF_EPOOL_GET_(QF_priv_.ePool_[poolNum - 1U], e,
 8004028:	2314      	movs	r3, #20
 800402a:	1e72      	subs	r2, r6, #1
 800402c:	4353      	muls	r3, r2
 800402e:	18e0      	adds	r0, r4, r3
 8004030:	4b11      	ldr	r3, [pc, #68]	@ (8004078 <QF_newX_+0x98>)
 8004032:	2200      	movs	r2, #0
 8004034:	18e9      	adds	r1, r5, r3
 8004036:	1e4b      	subs	r3, r1, #1
 8004038:	4199      	sbcs	r1, r3
 800403a:	4249      	negs	r1, r1
 800403c:	4029      	ands	r1, r5
 800403e:	f000 f899 	bl	8004174 <QMPool_get>
 8004042:	1e04      	subs	r4, r0, #0
                  ((margin != QF_NO_MARGIN) ? margin : 0U), 0U);
#endif

    if (e != (QEvt *)0) { // was e allocated correctly?
 8004044:	d005      	beq.n	8004052 <QF_newX_+0x72>
        e->sig      = (QSignal)sig; // set the signal
        e->poolNum_ = poolNum;
        e->refCtr_  = 0U; // reference count starts at 0
 8004046:	2300      	movs	r3, #0
        e->sig      = (QSignal)sig; // set the signal
 8004048:	8007      	strh	r7, [r0, #0]
        e->poolNum_ = poolNum;
 800404a:	7086      	strb	r6, [r0, #2]
        e->refCtr_  = 0U; // reference count starts at 0
 800404c:	70c3      	strb	r3, [r0, #3]
    }

    // if we can't tolerate failed allocation (margin != QF_NO_MARGIN),
    // the returned event e is guaranteed to be valid (not NULL).
    return e;
}
 800404e:	0020      	movs	r0, r4
 8004050:	bdf8      	pop	{r3, r4, r5, r6, r7, pc}
        QF_CRIT_ENTRY();
 8004052:	f7ff fce1 	bl	8003a18 <QF_crit_entry_>
        Q_ASSERT_INCRIT(630, margin != QF_NO_MARGIN);
 8004056:	4b09      	ldr	r3, [pc, #36]	@ (800407c <QF_newX_+0x9c>)
 8004058:	429d      	cmp	r5, r3
 800405a:	d102      	bne.n	8004062 <QF_newX_+0x82>
 800405c:	4804      	ldr	r0, [pc, #16]	@ (8004070 <QF_newX_+0x90>)
 800405e:	4908      	ldr	r1, [pc, #32]	@ (8004080 <QF_newX_+0xa0>)
 8004060:	e7db      	b.n	800401a <QF_newX_+0x3a>
        QF_CRIT_EXIT();
 8004062:	f7ff fce7 	bl	8003a34 <QF_crit_exit_>
    return e;
 8004066:	e7f2      	b.n	800404e <QF_newX_+0x6e>
 8004068:	20000514 	.word	0x20000514
 800406c:	200004d8 	.word	0x200004d8
 8004070:	080064af 	.word	0x080064af
 8004074:	00000262 	.word	0x00000262
 8004078:	ffff0001 	.word	0xffff0001
 800407c:	0000ffff 	.word	0x0000ffff
 8004080:	00000276 	.word	0x00000276

08004084 <QF_gc>:

//............................................................................
//! @static @public @memberof QF
void QF_gc(QEvt const * const e) {
 8004084:	b570      	push	{r4, r5, r6, lr}
 8004086:	0004      	movs	r4, r0
    QF_CRIT_STAT
    QF_CRIT_ENTRY();
 8004088:	f7ff fcc6 	bl	8003a18 <QF_crit_entry_>

    // the collected event must be valid
    Q_REQUIRE_INCRIT(700, e != (QEvt *)0);
 800408c:	2c00      	cmp	r4, #0
 800408e:	d104      	bne.n	800409a <QF_gc+0x16>
 8004090:	21af      	movs	r1, #175	@ 0xaf
 8004092:	4814      	ldr	r0, [pc, #80]	@ (80040e4 <QF_gc+0x60>)
        else { // this is the last reference to this event, recycle it
#ifndef Q_UNSAFE
            uint8_t const maxPool = QF_priv_.maxPool_;

            // the maximum count of initialized pools must be in configured range
            Q_ASSERT_INCRIT(740, maxPool <= QF_MAX_EPOOL);
 8004094:	0089      	lsls	r1, r1, #2
 8004096:	f7fc fabd 	bl	8000614 <Q_onError>
    uint8_t const poolNum = (uint8_t)e->poolNum_;
 800409a:	78a6      	ldrb	r6, [r4, #2]
    if (poolNum != 0U) { // is it a pool event (mutable)?
 800409c:	2e00      	cmp	r6, #0
 800409e:	d005      	beq.n	80040ac <QF_gc+0x28>
        if (e->refCtr_ > 1U) { // isn't this the last reference?
 80040a0:	78e3      	ldrb	r3, [r4, #3]
 80040a2:	2b01      	cmp	r3, #1
 80040a4:	d905      	bls.n	80040b2 <QF_gc+0x2e>
            QEvt_refCtr_dec_(e); // decrement the ref counter
 80040a6:	0020      	movs	r0, r4
 80040a8:	f7ff fedc 	bl	8003e64 <QEvt_refCtr_dec_>
            QF_EPOOL_PUT_(QF_priv_.ePool_[poolNum - 1U], (QEvt *)e, 0U);
#endif
        }
    }
    else {
        QF_CRIT_EXIT();
 80040ac:	f7ff fcc2 	bl	8003a34 <QF_crit_exit_>
    }
}
 80040b0:	e016      	b.n	80040e0 <QF_gc+0x5c>
            uint8_t const maxPool = QF_priv_.maxPool_;
 80040b2:	4b0d      	ldr	r3, [pc, #52]	@ (80040e8 <QF_gc+0x64>)
 80040b4:	4d0d      	ldr	r5, [pc, #52]	@ (80040ec <QF_gc+0x68>)
 80040b6:	781b      	ldrb	r3, [r3, #0]
            Q_ASSERT_INCRIT(740, maxPool <= QF_MAX_EPOOL);
 80040b8:	2b03      	cmp	r3, #3
 80040ba:	d902      	bls.n	80040c2 <QF_gc+0x3e>
 80040bc:	21b9      	movs	r1, #185	@ 0xb9
 80040be:	4809      	ldr	r0, [pc, #36]	@ (80040e4 <QF_gc+0x60>)
 80040c0:	e7e8      	b.n	8004094 <QF_gc+0x10>
            Q_ASSERT_INCRIT(750, poolNum <= maxPool);
 80040c2:	429e      	cmp	r6, r3
 80040c4:	d902      	bls.n	80040cc <QF_gc+0x48>
 80040c6:	4807      	ldr	r0, [pc, #28]	@ (80040e4 <QF_gc+0x60>)
 80040c8:	4909      	ldr	r1, [pc, #36]	@ (80040f0 <QF_gc+0x6c>)
 80040ca:	e7e4      	b.n	8004096 <QF_gc+0x12>
            QF_CRIT_EXIT();
 80040cc:	f7ff fcb2 	bl	8003a34 <QF_crit_exit_>
            QF_EPOOL_PUT_(QF_priv_.ePool_[poolNum - 1U], (QEvt *)e, 0U);
 80040d0:	2014      	movs	r0, #20
 80040d2:	3e01      	subs	r6, #1
 80040d4:	4370      	muls	r0, r6
 80040d6:	2200      	movs	r2, #0
 80040d8:	0021      	movs	r1, r4
 80040da:	1940      	adds	r0, r0, r5
 80040dc:	f000 f88a 	bl	80041f4 <QMPool_put>
}
 80040e0:	bd70      	pop	{r4, r5, r6, pc}
 80040e2:	46c0      	nop			@ (mov r8, r8)
 80040e4:	080064af 	.word	0x080064af
 80040e8:	20000514 	.word	0x20000514
 80040ec:	200004d8 	.word	0x200004d8
 80040f0:	000002ee 	.word	0x000002ee

080040f4 <QMPool_init>:
//! @public @memberof QMPool
void QMPool_init(QMPool * const me,
    void * const poolSto,
    uint_fast32_t const poolSize,
    uint_fast16_t const blockSize)
{
 80040f4:	b5f8      	push	{r3, r4, r5, r6, r7, lr}
 80040f6:	000c      	movs	r4, r1
 80040f8:	0005      	movs	r5, r0
 80040fa:	0016      	movs	r6, r2
 80040fc:	001f      	movs	r7, r3
    QF_CRIT_STAT
    QF_CRIT_ENTRY();
 80040fe:	f7ff fc8b 	bl	8003a18 <QF_crit_entry_>

    // the pool storage must be provided
    Q_REQUIRE_INCRIT(100, poolSto != (void *)0);
 8004102:	2c00      	cmp	r4, #0
 8004104:	d103      	bne.n	800410e <QMPool_init+0x1a>
 8004106:	2164      	movs	r1, #100	@ 0x64
 8004108:	4818      	ldr	r0, [pc, #96]	@ (800416c <QMPool_init+0x78>)
        me->blockSize += (QMPoolSize)sizeof(void *);
        ++index;
    }

    // the pool buffer must fit at least one rounded-up block
    Q_ASSERT_INCRIT(110, poolSize >= me->blockSize);
 800410a:	f7fc fa83 	bl	8000614 <Q_onError>
    while (me->blockSize < (QMPoolSize)blockSize) {
 800410e:	2308      	movs	r3, #8
    uint_fast16_t index = 2U; // index of the next block
 8004110:	2102      	movs	r1, #2
    me->start    = (void * *)poolSto;
 8004112:	602c      	str	r4, [r5, #0]
    me->freeHead = me->start;
 8004114:	60ac      	str	r4, [r5, #8]
    while (me->blockSize < (QMPoolSize)blockSize) {
 8004116:	b2bf      	uxth	r7, r7
 8004118:	429f      	cmp	r7, r3
 800411a:	d805      	bhi.n	8004128 <QMPool_init+0x34>
 800411c:	81ab      	strh	r3, [r5, #12]
    Q_ASSERT_INCRIT(110, poolSize >= me->blockSize);
 800411e:	42b3      	cmp	r3, r6
 8004120:	d906      	bls.n	8004130 <QMPool_init+0x3c>
 8004122:	216e      	movs	r1, #110	@ 0x6e
 8004124:	4811      	ldr	r0, [pc, #68]	@ (800416c <QMPool_init+0x78>)
 8004126:	e7f0      	b.n	800410a <QMPool_init+0x16>
        me->blockSize += (QMPoolSize)sizeof(void *);
 8004128:	3304      	adds	r3, #4
 800412a:	b29b      	uxth	r3, r3
        ++index;
 800412c:	3101      	adds	r1, #1
 800412e:	e7f3      	b.n	8004118 <QMPool_init+0x24>

    // start at the head of the free list
    void * *pfb = me->freeHead; // pointer to free block
    uint32_t nTot = 1U; // the last block already in the list
 8004130:	2201      	movs	r2, #1

    // chain all blocks together in a free-list...
    for (uint_fast32_t size = poolSize - me->blockSize;
 8004132:	1af6      	subs	r6, r6, r3
         size >= (uint_fast32_t)me->blockSize;
         size -= (uint_fast32_t)me->blockSize)
    {
        pfb[0] = &pfb[index]; // set the next link to next free block
 8004134:	0089      	lsls	r1, r1, #2
         size >= (uint_fast32_t)me->blockSize;
 8004136:	42b3      	cmp	r3, r6
 8004138:	d907      	bls.n	800414a <QMPool_init+0x56>
        pfb[1] = pfb[0]; // update Duplicate Storage (NOT inverted)
#endif
        pfb = (void * *)pfb[0]; // advance to the next block
        ++nTot; // one more free block in the pool
    }
    pfb[0] = (void *)0; // the last link points to NULL
 800413a:	2300      	movs	r3, #0
 800413c:	6023      	str	r3, [r4, #0]

    // the total number of blocks must fit in the configured dynamic range
#if (QF_MPOOL_CTR_SIZE == 1U)
    Q_ASSERT_INCRIT(160, nTot < 0xFFU);
#elif (QF_MPOOL_CTR_SIZE == 2U)
    Q_ASSERT_INCRIT(160, nTot < 0xFFFFU);
 800413e:	4b0c      	ldr	r3, [pc, #48]	@ (8004170 <QMPool_init+0x7c>)
 8004140:	429a      	cmp	r2, r3
 8004142:	d909      	bls.n	8004158 <QMPool_init+0x64>
 8004144:	21a0      	movs	r1, #160	@ 0xa0
 8004146:	4809      	ldr	r0, [pc, #36]	@ (800416c <QMPool_init+0x78>)
 8004148:	e7df      	b.n	800410a <QMPool_init+0x16>
        pfb[0] = &pfb[index]; // set the next link to next free block
 800414a:	1860      	adds	r0, r4, r1
 800414c:	6020      	str	r0, [r4, #0]
        pfb[1] = pfb[0]; // update Duplicate Storage (NOT inverted)
 800414e:	6060      	str	r0, [r4, #4]
        ++nTot; // one more free block in the pool
 8004150:	3201      	adds	r2, #1
        pfb = (void * *)pfb[0]; // advance to the next block
 8004152:	0004      	movs	r4, r0
         size -= (uint_fast32_t)me->blockSize)
 8004154:	1af6      	subs	r6, r6, r3
 8004156:	e7ee      	b.n	8004136 <QMPool_init+0x42>
#endif

    me->nTot  = (QMPoolCtr)nTot;
    me->nFree = me->nTot; // all blocks are free
    me->end   = pfb;      // the last block in this pool
 8004158:	606c      	str	r4, [r5, #4]
    me->nMin  = me->nTot; // the minimum # free blocks

#ifndef Q_UNSAFE
    pfb[1] = pfb[0]; // update Duplicate Storage (NOT inverted)
 800415a:	6823      	ldr	r3, [r4, #0]
    me->nTot  = (QMPoolCtr)nTot;
 800415c:	b292      	uxth	r2, r2
 800415e:	81ea      	strh	r2, [r5, #14]
    me->nFree = me->nTot; // all blocks are free
 8004160:	822a      	strh	r2, [r5, #16]
    me->nMin  = me->nTot; // the minimum # free blocks
 8004162:	826a      	strh	r2, [r5, #18]
    pfb[1] = pfb[0]; // update Duplicate Storage (NOT inverted)
 8004164:	6063      	str	r3, [r4, #4]
#endif

    QF_CRIT_EXIT();
 8004166:	f7ff fc65 	bl	8003a34 <QF_crit_exit_>
}
 800416a:	bdf8      	pop	{r3, r4, r5, r6, r7, pc}
 800416c:	080064b6 	.word	0x080064b6
 8004170:	0000fffe 	.word	0x0000fffe

08004174 <QMPool_get>:
//............................................................................
//! @public @memberof QMPool
void * QMPool_get(QMPool * const me,
    uint_fast16_t const margin,
    uint_fast8_t const qsId)
{
 8004174:	b570      	push	{r4, r5, r6, lr}
 8004176:	0004      	movs	r4, r0
 8004178:	000e      	movs	r6, r1
#ifndef Q_SPY
    Q_UNUSED_PAR(qsId);
#endif

    QF_CRIT_STAT
    QF_CRIT_ENTRY();
 800417a:	f7ff fc4d 	bl	8003a18 <QF_crit_entry_>

    // get members into temporaries
    void * *pfb     = me->freeHead; // pointer to free block
    QMPoolCtr nFree = me->nFree;    // get member into temporary
 800417e:	8a23      	ldrh	r3, [r4, #16]

    // have more free blocks than the requested margin?
    if (nFree > (QMPoolCtr)margin) {
 8004180:	b2b6      	uxth	r6, r6
    void * *pfb     = me->freeHead; // pointer to free block
 8004182:	68a5      	ldr	r5, [r4, #8]
    if (nFree > (QMPoolCtr)margin) {
 8004184:	429e      	cmp	r6, r3
 8004186:	d230      	bcs.n	80041ea <QMPool_get+0x76>
        // the free block pointer must be valid
        Q_ASSERT_INCRIT(330, pfb != (void * *)0);
 8004188:	2d00      	cmp	r5, #0
 800418a:	d104      	bne.n	8004196 <QMPool_get+0x22>
 800418c:	21a5      	movs	r1, #165	@ 0xa5
 800418e:	4818      	ldr	r0, [pc, #96]	@ (80041f0 <QMPool_get+0x7c>)

        // fast temporary
        void * * const pfb_next = (void * *)pfb[0];

        // the free block must have integrity (Duplicate Storage, NOT inverted)
        Q_INVARIANT_INCRIT(342, pfb_next == pfb[1]);
 8004190:	0049      	lsls	r1, r1, #1
 8004192:	f7fc fa3f 	bl	8000614 <Q_onError>
        void * * const pfb_next = (void * *)pfb[0];
 8004196:	682a      	ldr	r2, [r5, #0]
        Q_INVARIANT_INCRIT(342, pfb_next == pfb[1]);
 8004198:	6869      	ldr	r1, [r5, #4]
 800419a:	4291      	cmp	r1, r2
 800419c:	d002      	beq.n	80041a4 <QMPool_get+0x30>
 800419e:	21ab      	movs	r1, #171	@ 0xab
 80041a0:	4813      	ldr	r0, [pc, #76]	@ (80041f0 <QMPool_get+0x7c>)
 80041a2:	e7f5      	b.n	8004190 <QMPool_get+0x1c>

        --nFree; // one less free block
 80041a4:	3b01      	subs	r3, #1
 80041a6:	b29b      	uxth	r3, r3
        if (nFree == 0U) { // is the pool becoming empty?
 80041a8:	2b00      	cmp	r3, #0
 80041aa:	d10f      	bne.n	80041cc <QMPool_get+0x58>
            // pool is becoming empty, so the next free block must be NULL
            Q_ASSERT_INCRIT(350, pfb_next == (void * *)0);
 80041ac:	2900      	cmp	r1, #0
 80041ae:	d002      	beq.n	80041b6 <QMPool_get+0x42>
 80041b0:	21af      	movs	r1, #175	@ 0xaf
 80041b2:	480f      	ldr	r0, [pc, #60]	@ (80041f0 <QMPool_get+0x7c>)
 80041b4:	e7ec      	b.n	8004190 <QMPool_get+0x1c>

            me->nFree = 0U; // no more free blocks
 80041b6:	6122      	str	r2, [r4, #16]

        me->freeHead = pfb_next; // set the head to the next free block

        // change the allocated block contents so that it is different
        // than a free block inside the pool.
        pfb[0] = &me->end[1]; // invalid location beyond the end
 80041b8:	6863      	ldr	r3, [r4, #4]
        me->freeHead = pfb_next; // set the head to the next free block
 80041ba:	60a2      	str	r2, [r4, #8]
        pfb[0] = &me->end[1]; // invalid location beyond the end
 80041bc:	3304      	adds	r3, #4
 80041be:	602b      	str	r3, [r5, #0]
#ifndef Q_UNSAFE
        pfb[1] = (void *)0; // invalidate the Duplicate Storage
 80041c0:	2300      	movs	r3, #0
 80041c2:	606b      	str	r3, [r5, #4]
            QS_MPC_PRE(nFree);     // # free blocks in the pool
            QS_MPC_PRE(margin);    // the requested margin
        QS_END_PRE()
    }

    QF_CRIT_EXIT();
 80041c4:	f7ff fc36 	bl	8003a34 <QF_crit_exit_>

    return (void *)pfb; // return the block or NULL
}
 80041c8:	0028      	movs	r0, r5
 80041ca:	bd70      	pop	{r4, r5, r6, pc}
            Q_ASSERT_INCRIT(360,
 80041cc:	6821      	ldr	r1, [r4, #0]
 80041ce:	4291      	cmp	r1, r2
 80041d0:	d802      	bhi.n	80041d8 <QMPool_get+0x64>
 80041d2:	6861      	ldr	r1, [r4, #4]
 80041d4:	4291      	cmp	r1, r2
 80041d6:	d202      	bcs.n	80041de <QMPool_get+0x6a>
 80041d8:	21b4      	movs	r1, #180	@ 0xb4
 80041da:	4805      	ldr	r0, [pc, #20]	@ (80041f0 <QMPool_get+0x7c>)
 80041dc:	e7d8      	b.n	8004190 <QMPool_get+0x1c>
            if (me->nMin > nFree) { // is this the new minimum?
 80041de:	8a61      	ldrh	r1, [r4, #18]
            me->nFree = nFree; // update the original
 80041e0:	8223      	strh	r3, [r4, #16]
            if (me->nMin > nFree) { // is this the new minimum?
 80041e2:	4299      	cmp	r1, r3
 80041e4:	d9e8      	bls.n	80041b8 <QMPool_get+0x44>
                me->nMin = nFree; // remember the minimum so far
 80041e6:	8263      	strh	r3, [r4, #18]
 80041e8:	e7e6      	b.n	80041b8 <QMPool_get+0x44>
        pfb = (void * *)0;
 80041ea:	2500      	movs	r5, #0
 80041ec:	e7ea      	b.n	80041c4 <QMPool_get+0x50>
 80041ee:	46c0      	nop			@ (mov r8, r8)
 80041f0:	080064b6 	.word	0x080064b6

080041f4 <QMPool_put>:
//............................................................................
//! @public @memberof QMPool
void QMPool_put(QMPool * const me,
    void * const block,
    uint_fast8_t const qsId)
{
 80041f4:	b570      	push	{r4, r5, r6, lr}
 80041f6:	000c      	movs	r4, r1
 80041f8:	0005      	movs	r5, r0
#endif

    void * * const pfb = (void * *)block; // ptr to free block

    QF_CRIT_STAT
    QF_CRIT_ENTRY();
 80041fa:	f7ff fc0d 	bl	8003a18 <QF_crit_entry_>

    // the block returned to the pool must be valid
    Q_REQUIRE_INCRIT(400, pfb != (void * *)0);
 80041fe:	2c00      	cmp	r4, #0
 8004200:	d104      	bne.n	800420c <QMPool_put+0x18>
 8004202:	21c8      	movs	r1, #200	@ 0xc8
 8004204:	4811      	ldr	r0, [pc, #68]	@ (800424c <QMPool_put+0x58>)

    // the block must be in range of this pool (block from a different pool?)
    Q_REQUIRE_INCRIT(410, (me->start <= pfb) && (pfb <= me->end));
 8004206:	0049      	lsls	r1, r1, #1
 8004208:	f7fc fa04 	bl	8000614 <Q_onError>
 800420c:	682b      	ldr	r3, [r5, #0]
 800420e:	42a3      	cmp	r3, r4
 8004210:	d802      	bhi.n	8004218 <QMPool_put+0x24>
 8004212:	686b      	ldr	r3, [r5, #4]
 8004214:	42a3      	cmp	r3, r4
 8004216:	d202      	bcs.n	800421e <QMPool_put+0x2a>
 8004218:	21cd      	movs	r1, #205	@ 0xcd
 800421a:	480c      	ldr	r0, [pc, #48]	@ (800424c <QMPool_put+0x58>)
 800421c:	e7f3      	b.n	8004206 <QMPool_put+0x12>

    // the block must NOT be in the pool already (double free?)
    // NOTE: a block in the pool already matches the duplicate storage,
    // so the block not in the pool must NOT match the Duplicate Storage
    Q_INVARIANT_INCRIT(422, pfb[0] != pfb[1]);
 800421e:	6822      	ldr	r2, [r4, #0]
 8004220:	6863      	ldr	r3, [r4, #4]
 8004222:	429a      	cmp	r2, r3
 8004224:	d102      	bne.n	800422c <QMPool_put+0x38>
 8004226:	21d3      	movs	r1, #211	@ 0xd3
 8004228:	4808      	ldr	r0, [pc, #32]	@ (800424c <QMPool_put+0x58>)
 800422a:	e7ec      	b.n	8004206 <QMPool_put+0x12>

    // get members into temporaries
    void * * const freeHead = me->freeHead;
    QMPoolCtr nFree = me->nFree;
 800422c:	8a2b      	ldrh	r3, [r5, #16]

    // the number of free blocks must be below the total because
    // one more block is just being returned to the pool
    Q_REQUIRE_INCRIT(450, nFree < me->nTot);
 800422e:	89e9      	ldrh	r1, [r5, #14]
    void * * const freeHead = me->freeHead;
 8004230:	68aa      	ldr	r2, [r5, #8]
    Q_REQUIRE_INCRIT(450, nFree < me->nTot);
 8004232:	4299      	cmp	r1, r3
 8004234:	d802      	bhi.n	800423c <QMPool_put+0x48>
 8004236:	21e1      	movs	r1, #225	@ 0xe1
 8004238:	4804      	ldr	r0, [pc, #16]	@ (800424c <QMPool_put+0x58>)
 800423a:	e7e4      	b.n	8004206 <QMPool_put+0x12>

    ++nFree; // one more free block in this pool
 800423c:	3301      	adds	r3, #1

    me->freeHead = pfb; // set as new head of the free list
 800423e:	60ac      	str	r4, [r5, #8]
    me->nFree    = nFree;
 8004240:	822b      	strh	r3, [r5, #16]
    pfb[0]       = freeHead; // link into the list
 8004242:	6022      	str	r2, [r4, #0]
#ifndef Q_UNSAFE
    pfb[1] = freeHead;  // update Duplicate Storage (NOT inverted)
 8004244:	6062      	str	r2, [r4, #4]
        QS_TIME_PRE();         // timestamp
        QS_OBJ_PRE(me);        // this memory pool
        QS_MPC_PRE(nFree);     // the # free blocks in the pool
    QS_END_PRE()

    QF_CRIT_EXIT();
 8004246:	f7ff fbf5 	bl	8003a34 <QF_crit_exit_>
}
 800424a:	bd70      	pop	{r4, r5, r6, pc}
 800424c:	080064b6 	.word	0x080064b6

08004250 <QActive_ctor>:

//----------------------------------------------------------------------------
//! @protected @memberof QActive
void QActive_ctor(QActive * const me,
    QStateHandler const initial)
{
 8004250:	b510      	push	{r4, lr}
 8004252:	0004      	movs	r4, r0
    // NOTE: QActive indirectly inherits the abstract QAsm base class,
    // but it will delegate the state machine behavior to the QHsm class,
    // so the following initiaization is identical as in QHsm ctor:
    QHsm_ctor((QHsm *)(me), initial);
 8004254:	f7ff fde8 	bl	8003e28 <QHsm_ctor>
        &QHsm_init_,
        &QHsm_dispatch_,
        &QHsm_isIn_,
        &QHsm_getStateHandler_
    };
    me->super.vptr = &vtable; // hook vptr to QActive vtable
 8004258:	4b01      	ldr	r3, [pc, #4]	@ (8004260 <QActive_ctor+0x10>)
 800425a:	6023      	str	r3, [r4, #0]
}
 800425c:	bd10      	pop	{r4, pc}
 800425e:	46c0      	nop			@ (mov r8, r8)
 8004260:	080064c0 	.word	0x080064c0

08004264 <QActive_register_>:

//............................................................................
//! @private @memberof QActive
void QActive_register_(QActive * const me) {
 8004264:	b5f8      	push	{r3, r4, r5, r6, r7, lr}
 8004266:	0004      	movs	r4, r0
    QF_CRIT_STAT
    QF_CRIT_ENTRY();
 8004268:	f7ff fbd6 	bl	8003a18 <QF_crit_entry_>

    if (me->pthre == 0U) { // preemption-threshold not defined?
 800426c:	7b62      	ldrb	r2, [r4, #13]
 800426e:	7b23      	ldrb	r3, [r4, #12]
 8004270:	2a00      	cmp	r2, #0
 8004272:	d100      	bne.n	8004276 <QActive_register_+0x12>
        me->pthre = me->prio; // apply the default
 8004274:	7363      	strb	r3, [r4, #13]
    }

    // AO's prio. must be in range
    Q_REQUIRE_INCRIT(100, (0U < me->prio) && (me->prio <= QF_MAX_ACTIVE));
 8004276:	1e5a      	subs	r2, r3, #1
 8004278:	b2d2      	uxtb	r2, r2
 800427a:	2a1f      	cmp	r2, #31
 800427c:	d903      	bls.n	8004286 <QActive_register_+0x22>
 800427e:	2164      	movs	r1, #100	@ 0x64
 8004280:	481c      	ldr	r0, [pc, #112]	@ (80042f4 <QActive_register_+0x90>)

    // the AO must NOT be registered already
    Q_REQUIRE_INCRIT(110, QActive_registry_[me->prio] == (QActive *)0);
 8004282:	f7fc f9c7 	bl	8000614 <Q_onError>
 8004286:	4d1c      	ldr	r5, [pc, #112]	@ (80042f8 <QActive_register_+0x94>)
 8004288:	009e      	lsls	r6, r3, #2
 800428a:	5971      	ldr	r1, [r6, r5]
 800428c:	2900      	cmp	r1, #0
 800428e:	d002      	beq.n	8004296 <QActive_register_+0x32>
 8004290:	216e      	movs	r1, #110	@ 0x6e
 8004292:	4818      	ldr	r0, [pc, #96]	@ (80042f4 <QActive_register_+0x90>)
 8004294:	e7f5      	b.n	8004282 <QActive_register_+0x1e>

    // the AO's prio. must not exceed the preemption threshold
    Q_REQUIRE_INCRIT(130, me->prio <= me->pthre);
 8004296:	7b61      	ldrb	r1, [r4, #13]
 8004298:	428b      	cmp	r3, r1
 800429a:	d805      	bhi.n	80042a8 <QActive_register_+0x44>
 800429c:	0090      	lsls	r0, r2, #2
 800429e:	1940      	adds	r0, r0, r5

#ifndef Q_UNSAFE
    uint8_t prev_thre = me->pthre;
    uint8_t next_thre = me->pthre;

    for (uint8_t p = me->prio - 1U; p > 0U; --p) {
 80042a0:	2a00      	cmp	r2, #0
 80042a2:	d104      	bne.n	80042ae <QActive_register_+0x4a>
    uint8_t prev_thre = me->pthre;
 80042a4:	000a      	movs	r2, r1
 80042a6:	e007      	b.n	80042b8 <QActive_register_+0x54>
    Q_REQUIRE_INCRIT(130, me->prio <= me->pthre);
 80042a8:	2182      	movs	r1, #130	@ 0x82
 80042aa:	4812      	ldr	r0, [pc, #72]	@ (80042f4 <QActive_register_+0x90>)
 80042ac:	e7e9      	b.n	8004282 <QActive_register_+0x1e>
        if (QActive_registry_[p] != (QActive *)0) {
 80042ae:	6807      	ldr	r7, [r0, #0]
 80042b0:	3804      	subs	r0, #4
 80042b2:	2f00      	cmp	r7, #0
 80042b4:	d009      	beq.n	80042ca <QActive_register_+0x66>
            prev_thre = QActive_registry_[p]->pthre;
 80042b6:	7b7a      	ldrb	r2, [r7, #13]
            break;
        }
    }
    for (uint8_t p = me->prio + 1U; p <= QF_MAX_ACTIVE; ++p) {
 80042b8:	3301      	adds	r3, #1
        if (QActive_registry_[p] != (QActive *)0) {
 80042ba:	4f10      	ldr	r7, [pc, #64]	@ (80042fc <QActive_register_+0x98>)
 80042bc:	b2db      	uxtb	r3, r3
    for (uint8_t p = me->prio + 1U; p <= QF_MAX_ACTIVE; ++p) {
 80042be:	b2d8      	uxtb	r0, r3
 80042c0:	2821      	cmp	r0, #33	@ 0x21
 80042c2:	d105      	bne.n	80042d0 <QActive_register_+0x6c>
        }
    }

    // the preemption threshold of this AO must be between
    // preemption threshold of the previous AO and next AO
    Q_ASSERT_INCRIT(160,
 80042c4:	4291      	cmp	r1, r2
 80042c6:	d210      	bcs.n	80042ea <QActive_register_+0x86>
 80042c8:	e00a      	b.n	80042e0 <QActive_register_+0x7c>
    for (uint8_t p = me->prio - 1U; p > 0U; --p) {
 80042ca:	3a01      	subs	r2, #1
 80042cc:	b2d2      	uxtb	r2, r2
 80042ce:	e7e7      	b.n	80042a0 <QActive_register_+0x3c>
        if (QActive_registry_[p] != (QActive *)0) {
 80042d0:	3301      	adds	r3, #1
 80042d2:	0098      	lsls	r0, r3, #2
 80042d4:	5838      	ldr	r0, [r7, r0]
 80042d6:	2800      	cmp	r0, #0
 80042d8:	d0f1      	beq.n	80042be <QActive_register_+0x5a>
            next_thre = QActive_registry_[p]->pthre;
 80042da:	7b43      	ldrb	r3, [r0, #13]
    Q_ASSERT_INCRIT(160,
 80042dc:	4291      	cmp	r1, r2
 80042de:	d202      	bcs.n	80042e6 <QActive_register_+0x82>
 80042e0:	21a0      	movs	r1, #160	@ 0xa0
 80042e2:	4804      	ldr	r0, [pc, #16]	@ (80042f4 <QActive_register_+0x90>)
 80042e4:	e7cd      	b.n	8004282 <QActive_register_+0x1e>
 80042e6:	4299      	cmp	r1, r3
 80042e8:	d8fa      	bhi.n	80042e0 <QActive_register_+0x7c>
        (prev_thre <= me->pthre) && (me->pthre <= next_thre));

#endif // Q_UNSAFE

    // register the AO at the QF-prio.
    QActive_registry_[me->prio] = me;
 80042ea:	51ac      	str	r4, [r5, r6]

    QF_CRIT_EXIT();
 80042ec:	f7ff fba2 	bl	8003a34 <QF_crit_exit_>
}
 80042f0:	bdf8      	pop	{r3, r4, r5, r6, r7, pc}
 80042f2:	46c0      	nop			@ (mov r8, r8)
 80042f4:	080064d0 	.word	0x080064d0
 80042f8:	20000518 	.word	0x20000518
 80042fc:	20000514 	.word	0x20000514

08004300 <QPSet_isEmpty>:
}
//............................................................................
//! @public @memberof QPSet
bool QPSet_isEmpty(QPSet const * const me) {
#if (QF_MAX_ACTIVE <= 32U)
    return (me->bits0 == 0U);  // check only bitmask for elements 1..32
 8004300:	6800      	ldr	r0, [r0, #0]
 8004302:	4243      	negs	r3, r0
 8004304:	4158      	adcs	r0, r3
 8004306:	b2c0      	uxtb	r0, r0
#else
    return (me->bits0 == 0U)   // bitmask for elements 1..32 empty?
           ? (me->bits1 == 0U) // check bitmask for for elements 33..64
           : false;             // the set is NOT empty
#endif
}
 8004308:	4770      	bx	lr

0800430a <QPSet_notEmpty>:
//............................................................................
//! @public @memberof QPSet
bool QPSet_notEmpty(QPSet const * const me) {
#if (QF_MAX_ACTIVE <= 32U)
    return (me->bits0 != 0U);   // check only bitmask for elements 1..32
 800430a:	6800      	ldr	r0, [r0, #0]
 800430c:	1e43      	subs	r3, r0, #1
 800430e:	4198      	sbcs	r0, r3
 8004310:	b2c0      	uxtb	r0, r0
#else
    return (me->bits0 != 0U)    // bitmask for elements 1..32 empty?
           ? true                // the set is NOT empty
           : (me->bits1 != 0U); // check bitmask for for elements 33..64
#endif
}
 8004312:	4770      	bx	lr

08004314 <QPSet_insert>:
//............................................................................
//! @public @memberof QPSet
void QPSet_insert(QPSet * const me, uint_fast8_t const n) {
#if (QF_MAX_ACTIVE <= 32U)
    // set the bit only in bitmask for elements 1..32
    me->bits0 = (me->bits0 | ((QPSetBits)1U << (n - 1U)));
 8004314:	2201      	movs	r2, #1
 8004316:	3901      	subs	r1, #1
 8004318:	408a      	lsls	r2, r1
 800431a:	6803      	ldr	r3, [r0, #0]
 800431c:	4313      	orrs	r3, r2
 800431e:	6003      	str	r3, [r0, #0]
    }
    else { // set the bit in the bitmask for for elements 33..64
        me->bits1 = (me->bits1 | ((QPSetBits)1U << (n - 33U)));
    }
#endif
}
 8004320:	4770      	bx	lr

08004322 <QPSet_remove>:
//............................................................................
//! @public @memberof QPSet
void QPSet_remove(QPSet * const me, uint_fast8_t const n) {
#if (QF_MAX_ACTIVE <= 32U)
    // clear the bit only in bitmask for elements 1..32
    me->bits0 = (me->bits0 & (QPSetBits)(~((QPSetBits)1U << (n - 1U))));
 8004322:	2201      	movs	r2, #1
 8004324:	3901      	subs	r1, #1
 8004326:	408a      	lsls	r2, r1
 8004328:	6803      	ldr	r3, [r0, #0]
 800432a:	4393      	bics	r3, r2
 800432c:	6003      	str	r3, [r0, #0]
    }
    else { // clear the bit in the bitmask for for elements 33..64
        (me->bits1 = (me->bits1 & ~((QPSetBits)1U << (n - 33U))));
    }
#endif
}
 800432e:	4770      	bx	lr

08004330 <QPSet_findMax>:
//............................................................................
//! @public @memberof QPSet
uint_fast8_t QPSet_findMax(QPSet const * const me) {
 8004330:	b510      	push	{r4, lr}
#if (QF_MAX_ACTIVE <= 32U)
    // check only the bitmask for elements 1..32
    return QF_LOG2(me->bits0);
 8004332:	6800      	ldr	r0, [r0, #0]
 8004334:	f7ff fbc8 	bl	8003ac8 <QF_qlog2>
#else
    return (me->bits1 != 0U) // bitmask for elements 32..64 not empty?
        ? (32U + QF_LOG2(me->bits1)) // 32 + log2(bits 33..64)
        : (QF_LOG2(me->bits0));      // log2(bits 1..32)
#endif
}
 8004338:	bd10      	pop	{r4, pc}
	...

0800433c <QEQueue_init>:
//............................................................................
//! @public @memberof QEQueue
void QEQueue_init(QEQueue * const me,
    struct QEvt const * * const qSto,
    uint_fast16_t const qLen)
{
 800433c:	b570      	push	{r4, r5, r6, lr}
 800433e:	0015      	movs	r5, r2
 8004340:	0004      	movs	r4, r0
 8004342:	000e      	movs	r6, r1
    QF_CRIT_STAT
    QF_CRIT_ENTRY();
 8004344:	f7ff fb68 	bl	8003a18 <QF_crit_entry_>

#if (QF_EQUEUE_CTR_SIZE == 1U)
    // the qLen paramter must not exceed the dynamic range of uint8_t
    Q_REQUIRE_INCRIT(10, qLen < 0xFFU);
 8004348:	2dfe      	cmp	r5, #254	@ 0xfe
 800434a:	d903      	bls.n	8004354 <QEQueue_init+0x18>
 800434c:	210a      	movs	r1, #10
 800434e:	4809      	ldr	r0, [pc, #36]	@ (8004374 <QEQueue_init+0x38>)
 8004350:	f7fc f960 	bl	8000614 <Q_onError>
#endif

    me->frontEvt = (QEvt *)0; // no events in the queue
 8004354:	2200      	movs	r2, #0
    me->ring     = qSto;      // the beginning of the ring buffer
    me->end      = (QEQueueCtr)qLen; // index of the last element
 8004356:	b2eb      	uxtb	r3, r5
    me->frontEvt = (QEvt *)0; // no events in the queue
 8004358:	6022      	str	r2, [r4, #0]
    me->ring     = qSto;      // the beginning of the ring buffer
 800435a:	6066      	str	r6, [r4, #4]
    me->end      = (QEQueueCtr)qLen; // index of the last element
 800435c:	7223      	strb	r3, [r4, #8]
    if (qLen > 0U) { // queue buffer storage provided?
 800435e:	4295      	cmp	r5, r2
 8004360:	d001      	beq.n	8004366 <QEQueue_init+0x2a>
        me->head = 0U; // head index: for removing events
 8004362:	7262      	strb	r2, [r4, #9]
        me->tail = 0U; // tail index: for inserting events
 8004364:	72a2      	strb	r2, [r4, #10]
    }
    me->nFree    = (QEQueueCtr)(qLen + 1U); // +1 for frontEvt
 8004366:	3301      	adds	r3, #1
 8004368:	b2db      	uxtb	r3, r3
 800436a:	72e3      	strb	r3, [r4, #11]
    me->nMin     = me->nFree; // minimum so far
 800436c:	7323      	strb	r3, [r4, #12]

    QF_CRIT_EXIT();
 800436e:	f7ff fb61 	bl	8003a34 <QF_crit_exit_>
}
 8004372:	bd70      	pop	{r4, r5, r6, pc}
 8004374:	080064d8 	.word	0x080064d8

08004378 <QTimeEvt_ctorX>:
//! @public @memberof QTimeEvt
void QTimeEvt_ctorX(QTimeEvt * const me,
    QActive * const act,
    enum_t const sig,
    uint_fast8_t const tickRate)
{
 8004378:	b5f8      	push	{r3, r4, r5, r6, r7, lr}
 800437a:	0016      	movs	r6, r2
 800437c:	0004      	movs	r4, r0
 800437e:	000f      	movs	r7, r1
 8004380:	001d      	movs	r5, r3
    QF_CRIT_STAT
    QF_CRIT_ENTRY();
 8004382:	f7ff fb49 	bl	8003a18 <QF_crit_entry_>

    // the signal must be != 0, but other reserved signals are allowed
    Q_REQUIRE_INCRIT(300, sig != 0);
 8004386:	2e00      	cmp	r6, #0
 8004388:	d104      	bne.n	8004394 <QTimeEvt_ctorX+0x1c>
 800438a:	2196      	movs	r1, #150	@ 0x96
 800438c:	480a      	ldr	r0, [pc, #40]	@ (80043b8 <QTimeEvt_ctorX+0x40>)

    // the tick rate must be in the configured range
    Q_REQUIRE_INCRIT(310, tickRate < QF_MAX_TICK_RATE);
 800438e:	0049      	lsls	r1, r1, #1
 8004390:	f7fc f940 	bl	8000614 <Q_onError>
 8004394:	2d00      	cmp	r5, #0
 8004396:	d002      	beq.n	800439e <QTimeEvt_ctorX+0x26>
 8004398:	219b      	movs	r1, #155	@ 0x9b
 800439a:	4807      	ldr	r0, [pc, #28]	@ (80043b8 <QTimeEvt_ctorX+0x40>)
 800439c:	e7f7      	b.n	800438e <QTimeEvt_ctorX+0x16>
    QF_CRIT_EXIT();
 800439e:	f7ff fb49 	bl	8003a34 <QF_crit_exit_>

    QEvt_ctor(&me->super, sig); // the superclass' ctor
 80043a2:	0031      	movs	r1, r6
 80043a4:	0020      	movs	r0, r4
 80043a6:	f7ff fd49 	bl	8003e3c <QEvt_ctor>

    me->super.refCtr_ = 0U; // adjust from QEvt_ctor(sig)
 80043aa:	70e5      	strb	r5, [r4, #3]
    me->next     = (QTimeEvt *)0;
 80043ac:	60a5      	str	r5, [r4, #8]
    me->act      = act; // might be NULL for a time-event head
 80043ae:	60e7      	str	r7, [r4, #12]
    me->ctr      = 0U;
 80043b0:	6125      	str	r5, [r4, #16]
    me->interval = 0U;
 80043b2:	6165      	str	r5, [r4, #20]
    me->tickRate = (uint8_t)tickRate;
 80043b4:	8325      	strh	r5, [r4, #24]
    me->flags    = 0U;
}
 80043b6:	bdf8      	pop	{r3, r4, r5, r6, r7, pc}
 80043b8:	080064df 	.word	0x080064df

080043bc <QTimeEvt_armX>:
//............................................................................
//! @public @memberof QTimeEvt
void QTimeEvt_armX(QTimeEvt * const me,
    uint32_t const nTicks,
    uint32_t const interval)
{
 80043bc:	b570      	push	{r4, r5, r6, lr}
 80043be:	0004      	movs	r4, r0
 80043c0:	0016      	movs	r6, r2
 80043c2:	000d      	movs	r5, r1
    QF_CRIT_STAT
    QF_CRIT_ENTRY();
 80043c4:	f7ff fb28 	bl	8003a18 <QF_crit_entry_>
    Q_REQUIRE_INCRIT(400, nTicks   < 0xFFFFU);
    Q_REQUIRE_INCRIT(410, interval < 0xFFFFU);
#endif

#ifndef Q_UNSAFE
    QTimeEvtCtr const ctr = me->ctr;
 80043c8:	6922      	ldr	r2, [r4, #16]
#endif

    uint8_t const tickRate = me->tickRate;
 80043ca:	7e23      	ldrb	r3, [r4, #24]

    // nTicks must be != 0 for arming a time event
    Q_REQUIRE_INCRIT(440, nTicks != 0U);
 80043cc:	2d00      	cmp	r5, #0
 80043ce:	d104      	bne.n	80043da <QTimeEvt_armX+0x1e>
 80043d0:	21dc      	movs	r1, #220	@ 0xdc
 80043d2:	4813      	ldr	r0, [pc, #76]	@ (8004420 <QTimeEvt_armX+0x64>)

    // the time event must not be already armed
    Q_REQUIRE_INCRIT(450, ctr == 0U);
 80043d4:	0049      	lsls	r1, r1, #1
 80043d6:	f7fc f91d 	bl	8000614 <Q_onError>
 80043da:	2a00      	cmp	r2, #0
 80043dc:	d002      	beq.n	80043e4 <QTimeEvt_armX+0x28>
 80043de:	21e1      	movs	r1, #225	@ 0xe1
 80043e0:	480f      	ldr	r0, [pc, #60]	@ (8004420 <QTimeEvt_armX+0x64>)
 80043e2:	e7f7      	b.n	80043d4 <QTimeEvt_armX+0x18>

    // the AO associated with this time event must be valid
    Q_REQUIRE_INCRIT(460, me->act != (void *)0);
 80043e4:	68e2      	ldr	r2, [r4, #12]
 80043e6:	2a00      	cmp	r2, #0
 80043e8:	d102      	bne.n	80043f0 <QTimeEvt_armX+0x34>
 80043ea:	21e6      	movs	r1, #230	@ 0xe6
 80043ec:	480c      	ldr	r0, [pc, #48]	@ (8004420 <QTimeEvt_armX+0x64>)
 80043ee:	e7f1      	b.n	80043d4 <QTimeEvt_armX+0x18>

    // the tick rate of this time event must be in range
    Q_REQUIRE_INCRIT(470, tickRate < QF_MAX_TICK_RATE);
 80043f0:	2b00      	cmp	r3, #0
 80043f2:	d002      	beq.n	80043fa <QTimeEvt_armX+0x3e>
 80043f4:	21eb      	movs	r1, #235	@ 0xeb
 80043f6:	480a      	ldr	r0, [pc, #40]	@ (8004420 <QTimeEvt_armX+0x64>)
 80043f8:	e7ec      	b.n	80043d4 <QTimeEvt_armX+0x18>

    // is the time event unlinked?
    // NOTE: For the duration of a single clock tick of the specified tick
    // rate a time event can be disarmed and yet still linked into the list
    // because un-linking is performed exclusively in QTimeEvt_tick_().
    if ((me->flags & QTE_FLAG_IS_LINKED) == 0U) {
 80043fa:	2319      	movs	r3, #25
    me->ctr = (QTimeEvtCtr)nTicks;
 80043fc:	6125      	str	r5, [r4, #16]
    me->interval = (QTimeEvtCtr)interval;
 80043fe:	6166      	str	r6, [r4, #20]
    if ((me->flags & QTE_FLAG_IS_LINKED) == 0U) {
 8004400:	56e3      	ldrsb	r3, [r4, r3]
 8004402:	7e62      	ldrb	r2, [r4, #25]
 8004404:	2b00      	cmp	r3, #0
 8004406:	db07      	blt.n	8004418 <QTimeEvt_armX+0x5c>
        // Only later, inside QTimeEvt_tick_(), the "freshly armed"
        // list is appended to the main list of armed time events based on
        // timeEvtHead_[tickRate].next. Again, this is to keep any
        // changes to the main list exclusively inside QTimeEvt_tick_().

        me->flags |= QTE_FLAG_IS_LINKED; // mark as linked
 8004408:	2380      	movs	r3, #128	@ 0x80
 800440a:	425b      	negs	r3, r3
 800440c:	4313      	orrs	r3, r2
 800440e:	7663      	strb	r3, [r4, #25]
        me->next = (QTimeEvt *)QTimeEvt_timeEvtHead_[tickRate].act;
 8004410:	4b04      	ldr	r3, [pc, #16]	@ (8004424 <QTimeEvt_armX+0x68>)
 8004412:	68da      	ldr	r2, [r3, #12]
 8004414:	60a2      	str	r2, [r4, #8]
        QTimeEvt_timeEvtHead_[tickRate].act = me;
 8004416:	60dc      	str	r4, [r3, #12]
        QS_TEC_PRE(nTicks);   // the # ticks
        QS_TEC_PRE(interval); // the interval
        QS_U8_PRE(tickRate);  // tick rate
    QS_END_PRE()

    QF_CRIT_EXIT();
 8004418:	f7ff fb0c 	bl	8003a34 <QF_crit_exit_>
}
 800441c:	bd70      	pop	{r4, r5, r6, pc}
 800441e:	46c0      	nop			@ (mov r8, r8)
 8004420:	080064df 	.word	0x080064df
 8004424:	2000059c 	.word	0x2000059c

08004428 <QTimeEvt_disarm>:

//............................................................................
//! @public @memberof QTimeEvt
bool QTimeEvt_disarm(QTimeEvt * const me) {
 8004428:	b510      	push	{r4, lr}
 800442a:	0004      	movs	r4, r0
    QF_CRIT_STAT
    QF_CRIT_ENTRY();
 800442c:	f7ff faf4 	bl	8003a18 <QF_crit_entry_>
    uint_fast8_t const qsId = QACTIVE_CAST_(me->act)->prio;
#endif

    // was the time event actually armed?
    bool wasArmed = false;
    if (ctr != 0U) {
 8004430:	6923      	ldr	r3, [r4, #16]
 8004432:	2140      	movs	r1, #64	@ 0x40
 8004434:	7e62      	ldrb	r2, [r4, #25]
 8004436:	2b00      	cmp	r3, #0
 8004438:	d008      	beq.n	800444c <QTimeEvt_disarm+0x24>
        wasArmed = true;
        me->flags |= QTE_FLAG_WAS_DISARMED;
        me->ctr = 0U; // schedule removal from the list
 800443a:	2300      	movs	r3, #0
        me->flags |= QTE_FLAG_WAS_DISARMED;
 800443c:	4311      	orrs	r1, r2
 800443e:	7661      	strb	r1, [r4, #25]
        me->ctr = 0U; // schedule removal from the list
 8004440:	6123      	str	r3, [r4, #16]
        wasArmed = true;
 8004442:	2401      	movs	r4, #1
            QS_OBJ_PRE(me->act);      // the target AO
            QS_U8_PRE(me->tickRate);  // tick rate
        QS_END_PRE()
    }

    QF_CRIT_EXIT();
 8004444:	f7ff faf6 	bl	8003a34 <QF_crit_exit_>

    return wasArmed;
}
 8004448:	0020      	movs	r0, r4
 800444a:	bd10      	pop	{r4, pc}
        me->flags &= (uint8_t)(~QTE_FLAG_WAS_DISARMED & 0xFFU);
 800444c:	438a      	bics	r2, r1
 800444e:	7662      	strb	r2, [r4, #25]
    bool wasArmed = false;
 8004450:	001c      	movs	r4, r3
 8004452:	e7f7      	b.n	8004444 <QTimeEvt_disarm+0x1c>

08004454 <QTimeEvt_init>:
    for (uint_fast8_t tickRate = 0U;
         tickRate < Q_DIM(QTimeEvt_timeEvtHead_);
         ++tickRate)
    {
        // time event head has invalid AO and Q_USER_SIG as signal
        QTimeEvt_ctorX(&QTimeEvt_timeEvtHead_[tickRate],
 8004454:	2300      	movs	r3, #0
void QTimeEvt_init(void) {
 8004456:	b510      	push	{r4, lr}
        QTimeEvt_ctorX(&QTimeEvt_timeEvtHead_[tickRate],
 8004458:	2204      	movs	r2, #4
 800445a:	0019      	movs	r1, r3
 800445c:	4801      	ldr	r0, [pc, #4]	@ (8004464 <QTimeEvt_init+0x10>)
 800445e:	f7ff ff8b 	bl	8004378 <QTimeEvt_ctorX>
                       (QActive *)0, Q_USER_SIG, tickRate);
    }
}
 8004462:	bd10      	pop	{r4, pc}
 8004464:	2000059c 	.word	0x2000059c

08004468 <QTimeEvt_expire_>:
//! @private @memberof QTimeEvt
QTimeEvt * QTimeEvt_expire_(QTimeEvt * const me,
    QTimeEvt * const prev_link,
    QActive const * const act,
    uint_fast8_t const tickRate)
{
 8004468:	0003      	movs	r3, r0
    Q_UNUSED_PAR(act);
    Q_UNUSED_PAR(tickRate);
#endif

    QTimeEvt *prev = prev_link;
    if (me->interval != 0U) { // periodic time evt?
 800446a:	695a      	ldr	r2, [r3, #20]
{
 800446c:	0008      	movs	r0, r1
        me->ctr = me->interval; // rearm the time event
 800446e:	611a      	str	r2, [r3, #16]
    if (me->interval != 0U) { // periodic time evt?
 8004470:	2a00      	cmp	r2, #0
 8004472:	d001      	beq.n	8004478 <QTimeEvt_expire_+0x10>
        prev = me; // advance to this time event
 8004474:	0018      	movs	r0, r3
        QS_OBJ_PRE(act);          // the target AO
        QS_U8_PRE(tickRate);      // tick rate
    QS_END_PRE()

    return prev;
}
 8004476:	4770      	bx	lr
        prev->next = me->next;
 8004478:	689a      	ldr	r2, [r3, #8]
 800447a:	608a      	str	r2, [r1, #8]
        me->flags &= (uint8_t)(~QTE_FLAG_IS_LINKED & 0xFFU);
 800447c:	217f      	movs	r1, #127	@ 0x7f
 800447e:	7e5a      	ldrb	r2, [r3, #25]
 8004480:	400a      	ands	r2, r1
 8004482:	765a      	strb	r2, [r3, #25]
    return prev;
 8004484:	e7f7      	b.n	8004476 <QTimeEvt_expire_+0xe>
	...

08004488 <QTimeEvt_tick_>:
{
 8004488:	b5f8      	push	{r3, r4, r5, r6, r7, lr}
 800448a:	0004      	movs	r4, r0
    QF_CRIT_ENTRY();
 800448c:	f7ff fac4 	bl	8003a18 <QF_crit_entry_>
    QTimeEvt *prev = &QTimeEvt_timeEvtHead_[tickRate];
 8004490:	4d1e      	ldr	r5, [pc, #120]	@ (800450c <QTimeEvt_tick_+0x84>)
 8004492:	002e      	movs	r6, r5
    Q_REQUIRE_INCRIT(800, tickRate < Q_DIM(QTimeEvt_timeEvtHead_));
 8004494:	2c00      	cmp	r4, #0
 8004496:	d004      	beq.n	80044a2 <QTimeEvt_tick_+0x1a>
 8004498:	21c8      	movs	r1, #200	@ 0xc8
 800449a:	481d      	ldr	r0, [pc, #116]	@ (8004510 <QTimeEvt_tick_+0x88>)
 800449c:	0089      	lsls	r1, r1, #2
 800449e:	f7fc f8b9 	bl	8000614 <Q_onError>
        QTimeEvt *te = prev->next; // advance down the time evt. list
 80044a2:	68ac      	ldr	r4, [r5, #8]
        if (te == (QTimeEvt *)0) { // end of the list?
 80044a4:	2c00      	cmp	r4, #0
 80044a6:	d105      	bne.n	80044b4 <QTimeEvt_tick_+0x2c>
            te = QTimeEvt_timeEvtHead_[tickRate].act;
 80044a8:	68f4      	ldr	r4, [r6, #12]
            if (te == (void *)0) { // no newly-armed time events?
 80044aa:	2c00      	cmp	r4, #0
 80044ac:	d02a      	beq.n	8004504 <QTimeEvt_tick_+0x7c>
            QTimeEvt_timeEvtHead_[tickRate].act = (void *)0;
 80044ae:	2300      	movs	r3, #0
            prev->next = te;
 80044b0:	60ac      	str	r4, [r5, #8]
            QTimeEvt_timeEvtHead_[tickRate].act = (void *)0;
 80044b2:	60f3      	str	r3, [r6, #12]
        QTimeEvtCtr ctr = te->ctr; // move member into temporary
 80044b4:	6923      	ldr	r3, [r4, #16]
        if (ctr == 0U) { // time event scheduled for removal?
 80044b6:	2b00      	cmp	r3, #0
 80044b8:	d10c      	bne.n	80044d4 <QTimeEvt_tick_+0x4c>
            te->flags &= (uint8_t)(~QTE_FLAG_IS_LINKED & 0xFFU);
 80044ba:	227f      	movs	r2, #127	@ 0x7f
            prev->next = te->next;
 80044bc:	68a3      	ldr	r3, [r4, #8]
 80044be:	60ab      	str	r3, [r5, #8]
            te->flags &= (uint8_t)(~QTE_FLAG_IS_LINKED & 0xFFU);
 80044c0:	7e63      	ldrb	r3, [r4, #25]
 80044c2:	4013      	ands	r3, r2
 80044c4:	7663      	strb	r3, [r4, #25]
            QF_CRIT_EXIT(); // exit crit. section to reduce latency
 80044c6:	f7ff fab5 	bl	8003a34 <QF_crit_exit_>
            prev = QTimeEvt_expire_(te, prev, act, tickRate);
 80044ca:	002c      	movs	r4, r5
        QF_CRIT_ENTRY(); // re-enter crit. section to continue the loop
 80044cc:	f7ff faa4 	bl	8003a18 <QF_crit_entry_>
    for (;;) {
 80044d0:	0025      	movs	r5, r4
 80044d2:	e7e6      	b.n	80044a2 <QTimeEvt_tick_+0x1a>
        else if (ctr == 1U) { // is time event about to expire?
 80044d4:	2b01      	cmp	r3, #1
 80044d6:	d110      	bne.n	80044fa <QTimeEvt_tick_+0x72>
            QActive * const act = (QActive *)te->act;
 80044d8:	68e7      	ldr	r7, [r4, #12]
            prev = QTimeEvt_expire_(te, prev, act, tickRate);
 80044da:	0029      	movs	r1, r5
 80044dc:	003a      	movs	r2, r7
 80044de:	2300      	movs	r3, #0
 80044e0:	0020      	movs	r0, r4
 80044e2:	f7ff ffc1 	bl	8004468 <QTimeEvt_expire_>
 80044e6:	0005      	movs	r5, r0
            QF_CRIT_EXIT(); // exit crit. section before posting
 80044e8:	f7ff faa4 	bl	8003a34 <QF_crit_exit_>
            QACTIVE_POST(act, &te->super, sender);
 80044ec:	2300      	movs	r3, #0
 80044ee:	0021      	movs	r1, r4
 80044f0:	0038      	movs	r0, r7
 80044f2:	4a08      	ldr	r2, [pc, #32]	@ (8004514 <QTimeEvt_tick_+0x8c>)
 80044f4:	f7ff fcba 	bl	8003e6c <QActive_post_>
 80044f8:	e7e7      	b.n	80044ca <QTimeEvt_tick_+0x42>
            --ctr; // decrement the tick counter
 80044fa:	3b01      	subs	r3, #1
            te->ctr = ctr; // update the member original
 80044fc:	6123      	str	r3, [r4, #16]
            QF_CRIT_EXIT(); // exit crit. section to reduce latency
 80044fe:	f7ff fa99 	bl	8003a34 <QF_crit_exit_>
 8004502:	e7e3      	b.n	80044cc <QTimeEvt_tick_+0x44>
    QF_CRIT_EXIT();
 8004504:	f7ff fa96 	bl	8003a34 <QF_crit_exit_>
}
 8004508:	bdf8      	pop	{r3, r4, r5, r6, r7, pc}
 800450a:	46c0      	nop			@ (mov r8, r8)
 800450c:	2000059c 	.word	0x2000059c
 8004510:	080064df 	.word	0x080064df
 8004514:	0000ffff 	.word	0x0000ffff

08004518 <QK_sched_>:
    }
}

//............................................................................
//! @static @private @memberof QK
uint_fast8_t QK_sched_(void) {
 8004518:	b510      	push	{r4, lr}
    // NOTE: this function is entered with interrupts DISABLED

    uint8_t p = 0U; // assume NO activation needed
    if (QPSet_notEmpty(&QK_priv_.readySet)) {
 800451a:	4c0a      	ldr	r4, [pc, #40]	@ (8004544 <QK_sched_+0x2c>)
 800451c:	0020      	movs	r0, r4
 800451e:	f7ff fef4 	bl	800430a <QPSet_notEmpty>
 8004522:	2800      	cmp	r0, #0
 8004524:	d101      	bne.n	800452a <QK_sched_+0x12>
    uint8_t p = 0U; // assume NO activation needed
 8004526:	2000      	movs	r0, #0
            }
        }
    }

    return p; // the next priority or 0
}
 8004528:	bd10      	pop	{r4, pc}
        p = (uint8_t)QPSet_findMax(&QK_priv_.readySet);
 800452a:	0020      	movs	r0, r4
 800452c:	f7ff ff00 	bl	8004330 <QPSet_findMax>
        if (p <= QK_priv_.actThre) {
 8004530:	79a3      	ldrb	r3, [r4, #6]
        p = (uint8_t)QPSet_findMax(&QK_priv_.readySet);
 8004532:	b2c0      	uxtb	r0, r0
        if (p <= QK_priv_.actThre) {
 8004534:	4283      	cmp	r3, r0
 8004536:	d2f6      	bcs.n	8004526 <QK_sched_+0xe>
            if (p <= QK_priv_.lockCeil) {
 8004538:	79e3      	ldrb	r3, [r4, #7]
 800453a:	4283      	cmp	r3, r0
 800453c:	d2f3      	bcs.n	8004526 <QK_sched_+0xe>
                QK_priv_.nextPrio = p; // next AO to run
 800453e:	7160      	strb	r0, [r4, #5]
 8004540:	e7f2      	b.n	8004528 <QK_sched_+0x10>
 8004542:	46c0      	nop			@ (mov r8, r8)
 8004544:	200005b8 	.word	0x200005b8

08004548 <QK_sched_act_>:
    uint_fast8_t const pthre_in)
{
    // NOTE: this function is entered with interrupts DISABLED

    uint8_t p = act->prio;
    if (act->eQueue.frontEvt == (QEvt *)0) { // empty queue?
 8004548:	6943      	ldr	r3, [r0, #20]
{
 800454a:	b570      	push	{r4, r5, r6, lr}
 800454c:	000d      	movs	r5, r1
 800454e:	4c0c      	ldr	r4, [pc, #48]	@ (8004580 <QK_sched_act_+0x38>)
    if (act->eQueue.frontEvt == (QEvt *)0) { // empty queue?
 8004550:	2b00      	cmp	r3, #0
 8004552:	d103      	bne.n	800455c <QK_sched_act_+0x14>
        QPSet_remove(&QK_priv_.readySet, p);
 8004554:	7b01      	ldrb	r1, [r0, #12]
 8004556:	0020      	movs	r0, r4
 8004558:	f7ff fee3 	bl	8004322 <QPSet_remove>
    }

    if (QPSet_isEmpty(&QK_priv_.readySet)) { // no AOs ready to run?
 800455c:	0020      	movs	r0, r4
 800455e:	f7ff fecf 	bl	8004300 <QPSet_isEmpty>
 8004562:	2800      	cmp	r0, #0
 8004564:	d001      	beq.n	800456a <QK_sched_act_+0x22>
        p = 0U; // no activation needed
 8004566:	2000      	movs	r0, #0
            }
        }
    }

    return p;
}
 8004568:	bd70      	pop	{r4, r5, r6, pc}
        p = (uint8_t)QPSet_findMax(&QK_priv_.readySet);
 800456a:	0020      	movs	r0, r4
 800456c:	f7ff fee0 	bl	8004330 <QPSet_findMax>
        if (p <= pthre_in) {
 8004570:	b2c3      	uxtb	r3, r0
 8004572:	429d      	cmp	r5, r3
 8004574:	d2f7      	bcs.n	8004566 <QK_sched_act_+0x1e>
            if (p <= QK_priv_.lockCeil) {
 8004576:	79e3      	ldrb	r3, [r4, #7]
        p = (uint8_t)QPSet_findMax(&QK_priv_.readySet);
 8004578:	b2c0      	uxtb	r0, r0
            if (p <= QK_priv_.lockCeil) {
 800457a:	4283      	cmp	r3, r0
 800457c:	d2f3      	bcs.n	8004566 <QK_sched_act_+0x1e>
 800457e:	e7f3      	b.n	8004568 <QK_sched_act_+0x20>
 8004580:	200005b8 	.word	0x200005b8

08004584 <QK_activate_>:

//............................................................................
//! @static @private @memberof QK
void QK_activate_(void) {
 8004584:	b5f7      	push	{r0, r1, r2, r4, r5, r6, r7, lr}
    // NOTE: this function is entered with interrupts DISABLED

    uint8_t const prio_in = QK_priv_.actPrio; // save initial prio.
 8004586:	4b24      	ldr	r3, [pc, #144]	@ (8004618 <QK_activate_+0x94>)
    uint8_t p = QK_priv_.nextPrio; // next prio to run
 8004588:	795c      	ldrb	r4, [r3, #5]
    uint8_t const prio_in = QK_priv_.actPrio; // save initial prio.
 800458a:	791e      	ldrb	r6, [r3, #4]

    // the activated AO's prio must be in range and cannot be 0 (idle thread)
    Q_REQUIRE_INCRIT(520, (0U < p) && (p <= QF_MAX_ACTIVE));
 800458c:	1e62      	subs	r2, r4, #1
 800458e:	2a1f      	cmp	r2, #31
 8004590:	d903      	bls.n	800459a <QK_activate_+0x16>
 8004592:	2182      	movs	r1, #130	@ 0x82
 8004594:	4821      	ldr	r0, [pc, #132]	@ (800461c <QK_activate_+0x98>)
    uint8_t pthre_in = 0U; // assume preempting the idle thread
    if (prio_in > 0U) { // preempting a regular thread (NOT the idle thread)?
        QActive const * const a = QActive_registry_[prio_in];

        // the AO must be registered at prio. prio_in
        Q_ASSERT_INCRIT(540, a != (QActive *)0);
 8004596:	0089      	lsls	r1, r1, #2
 8004598:	e003      	b.n	80045a2 <QK_activate_+0x1e>
    Q_REQUIRE_INCRIT(530, prio_in < p);
 800459a:	42a6      	cmp	r6, r4
 800459c:	d303      	bcc.n	80045a6 <QK_activate_+0x22>
 800459e:	481f      	ldr	r0, [pc, #124]	@ (800461c <QK_activate_+0x98>)
 80045a0:	491f      	ldr	r1, [pc, #124]	@ (8004620 <QK_activate_+0x9c>)
 80045a2:	f7fc f837 	bl	8000614 <Q_onError>
    QK_priv_.nextPrio = 0U; // clear for the next time
 80045a6:	2200      	movs	r2, #0
 80045a8:	715a      	strb	r2, [r3, #5]
    if (prio_in > 0U) { // preempting a regular thread (NOT the idle thread)?
 80045aa:	4296      	cmp	r6, r2
 80045ac:	d011      	beq.n	80045d2 <QK_activate_+0x4e>
        QActive const * const a = QActive_registry_[prio_in];
 80045ae:	4b1d      	ldr	r3, [pc, #116]	@ (8004624 <QK_activate_+0xa0>)
 80045b0:	00b2      	lsls	r2, r6, #2
 80045b2:	58d3      	ldr	r3, [r2, r3]
        Q_ASSERT_INCRIT(540, a != (QActive *)0);
 80045b4:	2b00      	cmp	r3, #0
 80045b6:	d102      	bne.n	80045be <QK_activate_+0x3a>
 80045b8:	2187      	movs	r1, #135	@ 0x87
 80045ba:	4818      	ldr	r0, [pc, #96]	@ (800461c <QK_activate_+0x98>)
 80045bc:	e7eb      	b.n	8004596 <QK_activate_+0x12>

        pthre_in = a->pthre;
 80045be:	7b5b      	ldrb	r3, [r3, #13]
 80045c0:	9300      	str	r3, [sp, #0]
    }

    // loop until no more ready-to-run AOs of higher pthre than the initial
    do  {
        QActive * const a = QActive_registry_[p];
 80045c2:	4b18      	ldr	r3, [pc, #96]	@ (8004624 <QK_activate_+0xa0>)
 80045c4:	00a2      	lsls	r2, r4, #2
 80045c6:	58d5      	ldr	r5, [r2, r3]

        // the AO must be registered at prio. p
        Q_ASSERT_INCRIT(570, a != (QActive *)0);
 80045c8:	2d00      	cmp	r5, #0
 80045ca:	d104      	bne.n	80045d6 <QK_activate_+0x52>
 80045cc:	4813      	ldr	r0, [pc, #76]	@ (800461c <QK_activate_+0x98>)
 80045ce:	4916      	ldr	r1, [pc, #88]	@ (8004628 <QK_activate_+0xa4>)
 80045d0:	e7e7      	b.n	80045a2 <QK_activate_+0x1e>
    uint8_t pthre_in = 0U; // assume preempting the idle thread
 80045d2:	9600      	str	r6, [sp, #0]
 80045d4:	e7f5      	b.n	80045c2 <QK_activate_+0x3e>
        uint8_t const pthre = a->pthre;
 80045d6:	7b6b      	ldrb	r3, [r5, #13]

        // set new active prio. and preemption-threshold
        QK_priv_.actPrio = p;
 80045d8:	4f0f      	ldr	r7, [pc, #60]	@ (8004618 <QK_activate_+0x94>)
        QK_priv_.actThre = pthre;
 80045da:	71bb      	strb	r3, [r7, #6]
        QK_priv_.actPrio = p;
 80045dc:	713c      	strb	r4, [r7, #4]

            pprev = p; // update previous prio.
        }
#endif // QF_ON_CONTEXT_SW || Q_SPY

        QF_INT_ENABLE(); // unconditionally enable interrupts
 80045de:	f7ff fa0d 	bl	80039fc <QF_int_enable_>

        QEvt const * const e = QActive_get_(a);
 80045e2:	0028      	movs	r0, r5
 80045e4:	f7ff fc9a 	bl	8003f1c <QActive_get_>
        // NOTE QActive_get_() performs QF_MEM_APP() before return

        // dispatch event (virtual call)
        (*a->super.vptr->dispatch)(&a->super, e, p);
 80045e8:	682b      	ldr	r3, [r5, #0]
 80045ea:	0022      	movs	r2, r4
 80045ec:	0001      	movs	r1, r0
 80045ee:	685b      	ldr	r3, [r3, #4]
        QEvt const * const e = QActive_get_(a);
 80045f0:	9001      	str	r0, [sp, #4]
        (*a->super.vptr->dispatch)(&a->super, e, p);
 80045f2:	0028      	movs	r0, r5
 80045f4:	4798      	blx	r3
#if (QF_MAX_EPOOL > 0U)
        QF_gc(e);
 80045f6:	9801      	ldr	r0, [sp, #4]
 80045f8:	f7ff fd44 	bl	8004084 <QF_gc>
#endif

        // determine the next highest-prio. AO ready to run...
        QF_INT_DISABLE(); // unconditionally disable interrupts
 80045fc:	f7ff f9f0 	bl	80039e0 <QF_int_disable_>

        // schedule next AO
        p = (uint8_t)QK_sched_act_(a, pthre_in);
 8004600:	0028      	movs	r0, r5
 8004602:	9900      	ldr	r1, [sp, #0]
 8004604:	f7ff ffa0 	bl	8004548 <QK_sched_act_>
 8004608:	b2c4      	uxtb	r4, r0

    } while (p != 0U);
 800460a:	2c00      	cmp	r4, #0
 800460c:	d1d9      	bne.n	80045c2 <QK_activate_+0x3e>

    // restore the active prio. and preemption-threshold
    QK_priv_.actPrio = prio_in;
    QK_priv_.actThre = pthre_in;
 800460e:	9b00      	ldr	r3, [sp, #0]
    QK_priv_.actPrio = prio_in;
 8004610:	713e      	strb	r6, [r7, #4]
    QK_priv_.actThre = pthre_in;
 8004612:	71bb      	strb	r3, [r7, #6]
        QF_onContextSw(QActive_registry_[pprev], (QActive *)0);
#endif // QF_ON_CONTEXT_SW
    }

#endif // QF_ON_CONTEXT_SW || Q_SPY
}
 8004614:	bdf7      	pop	{r0, r1, r2, r4, r5, r6, r7, pc}
 8004616:	46c0      	nop			@ (mov r8, r8)
 8004618:	200005b8 	.word	0x200005b8
 800461c:	080064e7 	.word	0x080064e7
 8004620:	00000212 	.word	0x00000212
 8004624:	20000518 	.word	0x20000518
 8004628:	0000023a 	.word	0x0000023a

0800462c <QF_init>:

//............................................................................
//! @static @public @memberof QF
void QF_init(void) {
    // setup the QK scheduler as initially locked and not running
    QK_priv_.lockCeil = (QF_MAX_ACTIVE + 1U); // scheduler locked
 800462c:	2221      	movs	r2, #33	@ 0x21
void QF_init(void) {
 800462e:	b510      	push	{r4, lr}
    QK_priv_.lockCeil = (QF_MAX_ACTIVE + 1U); // scheduler locked
 8004630:	4b03      	ldr	r3, [pc, #12]	@ (8004640 <QF_init+0x14>)
 8004632:	71da      	strb	r2, [r3, #7]

#ifndef Q_UNSAFE
    QTimeEvt_init(); // initialize QTimeEvts
 8004634:	f7ff ff0e 	bl	8004454 <QTimeEvt_init>
#endif // Q_UNSAFE

#ifdef QK_INIT
    QK_INIT(); // port-specific initialization of the QK kernel
 8004638:	f7ff fa0a 	bl	8003a50 <QK_init>
#endif
}
 800463c:	bd10      	pop	{r4, pc}
 800463e:	46c0      	nop			@ (mov r8, r8)
 8004640:	200005b8 	.word	0x200005b8

08004644 <QF_run>:
    // nothing else to do for the preemptive QK kernel
}

//............................................................................
//! @static @public @memberof QF
int_t QF_run(void) {
 8004644:	b510      	push	{r4, lr}
    QF_INT_DISABLE();
 8004646:	f7ff f9cb 	bl	80039e0 <QF_int_disable_>

#ifdef QK_START
    QK_START(); // port-specific startup of the QK kernel
#endif

    QK_priv_.lockCeil = 0U; // unlock the QK scheduler
 800464a:	2200      	movs	r2, #0
 800464c:	4b07      	ldr	r3, [pc, #28]	@ (800466c <QF_run+0x28>)
 800464e:	71da      	strb	r2, [r3, #7]
    // officially switch to the idle context
    QF_onContextSw((QActive *)0, QActive_registry_[QK_priv_.nextPrio]);
#endif

    // activate AOs to process events posted so far
    if (QK_sched_() != 0U) {
 8004650:	f7ff ff62 	bl	8004518 <QK_sched_>
 8004654:	2800      	cmp	r0, #0
 8004656:	d001      	beq.n	800465c <QF_run+0x18>
        QK_activate_();
 8004658:	f7ff ff94 	bl	8004584 <QK_activate_>
    }

    QF_INT_ENABLE();
 800465c:	f7ff f9ce 	bl	80039fc <QF_int_enable_>

    QF_onStartup(); // app. callback: configure and enable interrupts
 8004660:	f7fc f92a 	bl	80008b8 <QF_onStartup>

    for (;;) { // QK idle loop...
        QK_onIdle(); // application-specific QK idle callback
 8004664:	f7fc f96a 	bl	800093c <QK_onIdle>
    for (;;) { // QK idle loop...
 8004668:	e7fc      	b.n	8004664 <QF_run+0x20>
 800466a:	46c0      	nop			@ (mov r8, r8)
 800466c:	200005b8 	.word	0x200005b8

08004670 <QActive_start>:
    QEvtPtr * const qSto,
    uint_fast16_t const qLen,
    void * const stkSto,
    uint_fast16_t const stkSize,
    void const * const par)
{
 8004670:	b5f8      	push	{r3, r4, r5, r6, r7, lr}
 8004672:	0004      	movs	r4, r0
 8004674:	001e      	movs	r6, r3
 8004676:	000f      	movs	r7, r1
 8004678:	0015      	movs	r5, r2
    Q_UNUSED_PAR(stkSto);  // not needed in QK
    Q_UNUSED_PAR(stkSize); // not needed in QK

    QF_CRIT_STAT
    QF_CRIT_ENTRY();
 800467a:	f7ff f9cd 	bl	8003a18 <QF_crit_entry_>

    // the VPTR for this AO must be valid
    Q_REQUIRE_INCRIT(900, me->super.vptr != (struct QAsmVtable *)0);
 800467e:	6823      	ldr	r3, [r4, #0]
 8004680:	2b00      	cmp	r3, #0
 8004682:	d104      	bne.n	800468e <QActive_start+0x1e>
 8004684:	21e1      	movs	r1, #225	@ 0xe1
 8004686:	4813      	ldr	r0, [pc, #76]	@ (80046d4 <QActive_start+0x64>)
 8004688:	0089      	lsls	r1, r1, #2

    // stack storage must NOT be provided for an AO (QK does not need it)
    Q_REQUIRE_INCRIT(910, stkSto == (void *)0);
 800468a:	f7fb ffc3 	bl	8000614 <Q_onError>
 800468e:	9b06      	ldr	r3, [sp, #24]
 8004690:	2b00      	cmp	r3, #0
 8004692:	d002      	beq.n	800469a <QActive_start+0x2a>
 8004694:	480f      	ldr	r0, [pc, #60]	@ (80046d4 <QActive_start+0x64>)
 8004696:	4910      	ldr	r1, [pc, #64]	@ (80046d8 <QActive_start+0x68>)
 8004698:	e7f7      	b.n	800468a <QActive_start+0x1a>
    QF_CRIT_EXIT();
 800469a:	f7ff f9cb 	bl	8003a34 <QF_crit_exit_>

    me->prio  = (uint8_t)(prioSpec & 0xFFU); // prio. of the AO
    me->pthre = (uint8_t)(prioSpec >> 8U);   // preemption-threshold
    QActive_register_(me); // register this AO with the framework
 800469e:	0020      	movs	r0, r4
    me->prio  = (uint8_t)(prioSpec & 0xFFU); // prio. of the AO
 80046a0:	81a7      	strh	r7, [r4, #12]
    QActive_register_(me); // register this AO with the framework
 80046a2:	f7ff fddf 	bl	8004264 <QActive_register_>

    QEQueue_init(&me->eQueue, qSto, qLen); // init the built-in queue
 80046a6:	0020      	movs	r0, r4
 80046a8:	0032      	movs	r2, r6
 80046aa:	0029      	movs	r1, r5
 80046ac:	3014      	adds	r0, #20
 80046ae:	f7ff fe45 	bl	800433c <QEQueue_init>

    // top-most initial tran. (virtual call)
    (*me->super.vptr->init)(&me->super, par, me->prio);
 80046b2:	6823      	ldr	r3, [r4, #0]
 80046b4:	0020      	movs	r0, r4
 80046b6:	7b22      	ldrb	r2, [r4, #12]
 80046b8:	681b      	ldr	r3, [r3, #0]
 80046ba:	9908      	ldr	r1, [sp, #32]
 80046bc:	4798      	blx	r3
    QS_FLUSH(); // flush the trace buffer to the host

    // see if this AO needs to be scheduled if QK is already running
    QF_CRIT_ENTRY();
 80046be:	f7ff f9ab 	bl	8003a18 <QF_crit_entry_>
    if (QK_sched_() != 0U) { // activation needed?
 80046c2:	f7ff ff29 	bl	8004518 <QK_sched_>
 80046c6:	2800      	cmp	r0, #0
 80046c8:	d001      	beq.n	80046ce <QActive_start+0x5e>
        QK_activate_();
 80046ca:	f7ff ff5b 	bl	8004584 <QK_activate_>
    }
    QF_CRIT_EXIT();
 80046ce:	f7ff f9b1 	bl	8003a34 <QF_crit_exit_>
}
 80046d2:	bdf8      	pop	{r3, r4, r5, r6, r7, pc}
 80046d4:	080064e7 	.word	0x080064e7
 80046d8:	0000038e 	.word	0x0000038e

080046dc <csn_high>:
#include "NRF24.h"

extern SPI_HandleTypeDef hspiX;


void csn_high(void){
 80046dc:	b510      	push	{r4, lr}
	HAL_GPIO_WritePin(csn_gpio_port, csn_gpio_pin, 1);
 80046de:	2201      	movs	r2, #1
 80046e0:	2102      	movs	r1, #2
 80046e2:	4802      	ldr	r0, [pc, #8]	@ (80046ec <csn_high+0x10>)
 80046e4:	f7fd fd26 	bl	8002134 <HAL_GPIO_WritePin>
}
 80046e8:	bd10      	pop	{r4, pc}
 80046ea:	46c0      	nop			@ (mov r8, r8)
 80046ec:	50000400 	.word	0x50000400

080046f0 <csn_low>:

void csn_low(void){
 80046f0:	b510      	push	{r4, lr}
	HAL_GPIO_WritePin(csn_gpio_port, csn_gpio_pin, 0);
 80046f2:	2200      	movs	r2, #0
 80046f4:	2102      	movs	r1, #2
 80046f6:	4802      	ldr	r0, [pc, #8]	@ (8004700 <csn_low+0x10>)
 80046f8:	f7fd fd1c 	bl	8002134 <HAL_GPIO_WritePin>
}
 80046fc:	bd10      	pop	{r4, pc}
 80046fe:	46c0      	nop			@ (mov r8, r8)
 8004700:	50000400 	.word	0x50000400

08004704 <ce_high>:

void ce_high(void){
	HAL_GPIO_WritePin(ce_gpio_port, ce_gpio_pin, 1);
 8004704:	2201      	movs	r2, #1
void ce_high(void){
 8004706:	b510      	push	{r4, lr}
	HAL_GPIO_WritePin(ce_gpio_port, ce_gpio_pin, 1);
 8004708:	0011      	movs	r1, r2
 800470a:	4802      	ldr	r0, [pc, #8]	@ (8004714 <ce_high+0x10>)
 800470c:	f7fd fd12 	bl	8002134 <HAL_GPIO_WritePin>
}
 8004710:	bd10      	pop	{r4, pc}
 8004712:	46c0      	nop			@ (mov r8, r8)
 8004714:	50000400 	.word	0x50000400

08004718 <ce_low>:

void ce_low(void){
 8004718:	b510      	push	{r4, lr}
	HAL_GPIO_WritePin(ce_gpio_port, ce_gpio_pin, 0);
 800471a:	2200      	movs	r2, #0
 800471c:	2101      	movs	r1, #1
 800471e:	4802      	ldr	r0, [pc, #8]	@ (8004728 <ce_low+0x10>)
 8004720:	f7fd fd08 	bl	8002134 <HAL_GPIO_WritePin>
}
 8004724:	bd10      	pop	{r4, pc}
 8004726:	46c0      	nop			@ (mov r8, r8)
 8004728:	50000400 	.word	0x50000400

0800472c <nrf24_w_reg>:

void nrf24_w_reg(uint8_t reg, uint8_t *data, uint8_t size){
 800472c:	b5f7      	push	{r0, r1, r2, r4, r5, r6, r7, lr}

	uint8_t cmd = W_REGISTER | reg;
 800472e:	466b      	mov	r3, sp
 8004730:	1ddc      	adds	r4, r3, #7
 8004732:	2320      	movs	r3, #32
 8004734:	4303      	orrs	r3, r0
void nrf24_w_reg(uint8_t reg, uint8_t *data, uint8_t size){
 8004736:	000d      	movs	r5, r1
 8004738:	0016      	movs	r6, r2
	uint8_t cmd = W_REGISTER | reg;
 800473a:	7023      	strb	r3, [r4, #0]

	csn_low();

	HAL_SPI_Transmit(&hspiX, &cmd, 1, spi_w_timeout);
 800473c:	27fa      	movs	r7, #250	@ 0xfa
	csn_low();
 800473e:	f7ff ffd7 	bl	80046f0 <csn_low>
	HAL_SPI_Transmit(&hspiX, &cmd, 1, spi_w_timeout);
 8004742:	4808      	ldr	r0, [pc, #32]	@ (8004764 <nrf24_w_reg+0x38>)
 8004744:	0021      	movs	r1, r4
 8004746:	0004      	movs	r4, r0
 8004748:	00bf      	lsls	r7, r7, #2
 800474a:	003b      	movs	r3, r7
 800474c:	2201      	movs	r2, #1
 800474e:	f7fe fce5 	bl	800311c <HAL_SPI_Transmit>
	HAL_SPI_Transmit(&hspiX, data, size, spi_w_timeout);
 8004752:	003b      	movs	r3, r7
 8004754:	0032      	movs	r2, r6
 8004756:	0029      	movs	r1, r5
 8004758:	0020      	movs	r0, r4
 800475a:	f7fe fcdf 	bl	800311c <HAL_SPI_Transmit>

	csn_high();
 800475e:	f7ff ffbd 	bl	80046dc <csn_high>
}
 8004762:	bdf7      	pop	{r0, r1, r2, r4, r5, r6, r7, pc}
 8004764:	200002a0 	.word	0x200002a0

08004768 <nrf24_r_reg>:

uint8_t nrf24_r_reg(uint8_t reg, uint8_t size){
 8004768:	b5f7      	push	{r0, r1, r2, r4, r5, r6, r7, lr}
	uint8_t cmd = R_REGISTER | reg;
 800476a:	466b      	mov	r3, sp
	uint8_t data = 0;
 800476c:	466a      	mov	r2, sp
	uint8_t cmd = R_REGISTER | reg;
 800476e:	1d9f      	adds	r7, r3, #6
 8004770:	7198      	strb	r0, [r3, #6]
	uint8_t data = 0;
 8004772:	2300      	movs	r3, #0

	csn_low();

	HAL_SPI_Transmit(&hspiX, &cmd, 1, spi_w_timeout);
 8004774:	26fa      	movs	r6, #250	@ 0xfa
uint8_t nrf24_r_reg(uint8_t reg, uint8_t size){
 8004776:	000d      	movs	r5, r1
	uint8_t data = 0;
 8004778:	71d3      	strb	r3, [r2, #7]
	csn_low();
 800477a:	f7ff ffb9 	bl	80046f0 <csn_low>
	HAL_SPI_Transmit(&hspiX, &cmd, 1, spi_w_timeout);
 800477e:	4c0a      	ldr	r4, [pc, #40]	@ (80047a8 <nrf24_r_reg+0x40>)
 8004780:	00b6      	lsls	r6, r6, #2
 8004782:	0033      	movs	r3, r6
 8004784:	0039      	movs	r1, r7
 8004786:	2201      	movs	r2, #1
 8004788:	0020      	movs	r0, r4
 800478a:	f7fe fcc7 	bl	800311c <HAL_SPI_Transmit>
	HAL_SPI_Receive(&hspiX, &data, size, spi_r_timeout);
 800478e:	4669      	mov	r1, sp
 8004790:	0033      	movs	r3, r6
 8004792:	002a      	movs	r2, r5
 8004794:	3107      	adds	r1, #7
 8004796:	0020      	movs	r0, r4
 8004798:	f7fe fed8 	bl	800354c <HAL_SPI_Receive>

	csn_high();
 800479c:	f7ff ff9e 	bl	80046dc <csn_high>

	return data;
 80047a0:	466b      	mov	r3, sp
 80047a2:	79d8      	ldrb	r0, [r3, #7]
}
 80047a4:	bdfe      	pop	{r1, r2, r3, r4, r5, r6, r7, pc}
 80047a6:	46c0      	nop			@ (mov r8, r8)
 80047a8:	200002a0 	.word	0x200002a0

080047ac <nrf24_w_spec_cmd>:

void nrf24_w_spec_cmd(uint8_t cmd){
 80047ac:	b507      	push	{r0, r1, r2, lr}
 80047ae:	466b      	mov	r3, sp
 80047b0:	1dd9      	adds	r1, r3, #7
	HAL_SPI_Transmit(&hspiX, &cmd, 1, spi_w_timeout);
 80047b2:	23fa      	movs	r3, #250	@ 0xfa
void nrf24_w_spec_cmd(uint8_t cmd){
 80047b4:	7008      	strb	r0, [r1, #0]
	HAL_SPI_Transmit(&hspiX, &cmd, 1, spi_w_timeout);
 80047b6:	2201      	movs	r2, #1
 80047b8:	4802      	ldr	r0, [pc, #8]	@ (80047c4 <nrf24_w_spec_cmd+0x18>)
 80047ba:	009b      	lsls	r3, r3, #2
 80047bc:	f7fe fcae 	bl	800311c <HAL_SPI_Transmit>
}
 80047c0:	bd07      	pop	{r0, r1, r2, pc}
 80047c2:	46c0      	nop			@ (mov r8, r8)
 80047c4:	200002a0 	.word	0x200002a0

080047c8 <nrf24_pwr_up>:

void nrf24_r_spec_reg(uint8_t *data, uint8_t size){
	HAL_SPI_Receive(&hspiX, data, size, spi_r_timeout);
}

void nrf24_pwr_up(void){
 80047c8:	b513      	push	{r0, r1, r4, lr}
	uint8_t data = 0;
 80047ca:	2400      	movs	r4, #0
 80047cc:	466b      	mov	r3, sp

	data = nrf24_r_reg(CONFIG, 1);
 80047ce:	2101      	movs	r1, #1
 80047d0:	0020      	movs	r0, r4
	uint8_t data = 0;
 80047d2:	71dc      	strb	r4, [r3, #7]
	data = nrf24_r_reg(CONFIG, 1);
 80047d4:	f7ff ffc8 	bl	8004768 <nrf24_r_reg>

	data |= (1 << PWR_UP);
 80047d8:	2302      	movs	r3, #2
 80047da:	466a      	mov	r2, sp
 80047dc:	4303      	orrs	r3, r0
 80047de:	71d3      	strb	r3, [r2, #7]

	nrf24_w_reg(CONFIG, &data, 1);
 80047e0:	466b      	mov	r3, sp
 80047e2:	2201      	movs	r2, #1
 80047e4:	0020      	movs	r0, r4
 80047e6:	1dd9      	adds	r1, r3, #7
 80047e8:	f7ff ffa0 	bl	800472c <nrf24_w_reg>
}
 80047ec:	bd13      	pop	{r0, r1, r4, pc}

080047ee <nrf24_tx_pwr>:
	data &= ~(1 << PWR_UP);

	nrf24_w_reg(CONFIG, &data, 1);
}

void nrf24_tx_pwr(uint8_t pwr){
 80047ee:	b513      	push	{r0, r1, r4, lr}
	uint8_t data = 0;
 80047f0:	2300      	movs	r3, #0
 80047f2:	466a      	mov	r2, sp
void nrf24_tx_pwr(uint8_t pwr){
 80047f4:	0004      	movs	r4, r0

	data = nrf24_r_reg(RF_SETUP, 1);
 80047f6:	2101      	movs	r1, #1
 80047f8:	2006      	movs	r0, #6
	uint8_t data = 0;
 80047fa:	71d3      	strb	r3, [r2, #7]
	data = nrf24_r_reg(RF_SETUP, 1);
 80047fc:	f7ff ffb4 	bl	8004768 <nrf24_r_reg>

	data &= 184;
 8004800:	2347      	movs	r3, #71	@ 0x47
 8004802:	4398      	bics	r0, r3

	data |= (pwr << RF_PWR);
 8004804:	466b      	mov	r3, sp
 8004806:	0064      	lsls	r4, r4, #1
 8004808:	4320      	orrs	r0, r4
 800480a:	71d8      	strb	r0, [r3, #7]

	nrf24_w_reg(RF_SETUP, &data, 1);
 800480c:	2201      	movs	r2, #1
 800480e:	2006      	movs	r0, #6
 8004810:	1dd9      	adds	r1, r3, #7
 8004812:	f7ff ff8b 	bl	800472c <nrf24_w_reg>
}
 8004816:	bd13      	pop	{r0, r1, r4, pc}

08004818 <nrf24_data_rate>:

void nrf24_data_rate(uint8_t bps){
 8004818:	b513      	push	{r0, r1, r4, lr}
	uint8_t data = 0;
 800481a:	2300      	movs	r3, #0
 800481c:	466a      	mov	r2, sp
void nrf24_data_rate(uint8_t bps){
 800481e:	0004      	movs	r4, r0

	data = nrf24_r_reg(RF_SETUP, 1);
 8004820:	2101      	movs	r1, #1
 8004822:	2006      	movs	r0, #6
	uint8_t data = 0;
 8004824:	71d3      	strb	r3, [r2, #7]
	data = nrf24_r_reg(RF_SETUP, 1);
 8004826:	f7ff ff9f 	bl	8004768 <nrf24_r_reg>

	data &= ~(1 << RF_DR_LOW) & ~(1 << RF_DR_HIGH);
 800482a:	23d7      	movs	r3, #215	@ 0xd7
 800482c:	4018      	ands	r0, r3

	if(bps == _2mbps){
		data |= (1 << RF_DR_HIGH);
 800482e:	3bcf      	subs	r3, #207	@ 0xcf
	if(bps == _2mbps){
 8004830:	2c01      	cmp	r4, #1
 8004832:	d002      	beq.n	800483a <nrf24_data_rate+0x22>
	}else if(bps == _250kbps){
 8004834:	2c02      	cmp	r4, #2
 8004836:	d101      	bne.n	800483c <nrf24_data_rate+0x24>
		data |= (1 << RF_DR_LOW);
 8004838:	2320      	movs	r3, #32
 800483a:	4318      	orrs	r0, r3
		data |= (1 << RF_DR_HIGH);
 800483c:	466b      	mov	r3, sp
 800483e:	71d8      	strb	r0, [r3, #7]
	}

	nrf24_w_reg(RF_SETUP, &data, 1);
 8004840:	2201      	movs	r2, #1
 8004842:	2006      	movs	r0, #6
 8004844:	1dd9      	adds	r1, r3, #7
 8004846:	f7ff ff71 	bl	800472c <nrf24_w_reg>
}
 800484a:	bd13      	pop	{r0, r1, r4, pc}

0800484c <nrf24_set_channel>:

void nrf24_set_channel(uint8_t ch){
 800484c:	b507      	push	{r0, r1, r2, lr}
 800484e:	466b      	mov	r3, sp
 8004850:	1dd9      	adds	r1, r3, #7
 8004852:	7008      	strb	r0, [r1, #0]
	nrf24_w_reg(RF_CH, &ch, 1);
 8004854:	2201      	movs	r2, #1
 8004856:	2005      	movs	r0, #5
 8004858:	f7ff ff68 	bl	800472c <nrf24_w_reg>
}
 800485c:	bd07      	pop	{r0, r1, r2, pc}

0800485e <nrf24_open_tx_pipe>:

void nrf24_open_tx_pipe(uint8_t *addr){
 800485e:	b510      	push	{r4, lr}
 8004860:	0001      	movs	r1, r0
	nrf24_w_reg(TX_ADDR, addr, 5);
 8004862:	2205      	movs	r2, #5
 8004864:	2010      	movs	r0, #16
 8004866:	f7ff ff61 	bl	800472c <nrf24_w_reg>
}
 800486a:	bd10      	pop	{r4, pc}

0800486c <nrf24_pipe_pld_size>:

void nrf24_pipe_pld_size(uint8_t pipe, uint8_t size){
 800486c:	b507      	push	{r0, r1, r2, lr}
 800486e:	466b      	mov	r3, sp
 8004870:	71d9      	strb	r1, [r3, #7]
	if(size > 32){
 8004872:	2920      	cmp	r1, #32
 8004874:	d902      	bls.n	800487c <nrf24_pipe_pld_size+0x10>
		size = 32;
 8004876:	2320      	movs	r3, #32
 8004878:	466a      	mov	r2, sp
 800487a:	71d3      	strb	r3, [r2, #7]
	}

	switch(pipe){
 800487c:	2805      	cmp	r0, #5
 800487e:	d80a      	bhi.n	8004896 <nrf24_pipe_pld_size+0x2a>
	case 4:
		nrf24_w_reg(RX_PW_P4, &size, 1);

		break;
	case 5:
		nrf24_w_reg(RX_PW_P5, &size, 1);
 8004880:	466b      	mov	r3, sp
 8004882:	2201      	movs	r2, #1
 8004884:	1dd9      	adds	r1, r3, #7
	switch(pipe){
 8004886:	f7fb fc3f 	bl	8000108 <__gnu_thumb1_case_uqi>
 800488a:	0703      	.short	0x0703
 800488c:	0f0d0b09 	.word	0x0f0d0b09
		nrf24_w_reg(RX_PW_P0, &size, 1);
 8004890:	2011      	movs	r0, #17
		nrf24_w_reg(RX_PW_P5, &size, 1);
 8004892:	f7ff ff4b 	bl	800472c <nrf24_w_reg>

		break;
	}
}
 8004896:	bd07      	pop	{r0, r1, r2, pc}
		nrf24_w_reg(RX_PW_P1, &size, 1);
 8004898:	2012      	movs	r0, #18
 800489a:	e7fa      	b.n	8004892 <nrf24_pipe_pld_size+0x26>
		nrf24_w_reg(RX_PW_P2, &size, 1);
 800489c:	2013      	movs	r0, #19
 800489e:	e7f8      	b.n	8004892 <nrf24_pipe_pld_size+0x26>
		nrf24_w_reg(RX_PW_P3, &size, 1);
 80048a0:	2014      	movs	r0, #20
 80048a2:	e7f6      	b.n	8004892 <nrf24_pipe_pld_size+0x26>
		nrf24_w_reg(RX_PW_P4, &size, 1);
 80048a4:	2015      	movs	r0, #21
 80048a6:	e7f4      	b.n	8004892 <nrf24_pipe_pld_size+0x26>
		nrf24_w_reg(RX_PW_P5, &size, 1);
 80048a8:	2016      	movs	r0, #22
 80048aa:	e7f2      	b.n	8004892 <nrf24_pipe_pld_size+0x26>

080048ac <nrf24_open_rx_pipe>:

void nrf24_open_rx_pipe(uint8_t pipe, uint8_t *addr){
 80048ac:	b573      	push	{r0, r1, r4, r5, r6, lr}

	uint8_t data = 0;
 80048ae:	466b      	mov	r3, sp
 80048b0:	1ddc      	adds	r4, r3, #7
 80048b2:	2300      	movs	r3, #0
void nrf24_open_rx_pipe(uint8_t pipe, uint8_t *addr){
 80048b4:	0006      	movs	r6, r0
 80048b6:	000d      	movs	r5, r1

	data = nrf24_r_reg(EN_RXADDR, 1);
 80048b8:	2002      	movs	r0, #2
 80048ba:	2101      	movs	r1, #1
	uint8_t data = 0;
 80048bc:	7023      	strb	r3, [r4, #0]
	data = nrf24_r_reg(EN_RXADDR, 1);
 80048be:	f7ff ff53 	bl	8004768 <nrf24_r_reg>
 80048c2:	7020      	strb	r0, [r4, #0]

	switch(pipe){
 80048c4:	2e05      	cmp	r6, #5
 80048c6:	d80e      	bhi.n	80048e6 <nrf24_open_rx_pipe+0x3a>
 80048c8:	0030      	movs	r0, r6
 80048ca:	f7fb fc1d 	bl	8000108 <__gnu_thumb1_case_uqi>
 80048ce:	1203      	.short	0x1203
 80048d0:	322a221a 	.word	0x322a221a
	case 0:
		nrf24_w_reg(RX_ADDR_P0, addr, 5);
 80048d4:	2205      	movs	r2, #5
 80048d6:	0029      	movs	r1, r5
 80048d8:	200a      	movs	r0, #10
 80048da:	f7ff ff27 	bl	800472c <nrf24_w_reg>

		data |= (1 << ERX_P0);
 80048de:	2301      	movs	r3, #1
 80048e0:	7822      	ldrb	r2, [r4, #0]
		data |= (1 << ERX_P4);
		break;
	case 5:
		nrf24_w_reg(RX_ADDR_P5, addr, 1);

		data |= (1 << ERX_P5);
 80048e2:	4313      	orrs	r3, r2
 80048e4:	7023      	strb	r3, [r4, #0]
		break;
	}

	nrf24_w_reg(EN_RXADDR, &data, 1);
 80048e6:	2201      	movs	r2, #1
 80048e8:	0021      	movs	r1, r4
 80048ea:	2002      	movs	r0, #2
 80048ec:	f7ff ff1e 	bl	800472c <nrf24_w_reg>
}
 80048f0:	bd73      	pop	{r0, r1, r4, r5, r6, pc}
		nrf24_w_reg(RX_ADDR_P1, addr, 5);
 80048f2:	2205      	movs	r2, #5
 80048f4:	0029      	movs	r1, r5
 80048f6:	200b      	movs	r0, #11
 80048f8:	f7ff ff18 	bl	800472c <nrf24_w_reg>
		data |= (1 << ERX_P1);
 80048fc:	2302      	movs	r3, #2
 80048fe:	7822      	ldrb	r2, [r4, #0]
 8004900:	e7ef      	b.n	80048e2 <nrf24_open_rx_pipe+0x36>
		nrf24_w_reg(RX_ADDR_P2, addr, 1);
 8004902:	2201      	movs	r2, #1
 8004904:	0029      	movs	r1, r5
 8004906:	200c      	movs	r0, #12
 8004908:	f7ff ff10 	bl	800472c <nrf24_w_reg>
		data |= (1 << ERX_P2);
 800490c:	2304      	movs	r3, #4
 800490e:	7822      	ldrb	r2, [r4, #0]
 8004910:	e7e7      	b.n	80048e2 <nrf24_open_rx_pipe+0x36>
		nrf24_w_reg(RX_ADDR_P3, addr, 1);
 8004912:	2201      	movs	r2, #1
 8004914:	0029      	movs	r1, r5
 8004916:	200d      	movs	r0, #13
 8004918:	f7ff ff08 	bl	800472c <nrf24_w_reg>
		data |= (1 << ERX_P3);
 800491c:	2308      	movs	r3, #8
 800491e:	7822      	ldrb	r2, [r4, #0]
 8004920:	e7df      	b.n	80048e2 <nrf24_open_rx_pipe+0x36>
		nrf24_w_reg(RX_ADDR_P4, addr, 1);
 8004922:	2201      	movs	r2, #1
 8004924:	0029      	movs	r1, r5
 8004926:	200e      	movs	r0, #14
 8004928:	f7ff ff00 	bl	800472c <nrf24_w_reg>
		data |= (1 << ERX_P4);
 800492c:	2310      	movs	r3, #16
 800492e:	7822      	ldrb	r2, [r4, #0]
 8004930:	e7d7      	b.n	80048e2 <nrf24_open_rx_pipe+0x36>
		nrf24_w_reg(RX_ADDR_P5, addr, 1);
 8004932:	2201      	movs	r2, #1
 8004934:	0029      	movs	r1, r5
 8004936:	200f      	movs	r0, #15
 8004938:	f7ff fef8 	bl	800472c <nrf24_w_reg>
		data |= (1 << ERX_P5);
 800493c:	2320      	movs	r3, #32
 800493e:	7822      	ldrb	r2, [r4, #0]
 8004940:	e7cf      	b.n	80048e2 <nrf24_open_rx_pipe+0x36>

08004942 <nrf24_set_crc>:
	data &= ~(1 << pipe);

	nrf24_w_reg(EN_RXADDR, &data, 1);
}

void nrf24_set_crc(uint8_t en_crc, uint8_t crc0){
 8004942:	b537      	push	{r0, r1, r2, r4, r5, lr}
 8004944:	0004      	movs	r4, r0
 8004946:	000d      	movs	r5, r1
	uint8_t data = nrf24_r_reg(CONFIG, 1);
 8004948:	2000      	movs	r0, #0
 800494a:	2101      	movs	r1, #1
 800494c:	f7ff ff0c 	bl	8004768 <nrf24_r_reg>

	data &= ~(1 << EN_CRC) & ~(1 << CRCO);

	data |= (en_crc << EN_CRC) | (crc0 << CRCO);
 8004950:	466b      	mov	r3, sp
 8004952:	1dd9      	adds	r1, r3, #7
	data &= ~(1 << EN_CRC) & ~(1 << CRCO);
 8004954:	230c      	movs	r3, #12
	data |= (en_crc << EN_CRC) | (crc0 << CRCO);
 8004956:	00ad      	lsls	r5, r5, #2
 8004958:	00e4      	lsls	r4, r4, #3
	data &= ~(1 << EN_CRC) & ~(1 << CRCO);
 800495a:	4398      	bics	r0, r3
	data |= (en_crc << EN_CRC) | (crc0 << CRCO);
 800495c:	432c      	orrs	r4, r5
 800495e:	4304      	orrs	r4, r0

	nrf24_w_reg(CONFIG, &data, 1);
 8004960:	2201      	movs	r2, #1
 8004962:	2000      	movs	r0, #0
	data |= (en_crc << EN_CRC) | (crc0 << CRCO);
 8004964:	700c      	strb	r4, [r1, #0]
	nrf24_w_reg(CONFIG, &data, 1);
 8004966:	f7ff fee1 	bl	800472c <nrf24_w_reg>
}
 800496a:	bd37      	pop	{r0, r1, r2, r4, r5, pc}

0800496c <nrf24_set_addr_width>:

void nrf24_set_addr_width(uint8_t bytes){
 800496c:	b507      	push	{r0, r1, r2, lr}
 800496e:	466b      	mov	r3, sp
 8004970:	1dd9      	adds	r1, r3, #7
	bytes -= 2;
 8004972:	3802      	subs	r0, #2
 8004974:	7008      	strb	r0, [r1, #0]
	nrf24_w_reg(SETUP_AW, &bytes, 1);
 8004976:	2201      	movs	r2, #1
 8004978:	2003      	movs	r0, #3
 800497a:	f7ff fed7 	bl	800472c <nrf24_w_reg>
}
 800497e:	bd07      	pop	{r0, r1, r2, pc}

08004980 <nrf24_flush_tx>:

void nrf24_flush_tx(void){
 8004980:	b510      	push	{r4, lr}
	csn_low();
 8004982:	f7ff feb5 	bl	80046f0 <csn_low>
	nrf24_w_spec_cmd(FLUSH_TX);
 8004986:	20e1      	movs	r0, #225	@ 0xe1
 8004988:	f7ff ff10 	bl	80047ac <nrf24_w_spec_cmd>
	csn_high();
 800498c:	f7ff fea6 	bl	80046dc <csn_high>
}
 8004990:	bd10      	pop	{r4, pc}

08004992 <nrf24_flush_rx>:

void nrf24_flush_rx(void){
 8004992:	b510      	push	{r4, lr}
	csn_low();
 8004994:	f7ff feac 	bl	80046f0 <csn_low>
	nrf24_w_spec_cmd(FLUSH_RX);
 8004998:	20e2      	movs	r0, #226	@ 0xe2
 800499a:	f7ff ff07 	bl	80047ac <nrf24_w_spec_cmd>
	csn_high();
 800499e:	f7ff fe9d 	bl	80046dc <csn_high>
}
 80049a2:	bd10      	pop	{r4, pc}

080049a4 <nrf24_r_status>:

uint8_t nrf24_r_status(void){
 80049a4:	b51f      	push	{r0, r1, r2, r3, r4, lr}
	uint8_t data = 0;
 80049a6:	2300      	movs	r3, #0
 80049a8:	466a      	mov	r2, sp
	uint8_t cmd = NOP_CMD;
 80049aa:	240f      	movs	r4, #15
	uint8_t data = 0;
 80049ac:	7393      	strb	r3, [r2, #14]
	uint8_t cmd = NOP_CMD;
 80049ae:	446c      	add	r4, sp
 80049b0:	33ff      	adds	r3, #255	@ 0xff
 80049b2:	7023      	strb	r3, [r4, #0]

	csn_low();
 80049b4:	f7ff fe9c 	bl	80046f0 <csn_low>
	HAL_SPI_TransmitReceive(&hspiX, &cmd, &data, 1, spi_rw_timeout);
 80049b8:	23fa      	movs	r3, #250	@ 0xfa
 80049ba:	220e      	movs	r2, #14
 80049bc:	009b      	lsls	r3, r3, #2
 80049be:	0021      	movs	r1, r4
 80049c0:	9300      	str	r3, [sp, #0]
 80049c2:	446a      	add	r2, sp
 80049c4:	2301      	movs	r3, #1
 80049c6:	4804      	ldr	r0, [pc, #16]	@ (80049d8 <nrf24_r_status+0x34>)
 80049c8:	f7fe fc82 	bl	80032d0 <HAL_SPI_TransmitReceive>
	csn_high();
 80049cc:	f7ff fe86 	bl	80046dc <csn_high>

	return data;
 80049d0:	466b      	mov	r3, sp
 80049d2:	7b98      	ldrb	r0, [r3, #14]
}
 80049d4:	b004      	add	sp, #16
 80049d6:	bd10      	pop	{r4, pc}
 80049d8:	200002a0 	.word	0x200002a0

080049dc <nrf24_clear_rx_dr>:

void nrf24_clear_rx_dr(void){
 80049dc:	b507      	push	{r0, r1, r2, lr}
	uint8_t data = 0;
 80049de:	2300      	movs	r3, #0
 80049e0:	466a      	mov	r2, sp
 80049e2:	71d3      	strb	r3, [r2, #7]

	data = nrf24_r_status();
 80049e4:	f7ff ffde 	bl	80049a4 <nrf24_r_status>

	data |= (1 << RX_DR);
 80049e8:	2340      	movs	r3, #64	@ 0x40
 80049ea:	466a      	mov	r2, sp
 80049ec:	4303      	orrs	r3, r0
 80049ee:	71d3      	strb	r3, [r2, #7]

	nrf24_w_reg(STATUS, &data, 1);
 80049f0:	466b      	mov	r3, sp
 80049f2:	2201      	movs	r2, #1
 80049f4:	2007      	movs	r0, #7
 80049f6:	1dd9      	adds	r1, r3, #7
 80049f8:	f7ff fe98 	bl	800472c <nrf24_w_reg>
}
 80049fc:	bd07      	pop	{r0, r1, r2, pc}

080049fe <nrf24_clear_tx_ds>:

void nrf24_clear_tx_ds(void){
 80049fe:	b507      	push	{r0, r1, r2, lr}
	uint8_t data = 0;
 8004a00:	2300      	movs	r3, #0
 8004a02:	466a      	mov	r2, sp
 8004a04:	71d3      	strb	r3, [r2, #7]

	data = nrf24_r_status();
 8004a06:	f7ff ffcd 	bl	80049a4 <nrf24_r_status>

	data |= (1 << TX_DS);
 8004a0a:	2320      	movs	r3, #32
 8004a0c:	466a      	mov	r2, sp
 8004a0e:	4303      	orrs	r3, r0
 8004a10:	71d3      	strb	r3, [r2, #7]

    nrf24_w_reg(STATUS, &data, 1);
 8004a12:	466b      	mov	r3, sp
 8004a14:	2201      	movs	r2, #1
 8004a16:	2007      	movs	r0, #7
 8004a18:	1dd9      	adds	r1, r3, #7
 8004a1a:	f7ff fe87 	bl	800472c <nrf24_w_reg>
}
 8004a1e:	bd07      	pop	{r0, r1, r2, pc}

08004a20 <nrf24_clear_max_rt>:

void nrf24_clear_max_rt(void){
 8004a20:	b507      	push	{r0, r1, r2, lr}
	uint8_t data = 0;
 8004a22:	2300      	movs	r3, #0
 8004a24:	466a      	mov	r2, sp
 8004a26:	71d3      	strb	r3, [r2, #7]

	data = nrf24_r_status();
 8004a28:	f7ff ffbc 	bl	80049a4 <nrf24_r_status>

	data |= (1 << MAX_RT);
 8004a2c:	2310      	movs	r3, #16
 8004a2e:	466a      	mov	r2, sp
 8004a30:	4303      	orrs	r3, r0
 8004a32:	71d3      	strb	r3, [r2, #7]

    nrf24_w_reg(STATUS, &data, 1);
 8004a34:	466b      	mov	r3, sp
 8004a36:	2201      	movs	r2, #1
 8004a38:	2007      	movs	r0, #7
 8004a3a:	1dd9      	adds	r1, r3, #7
 8004a3c:	f7ff fe76 	bl	800472c <nrf24_w_reg>
}
 8004a40:	bd07      	pop	{r0, r1, r2, pc}

08004a42 <nrf24_listen>:
	csn_high();

	return width;
}

void nrf24_listen(void){
 8004a42:	b513      	push	{r0, r1, r4, lr}
	uint8_t data = 0;
 8004a44:	2400      	movs	r4, #0
 8004a46:	466b      	mov	r3, sp

	data = nrf24_r_reg(CONFIG, 1);
 8004a48:	2101      	movs	r1, #1
 8004a4a:	0020      	movs	r0, r4
	uint8_t data = 0;
 8004a4c:	71dc      	strb	r4, [r3, #7]
	data = nrf24_r_reg(CONFIG, 1);
 8004a4e:	f7ff fe8b 	bl	8004768 <nrf24_r_reg>

	data |= (1 << PRIM_RX);
 8004a52:	2201      	movs	r2, #1
 8004a54:	466b      	mov	r3, sp
 8004a56:	4310      	orrs	r0, r2
 8004a58:	71d8      	strb	r0, [r3, #7]

	nrf24_w_reg(CONFIG, &data, 1);
 8004a5a:	1dd9      	adds	r1, r3, #7
 8004a5c:	0020      	movs	r0, r4
 8004a5e:	f7ff fe65 	bl	800472c <nrf24_w_reg>

	ce_high();
 8004a62:	f7ff fe4f 	bl	8004704 <ce_high>
}
 8004a66:	bd13      	pop	{r0, r1, r4, pc}

08004a68 <nrf24_dpl>:
	data &= ~(1 << PRIM_RX);

	nrf24_w_reg(CONFIG, &data, 1);
}

void nrf24_dpl(uint8_t en){
 8004a68:	b513      	push	{r0, r1, r4, lr}
 8004a6a:	0004      	movs	r4, r0
	uint8_t feature = nrf24_r_reg(FEATURE, 1);
 8004a6c:	2101      	movs	r1, #1
 8004a6e:	201d      	movs	r0, #29
 8004a70:	f7ff fe7a 	bl	8004768 <nrf24_r_reg>

	if(en == enable){
 8004a74:	2204      	movs	r2, #4
		feature |= (1 << EN_DPL);
	}else{
		feature &= ~(1 << EN_DPL);
 8004a76:	0003      	movs	r3, r0
 8004a78:	4393      	bics	r3, r2
 8004a7a:	b2db      	uxtb	r3, r3
	if(en == enable){
 8004a7c:	2c01      	cmp	r4, #1
 8004a7e:	d101      	bne.n	8004a84 <nrf24_dpl+0x1c>
		feature |= (1 << EN_DPL);
 8004a80:	4302      	orrs	r2, r0
 8004a82:	b2d3      	uxtb	r3, r2
 8004a84:	466a      	mov	r2, sp
	}

	nrf24_w_reg(FEATURE, &feature, 1);
}
 8004a86:	1dd1      	adds	r1, r2, #7
	nrf24_w_reg(FEATURE, &feature, 1);
 8004a88:	201d      	movs	r0, #29
 8004a8a:	2201      	movs	r2, #1
 8004a8c:	700b      	strb	r3, [r1, #0]
 8004a8e:	f7ff fe4d 	bl	800472c <nrf24_w_reg>
}
 8004a92:	bd13      	pop	{r0, r1, r4, pc}

08004a94 <nrf24_set_rx_dpl>:

void nrf24_set_rx_dpl(uint8_t pipe, uint8_t en){
 8004a94:	b537      	push	{r0, r1, r2, r4, r5, lr}
 8004a96:	0005      	movs	r5, r0
 8004a98:	000c      	movs	r4, r1

	uint8_t dynpd = nrf24_r_reg(DYNPD, 1);
 8004a9a:	201c      	movs	r0, #28
 8004a9c:	2101      	movs	r1, #1
 8004a9e:	f7ff fe63 	bl	8004768 <nrf24_r_reg>

	if(pipe > 5){
 8004aa2:	1c2b      	adds	r3, r5, #0
 8004aa4:	2d05      	cmp	r5, #5
 8004aa6:	d900      	bls.n	8004aaa <nrf24_set_rx_dpl+0x16>
 8004aa8:	2305      	movs	r3, #5
		pipe = 5;
	}

	if(en){
		dynpd |= (1 << pipe);
 8004aaa:	2201      	movs	r2, #1
 8004aac:	b2db      	uxtb	r3, r3
 8004aae:	409a      	lsls	r2, r3
	}else{
		dynpd &= ~(1 << pipe);
 8004ab0:	0003      	movs	r3, r0
 8004ab2:	4393      	bics	r3, r2
 8004ab4:	b2db      	uxtb	r3, r3
	if(en){
 8004ab6:	2c00      	cmp	r4, #0
 8004ab8:	d001      	beq.n	8004abe <nrf24_set_rx_dpl+0x2a>
		dynpd |= (1 << pipe);
 8004aba:	4310      	orrs	r0, r2
 8004abc:	b2c3      	uxtb	r3, r0
 8004abe:	466a      	mov	r2, sp
	}

	nrf24_w_reg(DYNPD, &dynpd, 1);
}
 8004ac0:	1dd1      	adds	r1, r2, #7
	nrf24_w_reg(DYNPD, &dynpd, 1);
 8004ac2:	201c      	movs	r0, #28
 8004ac4:	2201      	movs	r2, #1
 8004ac6:	700b      	strb	r3, [r1, #0]
 8004ac8:	f7ff fe30 	bl	800472c <nrf24_w_reg>
}
 8004acc:	bd37      	pop	{r0, r1, r2, r4, r5, pc}

08004ace <nrf24_auto_ack_all>:
	}

	nrf24_w_reg(EN_AA, &enaa, 1);
}

void nrf24_auto_ack_all(uint8_t ack){
 8004ace:	b513      	push	{r0, r1, r4, lr}
	uint8_t enaa = nrf24_r_reg(EN_AA, 1);
 8004ad0:	2101      	movs	r1, #1
void nrf24_auto_ack_all(uint8_t ack){
 8004ad2:	0004      	movs	r4, r0
	uint8_t enaa = nrf24_r_reg(EN_AA, 1);
 8004ad4:	0008      	movs	r0, r1
 8004ad6:	f7ff fe47 	bl	8004768 <nrf24_r_reg>

	if(ack){
 8004ada:	2c00      	cmp	r4, #0
 8004adc:	d000      	beq.n	8004ae0 <nrf24_auto_ack_all+0x12>
		enaa = 63;
 8004ade:	243f      	movs	r4, #63	@ 0x3f
	}else{
		enaa = 0;
	}

	nrf24_w_reg(EN_AA, &enaa, 1);
}
 8004ae0:	466b      	mov	r3, sp
	nrf24_w_reg(EN_AA, &enaa, 1);
 8004ae2:	2201      	movs	r2, #1
 8004ae4:	1dd9      	adds	r1, r3, #7
 8004ae6:	0010      	movs	r0, r2
 8004ae8:	700c      	strb	r4, [r1, #0]
 8004aea:	f7ff fe1f 	bl	800472c <nrf24_w_reg>
}
 8004aee:	bd13      	pop	{r0, r1, r4, pc}

08004af0 <nrf24_en_ack_pld>:

void nrf24_en_ack_pld(uint8_t en){
 8004af0:	b513      	push	{r0, r1, r4, lr}
 8004af2:	0004      	movs	r4, r0
	uint8_t feature = nrf24_r_reg(FEATURE, 1);
 8004af4:	2101      	movs	r1, #1
 8004af6:	201d      	movs	r0, #29
 8004af8:	f7ff fe36 	bl	8004768 <nrf24_r_reg>

	if(en){
 8004afc:	2202      	movs	r2, #2
		feature |= (1 << EN_ACK_PAY);
	}else{
		feature &= ~(1 << EN_ACK_PAY);
 8004afe:	0003      	movs	r3, r0
 8004b00:	4393      	bics	r3, r2
 8004b02:	b2db      	uxtb	r3, r3
	if(en){
 8004b04:	2c00      	cmp	r4, #0
 8004b06:	d001      	beq.n	8004b0c <nrf24_en_ack_pld+0x1c>
		feature |= (1 << EN_ACK_PAY);
 8004b08:	4302      	orrs	r2, r0
 8004b0a:	b2d3      	uxtb	r3, r2
 8004b0c:	466a      	mov	r2, sp
	}

	nrf24_w_reg(FEATURE, &feature, 1);
}
 8004b0e:	1dd1      	adds	r1, r2, #7
	nrf24_w_reg(FEATURE, &feature, 1);
 8004b10:	201d      	movs	r0, #29
 8004b12:	2201      	movs	r2, #1
 8004b14:	700b      	strb	r3, [r1, #0]
 8004b16:	f7ff fe09 	bl	800472c <nrf24_w_reg>
}
 8004b1a:	bd13      	pop	{r0, r1, r4, pc}

08004b1c <nrf24_auto_retr_delay>:
	}

	nrf24_w_reg(FEATURE, &feature, 1);
}

void nrf24_auto_retr_delay(uint8_t delay){
 8004b1c:	b513      	push	{r0, r1, r4, lr}
	uint8_t data = nrf24_r_reg(SETUP_RETR, 1);
 8004b1e:	2101      	movs	r1, #1
void nrf24_auto_retr_delay(uint8_t delay){
 8004b20:	0004      	movs	r4, r0
	uint8_t data = nrf24_r_reg(SETUP_RETR, 1);
 8004b22:	2004      	movs	r0, #4
 8004b24:	f7ff fe20 	bl	8004768 <nrf24_r_reg>

	data &= 15;

	data |= (delay << ARD);
 8004b28:	466b      	mov	r3, sp
 8004b2a:	1dd9      	adds	r1, r3, #7
	data &= 15;
 8004b2c:	230f      	movs	r3, #15
	data |= (delay << ARD);
 8004b2e:	0124      	lsls	r4, r4, #4
	data &= 15;
 8004b30:	4018      	ands	r0, r3
	data |= (delay << ARD);
 8004b32:	4320      	orrs	r0, r4
 8004b34:	7008      	strb	r0, [r1, #0]

	nrf24_w_reg(SETUP_RETR, &data, 1);
 8004b36:	2201      	movs	r2, #1
 8004b38:	2004      	movs	r0, #4
 8004b3a:	f7ff fdf7 	bl	800472c <nrf24_w_reg>
}
 8004b3e:	bd13      	pop	{r0, r1, r4, pc}

08004b40 <nrf24_auto_retr_limit>:

void nrf24_auto_retr_limit(uint8_t limit){
 8004b40:	b513      	push	{r0, r1, r4, lr}
	uint8_t data = nrf24_r_reg(SETUP_RETR, 1);
 8004b42:	2101      	movs	r1, #1
void nrf24_auto_retr_limit(uint8_t limit){
 8004b44:	0004      	movs	r4, r0
	uint8_t data = nrf24_r_reg(SETUP_RETR, 1);
 8004b46:	2004      	movs	r0, #4
 8004b48:	f7ff fe0e 	bl	8004768 <nrf24_r_reg>

	data &= 240;

	data |= (limit << ARC);
 8004b4c:	466b      	mov	r3, sp
 8004b4e:	1dd9      	adds	r1, r3, #7
	data &= 240;
 8004b50:	230f      	movs	r3, #15
 8004b52:	4398      	bics	r0, r3
	data |= (limit << ARC);
 8004b54:	4304      	orrs	r4, r0

	nrf24_w_reg(SETUP_RETR, &data, 1);
 8004b56:	2201      	movs	r2, #1
 8004b58:	2004      	movs	r0, #4
	data |= (limit << ARC);
 8004b5a:	700c      	strb	r4, [r1, #0]
	nrf24_w_reg(SETUP_RETR, &data, 1);
 8004b5c:	f7ff fde6 	bl	800472c <nrf24_w_reg>
}
 8004b60:	bd13      	pop	{r0, r1, r4, pc}

08004b62 <nrf24_data_available>:

uint8_t nrf24_carrier_detect(void){
	return nrf24_r_reg(RPD, 1);
}

uint8_t nrf24_data_available(void){
 8004b62:	b510      	push	{r4, lr}

 	uint8_t reg_dt = nrf24_r_reg(FIFO_STATUS, 1);
 8004b64:	2101      	movs	r1, #1
 8004b66:	2017      	movs	r0, #23
 8004b68:	f7ff fdfe 	bl	8004768 <nrf24_r_reg>
	if(!(reg_dt & (1 << RX_EMPTY))){
		return 1;
	}

	return 0;
}
 8004b6c:	2301      	movs	r3, #1
 8004b6e:	4383      	bics	r3, r0
 8004b70:	0018      	movs	r0, r3
 8004b72:	bd10      	pop	{r4, pc}

08004b74 <nrf24_receive>:

void nrf24_receive(uint8_t *data, uint8_t size){
 8004b74:	b5f7      	push	{r0, r1, r2, r4, r5, r6, r7, lr}
	uint8_t cmd = R_RX_PAYLOAD;
 8004b76:	466b      	mov	r3, sp
 8004b78:	1ddc      	adds	r4, r3, #7
 8004b7a:	2361      	movs	r3, #97	@ 0x61
void nrf24_receive(uint8_t *data, uint8_t size){
 8004b7c:	0005      	movs	r5, r0
 8004b7e:	000e      	movs	r6, r1
	uint8_t cmd = R_RX_PAYLOAD;
 8004b80:	7023      	strb	r3, [r4, #0]

	csn_low();
	HAL_SPI_Transmit(&hspiX, &cmd, 1, spi_w_timeout);
 8004b82:	27fa      	movs	r7, #250	@ 0xfa
	csn_low();
 8004b84:	f7ff fdb4 	bl	80046f0 <csn_low>
	HAL_SPI_Transmit(&hspiX, &cmd, 1, spi_w_timeout);
 8004b88:	4809      	ldr	r0, [pc, #36]	@ (8004bb0 <nrf24_receive+0x3c>)
 8004b8a:	0021      	movs	r1, r4
 8004b8c:	0004      	movs	r4, r0
 8004b8e:	00bf      	lsls	r7, r7, #2
 8004b90:	003b      	movs	r3, r7
 8004b92:	2201      	movs	r2, #1
 8004b94:	f7fe fac2 	bl	800311c <HAL_SPI_Transmit>
	HAL_SPI_Receive(&hspiX, data, size, spi_r_timeout);
 8004b98:	003b      	movs	r3, r7
 8004b9a:	0032      	movs	r2, r6
 8004b9c:	0029      	movs	r1, r5
 8004b9e:	0020      	movs	r0, r4
 8004ba0:	f7fe fcd4 	bl	800354c <HAL_SPI_Receive>
	csn_high();
 8004ba4:	f7ff fd9a 	bl	80046dc <csn_high>

	nrf24_clear_rx_dr();
 8004ba8:	f7ff ff18 	bl	80049dc <nrf24_clear_rx_dr>
}
 8004bac:	bdf7      	pop	{r0, r1, r2, r4, r5, r6, r7, pc}
 8004bae:	46c0      	nop			@ (mov r8, r8)
 8004bb0:	200002a0 	.word	0x200002a0

08004bb4 <nrf24_init>:
	}

	ce_high();
}

void nrf24_init(void){
 8004bb4:	b510      	push	{r4, lr}

	nrf24_pwr_up();
 8004bb6:	f7ff fe07 	bl	80047c8 <nrf24_pwr_up>

	nrf24_flush_tx();
 8004bba:	f7ff fee1 	bl	8004980 <nrf24_flush_tx>
	nrf24_flush_rx();
 8004bbe:	f7ff fee8 	bl	8004992 <nrf24_flush_rx>

	nrf24_clear_rx_dr();
 8004bc2:	f7ff ff0b 	bl	80049dc <nrf24_clear_rx_dr>
	nrf24_clear_tx_ds();
 8004bc6:	f7ff ff1a 	bl	80049fe <nrf24_clear_tx_ds>
	nrf24_clear_max_rt();
 8004bca:	f7ff ff29 	bl	8004a20 <nrf24_clear_max_rt>
}
 8004bce:	bd10      	pop	{r4, pc}

08004bd0 <ssd1306_WriteCommand>:
void ssd1306_Reset(void) {
    /* for I2C - do nothing */
}

// Send a byte to the command register
void ssd1306_WriteCommand(uint8_t byte) {
 8004bd0:	b57f      	push	{r0, r1, r2, r3, r4, r5, r6, lr}
 8004bd2:	2217      	movs	r2, #23
    HAL_I2C_Mem_Write(&SSD1306_I2C_PORT, SSD1306_I2C_ADDR, 0x00, 1, &byte, 1, HAL_MAX_DELAY);
 8004bd4:	2301      	movs	r3, #1
void ssd1306_WriteCommand(uint8_t byte) {
 8004bd6:	446a      	add	r2, sp
    HAL_I2C_Mem_Write(&SSD1306_I2C_PORT, SSD1306_I2C_ADDR, 0x00, 1, &byte, 1, HAL_MAX_DELAY);
 8004bd8:	425b      	negs	r3, r3
void ssd1306_WriteCommand(uint8_t byte) {
 8004bda:	7010      	strb	r0, [r2, #0]
    HAL_I2C_Mem_Write(&SSD1306_I2C_PORT, SSD1306_I2C_ADDR, 0x00, 1, &byte, 1, HAL_MAX_DELAY);
 8004bdc:	9302      	str	r3, [sp, #8]
 8004bde:	3302      	adds	r3, #2
 8004be0:	9200      	str	r2, [sp, #0]
 8004be2:	2178      	movs	r1, #120	@ 0x78
 8004be4:	2200      	movs	r2, #0
 8004be6:	9301      	str	r3, [sp, #4]
 8004be8:	4802      	ldr	r0, [pc, #8]	@ (8004bf4 <ssd1306_WriteCommand+0x24>)
 8004bea:	f7fd fc4f 	bl	800248c <HAL_I2C_Mem_Write>
}
 8004bee:	b007      	add	sp, #28
 8004bf0:	bd00      	pop	{pc}
 8004bf2:	46c0      	nop			@ (mov r8, r8)
 8004bf4:	20000304 	.word	0x20000304

08004bf8 <ssd1306_WriteData>:

// Send data
void ssd1306_WriteData(uint8_t* buffer, size_t buff_size) {
 8004bf8:	b51f      	push	{r0, r1, r2, r3, r4, lr}
    HAL_I2C_Mem_Write(&SSD1306_I2C_PORT, SSD1306_I2C_ADDR, 0x40, 1, buffer, buff_size, HAL_MAX_DELAY);
 8004bfa:	2301      	movs	r3, #1
 8004bfc:	4c06      	ldr	r4, [pc, #24]	@ (8004c18 <ssd1306_WriteData+0x20>)
 8004bfe:	425b      	negs	r3, r3
 8004c00:	b289      	uxth	r1, r1
 8004c02:	9302      	str	r3, [sp, #8]
 8004c04:	9101      	str	r1, [sp, #4]
 8004c06:	9000      	str	r0, [sp, #0]
 8004c08:	2240      	movs	r2, #64	@ 0x40
 8004c0a:	2178      	movs	r1, #120	@ 0x78
 8004c0c:	0020      	movs	r0, r4
 8004c0e:	3302      	adds	r3, #2
 8004c10:	f7fd fc3c 	bl	800248c <HAL_I2C_Mem_Write>
}
 8004c14:	bd1f      	pop	{r0, r1, r2, r3, r4, pc}
 8004c16:	46c0      	nop			@ (mov r8, r8)
 8004c18:	20000304 	.word	0x20000304

08004c1c <ssd1306_Fill>:
    SSD1306.Initialized = 1;
}

/* Fill the whole screen with the given color */
void ssd1306_Fill(SSD1306_COLOR color) {
    memset(SSD1306_Buffer, (color == Black) ? 0x00 : 0xFF, sizeof(SSD1306_Buffer));
 8004c1c:	1e43      	subs	r3, r0, #1
 8004c1e:	4198      	sbcs	r0, r3
 8004c20:	2280      	movs	r2, #128	@ 0x80
void ssd1306_Fill(SSD1306_COLOR color) {
 8004c22:	b510      	push	{r4, lr}
    memset(SSD1306_Buffer, (color == Black) ? 0x00 : 0xFF, sizeof(SSD1306_Buffer));
 8004c24:	4241      	negs	r1, r0
 8004c26:	b2c9      	uxtb	r1, r1
 8004c28:	4802      	ldr	r0, [pc, #8]	@ (8004c34 <ssd1306_Fill+0x18>)
 8004c2a:	0092      	lsls	r2, r2, #2
 8004c2c:	f000 fbaa 	bl	8005384 <memset>
}
 8004c30:	bd10      	pop	{r4, pc}
 8004c32:	46c0      	nop			@ (mov r8, r8)
 8004c34:	200005ca 	.word	0x200005ca

08004c38 <ssd1306_UpdateScreen>:

/* Write the screenbuffer with changed to the screen */
void ssd1306_UpdateScreen(void) {
 8004c38:	b570      	push	{r4, r5, r6, lr}
 8004c3a:	24b0      	movs	r4, #176	@ 0xb0
 8004c3c:	4d09      	ldr	r5, [pc, #36]	@ (8004c64 <ssd1306_UpdateScreen+0x2c>)
    //
    //  * 32px   ==  4 pages
    //  * 64px   ==  8 pages
    //  * 128px  ==  16 pages
    for(uint8_t i = 0; i < SSD1306_HEIGHT/8; i++) {
        ssd1306_WriteCommand(0xB0 + i); // Set the current RAM page address.
 8004c3e:	0020      	movs	r0, r4
 8004c40:	f7ff ffc6 	bl	8004bd0 <ssd1306_WriteCommand>
        ssd1306_WriteCommand(0x00 + SSD1306_X_OFFSET_LOWER);
 8004c44:	2000      	movs	r0, #0
 8004c46:	f7ff ffc3 	bl	8004bd0 <ssd1306_WriteCommand>
    for(uint8_t i = 0; i < SSD1306_HEIGHT/8; i++) {
 8004c4a:	3401      	adds	r4, #1
        ssd1306_WriteCommand(0x10 + SSD1306_X_OFFSET_UPPER);
 8004c4c:	2010      	movs	r0, #16
 8004c4e:	f7ff ffbf 	bl	8004bd0 <ssd1306_WriteCommand>
    for(uint8_t i = 0; i < SSD1306_HEIGHT/8; i++) {
 8004c52:	b2e4      	uxtb	r4, r4
        ssd1306_WriteData(&SSD1306_Buffer[SSD1306_WIDTH*i],SSD1306_WIDTH);
 8004c54:	0028      	movs	r0, r5
 8004c56:	2180      	movs	r1, #128	@ 0x80
 8004c58:	f7ff ffce 	bl	8004bf8 <ssd1306_WriteData>
    for(uint8_t i = 0; i < SSD1306_HEIGHT/8; i++) {
 8004c5c:	3580      	adds	r5, #128	@ 0x80
 8004c5e:	2cb4      	cmp	r4, #180	@ 0xb4
 8004c60:	d1ed      	bne.n	8004c3e <ssd1306_UpdateScreen+0x6>
    }
}
 8004c62:	bd70      	pop	{r4, r5, r6, pc}
 8004c64:	200005ca 	.word	0x200005ca

08004c68 <ssd1306_DrawPixel>:
 * X => X Coordinate
 * Y => Y Coordinate
 * color => Pixel color
 */
void ssd1306_DrawPixel(uint8_t x, uint8_t y, SSD1306_COLOR color) {
    if(x >= SSD1306_WIDTH || y >= SSD1306_HEIGHT) {
 8004c68:	b243      	sxtb	r3, r0
void ssd1306_DrawPixel(uint8_t x, uint8_t y, SSD1306_COLOR color) {
 8004c6a:	b530      	push	{r4, r5, lr}
    if(x >= SSD1306_WIDTH || y >= SSD1306_HEIGHT) {
 8004c6c:	2b00      	cmp	r3, #0
 8004c6e:	db0e      	blt.n	8004c8e <ssd1306_DrawPixel+0x26>
 8004c70:	291f      	cmp	r1, #31
 8004c72:	d80c      	bhi.n	8004c8e <ssd1306_DrawPixel+0x26>
        return;
    }
   
    // Draw in the right color
    if(color == White) {
        SSD1306_Buffer[x + (y / 8) * SSD1306_WIDTH] |= 1 << (y % 8);
 8004c74:	2407      	movs	r4, #7
 8004c76:	08cb      	lsrs	r3, r1, #3
 8004c78:	01db      	lsls	r3, r3, #7
 8004c7a:	4d06      	ldr	r5, [pc, #24]	@ (8004c94 <ssd1306_DrawPixel+0x2c>)
 8004c7c:	4021      	ands	r1, r4
 8004c7e:	1818      	adds	r0, r3, r0
 8004c80:	3c06      	subs	r4, #6
 8004c82:	408c      	lsls	r4, r1
 8004c84:	5c2b      	ldrb	r3, [r5, r0]
    if(color == White) {
 8004c86:	2a01      	cmp	r2, #1
 8004c88:	d102      	bne.n	8004c90 <ssd1306_DrawPixel+0x28>
        SSD1306_Buffer[x + (y / 8) * SSD1306_WIDTH] |= 1 << (y % 8);
 8004c8a:	4323      	orrs	r3, r4
    } else { 
        SSD1306_Buffer[x + (y / 8) * SSD1306_WIDTH] &= ~(1 << (y % 8));
 8004c8c:	542b      	strb	r3, [r5, r0]
    }
}
 8004c8e:	bd30      	pop	{r4, r5, pc}
        SSD1306_Buffer[x + (y / 8) * SSD1306_WIDTH] &= ~(1 << (y % 8));
 8004c90:	43a3      	bics	r3, r4
 8004c92:	e7fb      	b.n	8004c8c <ssd1306_DrawPixel+0x24>
 8004c94:	200005ca 	.word	0x200005ca

08004c98 <ssd1306_WriteChar>:
 * Draw 1 char to the screen buffer
 * ch       => char om weg te schrijven
 * Font     => Font waarmee we gaan schrijven
 * color    => Black or White
 */
char ssd1306_WriteChar(char ch, SSD1306_Font_t Font, SSD1306_COLOR color) {
 8004c98:	b5f0      	push	{r4, r5, r6, r7, lr}
 8004c9a:	0004      	movs	r4, r0
 8004c9c:	b08b      	sub	sp, #44	@ 0x2c
 8004c9e:	9208      	str	r2, [sp, #32]
    uint32_t i, b, j;
    
    // Check if character is valid
    if (ch < 32 || ch > 126)
 8004ca0:	0022      	movs	r2, r4
char ssd1306_WriteChar(char ch, SSD1306_Font_t Font, SSD1306_COLOR color) {
 8004ca2:	9309      	str	r3, [sp, #36]	@ 0x24
 8004ca4:	ab10      	add	r3, sp, #64	@ 0x40
 8004ca6:	781b      	ldrb	r3, [r3, #0]
    if (ch < 32 || ch > 126)
 8004ca8:	3a20      	subs	r2, #32
char ssd1306_WriteChar(char ch, SSD1306_Font_t Font, SSD1306_COLOR color) {
 8004caa:	9305      	str	r3, [sp, #20]
    if (ch < 32 || ch > 126)
 8004cac:	b2d3      	uxtb	r3, r2
char ssd1306_WriteChar(char ch, SSD1306_Font_t Font, SSD1306_COLOR color) {
 8004cae:	a807      	add	r0, sp, #28
 8004cb0:	9107      	str	r1, [sp, #28]
    if (ch < 32 || ch > 126)
 8004cb2:	2b5e      	cmp	r3, #94	@ 0x5e
 8004cb4:	d844      	bhi.n	8004d40 <ssd1306_WriteChar+0xa8>
 8004cb6:	6883      	ldr	r3, [r0, #8]
        return 0;
    
    // Char width is not equal to font width for proportional font
    const uint8_t char_width = Font.char_width ? Font.char_width[ch-32] : Font.width;
 8004cb8:	2b00      	cmp	r3, #0
 8004cba:	d01d      	beq.n	8004cf8 <ssd1306_WriteChar+0x60>
 8004cbc:	191b      	adds	r3, r3, r4
 8004cbe:	3b20      	subs	r3, #32
 8004cc0:	781d      	ldrb	r5, [r3, #0]
    // Check remaining space on current line
    if (SSD1306_WIDTH < (SSD1306.CurrentX + char_width) ||
 8004cc2:	4b20      	ldr	r3, [pc, #128]	@ (8004d44 <ssd1306_WriteChar+0xac>)
 8004cc4:	8819      	ldrh	r1, [r3, #0]
 8004cc6:	9101      	str	r1, [sp, #4]
 8004cc8:	1949      	adds	r1, r1, r5
 8004cca:	2980      	cmp	r1, #128	@ 0x80
 8004ccc:	dc38      	bgt.n	8004d40 <ssd1306_WriteChar+0xa8>
 8004cce:	7841      	ldrb	r1, [r0, #1]
 8004cd0:	9103      	str	r1, [sp, #12]
        SSD1306_HEIGHT < (SSD1306.CurrentY + Font.height))
 8004cd2:	885b      	ldrh	r3, [r3, #2]
 8004cd4:	9304      	str	r3, [sp, #16]
 8004cd6:	185b      	adds	r3, r3, r1
    if (SSD1306_WIDTH < (SSD1306.CurrentX + char_width) ||
 8004cd8:	2b20      	cmp	r3, #32
 8004cda:	dc31      	bgt.n	8004d40 <ssd1306_WriteChar+0xa8>
        // Not enough space on current line
        return 0;
    }
    
    // Use the font to write
    for(i = 0; i < Font.height; i++) {
 8004cdc:	2700      	movs	r7, #0
 8004cde:	434a      	muls	r2, r1
 8004ce0:	0053      	lsls	r3, r2, #1
 8004ce2:	9302      	str	r3, [sp, #8]
 8004ce4:	9b03      	ldr	r3, [sp, #12]
 8004ce6:	42bb      	cmp	r3, r7
 8004ce8:	d808      	bhi.n	8004cfc <ssd1306_WriteChar+0x64>
            }
        }
    }
    
    // The current space is now taken
    SSD1306.CurrentX += char_width;
 8004cea:	9a01      	ldr	r2, [sp, #4]
 8004cec:	4b15      	ldr	r3, [pc, #84]	@ (8004d44 <ssd1306_WriteChar+0xac>)
 8004cee:	18ad      	adds	r5, r5, r2
 8004cf0:	801d      	strh	r5, [r3, #0]
    
    // Return written char for validation
    return ch;
}
 8004cf2:	0020      	movs	r0, r4
 8004cf4:	b00b      	add	sp, #44	@ 0x2c
 8004cf6:	bdf0      	pop	{r4, r5, r6, r7, pc}
    const uint8_t char_width = Font.char_width ? Font.char_width[ch-32] : Font.width;
 8004cf8:	7805      	ldrb	r5, [r0, #0]
 8004cfa:	e7e2      	b.n	8004cc2 <ssd1306_WriteChar+0x2a>
        for(j = 0; j < char_width; j++) {
 8004cfc:	2600      	movs	r6, #0
        b = Font.data[(ch - 32) * Font.height + i];
 8004cfe:	9b08      	ldr	r3, [sp, #32]
 8004d00:	9a02      	ldr	r2, [sp, #8]
 8004d02:	5a9b      	ldrh	r3, [r3, r2]
 8004d04:	9306      	str	r3, [sp, #24]
        for(j = 0; j < char_width; j++) {
 8004d06:	42b5      	cmp	r5, r6
 8004d08:	d804      	bhi.n	8004d14 <ssd1306_WriteChar+0x7c>
    for(i = 0; i < Font.height; i++) {
 8004d0a:	9b02      	ldr	r3, [sp, #8]
 8004d0c:	3701      	adds	r7, #1
 8004d0e:	3302      	adds	r3, #2
 8004d10:	9302      	str	r3, [sp, #8]
 8004d12:	e7e7      	b.n	8004ce4 <ssd1306_WriteChar+0x4c>
                ssd1306_DrawPixel(SSD1306.CurrentX + j, (SSD1306.CurrentY + i), (SSD1306_COLOR) color);
 8004d14:	9b01      	ldr	r3, [sp, #4]
            if((b << j) & 0x8000)  {
 8004d16:	2280      	movs	r2, #128	@ 0x80
                ssd1306_DrawPixel(SSD1306.CurrentX + j, (SSD1306.CurrentY + i), (SSD1306_COLOR) color);
 8004d18:	18f0      	adds	r0, r6, r3
 8004d1a:	9b04      	ldr	r3, [sp, #16]
            if((b << j) & 0x8000)  {
 8004d1c:	0212      	lsls	r2, r2, #8
                ssd1306_DrawPixel(SSD1306.CurrentX + j, (SSD1306.CurrentY + i), (SSD1306_COLOR) color);
 8004d1e:	18f9      	adds	r1, r7, r3
            if((b << j) & 0x8000)  {
 8004d20:	9b06      	ldr	r3, [sp, #24]
                ssd1306_DrawPixel(SSD1306.CurrentX + j, (SSD1306.CurrentY + i), (SSD1306_COLOR) color);
 8004d22:	b2c0      	uxtb	r0, r0
            if((b << j) & 0x8000)  {
 8004d24:	40b3      	lsls	r3, r6
                ssd1306_DrawPixel(SSD1306.CurrentX + j, (SSD1306.CurrentY + i), (SSD1306_COLOR) color);
 8004d26:	b2c9      	uxtb	r1, r1
            if((b << j) & 0x8000)  {
 8004d28:	4213      	tst	r3, r2
 8004d2a:	d004      	beq.n	8004d36 <ssd1306_WriteChar+0x9e>
                ssd1306_DrawPixel(SSD1306.CurrentX + j, (SSD1306.CurrentY + i), (SSD1306_COLOR) color);
 8004d2c:	9a05      	ldr	r2, [sp, #20]
                ssd1306_DrawPixel(SSD1306.CurrentX + j, (SSD1306.CurrentY + i), (SSD1306_COLOR)!color);
 8004d2e:	f7ff ff9b 	bl	8004c68 <ssd1306_DrawPixel>
        for(j = 0; j < char_width; j++) {
 8004d32:	3601      	adds	r6, #1
 8004d34:	e7e7      	b.n	8004d06 <ssd1306_WriteChar+0x6e>
                ssd1306_DrawPixel(SSD1306.CurrentX + j, (SSD1306.CurrentY + i), (SSD1306_COLOR)!color);
 8004d36:	9b05      	ldr	r3, [sp, #20]
 8004d38:	425a      	negs	r2, r3
 8004d3a:	415a      	adcs	r2, r3
 8004d3c:	b2d2      	uxtb	r2, r2
 8004d3e:	e7f6      	b.n	8004d2e <ssd1306_WriteChar+0x96>
        return 0;
 8004d40:	2400      	movs	r4, #0
 8004d42:	e7d6      	b.n	8004cf2 <ssd1306_WriteChar+0x5a>
 8004d44:	200005c4 	.word	0x200005c4

08004d48 <ssd1306_WriteString>:

/* Write full string to screenbuffer */
char ssd1306_WriteString(char* str, SSD1306_Font_t Font, SSD1306_COLOR color) {
 8004d48:	b530      	push	{r4, r5, lr}
 8004d4a:	0004      	movs	r4, r0
 8004d4c:	b087      	sub	sp, #28
 8004d4e:	9305      	str	r3, [sp, #20]
 8004d50:	ab0a      	add	r3, sp, #40	@ 0x28
 8004d52:	781d      	ldrb	r5, [r3, #0]
 8004d54:	9103      	str	r1, [sp, #12]
 8004d56:	9204      	str	r2, [sp, #16]
    while (*str) {
 8004d58:	7820      	ldrb	r0, [r4, #0]
 8004d5a:	2800      	cmp	r0, #0
 8004d5c:	d101      	bne.n	8004d62 <ssd1306_WriteString+0x1a>
        str++;
    }
    
    // Everything ok
    return *str;
}
 8004d5e:	b007      	add	sp, #28
 8004d60:	bd30      	pop	{r4, r5, pc}
        if (ssd1306_WriteChar(*str, Font, color) != *str) {
 8004d62:	9b05      	ldr	r3, [sp, #20]
 8004d64:	9903      	ldr	r1, [sp, #12]
 8004d66:	9a04      	ldr	r2, [sp, #16]
 8004d68:	9500      	str	r5, [sp, #0]
 8004d6a:	f7ff ff95 	bl	8004c98 <ssd1306_WriteChar>
 8004d6e:	0003      	movs	r3, r0
 8004d70:	7820      	ldrb	r0, [r4, #0]
 8004d72:	4283      	cmp	r3, r0
 8004d74:	d1f3      	bne.n	8004d5e <ssd1306_WriteString+0x16>
        str++;
 8004d76:	3401      	adds	r4, #1
 8004d78:	e7ee      	b.n	8004d58 <ssd1306_WriteString+0x10>
	...

08004d7c <ssd1306_SetCursor>:

/* Position the cursor */
void ssd1306_SetCursor(uint8_t x, uint8_t y) {
    SSD1306.CurrentX = x;
 8004d7c:	4b01      	ldr	r3, [pc, #4]	@ (8004d84 <ssd1306_SetCursor+0x8>)
 8004d7e:	8018      	strh	r0, [r3, #0]
    SSD1306.CurrentY = y;
 8004d80:	8059      	strh	r1, [r3, #2]
}
 8004d82:	4770      	bx	lr
 8004d84:	200005c4 	.word	0x200005c4

08004d88 <ssd1306_FillRectangle>:

    return;
}

/* Draw a filled rectangle */
void ssd1306_FillRectangle(uint8_t x1, uint8_t y1, uint8_t x2, uint8_t y2, SSD1306_COLOR color) {
 8004d88:	b5f7      	push	{r0, r1, r2, r4, r5, r6, r7, lr}
 8004d8a:	ac08      	add	r4, sp, #32
 8004d8c:	7824      	ldrb	r4, [r4, #0]
 8004d8e:	9401      	str	r4, [sp, #4]
    uint8_t x_start = ((x1<=x2) ? x1 : x2);
 8004d90:	1c04      	adds	r4, r0, #0
 8004d92:	4290      	cmp	r0, r2
 8004d94:	d900      	bls.n	8004d98 <ssd1306_FillRectangle+0x10>
 8004d96:	1c14      	adds	r4, r2, #0
 8004d98:	b2e4      	uxtb	r4, r4
 8004d9a:	9400      	str	r4, [sp, #0]
    uint8_t x_end   = ((x1<=x2) ? x2 : x1);
 8004d9c:	1c06      	adds	r6, r0, #0
 8004d9e:	4290      	cmp	r0, r2
 8004da0:	d200      	bcs.n	8004da4 <ssd1306_FillRectangle+0x1c>
 8004da2:	1c16      	adds	r6, r2, #0
 8004da4:	b2f6      	uxtb	r6, r6
    uint8_t y_start = ((y1<=y2) ? y1 : y2);
 8004da6:	1c0c      	adds	r4, r1, #0
 8004da8:	4299      	cmp	r1, r3
 8004daa:	d900      	bls.n	8004dae <ssd1306_FillRectangle+0x26>
 8004dac:	1c1c      	adds	r4, r3, #0
 8004dae:	b2e4      	uxtb	r4, r4
    uint8_t y_end   = ((y1<=y2) ? y2 : y1);
 8004db0:	1c0f      	adds	r7, r1, #0
 8004db2:	4299      	cmp	r1, r3
 8004db4:	d200      	bcs.n	8004db8 <ssd1306_FillRectangle+0x30>
 8004db6:	1c1f      	adds	r7, r3, #0
 8004db8:	b2ff      	uxtb	r7, r7

    for (uint8_t y= y_start; (y<= y_end)&&(y<SSD1306_HEIGHT); y++) {
 8004dba:	42bc      	cmp	r4, r7
 8004dbc:	d801      	bhi.n	8004dc2 <ssd1306_FillRectangle+0x3a>
 8004dbe:	2c1f      	cmp	r4, #31
 8004dc0:	d900      	bls.n	8004dc4 <ssd1306_FillRectangle+0x3c>
        for (uint8_t x= x_start; (x<= x_end)&&(x<SSD1306_WIDTH); x++) {
            ssd1306_DrawPixel(x, y, color);
        }
    }
    return;
}
 8004dc2:	bdf7      	pop	{r0, r1, r2, r4, r5, r6, r7, pc}
        for (uint8_t x= x_start; (x<= x_end)&&(x<SSD1306_WIDTH); x++) {
 8004dc4:	9d00      	ldr	r5, [sp, #0]
 8004dc6:	e009      	b.n	8004ddc <ssd1306_FillRectangle+0x54>
 8004dc8:	b26b      	sxtb	r3, r5
 8004dca:	2b00      	cmp	r3, #0
 8004dcc:	db08      	blt.n	8004de0 <ssd1306_FillRectangle+0x58>
            ssd1306_DrawPixel(x, y, color);
 8004dce:	0028      	movs	r0, r5
 8004dd0:	0021      	movs	r1, r4
 8004dd2:	9a01      	ldr	r2, [sp, #4]
 8004dd4:	f7ff ff48 	bl	8004c68 <ssd1306_DrawPixel>
        for (uint8_t x= x_start; (x<= x_end)&&(x<SSD1306_WIDTH); x++) {
 8004dd8:	3501      	adds	r5, #1
 8004dda:	b2ed      	uxtb	r5, r5
 8004ddc:	42b5      	cmp	r5, r6
 8004dde:	d9f3      	bls.n	8004dc8 <ssd1306_FillRectangle+0x40>
    for (uint8_t y= y_start; (y<= y_end)&&(y<SSD1306_HEIGHT); y++) {
 8004de0:	3401      	adds	r4, #1
 8004de2:	b2e4      	uxtb	r4, r4
 8004de4:	e7e9      	b.n	8004dba <ssd1306_FillRectangle+0x32>

08004de6 <ssd1306_SetContrast>:
        }
    }
    return;
}

void ssd1306_SetContrast(const uint8_t value) {
 8004de6:	b510      	push	{r4, lr}
 8004de8:	0004      	movs	r4, r0
    const uint8_t kSetContrastControlRegister = 0x81;
    ssd1306_WriteCommand(kSetContrastControlRegister);
 8004dea:	2081      	movs	r0, #129	@ 0x81
 8004dec:	f7ff fef0 	bl	8004bd0 <ssd1306_WriteCommand>
    ssd1306_WriteCommand(value);
 8004df0:	0020      	movs	r0, r4
 8004df2:	f7ff feed 	bl	8004bd0 <ssd1306_WriteCommand>
}
 8004df6:	bd10      	pop	{r4, pc}

08004df8 <ssd1306_SetDisplayOn>:

void ssd1306_SetDisplayOn(const uint8_t on) {
 8004df8:	0003      	movs	r3, r0
 8004dfa:	b510      	push	{r4, lr}
    uint8_t value;
    if (on) {
        value = 0xAF;   // Display on
        SSD1306.DisplayOn = 1;
    } else {
        value = 0xAE;   // Display off
 8004dfc:	20ae      	movs	r0, #174	@ 0xae
    if (on) {
 8004dfe:	2b00      	cmp	r3, #0
 8004e00:	d001      	beq.n	8004e06 <ssd1306_SetDisplayOn+0xe>
        SSD1306.DisplayOn = 1;
 8004e02:	2301      	movs	r3, #1
        value = 0xAF;   // Display on
 8004e04:	18c0      	adds	r0, r0, r3
 8004e06:	4a02      	ldr	r2, [pc, #8]	@ (8004e10 <ssd1306_SetDisplayOn+0x18>)
        SSD1306.DisplayOn = 0;
    }
    ssd1306_WriteCommand(value);
}
 8004e08:	7153      	strb	r3, [r2, #5]
    ssd1306_WriteCommand(value);
 8004e0a:	f7ff fee1 	bl	8004bd0 <ssd1306_WriteCommand>
}
 8004e0e:	bd10      	pop	{r4, pc}
 8004e10:	200005c4 	.word	0x200005c4

08004e14 <ssd1306_Init>:
void ssd1306_Init(void) {
 8004e14:	b510      	push	{r4, lr}
    BSP_delayMs(100);
 8004e16:	2064      	movs	r0, #100	@ 0x64
 8004e18:	f7fb fc18 	bl	800064c <BSP_delayMs>
    ssd1306_SetDisplayOn(0); //display off
 8004e1c:	2000      	movs	r0, #0
 8004e1e:	f7ff ffeb 	bl	8004df8 <ssd1306_SetDisplayOn>
    ssd1306_WriteCommand(0x20); //Set Memory Addressing Mode
 8004e22:	2020      	movs	r0, #32
 8004e24:	f7ff fed4 	bl	8004bd0 <ssd1306_WriteCommand>
    ssd1306_WriteCommand(0x00); // 00b,Horizontal Addressing Mode; 01b,Vertical Addressing Mode;
 8004e28:	2000      	movs	r0, #0
 8004e2a:	f7ff fed1 	bl	8004bd0 <ssd1306_WriteCommand>
    ssd1306_WriteCommand(0xB0); //Set Page Start Address for Page Addressing Mode,0-7
 8004e2e:	20b0      	movs	r0, #176	@ 0xb0
 8004e30:	f7ff fece 	bl	8004bd0 <ssd1306_WriteCommand>
    ssd1306_WriteCommand(0xC8); //Set COM Output Scan Direction
 8004e34:	20c8      	movs	r0, #200	@ 0xc8
 8004e36:	f7ff fecb 	bl	8004bd0 <ssd1306_WriteCommand>
    ssd1306_WriteCommand(0x00); //---set low column address
 8004e3a:	2000      	movs	r0, #0
 8004e3c:	f7ff fec8 	bl	8004bd0 <ssd1306_WriteCommand>
    ssd1306_WriteCommand(0x10); //---set high column address
 8004e40:	2010      	movs	r0, #16
 8004e42:	f7ff fec5 	bl	8004bd0 <ssd1306_WriteCommand>
    ssd1306_WriteCommand(0x40); //--set start line address - CHECK
 8004e46:	2040      	movs	r0, #64	@ 0x40
 8004e48:	f7ff fec2 	bl	8004bd0 <ssd1306_WriteCommand>
    ssd1306_SetContrast(0xFF);
 8004e4c:	20ff      	movs	r0, #255	@ 0xff
 8004e4e:	f7ff ffca 	bl	8004de6 <ssd1306_SetContrast>
    ssd1306_WriteCommand(0xA1); //--set segment re-map 0 to 127 - CHECK
 8004e52:	20a1      	movs	r0, #161	@ 0xa1
 8004e54:	f7ff febc 	bl	8004bd0 <ssd1306_WriteCommand>
    ssd1306_WriteCommand(0xA6); //--set normal color
 8004e58:	20a6      	movs	r0, #166	@ 0xa6
 8004e5a:	f7ff feb9 	bl	8004bd0 <ssd1306_WriteCommand>
    ssd1306_WriteCommand(0xA8); //--set multiplex ratio(1 to 64) - CHECK
 8004e5e:	20a8      	movs	r0, #168	@ 0xa8
 8004e60:	f7ff feb6 	bl	8004bd0 <ssd1306_WriteCommand>
    ssd1306_WriteCommand(0x1F); //
 8004e64:	201f      	movs	r0, #31
 8004e66:	f7ff feb3 	bl	8004bd0 <ssd1306_WriteCommand>
    ssd1306_WriteCommand(0xA4); //0xa4,Output follows RAM content;0xa5,Output ignores RAM content
 8004e6a:	20a4      	movs	r0, #164	@ 0xa4
 8004e6c:	f7ff feb0 	bl	8004bd0 <ssd1306_WriteCommand>
    ssd1306_WriteCommand(0xD3); //-set display offset - CHECK
 8004e70:	20d3      	movs	r0, #211	@ 0xd3
 8004e72:	f7ff fead 	bl	8004bd0 <ssd1306_WriteCommand>
    ssd1306_WriteCommand(0x00); //-not offset
 8004e76:	2000      	movs	r0, #0
 8004e78:	f7ff feaa 	bl	8004bd0 <ssd1306_WriteCommand>
    ssd1306_WriteCommand(0xD5); //--set display clock divide ratio/oscillator frequency
 8004e7c:	20d5      	movs	r0, #213	@ 0xd5
 8004e7e:	f7ff fea7 	bl	8004bd0 <ssd1306_WriteCommand>
    ssd1306_WriteCommand(0xF0); //--set divide ratio
 8004e82:	20f0      	movs	r0, #240	@ 0xf0
 8004e84:	f7ff fea4 	bl	8004bd0 <ssd1306_WriteCommand>
    ssd1306_WriteCommand(0xD9); //--set pre-charge period
 8004e88:	20d9      	movs	r0, #217	@ 0xd9
 8004e8a:	f7ff fea1 	bl	8004bd0 <ssd1306_WriteCommand>
    ssd1306_WriteCommand(0x22); //
 8004e8e:	2022      	movs	r0, #34	@ 0x22
 8004e90:	f7ff fe9e 	bl	8004bd0 <ssd1306_WriteCommand>
    ssd1306_WriteCommand(0xDA); //--set com pins hardware configuration - CHECK
 8004e94:	20da      	movs	r0, #218	@ 0xda
 8004e96:	f7ff fe9b 	bl	8004bd0 <ssd1306_WriteCommand>
    ssd1306_WriteCommand(0x02);
 8004e9a:	2002      	movs	r0, #2
 8004e9c:	f7ff fe98 	bl	8004bd0 <ssd1306_WriteCommand>
    ssd1306_WriteCommand(0xDB); //--set vcomh
 8004ea0:	20db      	movs	r0, #219	@ 0xdb
 8004ea2:	f7ff fe95 	bl	8004bd0 <ssd1306_WriteCommand>
    ssd1306_WriteCommand(0x20); //0x20,0.77xVcc
 8004ea6:	2020      	movs	r0, #32
 8004ea8:	f7ff fe92 	bl	8004bd0 <ssd1306_WriteCommand>
    ssd1306_WriteCommand(0x8D); //--set DC-DC enable
 8004eac:	208d      	movs	r0, #141	@ 0x8d
 8004eae:	f7ff fe8f 	bl	8004bd0 <ssd1306_WriteCommand>
    ssd1306_WriteCommand(0x14); //
 8004eb2:	2014      	movs	r0, #20
 8004eb4:	f7ff fe8c 	bl	8004bd0 <ssd1306_WriteCommand>
    ssd1306_SetDisplayOn(1); //--turn on SSD1306 panel
 8004eb8:	2001      	movs	r0, #1
 8004eba:	f7ff ff9d 	bl	8004df8 <ssd1306_SetDisplayOn>
    ssd1306_Fill(Black);
 8004ebe:	2000      	movs	r0, #0
 8004ec0:	f7ff feac 	bl	8004c1c <ssd1306_Fill>
    ssd1306_UpdateScreen();
 8004ec4:	f7ff feb8 	bl	8004c38 <ssd1306_UpdateScreen>
    SSD1306.CurrentX = 0;
 8004ec8:	2200      	movs	r2, #0
 8004eca:	4b03      	ldr	r3, [pc, #12]	@ (8004ed8 <ssd1306_Init+0xc4>)
 8004ecc:	801a      	strh	r2, [r3, #0]
    SSD1306.CurrentY = 0;
 8004ece:	805a      	strh	r2, [r3, #2]
    SSD1306.Initialized = 1;
 8004ed0:	3201      	adds	r2, #1
 8004ed2:	711a      	strb	r2, [r3, #4]
}
 8004ed4:	bd10      	pop	{r4, pc}
 8004ed6:	46c0      	nop			@ (mov r8, r8)
 8004ed8:	200005c4 	.word	0x200005c4

08004edc <std>:
 8004edc:	2300      	movs	r3, #0
 8004ede:	b510      	push	{r4, lr}
 8004ee0:	0004      	movs	r4, r0
 8004ee2:	6003      	str	r3, [r0, #0]
 8004ee4:	6043      	str	r3, [r0, #4]
 8004ee6:	6083      	str	r3, [r0, #8]
 8004ee8:	8181      	strh	r1, [r0, #12]
 8004eea:	6643      	str	r3, [r0, #100]	@ 0x64
 8004eec:	81c2      	strh	r2, [r0, #14]
 8004eee:	6103      	str	r3, [r0, #16]
 8004ef0:	6143      	str	r3, [r0, #20]
 8004ef2:	6183      	str	r3, [r0, #24]
 8004ef4:	0019      	movs	r1, r3
 8004ef6:	2208      	movs	r2, #8
 8004ef8:	305c      	adds	r0, #92	@ 0x5c
 8004efa:	f000 fa43 	bl	8005384 <memset>
 8004efe:	4b0b      	ldr	r3, [pc, #44]	@ (8004f2c <std+0x50>)
 8004f00:	6224      	str	r4, [r4, #32]
 8004f02:	6263      	str	r3, [r4, #36]	@ 0x24
 8004f04:	4b0a      	ldr	r3, [pc, #40]	@ (8004f30 <std+0x54>)
 8004f06:	62a3      	str	r3, [r4, #40]	@ 0x28
 8004f08:	4b0a      	ldr	r3, [pc, #40]	@ (8004f34 <std+0x58>)
 8004f0a:	62e3      	str	r3, [r4, #44]	@ 0x2c
 8004f0c:	4b0a      	ldr	r3, [pc, #40]	@ (8004f38 <std+0x5c>)
 8004f0e:	6323      	str	r3, [r4, #48]	@ 0x30
 8004f10:	4b0a      	ldr	r3, [pc, #40]	@ (8004f3c <std+0x60>)
 8004f12:	429c      	cmp	r4, r3
 8004f14:	d005      	beq.n	8004f22 <std+0x46>
 8004f16:	4b0a      	ldr	r3, [pc, #40]	@ (8004f40 <std+0x64>)
 8004f18:	429c      	cmp	r4, r3
 8004f1a:	d002      	beq.n	8004f22 <std+0x46>
 8004f1c:	4b09      	ldr	r3, [pc, #36]	@ (8004f44 <std+0x68>)
 8004f1e:	429c      	cmp	r4, r3
 8004f20:	d103      	bne.n	8004f2a <std+0x4e>
 8004f22:	0020      	movs	r0, r4
 8004f24:	3058      	adds	r0, #88	@ 0x58
 8004f26:	f000 faad 	bl	8005484 <__retarget_lock_init_recursive>
 8004f2a:	bd10      	pop	{r4, pc}
 8004f2c:	08005189 	.word	0x08005189
 8004f30:	080051b1 	.word	0x080051b1
 8004f34:	080051e9 	.word	0x080051e9
 8004f38:	08005215 	.word	0x08005215
 8004f3c:	200007cc 	.word	0x200007cc
 8004f40:	20000834 	.word	0x20000834
 8004f44:	2000089c 	.word	0x2000089c

08004f48 <stdio_exit_handler>:
 8004f48:	b510      	push	{r4, lr}
 8004f4a:	4a03      	ldr	r2, [pc, #12]	@ (8004f58 <stdio_exit_handler+0x10>)
 8004f4c:	4903      	ldr	r1, [pc, #12]	@ (8004f5c <stdio_exit_handler+0x14>)
 8004f4e:	4804      	ldr	r0, [pc, #16]	@ (8004f60 <stdio_exit_handler+0x18>)
 8004f50:	f000 f86c 	bl	800502c <_fwalk_sglue>
 8004f54:	bd10      	pop	{r4, pc}
 8004f56:	46c0      	nop			@ (mov r8, r8)
 8004f58:	2000000c 	.word	0x2000000c
 8004f5c:	08005fdd 	.word	0x08005fdd
 8004f60:	2000001c 	.word	0x2000001c

08004f64 <cleanup_stdio>:
 8004f64:	6841      	ldr	r1, [r0, #4]
 8004f66:	4b0b      	ldr	r3, [pc, #44]	@ (8004f94 <cleanup_stdio+0x30>)
 8004f68:	b510      	push	{r4, lr}
 8004f6a:	0004      	movs	r4, r0
 8004f6c:	4299      	cmp	r1, r3
 8004f6e:	d001      	beq.n	8004f74 <cleanup_stdio+0x10>
 8004f70:	f001 f834 	bl	8005fdc <_fflush_r>
 8004f74:	68a1      	ldr	r1, [r4, #8]
 8004f76:	4b08      	ldr	r3, [pc, #32]	@ (8004f98 <cleanup_stdio+0x34>)
 8004f78:	4299      	cmp	r1, r3
 8004f7a:	d002      	beq.n	8004f82 <cleanup_stdio+0x1e>
 8004f7c:	0020      	movs	r0, r4
 8004f7e:	f001 f82d 	bl	8005fdc <_fflush_r>
 8004f82:	68e1      	ldr	r1, [r4, #12]
 8004f84:	4b05      	ldr	r3, [pc, #20]	@ (8004f9c <cleanup_stdio+0x38>)
 8004f86:	4299      	cmp	r1, r3
 8004f88:	d002      	beq.n	8004f90 <cleanup_stdio+0x2c>
 8004f8a:	0020      	movs	r0, r4
 8004f8c:	f001 f826 	bl	8005fdc <_fflush_r>
 8004f90:	bd10      	pop	{r4, pc}
 8004f92:	46c0      	nop			@ (mov r8, r8)
 8004f94:	200007cc 	.word	0x200007cc
 8004f98:	20000834 	.word	0x20000834
 8004f9c:	2000089c 	.word	0x2000089c

08004fa0 <global_stdio_init.part.0>:
 8004fa0:	b510      	push	{r4, lr}
 8004fa2:	4b09      	ldr	r3, [pc, #36]	@ (8004fc8 <global_stdio_init.part.0+0x28>)
 8004fa4:	4a09      	ldr	r2, [pc, #36]	@ (8004fcc <global_stdio_init.part.0+0x2c>)
 8004fa6:	2104      	movs	r1, #4
 8004fa8:	601a      	str	r2, [r3, #0]
 8004faa:	4809      	ldr	r0, [pc, #36]	@ (8004fd0 <global_stdio_init.part.0+0x30>)
 8004fac:	2200      	movs	r2, #0
 8004fae:	f7ff ff95 	bl	8004edc <std>
 8004fb2:	2201      	movs	r2, #1
 8004fb4:	2109      	movs	r1, #9
 8004fb6:	4807      	ldr	r0, [pc, #28]	@ (8004fd4 <global_stdio_init.part.0+0x34>)
 8004fb8:	f7ff ff90 	bl	8004edc <std>
 8004fbc:	2202      	movs	r2, #2
 8004fbe:	2112      	movs	r1, #18
 8004fc0:	4805      	ldr	r0, [pc, #20]	@ (8004fd8 <global_stdio_init.part.0+0x38>)
 8004fc2:	f7ff ff8b 	bl	8004edc <std>
 8004fc6:	bd10      	pop	{r4, pc}
 8004fc8:	20000904 	.word	0x20000904
 8004fcc:	08004f49 	.word	0x08004f49
 8004fd0:	200007cc 	.word	0x200007cc
 8004fd4:	20000834 	.word	0x20000834
 8004fd8:	2000089c 	.word	0x2000089c

08004fdc <__sfp_lock_acquire>:
 8004fdc:	b510      	push	{r4, lr}
 8004fde:	4802      	ldr	r0, [pc, #8]	@ (8004fe8 <__sfp_lock_acquire+0xc>)
 8004fe0:	f000 fa51 	bl	8005486 <__retarget_lock_acquire_recursive>
 8004fe4:	bd10      	pop	{r4, pc}
 8004fe6:	46c0      	nop			@ (mov r8, r8)
 8004fe8:	2000090d 	.word	0x2000090d

08004fec <__sfp_lock_release>:
 8004fec:	b510      	push	{r4, lr}
 8004fee:	4802      	ldr	r0, [pc, #8]	@ (8004ff8 <__sfp_lock_release+0xc>)
 8004ff0:	f000 fa4a 	bl	8005488 <__retarget_lock_release_recursive>
 8004ff4:	bd10      	pop	{r4, pc}
 8004ff6:	46c0      	nop			@ (mov r8, r8)
 8004ff8:	2000090d 	.word	0x2000090d

08004ffc <__sinit>:
 8004ffc:	b510      	push	{r4, lr}
 8004ffe:	0004      	movs	r4, r0
 8005000:	f7ff ffec 	bl	8004fdc <__sfp_lock_acquire>
 8005004:	6a23      	ldr	r3, [r4, #32]
 8005006:	2b00      	cmp	r3, #0
 8005008:	d002      	beq.n	8005010 <__sinit+0x14>
 800500a:	f7ff ffef 	bl	8004fec <__sfp_lock_release>
 800500e:	bd10      	pop	{r4, pc}
 8005010:	4b04      	ldr	r3, [pc, #16]	@ (8005024 <__sinit+0x28>)
 8005012:	6223      	str	r3, [r4, #32]
 8005014:	4b04      	ldr	r3, [pc, #16]	@ (8005028 <__sinit+0x2c>)
 8005016:	681b      	ldr	r3, [r3, #0]
 8005018:	2b00      	cmp	r3, #0
 800501a:	d1f6      	bne.n	800500a <__sinit+0xe>
 800501c:	f7ff ffc0 	bl	8004fa0 <global_stdio_init.part.0>
 8005020:	e7f3      	b.n	800500a <__sinit+0xe>
 8005022:	46c0      	nop			@ (mov r8, r8)
 8005024:	08004f65 	.word	0x08004f65
 8005028:	20000904 	.word	0x20000904

0800502c <_fwalk_sglue>:
 800502c:	b5f7      	push	{r0, r1, r2, r4, r5, r6, r7, lr}
 800502e:	0014      	movs	r4, r2
 8005030:	2600      	movs	r6, #0
 8005032:	9000      	str	r0, [sp, #0]
 8005034:	9101      	str	r1, [sp, #4]
 8005036:	68a5      	ldr	r5, [r4, #8]
 8005038:	6867      	ldr	r7, [r4, #4]
 800503a:	3f01      	subs	r7, #1
 800503c:	d504      	bpl.n	8005048 <_fwalk_sglue+0x1c>
 800503e:	6824      	ldr	r4, [r4, #0]
 8005040:	2c00      	cmp	r4, #0
 8005042:	d1f8      	bne.n	8005036 <_fwalk_sglue+0xa>
 8005044:	0030      	movs	r0, r6
 8005046:	bdfe      	pop	{r1, r2, r3, r4, r5, r6, r7, pc}
 8005048:	89ab      	ldrh	r3, [r5, #12]
 800504a:	2b01      	cmp	r3, #1
 800504c:	d908      	bls.n	8005060 <_fwalk_sglue+0x34>
 800504e:	220e      	movs	r2, #14
 8005050:	5eab      	ldrsh	r3, [r5, r2]
 8005052:	3301      	adds	r3, #1
 8005054:	d004      	beq.n	8005060 <_fwalk_sglue+0x34>
 8005056:	0029      	movs	r1, r5
 8005058:	9800      	ldr	r0, [sp, #0]
 800505a:	9b01      	ldr	r3, [sp, #4]
 800505c:	4798      	blx	r3
 800505e:	4306      	orrs	r6, r0
 8005060:	3568      	adds	r5, #104	@ 0x68
 8005062:	e7ea      	b.n	800503a <_fwalk_sglue+0xe>

08005064 <iprintf>:
 8005064:	b40f      	push	{r0, r1, r2, r3}
 8005066:	b507      	push	{r0, r1, r2, lr}
 8005068:	4905      	ldr	r1, [pc, #20]	@ (8005080 <iprintf+0x1c>)
 800506a:	ab04      	add	r3, sp, #16
 800506c:	6808      	ldr	r0, [r1, #0]
 800506e:	cb04      	ldmia	r3!, {r2}
 8005070:	6881      	ldr	r1, [r0, #8]
 8005072:	9301      	str	r3, [sp, #4]
 8005074:	f000 fc94 	bl	80059a0 <_vfiprintf_r>
 8005078:	b003      	add	sp, #12
 800507a:	bc08      	pop	{r3}
 800507c:	b004      	add	sp, #16
 800507e:	4718      	bx	r3
 8005080:	20000018 	.word	0x20000018

08005084 <_puts_r>:
 8005084:	6a03      	ldr	r3, [r0, #32]
 8005086:	b570      	push	{r4, r5, r6, lr}
 8005088:	0005      	movs	r5, r0
 800508a:	000e      	movs	r6, r1
 800508c:	6884      	ldr	r4, [r0, #8]
 800508e:	2b00      	cmp	r3, #0
 8005090:	d101      	bne.n	8005096 <_puts_r+0x12>
 8005092:	f7ff ffb3 	bl	8004ffc <__sinit>
 8005096:	6e63      	ldr	r3, [r4, #100]	@ 0x64
 8005098:	07db      	lsls	r3, r3, #31
 800509a:	d405      	bmi.n	80050a8 <_puts_r+0x24>
 800509c:	89a3      	ldrh	r3, [r4, #12]
 800509e:	059b      	lsls	r3, r3, #22
 80050a0:	d402      	bmi.n	80050a8 <_puts_r+0x24>
 80050a2:	6da0      	ldr	r0, [r4, #88]	@ 0x58
 80050a4:	f000 f9ef 	bl	8005486 <__retarget_lock_acquire_recursive>
 80050a8:	89a3      	ldrh	r3, [r4, #12]
 80050aa:	071b      	lsls	r3, r3, #28
 80050ac:	d502      	bpl.n	80050b4 <_puts_r+0x30>
 80050ae:	6923      	ldr	r3, [r4, #16]
 80050b0:	2b00      	cmp	r3, #0
 80050b2:	d11f      	bne.n	80050f4 <_puts_r+0x70>
 80050b4:	0021      	movs	r1, r4
 80050b6:	0028      	movs	r0, r5
 80050b8:	f000 f8f4 	bl	80052a4 <__swsetup_r>
 80050bc:	2800      	cmp	r0, #0
 80050be:	d019      	beq.n	80050f4 <_puts_r+0x70>
 80050c0:	2501      	movs	r5, #1
 80050c2:	426d      	negs	r5, r5
 80050c4:	6e63      	ldr	r3, [r4, #100]	@ 0x64
 80050c6:	07db      	lsls	r3, r3, #31
 80050c8:	d405      	bmi.n	80050d6 <_puts_r+0x52>
 80050ca:	89a3      	ldrh	r3, [r4, #12]
 80050cc:	059b      	lsls	r3, r3, #22
 80050ce:	d402      	bmi.n	80050d6 <_puts_r+0x52>
 80050d0:	6da0      	ldr	r0, [r4, #88]	@ 0x58
 80050d2:	f000 f9d9 	bl	8005488 <__retarget_lock_release_recursive>
 80050d6:	0028      	movs	r0, r5
 80050d8:	bd70      	pop	{r4, r5, r6, pc}
 80050da:	3601      	adds	r6, #1
 80050dc:	60a3      	str	r3, [r4, #8]
 80050de:	2b00      	cmp	r3, #0
 80050e0:	da04      	bge.n	80050ec <_puts_r+0x68>
 80050e2:	69a2      	ldr	r2, [r4, #24]
 80050e4:	429a      	cmp	r2, r3
 80050e6:	dc16      	bgt.n	8005116 <_puts_r+0x92>
 80050e8:	290a      	cmp	r1, #10
 80050ea:	d014      	beq.n	8005116 <_puts_r+0x92>
 80050ec:	6823      	ldr	r3, [r4, #0]
 80050ee:	1c5a      	adds	r2, r3, #1
 80050f0:	6022      	str	r2, [r4, #0]
 80050f2:	7019      	strb	r1, [r3, #0]
 80050f4:	68a3      	ldr	r3, [r4, #8]
 80050f6:	7831      	ldrb	r1, [r6, #0]
 80050f8:	3b01      	subs	r3, #1
 80050fa:	2900      	cmp	r1, #0
 80050fc:	d1ed      	bne.n	80050da <_puts_r+0x56>
 80050fe:	60a3      	str	r3, [r4, #8]
 8005100:	2b00      	cmp	r3, #0
 8005102:	da0f      	bge.n	8005124 <_puts_r+0xa0>
 8005104:	0022      	movs	r2, r4
 8005106:	0028      	movs	r0, r5
 8005108:	310a      	adds	r1, #10
 800510a:	f000 f889 	bl	8005220 <__swbuf_r>
 800510e:	3001      	adds	r0, #1
 8005110:	d0d6      	beq.n	80050c0 <_puts_r+0x3c>
 8005112:	250a      	movs	r5, #10
 8005114:	e7d6      	b.n	80050c4 <_puts_r+0x40>
 8005116:	0022      	movs	r2, r4
 8005118:	0028      	movs	r0, r5
 800511a:	f000 f881 	bl	8005220 <__swbuf_r>
 800511e:	3001      	adds	r0, #1
 8005120:	d1e8      	bne.n	80050f4 <_puts_r+0x70>
 8005122:	e7cd      	b.n	80050c0 <_puts_r+0x3c>
 8005124:	6823      	ldr	r3, [r4, #0]
 8005126:	1c5a      	adds	r2, r3, #1
 8005128:	6022      	str	r2, [r4, #0]
 800512a:	220a      	movs	r2, #10
 800512c:	701a      	strb	r2, [r3, #0]
 800512e:	e7f0      	b.n	8005112 <_puts_r+0x8e>

08005130 <puts>:
 8005130:	b510      	push	{r4, lr}
 8005132:	4b03      	ldr	r3, [pc, #12]	@ (8005140 <puts+0x10>)
 8005134:	0001      	movs	r1, r0
 8005136:	6818      	ldr	r0, [r3, #0]
 8005138:	f7ff ffa4 	bl	8005084 <_puts_r>
 800513c:	bd10      	pop	{r4, pc}
 800513e:	46c0      	nop			@ (mov r8, r8)
 8005140:	20000018 	.word	0x20000018

08005144 <siprintf>:
 8005144:	b40e      	push	{r1, r2, r3}
 8005146:	b510      	push	{r4, lr}
 8005148:	2400      	movs	r4, #0
 800514a:	490c      	ldr	r1, [pc, #48]	@ (800517c <siprintf+0x38>)
 800514c:	b09d      	sub	sp, #116	@ 0x74
 800514e:	ab1f      	add	r3, sp, #124	@ 0x7c
 8005150:	9002      	str	r0, [sp, #8]
 8005152:	9006      	str	r0, [sp, #24]
 8005154:	9107      	str	r1, [sp, #28]
 8005156:	9104      	str	r1, [sp, #16]
 8005158:	4809      	ldr	r0, [pc, #36]	@ (8005180 <siprintf+0x3c>)
 800515a:	490a      	ldr	r1, [pc, #40]	@ (8005184 <siprintf+0x40>)
 800515c:	cb04      	ldmia	r3!, {r2}
 800515e:	9105      	str	r1, [sp, #20]
 8005160:	6800      	ldr	r0, [r0, #0]
 8005162:	a902      	add	r1, sp, #8
 8005164:	9301      	str	r3, [sp, #4]
 8005166:	941b      	str	r4, [sp, #108]	@ 0x6c
 8005168:	f000 faf4 	bl	8005754 <_svfiprintf_r>
 800516c:	9b02      	ldr	r3, [sp, #8]
 800516e:	701c      	strb	r4, [r3, #0]
 8005170:	b01d      	add	sp, #116	@ 0x74
 8005172:	bc10      	pop	{r4}
 8005174:	bc08      	pop	{r3}
 8005176:	b003      	add	sp, #12
 8005178:	4718      	bx	r3
 800517a:	46c0      	nop			@ (mov r8, r8)
 800517c:	7fffffff 	.word	0x7fffffff
 8005180:	20000018 	.word	0x20000018
 8005184:	ffff0208 	.word	0xffff0208

08005188 <__sread>:
 8005188:	b570      	push	{r4, r5, r6, lr}
 800518a:	000c      	movs	r4, r1
 800518c:	250e      	movs	r5, #14
 800518e:	5f49      	ldrsh	r1, [r1, r5]
 8005190:	f000 f926 	bl	80053e0 <_read_r>
 8005194:	2800      	cmp	r0, #0
 8005196:	db03      	blt.n	80051a0 <__sread+0x18>
 8005198:	6d63      	ldr	r3, [r4, #84]	@ 0x54
 800519a:	181b      	adds	r3, r3, r0
 800519c:	6563      	str	r3, [r4, #84]	@ 0x54
 800519e:	bd70      	pop	{r4, r5, r6, pc}
 80051a0:	89a3      	ldrh	r3, [r4, #12]
 80051a2:	4a02      	ldr	r2, [pc, #8]	@ (80051ac <__sread+0x24>)
 80051a4:	4013      	ands	r3, r2
 80051a6:	81a3      	strh	r3, [r4, #12]
 80051a8:	e7f9      	b.n	800519e <__sread+0x16>
 80051aa:	46c0      	nop			@ (mov r8, r8)
 80051ac:	ffffefff 	.word	0xffffefff

080051b0 <__swrite>:
 80051b0:	b5f8      	push	{r3, r4, r5, r6, r7, lr}
 80051b2:	001f      	movs	r7, r3
 80051b4:	898b      	ldrh	r3, [r1, #12]
 80051b6:	0005      	movs	r5, r0
 80051b8:	000c      	movs	r4, r1
 80051ba:	0016      	movs	r6, r2
 80051bc:	05db      	lsls	r3, r3, #23
 80051be:	d505      	bpl.n	80051cc <__swrite+0x1c>
 80051c0:	230e      	movs	r3, #14
 80051c2:	5ec9      	ldrsh	r1, [r1, r3]
 80051c4:	2200      	movs	r2, #0
 80051c6:	2302      	movs	r3, #2
 80051c8:	f000 f8f6 	bl	80053b8 <_lseek_r>
 80051cc:	89a3      	ldrh	r3, [r4, #12]
 80051ce:	4a05      	ldr	r2, [pc, #20]	@ (80051e4 <__swrite+0x34>)
 80051d0:	0028      	movs	r0, r5
 80051d2:	4013      	ands	r3, r2
 80051d4:	81a3      	strh	r3, [r4, #12]
 80051d6:	0032      	movs	r2, r6
 80051d8:	230e      	movs	r3, #14
 80051da:	5ee1      	ldrsh	r1, [r4, r3]
 80051dc:	003b      	movs	r3, r7
 80051de:	f000 f913 	bl	8005408 <_write_r>
 80051e2:	bdf8      	pop	{r3, r4, r5, r6, r7, pc}
 80051e4:	ffffefff 	.word	0xffffefff

080051e8 <__sseek>:
 80051e8:	b570      	push	{r4, r5, r6, lr}
 80051ea:	000c      	movs	r4, r1
 80051ec:	250e      	movs	r5, #14
 80051ee:	5f49      	ldrsh	r1, [r1, r5]
 80051f0:	f000 f8e2 	bl	80053b8 <_lseek_r>
 80051f4:	89a3      	ldrh	r3, [r4, #12]
 80051f6:	1c42      	adds	r2, r0, #1
 80051f8:	d103      	bne.n	8005202 <__sseek+0x1a>
 80051fa:	4a05      	ldr	r2, [pc, #20]	@ (8005210 <__sseek+0x28>)
 80051fc:	4013      	ands	r3, r2
 80051fe:	81a3      	strh	r3, [r4, #12]
 8005200:	bd70      	pop	{r4, r5, r6, pc}
 8005202:	2280      	movs	r2, #128	@ 0x80
 8005204:	0152      	lsls	r2, r2, #5
 8005206:	4313      	orrs	r3, r2
 8005208:	81a3      	strh	r3, [r4, #12]
 800520a:	6560      	str	r0, [r4, #84]	@ 0x54
 800520c:	e7f8      	b.n	8005200 <__sseek+0x18>
 800520e:	46c0      	nop			@ (mov r8, r8)
 8005210:	ffffefff 	.word	0xffffefff

08005214 <__sclose>:
 8005214:	b510      	push	{r4, lr}
 8005216:	230e      	movs	r3, #14
 8005218:	5ec9      	ldrsh	r1, [r1, r3]
 800521a:	f000 f8bb 	bl	8005394 <_close_r>
 800521e:	bd10      	pop	{r4, pc}

08005220 <__swbuf_r>:
 8005220:	b5f8      	push	{r3, r4, r5, r6, r7, lr}
 8005222:	0006      	movs	r6, r0
 8005224:	000d      	movs	r5, r1
 8005226:	0014      	movs	r4, r2
 8005228:	2800      	cmp	r0, #0
 800522a:	d004      	beq.n	8005236 <__swbuf_r+0x16>
 800522c:	6a03      	ldr	r3, [r0, #32]
 800522e:	2b00      	cmp	r3, #0
 8005230:	d101      	bne.n	8005236 <__swbuf_r+0x16>
 8005232:	f7ff fee3 	bl	8004ffc <__sinit>
 8005236:	69a3      	ldr	r3, [r4, #24]
 8005238:	60a3      	str	r3, [r4, #8]
 800523a:	89a3      	ldrh	r3, [r4, #12]
 800523c:	071b      	lsls	r3, r3, #28
 800523e:	d502      	bpl.n	8005246 <__swbuf_r+0x26>
 8005240:	6923      	ldr	r3, [r4, #16]
 8005242:	2b00      	cmp	r3, #0
 8005244:	d109      	bne.n	800525a <__swbuf_r+0x3a>
 8005246:	0021      	movs	r1, r4
 8005248:	0030      	movs	r0, r6
 800524a:	f000 f82b 	bl	80052a4 <__swsetup_r>
 800524e:	2800      	cmp	r0, #0
 8005250:	d003      	beq.n	800525a <__swbuf_r+0x3a>
 8005252:	2501      	movs	r5, #1
 8005254:	426d      	negs	r5, r5
 8005256:	0028      	movs	r0, r5
 8005258:	bdf8      	pop	{r3, r4, r5, r6, r7, pc}
 800525a:	6923      	ldr	r3, [r4, #16]
 800525c:	6820      	ldr	r0, [r4, #0]
 800525e:	b2ef      	uxtb	r7, r5
 8005260:	1ac0      	subs	r0, r0, r3
 8005262:	6963      	ldr	r3, [r4, #20]
 8005264:	b2ed      	uxtb	r5, r5
 8005266:	4283      	cmp	r3, r0
 8005268:	dc05      	bgt.n	8005276 <__swbuf_r+0x56>
 800526a:	0021      	movs	r1, r4
 800526c:	0030      	movs	r0, r6
 800526e:	f000 feb5 	bl	8005fdc <_fflush_r>
 8005272:	2800      	cmp	r0, #0
 8005274:	d1ed      	bne.n	8005252 <__swbuf_r+0x32>
 8005276:	68a3      	ldr	r3, [r4, #8]
 8005278:	3001      	adds	r0, #1
 800527a:	3b01      	subs	r3, #1
 800527c:	60a3      	str	r3, [r4, #8]
 800527e:	6823      	ldr	r3, [r4, #0]
 8005280:	1c5a      	adds	r2, r3, #1
 8005282:	6022      	str	r2, [r4, #0]
 8005284:	701f      	strb	r7, [r3, #0]
 8005286:	6963      	ldr	r3, [r4, #20]
 8005288:	4283      	cmp	r3, r0
 800528a:	d004      	beq.n	8005296 <__swbuf_r+0x76>
 800528c:	89a3      	ldrh	r3, [r4, #12]
 800528e:	07db      	lsls	r3, r3, #31
 8005290:	d5e1      	bpl.n	8005256 <__swbuf_r+0x36>
 8005292:	2d0a      	cmp	r5, #10
 8005294:	d1df      	bne.n	8005256 <__swbuf_r+0x36>
 8005296:	0021      	movs	r1, r4
 8005298:	0030      	movs	r0, r6
 800529a:	f000 fe9f 	bl	8005fdc <_fflush_r>
 800529e:	2800      	cmp	r0, #0
 80052a0:	d0d9      	beq.n	8005256 <__swbuf_r+0x36>
 80052a2:	e7d6      	b.n	8005252 <__swbuf_r+0x32>

080052a4 <__swsetup_r>:
 80052a4:	4b2d      	ldr	r3, [pc, #180]	@ (800535c <__swsetup_r+0xb8>)
 80052a6:	b570      	push	{r4, r5, r6, lr}
 80052a8:	0005      	movs	r5, r0
 80052aa:	6818      	ldr	r0, [r3, #0]
 80052ac:	000c      	movs	r4, r1
 80052ae:	2800      	cmp	r0, #0
 80052b0:	d004      	beq.n	80052bc <__swsetup_r+0x18>
 80052b2:	6a03      	ldr	r3, [r0, #32]
 80052b4:	2b00      	cmp	r3, #0
 80052b6:	d101      	bne.n	80052bc <__swsetup_r+0x18>
 80052b8:	f7ff fea0 	bl	8004ffc <__sinit>
 80052bc:	220c      	movs	r2, #12
 80052be:	5ea3      	ldrsh	r3, [r4, r2]
 80052c0:	071a      	lsls	r2, r3, #28
 80052c2:	d423      	bmi.n	800530c <__swsetup_r+0x68>
 80052c4:	06da      	lsls	r2, r3, #27
 80052c6:	d407      	bmi.n	80052d8 <__swsetup_r+0x34>
 80052c8:	2209      	movs	r2, #9
 80052ca:	602a      	str	r2, [r5, #0]
 80052cc:	2240      	movs	r2, #64	@ 0x40
 80052ce:	2001      	movs	r0, #1
 80052d0:	4313      	orrs	r3, r2
 80052d2:	81a3      	strh	r3, [r4, #12]
 80052d4:	4240      	negs	r0, r0
 80052d6:	e03a      	b.n	800534e <__swsetup_r+0xaa>
 80052d8:	075b      	lsls	r3, r3, #29
 80052da:	d513      	bpl.n	8005304 <__swsetup_r+0x60>
 80052dc:	6b61      	ldr	r1, [r4, #52]	@ 0x34
 80052de:	2900      	cmp	r1, #0
 80052e0:	d008      	beq.n	80052f4 <__swsetup_r+0x50>
 80052e2:	0023      	movs	r3, r4
 80052e4:	3344      	adds	r3, #68	@ 0x44
 80052e6:	4299      	cmp	r1, r3
 80052e8:	d002      	beq.n	80052f0 <__swsetup_r+0x4c>
 80052ea:	0028      	movs	r0, r5
 80052ec:	f000 f8d6 	bl	800549c <_free_r>
 80052f0:	2300      	movs	r3, #0
 80052f2:	6363      	str	r3, [r4, #52]	@ 0x34
 80052f4:	2224      	movs	r2, #36	@ 0x24
 80052f6:	89a3      	ldrh	r3, [r4, #12]
 80052f8:	4393      	bics	r3, r2
 80052fa:	81a3      	strh	r3, [r4, #12]
 80052fc:	2300      	movs	r3, #0
 80052fe:	6063      	str	r3, [r4, #4]
 8005300:	6923      	ldr	r3, [r4, #16]
 8005302:	6023      	str	r3, [r4, #0]
 8005304:	2308      	movs	r3, #8
 8005306:	89a2      	ldrh	r2, [r4, #12]
 8005308:	4313      	orrs	r3, r2
 800530a:	81a3      	strh	r3, [r4, #12]
 800530c:	6923      	ldr	r3, [r4, #16]
 800530e:	2b00      	cmp	r3, #0
 8005310:	d10b      	bne.n	800532a <__swsetup_r+0x86>
 8005312:	21a0      	movs	r1, #160	@ 0xa0
 8005314:	2280      	movs	r2, #128	@ 0x80
 8005316:	89a3      	ldrh	r3, [r4, #12]
 8005318:	0089      	lsls	r1, r1, #2
 800531a:	0092      	lsls	r2, r2, #2
 800531c:	400b      	ands	r3, r1
 800531e:	4293      	cmp	r3, r2
 8005320:	d003      	beq.n	800532a <__swsetup_r+0x86>
 8005322:	0021      	movs	r1, r4
 8005324:	0028      	movs	r0, r5
 8005326:	f000 feaf 	bl	8006088 <__smakebuf_r>
 800532a:	220c      	movs	r2, #12
 800532c:	5ea3      	ldrsh	r3, [r4, r2]
 800532e:	2101      	movs	r1, #1
 8005330:	001a      	movs	r2, r3
 8005332:	400a      	ands	r2, r1
 8005334:	420b      	tst	r3, r1
 8005336:	d00b      	beq.n	8005350 <__swsetup_r+0xac>
 8005338:	2200      	movs	r2, #0
 800533a:	60a2      	str	r2, [r4, #8]
 800533c:	6962      	ldr	r2, [r4, #20]
 800533e:	4252      	negs	r2, r2
 8005340:	61a2      	str	r2, [r4, #24]
 8005342:	2000      	movs	r0, #0
 8005344:	6922      	ldr	r2, [r4, #16]
 8005346:	4282      	cmp	r2, r0
 8005348:	d101      	bne.n	800534e <__swsetup_r+0xaa>
 800534a:	061a      	lsls	r2, r3, #24
 800534c:	d4be      	bmi.n	80052cc <__swsetup_r+0x28>
 800534e:	bd70      	pop	{r4, r5, r6, pc}
 8005350:	0799      	lsls	r1, r3, #30
 8005352:	d400      	bmi.n	8005356 <__swsetup_r+0xb2>
 8005354:	6962      	ldr	r2, [r4, #20]
 8005356:	60a2      	str	r2, [r4, #8]
 8005358:	e7f3      	b.n	8005342 <__swsetup_r+0x9e>
 800535a:	46c0      	nop			@ (mov r8, r8)
 800535c:	20000018 	.word	0x20000018

08005360 <memmove>:
 8005360:	b510      	push	{r4, lr}
 8005362:	4288      	cmp	r0, r1
 8005364:	d902      	bls.n	800536c <memmove+0xc>
 8005366:	188b      	adds	r3, r1, r2
 8005368:	4298      	cmp	r0, r3
 800536a:	d308      	bcc.n	800537e <memmove+0x1e>
 800536c:	2300      	movs	r3, #0
 800536e:	429a      	cmp	r2, r3
 8005370:	d007      	beq.n	8005382 <memmove+0x22>
 8005372:	5ccc      	ldrb	r4, [r1, r3]
 8005374:	54c4      	strb	r4, [r0, r3]
 8005376:	3301      	adds	r3, #1
 8005378:	e7f9      	b.n	800536e <memmove+0xe>
 800537a:	5c8b      	ldrb	r3, [r1, r2]
 800537c:	5483      	strb	r3, [r0, r2]
 800537e:	3a01      	subs	r2, #1
 8005380:	d2fb      	bcs.n	800537a <memmove+0x1a>
 8005382:	bd10      	pop	{r4, pc}

08005384 <memset>:
 8005384:	0003      	movs	r3, r0
 8005386:	1882      	adds	r2, r0, r2
 8005388:	4293      	cmp	r3, r2
 800538a:	d100      	bne.n	800538e <memset+0xa>
 800538c:	4770      	bx	lr
 800538e:	7019      	strb	r1, [r3, #0]
 8005390:	3301      	adds	r3, #1
 8005392:	e7f9      	b.n	8005388 <memset+0x4>

08005394 <_close_r>:
 8005394:	2300      	movs	r3, #0
 8005396:	b570      	push	{r4, r5, r6, lr}
 8005398:	4d06      	ldr	r5, [pc, #24]	@ (80053b4 <_close_r+0x20>)
 800539a:	0004      	movs	r4, r0
 800539c:	0008      	movs	r0, r1
 800539e:	602b      	str	r3, [r5, #0]
 80053a0:	f7fc f998 	bl	80016d4 <_close>
 80053a4:	1c43      	adds	r3, r0, #1
 80053a6:	d103      	bne.n	80053b0 <_close_r+0x1c>
 80053a8:	682b      	ldr	r3, [r5, #0]
 80053aa:	2b00      	cmp	r3, #0
 80053ac:	d000      	beq.n	80053b0 <_close_r+0x1c>
 80053ae:	6023      	str	r3, [r4, #0]
 80053b0:	bd70      	pop	{r4, r5, r6, pc}
 80053b2:	46c0      	nop			@ (mov r8, r8)
 80053b4:	20000908 	.word	0x20000908

080053b8 <_lseek_r>:
 80053b8:	b570      	push	{r4, r5, r6, lr}
 80053ba:	0004      	movs	r4, r0
 80053bc:	0008      	movs	r0, r1
 80053be:	0011      	movs	r1, r2
 80053c0:	001a      	movs	r2, r3
 80053c2:	2300      	movs	r3, #0
 80053c4:	4d05      	ldr	r5, [pc, #20]	@ (80053dc <_lseek_r+0x24>)
 80053c6:	602b      	str	r3, [r5, #0]
 80053c8:	f7fc f98e 	bl	80016e8 <_lseek>
 80053cc:	1c43      	adds	r3, r0, #1
 80053ce:	d103      	bne.n	80053d8 <_lseek_r+0x20>
 80053d0:	682b      	ldr	r3, [r5, #0]
 80053d2:	2b00      	cmp	r3, #0
 80053d4:	d000      	beq.n	80053d8 <_lseek_r+0x20>
 80053d6:	6023      	str	r3, [r4, #0]
 80053d8:	bd70      	pop	{r4, r5, r6, pc}
 80053da:	46c0      	nop			@ (mov r8, r8)
 80053dc:	20000908 	.word	0x20000908

080053e0 <_read_r>:
 80053e0:	b570      	push	{r4, r5, r6, lr}
 80053e2:	0004      	movs	r4, r0
 80053e4:	0008      	movs	r0, r1
 80053e6:	0011      	movs	r1, r2
 80053e8:	001a      	movs	r2, r3
 80053ea:	2300      	movs	r3, #0
 80053ec:	4d05      	ldr	r5, [pc, #20]	@ (8005404 <_read_r+0x24>)
 80053ee:	602b      	str	r3, [r5, #0]
 80053f0:	f7fc f94d 	bl	800168e <_read>
 80053f4:	1c43      	adds	r3, r0, #1
 80053f6:	d103      	bne.n	8005400 <_read_r+0x20>
 80053f8:	682b      	ldr	r3, [r5, #0]
 80053fa:	2b00      	cmp	r3, #0
 80053fc:	d000      	beq.n	8005400 <_read_r+0x20>
 80053fe:	6023      	str	r3, [r4, #0]
 8005400:	bd70      	pop	{r4, r5, r6, pc}
 8005402:	46c0      	nop			@ (mov r8, r8)
 8005404:	20000908 	.word	0x20000908

08005408 <_write_r>:
 8005408:	b570      	push	{r4, r5, r6, lr}
 800540a:	0004      	movs	r4, r0
 800540c:	0008      	movs	r0, r1
 800540e:	0011      	movs	r1, r2
 8005410:	001a      	movs	r2, r3
 8005412:	2300      	movs	r3, #0
 8005414:	4d05      	ldr	r5, [pc, #20]	@ (800542c <_write_r+0x24>)
 8005416:	602b      	str	r3, [r5, #0]
 8005418:	f7fc f946 	bl	80016a8 <_write>
 800541c:	1c43      	adds	r3, r0, #1
 800541e:	d103      	bne.n	8005428 <_write_r+0x20>
 8005420:	682b      	ldr	r3, [r5, #0]
 8005422:	2b00      	cmp	r3, #0
 8005424:	d000      	beq.n	8005428 <_write_r+0x20>
 8005426:	6023      	str	r3, [r4, #0]
 8005428:	bd70      	pop	{r4, r5, r6, pc}
 800542a:	46c0      	nop			@ (mov r8, r8)
 800542c:	20000908 	.word	0x20000908

08005430 <__errno>:
 8005430:	4b01      	ldr	r3, [pc, #4]	@ (8005438 <__errno+0x8>)
 8005432:	6818      	ldr	r0, [r3, #0]
 8005434:	4770      	bx	lr
 8005436:	46c0      	nop			@ (mov r8, r8)
 8005438:	20000018 	.word	0x20000018

0800543c <__libc_init_array>:
 800543c:	b570      	push	{r4, r5, r6, lr}
 800543e:	2600      	movs	r6, #0
 8005440:	4c0c      	ldr	r4, [pc, #48]	@ (8005474 <__libc_init_array+0x38>)
 8005442:	4d0d      	ldr	r5, [pc, #52]	@ (8005478 <__libc_init_array+0x3c>)
 8005444:	1b64      	subs	r4, r4, r5
 8005446:	10a4      	asrs	r4, r4, #2
 8005448:	42a6      	cmp	r6, r4
 800544a:	d109      	bne.n	8005460 <__libc_init_array+0x24>
 800544c:	2600      	movs	r6, #0
 800544e:	f000 fed7 	bl	8006200 <_init>
 8005452:	4c0a      	ldr	r4, [pc, #40]	@ (800547c <__libc_init_array+0x40>)
 8005454:	4d0a      	ldr	r5, [pc, #40]	@ (8005480 <__libc_init_array+0x44>)
 8005456:	1b64      	subs	r4, r4, r5
 8005458:	10a4      	asrs	r4, r4, #2
 800545a:	42a6      	cmp	r6, r4
 800545c:	d105      	bne.n	800546a <__libc_init_array+0x2e>
 800545e:	bd70      	pop	{r4, r5, r6, pc}
 8005460:	00b3      	lsls	r3, r6, #2
 8005462:	58eb      	ldr	r3, [r5, r3]
 8005464:	4798      	blx	r3
 8005466:	3601      	adds	r6, #1
 8005468:	e7ee      	b.n	8005448 <__libc_init_array+0xc>
 800546a:	00b3      	lsls	r3, r6, #2
 800546c:	58eb      	ldr	r3, [r5, r3]
 800546e:	4798      	blx	r3
 8005470:	3601      	adds	r6, #1
 8005472:	e7f2      	b.n	800545a <__libc_init_array+0x1e>
 8005474:	08007844 	.word	0x08007844
 8005478:	08007844 	.word	0x08007844
 800547c:	08007848 	.word	0x08007848
 8005480:	08007844 	.word	0x08007844

08005484 <__retarget_lock_init_recursive>:
 8005484:	4770      	bx	lr

08005486 <__retarget_lock_acquire_recursive>:
 8005486:	4770      	bx	lr

08005488 <__retarget_lock_release_recursive>:
 8005488:	4770      	bx	lr

0800548a <memcpy>:
 800548a:	2300      	movs	r3, #0
 800548c:	b510      	push	{r4, lr}
 800548e:	429a      	cmp	r2, r3
 8005490:	d100      	bne.n	8005494 <memcpy+0xa>
 8005492:	bd10      	pop	{r4, pc}
 8005494:	5ccc      	ldrb	r4, [r1, r3]
 8005496:	54c4      	strb	r4, [r0, r3]
 8005498:	3301      	adds	r3, #1
 800549a:	e7f8      	b.n	800548e <memcpy+0x4>

0800549c <_free_r>:
 800549c:	b570      	push	{r4, r5, r6, lr}
 800549e:	0005      	movs	r5, r0
 80054a0:	1e0c      	subs	r4, r1, #0
 80054a2:	d010      	beq.n	80054c6 <_free_r+0x2a>
 80054a4:	3c04      	subs	r4, #4
 80054a6:	6823      	ldr	r3, [r4, #0]
 80054a8:	2b00      	cmp	r3, #0
 80054aa:	da00      	bge.n	80054ae <_free_r+0x12>
 80054ac:	18e4      	adds	r4, r4, r3
 80054ae:	0028      	movs	r0, r5
 80054b0:	f000 f8e0 	bl	8005674 <__malloc_lock>
 80054b4:	4a1d      	ldr	r2, [pc, #116]	@ (800552c <_free_r+0x90>)
 80054b6:	6813      	ldr	r3, [r2, #0]
 80054b8:	2b00      	cmp	r3, #0
 80054ba:	d105      	bne.n	80054c8 <_free_r+0x2c>
 80054bc:	6063      	str	r3, [r4, #4]
 80054be:	6014      	str	r4, [r2, #0]
 80054c0:	0028      	movs	r0, r5
 80054c2:	f000 f8df 	bl	8005684 <__malloc_unlock>
 80054c6:	bd70      	pop	{r4, r5, r6, pc}
 80054c8:	42a3      	cmp	r3, r4
 80054ca:	d908      	bls.n	80054de <_free_r+0x42>
 80054cc:	6820      	ldr	r0, [r4, #0]
 80054ce:	1821      	adds	r1, r4, r0
 80054d0:	428b      	cmp	r3, r1
 80054d2:	d1f3      	bne.n	80054bc <_free_r+0x20>
 80054d4:	6819      	ldr	r1, [r3, #0]
 80054d6:	685b      	ldr	r3, [r3, #4]
 80054d8:	1809      	adds	r1, r1, r0
 80054da:	6021      	str	r1, [r4, #0]
 80054dc:	e7ee      	b.n	80054bc <_free_r+0x20>
 80054de:	001a      	movs	r2, r3
 80054e0:	685b      	ldr	r3, [r3, #4]
 80054e2:	2b00      	cmp	r3, #0
 80054e4:	d001      	beq.n	80054ea <_free_r+0x4e>
 80054e6:	42a3      	cmp	r3, r4
 80054e8:	d9f9      	bls.n	80054de <_free_r+0x42>
 80054ea:	6811      	ldr	r1, [r2, #0]
 80054ec:	1850      	adds	r0, r2, r1
 80054ee:	42a0      	cmp	r0, r4
 80054f0:	d10b      	bne.n	800550a <_free_r+0x6e>
 80054f2:	6820      	ldr	r0, [r4, #0]
 80054f4:	1809      	adds	r1, r1, r0
 80054f6:	1850      	adds	r0, r2, r1
 80054f8:	6011      	str	r1, [r2, #0]
 80054fa:	4283      	cmp	r3, r0
 80054fc:	d1e0      	bne.n	80054c0 <_free_r+0x24>
 80054fe:	6818      	ldr	r0, [r3, #0]
 8005500:	685b      	ldr	r3, [r3, #4]
 8005502:	1841      	adds	r1, r0, r1
 8005504:	6011      	str	r1, [r2, #0]
 8005506:	6053      	str	r3, [r2, #4]
 8005508:	e7da      	b.n	80054c0 <_free_r+0x24>
 800550a:	42a0      	cmp	r0, r4
 800550c:	d902      	bls.n	8005514 <_free_r+0x78>
 800550e:	230c      	movs	r3, #12
 8005510:	602b      	str	r3, [r5, #0]
 8005512:	e7d5      	b.n	80054c0 <_free_r+0x24>
 8005514:	6820      	ldr	r0, [r4, #0]
 8005516:	1821      	adds	r1, r4, r0
 8005518:	428b      	cmp	r3, r1
 800551a:	d103      	bne.n	8005524 <_free_r+0x88>
 800551c:	6819      	ldr	r1, [r3, #0]
 800551e:	685b      	ldr	r3, [r3, #4]
 8005520:	1809      	adds	r1, r1, r0
 8005522:	6021      	str	r1, [r4, #0]
 8005524:	6063      	str	r3, [r4, #4]
 8005526:	6054      	str	r4, [r2, #4]
 8005528:	e7ca      	b.n	80054c0 <_free_r+0x24>
 800552a:	46c0      	nop			@ (mov r8, r8)
 800552c:	20000914 	.word	0x20000914

08005530 <sbrk_aligned>:
 8005530:	b570      	push	{r4, r5, r6, lr}
 8005532:	4e0f      	ldr	r6, [pc, #60]	@ (8005570 <sbrk_aligned+0x40>)
 8005534:	000d      	movs	r5, r1
 8005536:	6831      	ldr	r1, [r6, #0]
 8005538:	0004      	movs	r4, r0
 800553a:	2900      	cmp	r1, #0
 800553c:	d102      	bne.n	8005544 <sbrk_aligned+0x14>
 800553e:	f000 fe09 	bl	8006154 <_sbrk_r>
 8005542:	6030      	str	r0, [r6, #0]
 8005544:	0029      	movs	r1, r5
 8005546:	0020      	movs	r0, r4
 8005548:	f000 fe04 	bl	8006154 <_sbrk_r>
 800554c:	1c43      	adds	r3, r0, #1
 800554e:	d103      	bne.n	8005558 <sbrk_aligned+0x28>
 8005550:	2501      	movs	r5, #1
 8005552:	426d      	negs	r5, r5
 8005554:	0028      	movs	r0, r5
 8005556:	bd70      	pop	{r4, r5, r6, pc}
 8005558:	2303      	movs	r3, #3
 800555a:	1cc5      	adds	r5, r0, #3
 800555c:	439d      	bics	r5, r3
 800555e:	42a8      	cmp	r0, r5
 8005560:	d0f8      	beq.n	8005554 <sbrk_aligned+0x24>
 8005562:	1a29      	subs	r1, r5, r0
 8005564:	0020      	movs	r0, r4
 8005566:	f000 fdf5 	bl	8006154 <_sbrk_r>
 800556a:	3001      	adds	r0, #1
 800556c:	d1f2      	bne.n	8005554 <sbrk_aligned+0x24>
 800556e:	e7ef      	b.n	8005550 <sbrk_aligned+0x20>
 8005570:	20000910 	.word	0x20000910

08005574 <_malloc_r>:
 8005574:	b5f7      	push	{r0, r1, r2, r4, r5, r6, r7, lr}
 8005576:	2203      	movs	r2, #3
 8005578:	1ccb      	adds	r3, r1, #3
 800557a:	4393      	bics	r3, r2
 800557c:	3308      	adds	r3, #8
 800557e:	0005      	movs	r5, r0
 8005580:	001f      	movs	r7, r3
 8005582:	2b0c      	cmp	r3, #12
 8005584:	d234      	bcs.n	80055f0 <_malloc_r+0x7c>
 8005586:	270c      	movs	r7, #12
 8005588:	42b9      	cmp	r1, r7
 800558a:	d833      	bhi.n	80055f4 <_malloc_r+0x80>
 800558c:	0028      	movs	r0, r5
 800558e:	f000 f871 	bl	8005674 <__malloc_lock>
 8005592:	4e37      	ldr	r6, [pc, #220]	@ (8005670 <_malloc_r+0xfc>)
 8005594:	6833      	ldr	r3, [r6, #0]
 8005596:	001c      	movs	r4, r3
 8005598:	2c00      	cmp	r4, #0
 800559a:	d12f      	bne.n	80055fc <_malloc_r+0x88>
 800559c:	0039      	movs	r1, r7
 800559e:	0028      	movs	r0, r5
 80055a0:	f7ff ffc6 	bl	8005530 <sbrk_aligned>
 80055a4:	0004      	movs	r4, r0
 80055a6:	1c43      	adds	r3, r0, #1
 80055a8:	d15f      	bne.n	800566a <_malloc_r+0xf6>
 80055aa:	6834      	ldr	r4, [r6, #0]
 80055ac:	9400      	str	r4, [sp, #0]
 80055ae:	9b00      	ldr	r3, [sp, #0]
 80055b0:	2b00      	cmp	r3, #0
 80055b2:	d14a      	bne.n	800564a <_malloc_r+0xd6>
 80055b4:	2c00      	cmp	r4, #0
 80055b6:	d052      	beq.n	800565e <_malloc_r+0xea>
 80055b8:	6823      	ldr	r3, [r4, #0]
 80055ba:	0028      	movs	r0, r5
 80055bc:	18e3      	adds	r3, r4, r3
 80055be:	9900      	ldr	r1, [sp, #0]
 80055c0:	9301      	str	r3, [sp, #4]
 80055c2:	f000 fdc7 	bl	8006154 <_sbrk_r>
 80055c6:	9b01      	ldr	r3, [sp, #4]
 80055c8:	4283      	cmp	r3, r0
 80055ca:	d148      	bne.n	800565e <_malloc_r+0xea>
 80055cc:	6823      	ldr	r3, [r4, #0]
 80055ce:	0028      	movs	r0, r5
 80055d0:	1aff      	subs	r7, r7, r3
 80055d2:	0039      	movs	r1, r7
 80055d4:	f7ff ffac 	bl	8005530 <sbrk_aligned>
 80055d8:	3001      	adds	r0, #1
 80055da:	d040      	beq.n	800565e <_malloc_r+0xea>
 80055dc:	6823      	ldr	r3, [r4, #0]
 80055de:	19db      	adds	r3, r3, r7
 80055e0:	6023      	str	r3, [r4, #0]
 80055e2:	6833      	ldr	r3, [r6, #0]
 80055e4:	685a      	ldr	r2, [r3, #4]
 80055e6:	2a00      	cmp	r2, #0
 80055e8:	d133      	bne.n	8005652 <_malloc_r+0xde>
 80055ea:	9b00      	ldr	r3, [sp, #0]
 80055ec:	6033      	str	r3, [r6, #0]
 80055ee:	e019      	b.n	8005624 <_malloc_r+0xb0>
 80055f0:	2b00      	cmp	r3, #0
 80055f2:	dac9      	bge.n	8005588 <_malloc_r+0x14>
 80055f4:	230c      	movs	r3, #12
 80055f6:	602b      	str	r3, [r5, #0]
 80055f8:	2000      	movs	r0, #0
 80055fa:	bdfe      	pop	{r1, r2, r3, r4, r5, r6, r7, pc}
 80055fc:	6821      	ldr	r1, [r4, #0]
 80055fe:	1bc9      	subs	r1, r1, r7
 8005600:	d420      	bmi.n	8005644 <_malloc_r+0xd0>
 8005602:	290b      	cmp	r1, #11
 8005604:	d90a      	bls.n	800561c <_malloc_r+0xa8>
 8005606:	19e2      	adds	r2, r4, r7
 8005608:	6027      	str	r7, [r4, #0]
 800560a:	42a3      	cmp	r3, r4
 800560c:	d104      	bne.n	8005618 <_malloc_r+0xa4>
 800560e:	6032      	str	r2, [r6, #0]
 8005610:	6863      	ldr	r3, [r4, #4]
 8005612:	6011      	str	r1, [r2, #0]
 8005614:	6053      	str	r3, [r2, #4]
 8005616:	e005      	b.n	8005624 <_malloc_r+0xb0>
 8005618:	605a      	str	r2, [r3, #4]
 800561a:	e7f9      	b.n	8005610 <_malloc_r+0x9c>
 800561c:	6862      	ldr	r2, [r4, #4]
 800561e:	42a3      	cmp	r3, r4
 8005620:	d10e      	bne.n	8005640 <_malloc_r+0xcc>
 8005622:	6032      	str	r2, [r6, #0]
 8005624:	0028      	movs	r0, r5
 8005626:	f000 f82d 	bl	8005684 <__malloc_unlock>
 800562a:	0020      	movs	r0, r4
 800562c:	2207      	movs	r2, #7
 800562e:	300b      	adds	r0, #11
 8005630:	1d23      	adds	r3, r4, #4
 8005632:	4390      	bics	r0, r2
 8005634:	1ac2      	subs	r2, r0, r3
 8005636:	4298      	cmp	r0, r3
 8005638:	d0df      	beq.n	80055fa <_malloc_r+0x86>
 800563a:	1a1b      	subs	r3, r3, r0
 800563c:	50a3      	str	r3, [r4, r2]
 800563e:	e7dc      	b.n	80055fa <_malloc_r+0x86>
 8005640:	605a      	str	r2, [r3, #4]
 8005642:	e7ef      	b.n	8005624 <_malloc_r+0xb0>
 8005644:	0023      	movs	r3, r4
 8005646:	6864      	ldr	r4, [r4, #4]
 8005648:	e7a6      	b.n	8005598 <_malloc_r+0x24>
 800564a:	9c00      	ldr	r4, [sp, #0]
 800564c:	6863      	ldr	r3, [r4, #4]
 800564e:	9300      	str	r3, [sp, #0]
 8005650:	e7ad      	b.n	80055ae <_malloc_r+0x3a>
 8005652:	001a      	movs	r2, r3
 8005654:	685b      	ldr	r3, [r3, #4]
 8005656:	42a3      	cmp	r3, r4
 8005658:	d1fb      	bne.n	8005652 <_malloc_r+0xde>
 800565a:	2300      	movs	r3, #0
 800565c:	e7da      	b.n	8005614 <_malloc_r+0xa0>
 800565e:	230c      	movs	r3, #12
 8005660:	0028      	movs	r0, r5
 8005662:	602b      	str	r3, [r5, #0]
 8005664:	f000 f80e 	bl	8005684 <__malloc_unlock>
 8005668:	e7c6      	b.n	80055f8 <_malloc_r+0x84>
 800566a:	6007      	str	r7, [r0, #0]
 800566c:	e7da      	b.n	8005624 <_malloc_r+0xb0>
 800566e:	46c0      	nop			@ (mov r8, r8)
 8005670:	20000914 	.word	0x20000914

08005674 <__malloc_lock>:
 8005674:	b510      	push	{r4, lr}
 8005676:	4802      	ldr	r0, [pc, #8]	@ (8005680 <__malloc_lock+0xc>)
 8005678:	f7ff ff05 	bl	8005486 <__retarget_lock_acquire_recursive>
 800567c:	bd10      	pop	{r4, pc}
 800567e:	46c0      	nop			@ (mov r8, r8)
 8005680:	2000090c 	.word	0x2000090c

08005684 <__malloc_unlock>:
 8005684:	b510      	push	{r4, lr}
 8005686:	4802      	ldr	r0, [pc, #8]	@ (8005690 <__malloc_unlock+0xc>)
 8005688:	f7ff fefe 	bl	8005488 <__retarget_lock_release_recursive>
 800568c:	bd10      	pop	{r4, pc}
 800568e:	46c0      	nop			@ (mov r8, r8)
 8005690:	2000090c 	.word	0x2000090c

08005694 <__ssputs_r>:
 8005694:	b5f0      	push	{r4, r5, r6, r7, lr}
 8005696:	688e      	ldr	r6, [r1, #8]
 8005698:	b085      	sub	sp, #20
 800569a:	001f      	movs	r7, r3
 800569c:	000c      	movs	r4, r1
 800569e:	680b      	ldr	r3, [r1, #0]
 80056a0:	9002      	str	r0, [sp, #8]
 80056a2:	9203      	str	r2, [sp, #12]
 80056a4:	42be      	cmp	r6, r7
 80056a6:	d830      	bhi.n	800570a <__ssputs_r+0x76>
 80056a8:	210c      	movs	r1, #12
 80056aa:	5e62      	ldrsh	r2, [r4, r1]
 80056ac:	2190      	movs	r1, #144	@ 0x90
 80056ae:	00c9      	lsls	r1, r1, #3
 80056b0:	420a      	tst	r2, r1
 80056b2:	d028      	beq.n	8005706 <__ssputs_r+0x72>
 80056b4:	2003      	movs	r0, #3
 80056b6:	6921      	ldr	r1, [r4, #16]
 80056b8:	1a5b      	subs	r3, r3, r1
 80056ba:	9301      	str	r3, [sp, #4]
 80056bc:	6963      	ldr	r3, [r4, #20]
 80056be:	4343      	muls	r3, r0
 80056c0:	9801      	ldr	r0, [sp, #4]
 80056c2:	0fdd      	lsrs	r5, r3, #31
 80056c4:	18ed      	adds	r5, r5, r3
 80056c6:	1c7b      	adds	r3, r7, #1
 80056c8:	181b      	adds	r3, r3, r0
 80056ca:	106d      	asrs	r5, r5, #1
 80056cc:	42ab      	cmp	r3, r5
 80056ce:	d900      	bls.n	80056d2 <__ssputs_r+0x3e>
 80056d0:	001d      	movs	r5, r3
 80056d2:	0552      	lsls	r2, r2, #21
 80056d4:	d528      	bpl.n	8005728 <__ssputs_r+0x94>
 80056d6:	0029      	movs	r1, r5
 80056d8:	9802      	ldr	r0, [sp, #8]
 80056da:	f7ff ff4b 	bl	8005574 <_malloc_r>
 80056de:	1e06      	subs	r6, r0, #0
 80056e0:	d02c      	beq.n	800573c <__ssputs_r+0xa8>
 80056e2:	9a01      	ldr	r2, [sp, #4]
 80056e4:	6921      	ldr	r1, [r4, #16]
 80056e6:	f7ff fed0 	bl	800548a <memcpy>
 80056ea:	89a2      	ldrh	r2, [r4, #12]
 80056ec:	4b18      	ldr	r3, [pc, #96]	@ (8005750 <__ssputs_r+0xbc>)
 80056ee:	401a      	ands	r2, r3
 80056f0:	2380      	movs	r3, #128	@ 0x80
 80056f2:	4313      	orrs	r3, r2
 80056f4:	81a3      	strh	r3, [r4, #12]
 80056f6:	9b01      	ldr	r3, [sp, #4]
 80056f8:	6126      	str	r6, [r4, #16]
 80056fa:	18f6      	adds	r6, r6, r3
 80056fc:	6026      	str	r6, [r4, #0]
 80056fe:	003e      	movs	r6, r7
 8005700:	6165      	str	r5, [r4, #20]
 8005702:	1aed      	subs	r5, r5, r3
 8005704:	60a5      	str	r5, [r4, #8]
 8005706:	42be      	cmp	r6, r7
 8005708:	d900      	bls.n	800570c <__ssputs_r+0x78>
 800570a:	003e      	movs	r6, r7
 800570c:	0032      	movs	r2, r6
 800570e:	9903      	ldr	r1, [sp, #12]
 8005710:	6820      	ldr	r0, [r4, #0]
 8005712:	f7ff fe25 	bl	8005360 <memmove>
 8005716:	2000      	movs	r0, #0
 8005718:	68a3      	ldr	r3, [r4, #8]
 800571a:	1b9b      	subs	r3, r3, r6
 800571c:	60a3      	str	r3, [r4, #8]
 800571e:	6823      	ldr	r3, [r4, #0]
 8005720:	199b      	adds	r3, r3, r6
 8005722:	6023      	str	r3, [r4, #0]
 8005724:	b005      	add	sp, #20
 8005726:	bdf0      	pop	{r4, r5, r6, r7, pc}
 8005728:	002a      	movs	r2, r5
 800572a:	9802      	ldr	r0, [sp, #8]
 800572c:	f000 fd2f 	bl	800618e <_realloc_r>
 8005730:	1e06      	subs	r6, r0, #0
 8005732:	d1e0      	bne.n	80056f6 <__ssputs_r+0x62>
 8005734:	6921      	ldr	r1, [r4, #16]
 8005736:	9802      	ldr	r0, [sp, #8]
 8005738:	f7ff feb0 	bl	800549c <_free_r>
 800573c:	230c      	movs	r3, #12
 800573e:	2001      	movs	r0, #1
 8005740:	9a02      	ldr	r2, [sp, #8]
 8005742:	4240      	negs	r0, r0
 8005744:	6013      	str	r3, [r2, #0]
 8005746:	89a2      	ldrh	r2, [r4, #12]
 8005748:	3334      	adds	r3, #52	@ 0x34
 800574a:	4313      	orrs	r3, r2
 800574c:	81a3      	strh	r3, [r4, #12]
 800574e:	e7e9      	b.n	8005724 <__ssputs_r+0x90>
 8005750:	fffffb7f 	.word	0xfffffb7f

08005754 <_svfiprintf_r>:
 8005754:	b5f0      	push	{r4, r5, r6, r7, lr}
 8005756:	b0a1      	sub	sp, #132	@ 0x84
 8005758:	9003      	str	r0, [sp, #12]
 800575a:	001d      	movs	r5, r3
 800575c:	898b      	ldrh	r3, [r1, #12]
 800575e:	000f      	movs	r7, r1
 8005760:	0016      	movs	r6, r2
 8005762:	061b      	lsls	r3, r3, #24
 8005764:	d511      	bpl.n	800578a <_svfiprintf_r+0x36>
 8005766:	690b      	ldr	r3, [r1, #16]
 8005768:	2b00      	cmp	r3, #0
 800576a:	d10e      	bne.n	800578a <_svfiprintf_r+0x36>
 800576c:	2140      	movs	r1, #64	@ 0x40
 800576e:	f7ff ff01 	bl	8005574 <_malloc_r>
 8005772:	6038      	str	r0, [r7, #0]
 8005774:	6138      	str	r0, [r7, #16]
 8005776:	2800      	cmp	r0, #0
 8005778:	d105      	bne.n	8005786 <_svfiprintf_r+0x32>
 800577a:	230c      	movs	r3, #12
 800577c:	9a03      	ldr	r2, [sp, #12]
 800577e:	6013      	str	r3, [r2, #0]
 8005780:	2001      	movs	r0, #1
 8005782:	4240      	negs	r0, r0
 8005784:	e0cf      	b.n	8005926 <_svfiprintf_r+0x1d2>
 8005786:	2340      	movs	r3, #64	@ 0x40
 8005788:	617b      	str	r3, [r7, #20]
 800578a:	2300      	movs	r3, #0
 800578c:	ac08      	add	r4, sp, #32
 800578e:	6163      	str	r3, [r4, #20]
 8005790:	3320      	adds	r3, #32
 8005792:	7663      	strb	r3, [r4, #25]
 8005794:	3310      	adds	r3, #16
 8005796:	76a3      	strb	r3, [r4, #26]
 8005798:	9507      	str	r5, [sp, #28]
 800579a:	0035      	movs	r5, r6
 800579c:	782b      	ldrb	r3, [r5, #0]
 800579e:	2b00      	cmp	r3, #0
 80057a0:	d001      	beq.n	80057a6 <_svfiprintf_r+0x52>
 80057a2:	2b25      	cmp	r3, #37	@ 0x25
 80057a4:	d148      	bne.n	8005838 <_svfiprintf_r+0xe4>
 80057a6:	1bab      	subs	r3, r5, r6
 80057a8:	9305      	str	r3, [sp, #20]
 80057aa:	42b5      	cmp	r5, r6
 80057ac:	d00b      	beq.n	80057c6 <_svfiprintf_r+0x72>
 80057ae:	0032      	movs	r2, r6
 80057b0:	0039      	movs	r1, r7
 80057b2:	9803      	ldr	r0, [sp, #12]
 80057b4:	f7ff ff6e 	bl	8005694 <__ssputs_r>
 80057b8:	3001      	adds	r0, #1
 80057ba:	d100      	bne.n	80057be <_svfiprintf_r+0x6a>
 80057bc:	e0ae      	b.n	800591c <_svfiprintf_r+0x1c8>
 80057be:	6963      	ldr	r3, [r4, #20]
 80057c0:	9a05      	ldr	r2, [sp, #20]
 80057c2:	189b      	adds	r3, r3, r2
 80057c4:	6163      	str	r3, [r4, #20]
 80057c6:	782b      	ldrb	r3, [r5, #0]
 80057c8:	2b00      	cmp	r3, #0
 80057ca:	d100      	bne.n	80057ce <_svfiprintf_r+0x7a>
 80057cc:	e0a6      	b.n	800591c <_svfiprintf_r+0x1c8>
 80057ce:	2201      	movs	r2, #1
 80057d0:	2300      	movs	r3, #0
 80057d2:	4252      	negs	r2, r2
 80057d4:	6062      	str	r2, [r4, #4]
 80057d6:	a904      	add	r1, sp, #16
 80057d8:	3254      	adds	r2, #84	@ 0x54
 80057da:	1852      	adds	r2, r2, r1
 80057dc:	1c6e      	adds	r6, r5, #1
 80057de:	6023      	str	r3, [r4, #0]
 80057e0:	60e3      	str	r3, [r4, #12]
 80057e2:	60a3      	str	r3, [r4, #8]
 80057e4:	7013      	strb	r3, [r2, #0]
 80057e6:	65a3      	str	r3, [r4, #88]	@ 0x58
 80057e8:	4b54      	ldr	r3, [pc, #336]	@ (800593c <_svfiprintf_r+0x1e8>)
 80057ea:	2205      	movs	r2, #5
 80057ec:	0018      	movs	r0, r3
 80057ee:	7831      	ldrb	r1, [r6, #0]
 80057f0:	9305      	str	r3, [sp, #20]
 80057f2:	f000 fcc1 	bl	8006178 <memchr>
 80057f6:	1c75      	adds	r5, r6, #1
 80057f8:	2800      	cmp	r0, #0
 80057fa:	d11f      	bne.n	800583c <_svfiprintf_r+0xe8>
 80057fc:	6822      	ldr	r2, [r4, #0]
 80057fe:	06d3      	lsls	r3, r2, #27
 8005800:	d504      	bpl.n	800580c <_svfiprintf_r+0xb8>
 8005802:	2353      	movs	r3, #83	@ 0x53
 8005804:	a904      	add	r1, sp, #16
 8005806:	185b      	adds	r3, r3, r1
 8005808:	2120      	movs	r1, #32
 800580a:	7019      	strb	r1, [r3, #0]
 800580c:	0713      	lsls	r3, r2, #28
 800580e:	d504      	bpl.n	800581a <_svfiprintf_r+0xc6>
 8005810:	2353      	movs	r3, #83	@ 0x53
 8005812:	a904      	add	r1, sp, #16
 8005814:	185b      	adds	r3, r3, r1
 8005816:	212b      	movs	r1, #43	@ 0x2b
 8005818:	7019      	strb	r1, [r3, #0]
 800581a:	7833      	ldrb	r3, [r6, #0]
 800581c:	2b2a      	cmp	r3, #42	@ 0x2a
 800581e:	d016      	beq.n	800584e <_svfiprintf_r+0xfa>
 8005820:	0035      	movs	r5, r6
 8005822:	2100      	movs	r1, #0
 8005824:	200a      	movs	r0, #10
 8005826:	68e3      	ldr	r3, [r4, #12]
 8005828:	782a      	ldrb	r2, [r5, #0]
 800582a:	1c6e      	adds	r6, r5, #1
 800582c:	3a30      	subs	r2, #48	@ 0x30
 800582e:	2a09      	cmp	r2, #9
 8005830:	d950      	bls.n	80058d4 <_svfiprintf_r+0x180>
 8005832:	2900      	cmp	r1, #0
 8005834:	d111      	bne.n	800585a <_svfiprintf_r+0x106>
 8005836:	e017      	b.n	8005868 <_svfiprintf_r+0x114>
 8005838:	3501      	adds	r5, #1
 800583a:	e7af      	b.n	800579c <_svfiprintf_r+0x48>
 800583c:	9b05      	ldr	r3, [sp, #20]
 800583e:	6822      	ldr	r2, [r4, #0]
 8005840:	1ac0      	subs	r0, r0, r3
 8005842:	2301      	movs	r3, #1
 8005844:	4083      	lsls	r3, r0
 8005846:	4313      	orrs	r3, r2
 8005848:	002e      	movs	r6, r5
 800584a:	6023      	str	r3, [r4, #0]
 800584c:	e7cc      	b.n	80057e8 <_svfiprintf_r+0x94>
 800584e:	9b07      	ldr	r3, [sp, #28]
 8005850:	1d19      	adds	r1, r3, #4
 8005852:	681b      	ldr	r3, [r3, #0]
 8005854:	9107      	str	r1, [sp, #28]
 8005856:	2b00      	cmp	r3, #0
 8005858:	db01      	blt.n	800585e <_svfiprintf_r+0x10a>
 800585a:	930b      	str	r3, [sp, #44]	@ 0x2c
 800585c:	e004      	b.n	8005868 <_svfiprintf_r+0x114>
 800585e:	425b      	negs	r3, r3
 8005860:	60e3      	str	r3, [r4, #12]
 8005862:	2302      	movs	r3, #2
 8005864:	4313      	orrs	r3, r2
 8005866:	6023      	str	r3, [r4, #0]
 8005868:	782b      	ldrb	r3, [r5, #0]
 800586a:	2b2e      	cmp	r3, #46	@ 0x2e
 800586c:	d10c      	bne.n	8005888 <_svfiprintf_r+0x134>
 800586e:	786b      	ldrb	r3, [r5, #1]
 8005870:	2b2a      	cmp	r3, #42	@ 0x2a
 8005872:	d134      	bne.n	80058de <_svfiprintf_r+0x18a>
 8005874:	9b07      	ldr	r3, [sp, #28]
 8005876:	3502      	adds	r5, #2
 8005878:	1d1a      	adds	r2, r3, #4
 800587a:	681b      	ldr	r3, [r3, #0]
 800587c:	9207      	str	r2, [sp, #28]
 800587e:	2b00      	cmp	r3, #0
 8005880:	da01      	bge.n	8005886 <_svfiprintf_r+0x132>
 8005882:	2301      	movs	r3, #1
 8005884:	425b      	negs	r3, r3
 8005886:	9309      	str	r3, [sp, #36]	@ 0x24
 8005888:	4e2d      	ldr	r6, [pc, #180]	@ (8005940 <_svfiprintf_r+0x1ec>)
 800588a:	2203      	movs	r2, #3
 800588c:	0030      	movs	r0, r6
 800588e:	7829      	ldrb	r1, [r5, #0]
 8005890:	f000 fc72 	bl	8006178 <memchr>
 8005894:	2800      	cmp	r0, #0
 8005896:	d006      	beq.n	80058a6 <_svfiprintf_r+0x152>
 8005898:	2340      	movs	r3, #64	@ 0x40
 800589a:	1b80      	subs	r0, r0, r6
 800589c:	4083      	lsls	r3, r0
 800589e:	6822      	ldr	r2, [r4, #0]
 80058a0:	3501      	adds	r5, #1
 80058a2:	4313      	orrs	r3, r2
 80058a4:	6023      	str	r3, [r4, #0]
 80058a6:	7829      	ldrb	r1, [r5, #0]
 80058a8:	2206      	movs	r2, #6
 80058aa:	4826      	ldr	r0, [pc, #152]	@ (8005944 <_svfiprintf_r+0x1f0>)
 80058ac:	1c6e      	adds	r6, r5, #1
 80058ae:	7621      	strb	r1, [r4, #24]
 80058b0:	f000 fc62 	bl	8006178 <memchr>
 80058b4:	2800      	cmp	r0, #0
 80058b6:	d038      	beq.n	800592a <_svfiprintf_r+0x1d6>
 80058b8:	4b23      	ldr	r3, [pc, #140]	@ (8005948 <_svfiprintf_r+0x1f4>)
 80058ba:	2b00      	cmp	r3, #0
 80058bc:	d122      	bne.n	8005904 <_svfiprintf_r+0x1b0>
 80058be:	2207      	movs	r2, #7
 80058c0:	9b07      	ldr	r3, [sp, #28]
 80058c2:	3307      	adds	r3, #7
 80058c4:	4393      	bics	r3, r2
 80058c6:	3308      	adds	r3, #8
 80058c8:	9307      	str	r3, [sp, #28]
 80058ca:	6963      	ldr	r3, [r4, #20]
 80058cc:	9a04      	ldr	r2, [sp, #16]
 80058ce:	189b      	adds	r3, r3, r2
 80058d0:	6163      	str	r3, [r4, #20]
 80058d2:	e762      	b.n	800579a <_svfiprintf_r+0x46>
 80058d4:	4343      	muls	r3, r0
 80058d6:	0035      	movs	r5, r6
 80058d8:	2101      	movs	r1, #1
 80058da:	189b      	adds	r3, r3, r2
 80058dc:	e7a4      	b.n	8005828 <_svfiprintf_r+0xd4>
 80058de:	2300      	movs	r3, #0
 80058e0:	200a      	movs	r0, #10
 80058e2:	0019      	movs	r1, r3
 80058e4:	3501      	adds	r5, #1
 80058e6:	6063      	str	r3, [r4, #4]
 80058e8:	782a      	ldrb	r2, [r5, #0]
 80058ea:	1c6e      	adds	r6, r5, #1
 80058ec:	3a30      	subs	r2, #48	@ 0x30
 80058ee:	2a09      	cmp	r2, #9
 80058f0:	d903      	bls.n	80058fa <_svfiprintf_r+0x1a6>
 80058f2:	2b00      	cmp	r3, #0
 80058f4:	d0c8      	beq.n	8005888 <_svfiprintf_r+0x134>
 80058f6:	9109      	str	r1, [sp, #36]	@ 0x24
 80058f8:	e7c6      	b.n	8005888 <_svfiprintf_r+0x134>
 80058fa:	4341      	muls	r1, r0
 80058fc:	0035      	movs	r5, r6
 80058fe:	2301      	movs	r3, #1
 8005900:	1889      	adds	r1, r1, r2
 8005902:	e7f1      	b.n	80058e8 <_svfiprintf_r+0x194>
 8005904:	aa07      	add	r2, sp, #28
 8005906:	9200      	str	r2, [sp, #0]
 8005908:	0021      	movs	r1, r4
 800590a:	003a      	movs	r2, r7
 800590c:	4b0f      	ldr	r3, [pc, #60]	@ (800594c <_svfiprintf_r+0x1f8>)
 800590e:	9803      	ldr	r0, [sp, #12]
 8005910:	e000      	b.n	8005914 <_svfiprintf_r+0x1c0>
 8005912:	bf00      	nop
 8005914:	9004      	str	r0, [sp, #16]
 8005916:	9b04      	ldr	r3, [sp, #16]
 8005918:	3301      	adds	r3, #1
 800591a:	d1d6      	bne.n	80058ca <_svfiprintf_r+0x176>
 800591c:	89bb      	ldrh	r3, [r7, #12]
 800591e:	980d      	ldr	r0, [sp, #52]	@ 0x34
 8005920:	065b      	lsls	r3, r3, #25
 8005922:	d500      	bpl.n	8005926 <_svfiprintf_r+0x1d2>
 8005924:	e72c      	b.n	8005780 <_svfiprintf_r+0x2c>
 8005926:	b021      	add	sp, #132	@ 0x84
 8005928:	bdf0      	pop	{r4, r5, r6, r7, pc}
 800592a:	aa07      	add	r2, sp, #28
 800592c:	9200      	str	r2, [sp, #0]
 800592e:	0021      	movs	r1, r4
 8005930:	003a      	movs	r2, r7
 8005932:	4b06      	ldr	r3, [pc, #24]	@ (800594c <_svfiprintf_r+0x1f8>)
 8005934:	9803      	ldr	r0, [sp, #12]
 8005936:	f000 f9bf 	bl	8005cb8 <_printf_i>
 800593a:	e7eb      	b.n	8005914 <_svfiprintf_r+0x1c0>
 800593c:	08006350 	.word	0x08006350
 8005940:	08006356 	.word	0x08006356
 8005944:	0800635a 	.word	0x0800635a
 8005948:	00000000 	.word	0x00000000
 800594c:	08005695 	.word	0x08005695

08005950 <__sfputc_r>:
 8005950:	6893      	ldr	r3, [r2, #8]
 8005952:	b510      	push	{r4, lr}
 8005954:	3b01      	subs	r3, #1
 8005956:	6093      	str	r3, [r2, #8]
 8005958:	2b00      	cmp	r3, #0
 800595a:	da04      	bge.n	8005966 <__sfputc_r+0x16>
 800595c:	6994      	ldr	r4, [r2, #24]
 800595e:	42a3      	cmp	r3, r4
 8005960:	db07      	blt.n	8005972 <__sfputc_r+0x22>
 8005962:	290a      	cmp	r1, #10
 8005964:	d005      	beq.n	8005972 <__sfputc_r+0x22>
 8005966:	6813      	ldr	r3, [r2, #0]
 8005968:	1c58      	adds	r0, r3, #1
 800596a:	6010      	str	r0, [r2, #0]
 800596c:	7019      	strb	r1, [r3, #0]
 800596e:	0008      	movs	r0, r1
 8005970:	bd10      	pop	{r4, pc}
 8005972:	f7ff fc55 	bl	8005220 <__swbuf_r>
 8005976:	0001      	movs	r1, r0
 8005978:	e7f9      	b.n	800596e <__sfputc_r+0x1e>

0800597a <__sfputs_r>:
 800597a:	b5f8      	push	{r3, r4, r5, r6, r7, lr}
 800597c:	0006      	movs	r6, r0
 800597e:	000f      	movs	r7, r1
 8005980:	0014      	movs	r4, r2
 8005982:	18d5      	adds	r5, r2, r3
 8005984:	42ac      	cmp	r4, r5
 8005986:	d101      	bne.n	800598c <__sfputs_r+0x12>
 8005988:	2000      	movs	r0, #0
 800598a:	e007      	b.n	800599c <__sfputs_r+0x22>
 800598c:	7821      	ldrb	r1, [r4, #0]
 800598e:	003a      	movs	r2, r7
 8005990:	0030      	movs	r0, r6
 8005992:	f7ff ffdd 	bl	8005950 <__sfputc_r>
 8005996:	3401      	adds	r4, #1
 8005998:	1c43      	adds	r3, r0, #1
 800599a:	d1f3      	bne.n	8005984 <__sfputs_r+0xa>
 800599c:	bdf8      	pop	{r3, r4, r5, r6, r7, pc}
	...

080059a0 <_vfiprintf_r>:
 80059a0:	b5f0      	push	{r4, r5, r6, r7, lr}
 80059a2:	b0a1      	sub	sp, #132	@ 0x84
 80059a4:	000f      	movs	r7, r1
 80059a6:	0015      	movs	r5, r2
 80059a8:	001e      	movs	r6, r3
 80059aa:	9003      	str	r0, [sp, #12]
 80059ac:	2800      	cmp	r0, #0
 80059ae:	d004      	beq.n	80059ba <_vfiprintf_r+0x1a>
 80059b0:	6a03      	ldr	r3, [r0, #32]
 80059b2:	2b00      	cmp	r3, #0
 80059b4:	d101      	bne.n	80059ba <_vfiprintf_r+0x1a>
 80059b6:	f7ff fb21 	bl	8004ffc <__sinit>
 80059ba:	6e7b      	ldr	r3, [r7, #100]	@ 0x64
 80059bc:	07db      	lsls	r3, r3, #31
 80059be:	d405      	bmi.n	80059cc <_vfiprintf_r+0x2c>
 80059c0:	89bb      	ldrh	r3, [r7, #12]
 80059c2:	059b      	lsls	r3, r3, #22
 80059c4:	d402      	bmi.n	80059cc <_vfiprintf_r+0x2c>
 80059c6:	6db8      	ldr	r0, [r7, #88]	@ 0x58
 80059c8:	f7ff fd5d 	bl	8005486 <__retarget_lock_acquire_recursive>
 80059cc:	89bb      	ldrh	r3, [r7, #12]
 80059ce:	071b      	lsls	r3, r3, #28
 80059d0:	d502      	bpl.n	80059d8 <_vfiprintf_r+0x38>
 80059d2:	693b      	ldr	r3, [r7, #16]
 80059d4:	2b00      	cmp	r3, #0
 80059d6:	d113      	bne.n	8005a00 <_vfiprintf_r+0x60>
 80059d8:	0039      	movs	r1, r7
 80059da:	9803      	ldr	r0, [sp, #12]
 80059dc:	f7ff fc62 	bl	80052a4 <__swsetup_r>
 80059e0:	2800      	cmp	r0, #0
 80059e2:	d00d      	beq.n	8005a00 <_vfiprintf_r+0x60>
 80059e4:	6e7b      	ldr	r3, [r7, #100]	@ 0x64
 80059e6:	07db      	lsls	r3, r3, #31
 80059e8:	d503      	bpl.n	80059f2 <_vfiprintf_r+0x52>
 80059ea:	2001      	movs	r0, #1
 80059ec:	4240      	negs	r0, r0
 80059ee:	b021      	add	sp, #132	@ 0x84
 80059f0:	bdf0      	pop	{r4, r5, r6, r7, pc}
 80059f2:	89bb      	ldrh	r3, [r7, #12]
 80059f4:	059b      	lsls	r3, r3, #22
 80059f6:	d4f8      	bmi.n	80059ea <_vfiprintf_r+0x4a>
 80059f8:	6db8      	ldr	r0, [r7, #88]	@ 0x58
 80059fa:	f7ff fd45 	bl	8005488 <__retarget_lock_release_recursive>
 80059fe:	e7f4      	b.n	80059ea <_vfiprintf_r+0x4a>
 8005a00:	2300      	movs	r3, #0
 8005a02:	ac08      	add	r4, sp, #32
 8005a04:	6163      	str	r3, [r4, #20]
 8005a06:	3320      	adds	r3, #32
 8005a08:	7663      	strb	r3, [r4, #25]
 8005a0a:	3310      	adds	r3, #16
 8005a0c:	76a3      	strb	r3, [r4, #26]
 8005a0e:	9607      	str	r6, [sp, #28]
 8005a10:	002e      	movs	r6, r5
 8005a12:	7833      	ldrb	r3, [r6, #0]
 8005a14:	2b00      	cmp	r3, #0
 8005a16:	d001      	beq.n	8005a1c <_vfiprintf_r+0x7c>
 8005a18:	2b25      	cmp	r3, #37	@ 0x25
 8005a1a:	d148      	bne.n	8005aae <_vfiprintf_r+0x10e>
 8005a1c:	1b73      	subs	r3, r6, r5
 8005a1e:	9305      	str	r3, [sp, #20]
 8005a20:	42ae      	cmp	r6, r5
 8005a22:	d00b      	beq.n	8005a3c <_vfiprintf_r+0x9c>
 8005a24:	002a      	movs	r2, r5
 8005a26:	0039      	movs	r1, r7
 8005a28:	9803      	ldr	r0, [sp, #12]
 8005a2a:	f7ff ffa6 	bl	800597a <__sfputs_r>
 8005a2e:	3001      	adds	r0, #1
 8005a30:	d100      	bne.n	8005a34 <_vfiprintf_r+0x94>
 8005a32:	e0ae      	b.n	8005b92 <_vfiprintf_r+0x1f2>
 8005a34:	6963      	ldr	r3, [r4, #20]
 8005a36:	9a05      	ldr	r2, [sp, #20]
 8005a38:	189b      	adds	r3, r3, r2
 8005a3a:	6163      	str	r3, [r4, #20]
 8005a3c:	7833      	ldrb	r3, [r6, #0]
 8005a3e:	2b00      	cmp	r3, #0
 8005a40:	d100      	bne.n	8005a44 <_vfiprintf_r+0xa4>
 8005a42:	e0a6      	b.n	8005b92 <_vfiprintf_r+0x1f2>
 8005a44:	2201      	movs	r2, #1
 8005a46:	2300      	movs	r3, #0
 8005a48:	4252      	negs	r2, r2
 8005a4a:	6062      	str	r2, [r4, #4]
 8005a4c:	a904      	add	r1, sp, #16
 8005a4e:	3254      	adds	r2, #84	@ 0x54
 8005a50:	1852      	adds	r2, r2, r1
 8005a52:	1c75      	adds	r5, r6, #1
 8005a54:	6023      	str	r3, [r4, #0]
 8005a56:	60e3      	str	r3, [r4, #12]
 8005a58:	60a3      	str	r3, [r4, #8]
 8005a5a:	7013      	strb	r3, [r2, #0]
 8005a5c:	65a3      	str	r3, [r4, #88]	@ 0x58
 8005a5e:	4b59      	ldr	r3, [pc, #356]	@ (8005bc4 <_vfiprintf_r+0x224>)
 8005a60:	2205      	movs	r2, #5
 8005a62:	0018      	movs	r0, r3
 8005a64:	7829      	ldrb	r1, [r5, #0]
 8005a66:	9305      	str	r3, [sp, #20]
 8005a68:	f000 fb86 	bl	8006178 <memchr>
 8005a6c:	1c6e      	adds	r6, r5, #1
 8005a6e:	2800      	cmp	r0, #0
 8005a70:	d11f      	bne.n	8005ab2 <_vfiprintf_r+0x112>
 8005a72:	6822      	ldr	r2, [r4, #0]
 8005a74:	06d3      	lsls	r3, r2, #27
 8005a76:	d504      	bpl.n	8005a82 <_vfiprintf_r+0xe2>
 8005a78:	2353      	movs	r3, #83	@ 0x53
 8005a7a:	a904      	add	r1, sp, #16
 8005a7c:	185b      	adds	r3, r3, r1
 8005a7e:	2120      	movs	r1, #32
 8005a80:	7019      	strb	r1, [r3, #0]
 8005a82:	0713      	lsls	r3, r2, #28
 8005a84:	d504      	bpl.n	8005a90 <_vfiprintf_r+0xf0>
 8005a86:	2353      	movs	r3, #83	@ 0x53
 8005a88:	a904      	add	r1, sp, #16
 8005a8a:	185b      	adds	r3, r3, r1
 8005a8c:	212b      	movs	r1, #43	@ 0x2b
 8005a8e:	7019      	strb	r1, [r3, #0]
 8005a90:	782b      	ldrb	r3, [r5, #0]
 8005a92:	2b2a      	cmp	r3, #42	@ 0x2a
 8005a94:	d016      	beq.n	8005ac4 <_vfiprintf_r+0x124>
 8005a96:	002e      	movs	r6, r5
 8005a98:	2100      	movs	r1, #0
 8005a9a:	200a      	movs	r0, #10
 8005a9c:	68e3      	ldr	r3, [r4, #12]
 8005a9e:	7832      	ldrb	r2, [r6, #0]
 8005aa0:	1c75      	adds	r5, r6, #1
 8005aa2:	3a30      	subs	r2, #48	@ 0x30
 8005aa4:	2a09      	cmp	r2, #9
 8005aa6:	d950      	bls.n	8005b4a <_vfiprintf_r+0x1aa>
 8005aa8:	2900      	cmp	r1, #0
 8005aaa:	d111      	bne.n	8005ad0 <_vfiprintf_r+0x130>
 8005aac:	e017      	b.n	8005ade <_vfiprintf_r+0x13e>
 8005aae:	3601      	adds	r6, #1
 8005ab0:	e7af      	b.n	8005a12 <_vfiprintf_r+0x72>
 8005ab2:	9b05      	ldr	r3, [sp, #20]
 8005ab4:	6822      	ldr	r2, [r4, #0]
 8005ab6:	1ac0      	subs	r0, r0, r3
 8005ab8:	2301      	movs	r3, #1
 8005aba:	4083      	lsls	r3, r0
 8005abc:	4313      	orrs	r3, r2
 8005abe:	0035      	movs	r5, r6
 8005ac0:	6023      	str	r3, [r4, #0]
 8005ac2:	e7cc      	b.n	8005a5e <_vfiprintf_r+0xbe>
 8005ac4:	9b07      	ldr	r3, [sp, #28]
 8005ac6:	1d19      	adds	r1, r3, #4
 8005ac8:	681b      	ldr	r3, [r3, #0]
 8005aca:	9107      	str	r1, [sp, #28]
 8005acc:	2b00      	cmp	r3, #0
 8005ace:	db01      	blt.n	8005ad4 <_vfiprintf_r+0x134>
 8005ad0:	930b      	str	r3, [sp, #44]	@ 0x2c
 8005ad2:	e004      	b.n	8005ade <_vfiprintf_r+0x13e>
 8005ad4:	425b      	negs	r3, r3
 8005ad6:	60e3      	str	r3, [r4, #12]
 8005ad8:	2302      	movs	r3, #2
 8005ada:	4313      	orrs	r3, r2
 8005adc:	6023      	str	r3, [r4, #0]
 8005ade:	7833      	ldrb	r3, [r6, #0]
 8005ae0:	2b2e      	cmp	r3, #46	@ 0x2e
 8005ae2:	d10c      	bne.n	8005afe <_vfiprintf_r+0x15e>
 8005ae4:	7873      	ldrb	r3, [r6, #1]
 8005ae6:	2b2a      	cmp	r3, #42	@ 0x2a
 8005ae8:	d134      	bne.n	8005b54 <_vfiprintf_r+0x1b4>
 8005aea:	9b07      	ldr	r3, [sp, #28]
 8005aec:	3602      	adds	r6, #2
 8005aee:	1d1a      	adds	r2, r3, #4
 8005af0:	681b      	ldr	r3, [r3, #0]
 8005af2:	9207      	str	r2, [sp, #28]
 8005af4:	2b00      	cmp	r3, #0
 8005af6:	da01      	bge.n	8005afc <_vfiprintf_r+0x15c>
 8005af8:	2301      	movs	r3, #1
 8005afa:	425b      	negs	r3, r3
 8005afc:	9309      	str	r3, [sp, #36]	@ 0x24
 8005afe:	4d32      	ldr	r5, [pc, #200]	@ (8005bc8 <_vfiprintf_r+0x228>)
 8005b00:	2203      	movs	r2, #3
 8005b02:	0028      	movs	r0, r5
 8005b04:	7831      	ldrb	r1, [r6, #0]
 8005b06:	f000 fb37 	bl	8006178 <memchr>
 8005b0a:	2800      	cmp	r0, #0
 8005b0c:	d006      	beq.n	8005b1c <_vfiprintf_r+0x17c>
 8005b0e:	2340      	movs	r3, #64	@ 0x40
 8005b10:	1b40      	subs	r0, r0, r5
 8005b12:	4083      	lsls	r3, r0
 8005b14:	6822      	ldr	r2, [r4, #0]
 8005b16:	3601      	adds	r6, #1
 8005b18:	4313      	orrs	r3, r2
 8005b1a:	6023      	str	r3, [r4, #0]
 8005b1c:	7831      	ldrb	r1, [r6, #0]
 8005b1e:	2206      	movs	r2, #6
 8005b20:	482a      	ldr	r0, [pc, #168]	@ (8005bcc <_vfiprintf_r+0x22c>)
 8005b22:	1c75      	adds	r5, r6, #1
 8005b24:	7621      	strb	r1, [r4, #24]
 8005b26:	f000 fb27 	bl	8006178 <memchr>
 8005b2a:	2800      	cmp	r0, #0
 8005b2c:	d040      	beq.n	8005bb0 <_vfiprintf_r+0x210>
 8005b2e:	4b28      	ldr	r3, [pc, #160]	@ (8005bd0 <_vfiprintf_r+0x230>)
 8005b30:	2b00      	cmp	r3, #0
 8005b32:	d122      	bne.n	8005b7a <_vfiprintf_r+0x1da>
 8005b34:	2207      	movs	r2, #7
 8005b36:	9b07      	ldr	r3, [sp, #28]
 8005b38:	3307      	adds	r3, #7
 8005b3a:	4393      	bics	r3, r2
 8005b3c:	3308      	adds	r3, #8
 8005b3e:	9307      	str	r3, [sp, #28]
 8005b40:	6963      	ldr	r3, [r4, #20]
 8005b42:	9a04      	ldr	r2, [sp, #16]
 8005b44:	189b      	adds	r3, r3, r2
 8005b46:	6163      	str	r3, [r4, #20]
 8005b48:	e762      	b.n	8005a10 <_vfiprintf_r+0x70>
 8005b4a:	4343      	muls	r3, r0
 8005b4c:	002e      	movs	r6, r5
 8005b4e:	2101      	movs	r1, #1
 8005b50:	189b      	adds	r3, r3, r2
 8005b52:	e7a4      	b.n	8005a9e <_vfiprintf_r+0xfe>
 8005b54:	2300      	movs	r3, #0
 8005b56:	200a      	movs	r0, #10
 8005b58:	0019      	movs	r1, r3
 8005b5a:	3601      	adds	r6, #1
 8005b5c:	6063      	str	r3, [r4, #4]
 8005b5e:	7832      	ldrb	r2, [r6, #0]
 8005b60:	1c75      	adds	r5, r6, #1
 8005b62:	3a30      	subs	r2, #48	@ 0x30
 8005b64:	2a09      	cmp	r2, #9
 8005b66:	d903      	bls.n	8005b70 <_vfiprintf_r+0x1d0>
 8005b68:	2b00      	cmp	r3, #0
 8005b6a:	d0c8      	beq.n	8005afe <_vfiprintf_r+0x15e>
 8005b6c:	9109      	str	r1, [sp, #36]	@ 0x24
 8005b6e:	e7c6      	b.n	8005afe <_vfiprintf_r+0x15e>
 8005b70:	4341      	muls	r1, r0
 8005b72:	002e      	movs	r6, r5
 8005b74:	2301      	movs	r3, #1
 8005b76:	1889      	adds	r1, r1, r2
 8005b78:	e7f1      	b.n	8005b5e <_vfiprintf_r+0x1be>
 8005b7a:	aa07      	add	r2, sp, #28
 8005b7c:	9200      	str	r2, [sp, #0]
 8005b7e:	0021      	movs	r1, r4
 8005b80:	003a      	movs	r2, r7
 8005b82:	4b14      	ldr	r3, [pc, #80]	@ (8005bd4 <_vfiprintf_r+0x234>)
 8005b84:	9803      	ldr	r0, [sp, #12]
 8005b86:	e000      	b.n	8005b8a <_vfiprintf_r+0x1ea>
 8005b88:	bf00      	nop
 8005b8a:	9004      	str	r0, [sp, #16]
 8005b8c:	9b04      	ldr	r3, [sp, #16]
 8005b8e:	3301      	adds	r3, #1
 8005b90:	d1d6      	bne.n	8005b40 <_vfiprintf_r+0x1a0>
 8005b92:	6e7b      	ldr	r3, [r7, #100]	@ 0x64
 8005b94:	07db      	lsls	r3, r3, #31
 8005b96:	d405      	bmi.n	8005ba4 <_vfiprintf_r+0x204>
 8005b98:	89bb      	ldrh	r3, [r7, #12]
 8005b9a:	059b      	lsls	r3, r3, #22
 8005b9c:	d402      	bmi.n	8005ba4 <_vfiprintf_r+0x204>
 8005b9e:	6db8      	ldr	r0, [r7, #88]	@ 0x58
 8005ba0:	f7ff fc72 	bl	8005488 <__retarget_lock_release_recursive>
 8005ba4:	89bb      	ldrh	r3, [r7, #12]
 8005ba6:	065b      	lsls	r3, r3, #25
 8005ba8:	d500      	bpl.n	8005bac <_vfiprintf_r+0x20c>
 8005baa:	e71e      	b.n	80059ea <_vfiprintf_r+0x4a>
 8005bac:	980d      	ldr	r0, [sp, #52]	@ 0x34
 8005bae:	e71e      	b.n	80059ee <_vfiprintf_r+0x4e>
 8005bb0:	aa07      	add	r2, sp, #28
 8005bb2:	9200      	str	r2, [sp, #0]
 8005bb4:	0021      	movs	r1, r4
 8005bb6:	003a      	movs	r2, r7
 8005bb8:	4b06      	ldr	r3, [pc, #24]	@ (8005bd4 <_vfiprintf_r+0x234>)
 8005bba:	9803      	ldr	r0, [sp, #12]
 8005bbc:	f000 f87c 	bl	8005cb8 <_printf_i>
 8005bc0:	e7e3      	b.n	8005b8a <_vfiprintf_r+0x1ea>
 8005bc2:	46c0      	nop			@ (mov r8, r8)
 8005bc4:	08006350 	.word	0x08006350
 8005bc8:	08006356 	.word	0x08006356
 8005bcc:	0800635a 	.word	0x0800635a
 8005bd0:	00000000 	.word	0x00000000
 8005bd4:	0800597b 	.word	0x0800597b

08005bd8 <_printf_common>:
 8005bd8:	b5f7      	push	{r0, r1, r2, r4, r5, r6, r7, lr}
 8005bda:	0016      	movs	r6, r2
 8005bdc:	9301      	str	r3, [sp, #4]
 8005bde:	688a      	ldr	r2, [r1, #8]
 8005be0:	690b      	ldr	r3, [r1, #16]
 8005be2:	000c      	movs	r4, r1
 8005be4:	9000      	str	r0, [sp, #0]
 8005be6:	4293      	cmp	r3, r2
 8005be8:	da00      	bge.n	8005bec <_printf_common+0x14>
 8005bea:	0013      	movs	r3, r2
 8005bec:	0022      	movs	r2, r4
 8005bee:	6033      	str	r3, [r6, #0]
 8005bf0:	3243      	adds	r2, #67	@ 0x43
 8005bf2:	7812      	ldrb	r2, [r2, #0]
 8005bf4:	2a00      	cmp	r2, #0
 8005bf6:	d001      	beq.n	8005bfc <_printf_common+0x24>
 8005bf8:	3301      	adds	r3, #1
 8005bfa:	6033      	str	r3, [r6, #0]
 8005bfc:	6823      	ldr	r3, [r4, #0]
 8005bfe:	069b      	lsls	r3, r3, #26
 8005c00:	d502      	bpl.n	8005c08 <_printf_common+0x30>
 8005c02:	6833      	ldr	r3, [r6, #0]
 8005c04:	3302      	adds	r3, #2
 8005c06:	6033      	str	r3, [r6, #0]
 8005c08:	6822      	ldr	r2, [r4, #0]
 8005c0a:	2306      	movs	r3, #6
 8005c0c:	0015      	movs	r5, r2
 8005c0e:	401d      	ands	r5, r3
 8005c10:	421a      	tst	r2, r3
 8005c12:	d027      	beq.n	8005c64 <_printf_common+0x8c>
 8005c14:	0023      	movs	r3, r4
 8005c16:	3343      	adds	r3, #67	@ 0x43
 8005c18:	781b      	ldrb	r3, [r3, #0]
 8005c1a:	1e5a      	subs	r2, r3, #1
 8005c1c:	4193      	sbcs	r3, r2
 8005c1e:	6822      	ldr	r2, [r4, #0]
 8005c20:	0692      	lsls	r2, r2, #26
 8005c22:	d430      	bmi.n	8005c86 <_printf_common+0xae>
 8005c24:	0022      	movs	r2, r4
 8005c26:	9901      	ldr	r1, [sp, #4]
 8005c28:	9800      	ldr	r0, [sp, #0]
 8005c2a:	9d08      	ldr	r5, [sp, #32]
 8005c2c:	3243      	adds	r2, #67	@ 0x43
 8005c2e:	47a8      	blx	r5
 8005c30:	3001      	adds	r0, #1
 8005c32:	d025      	beq.n	8005c80 <_printf_common+0xa8>
 8005c34:	2206      	movs	r2, #6
 8005c36:	6823      	ldr	r3, [r4, #0]
 8005c38:	2500      	movs	r5, #0
 8005c3a:	4013      	ands	r3, r2
 8005c3c:	2b04      	cmp	r3, #4
 8005c3e:	d105      	bne.n	8005c4c <_printf_common+0x74>
 8005c40:	6833      	ldr	r3, [r6, #0]
 8005c42:	68e5      	ldr	r5, [r4, #12]
 8005c44:	1aed      	subs	r5, r5, r3
 8005c46:	43eb      	mvns	r3, r5
 8005c48:	17db      	asrs	r3, r3, #31
 8005c4a:	401d      	ands	r5, r3
 8005c4c:	68a3      	ldr	r3, [r4, #8]
 8005c4e:	6922      	ldr	r2, [r4, #16]
 8005c50:	4293      	cmp	r3, r2
 8005c52:	dd01      	ble.n	8005c58 <_printf_common+0x80>
 8005c54:	1a9b      	subs	r3, r3, r2
 8005c56:	18ed      	adds	r5, r5, r3
 8005c58:	2600      	movs	r6, #0
 8005c5a:	42b5      	cmp	r5, r6
 8005c5c:	d120      	bne.n	8005ca0 <_printf_common+0xc8>
 8005c5e:	2000      	movs	r0, #0
 8005c60:	e010      	b.n	8005c84 <_printf_common+0xac>
 8005c62:	3501      	adds	r5, #1
 8005c64:	68e3      	ldr	r3, [r4, #12]
 8005c66:	6832      	ldr	r2, [r6, #0]
 8005c68:	1a9b      	subs	r3, r3, r2
 8005c6a:	42ab      	cmp	r3, r5
 8005c6c:	ddd2      	ble.n	8005c14 <_printf_common+0x3c>
 8005c6e:	0022      	movs	r2, r4
 8005c70:	2301      	movs	r3, #1
 8005c72:	9901      	ldr	r1, [sp, #4]
 8005c74:	9800      	ldr	r0, [sp, #0]
 8005c76:	9f08      	ldr	r7, [sp, #32]
 8005c78:	3219      	adds	r2, #25
 8005c7a:	47b8      	blx	r7
 8005c7c:	3001      	adds	r0, #1
 8005c7e:	d1f0      	bne.n	8005c62 <_printf_common+0x8a>
 8005c80:	2001      	movs	r0, #1
 8005c82:	4240      	negs	r0, r0
 8005c84:	bdfe      	pop	{r1, r2, r3, r4, r5, r6, r7, pc}
 8005c86:	2030      	movs	r0, #48	@ 0x30
 8005c88:	18e1      	adds	r1, r4, r3
 8005c8a:	3143      	adds	r1, #67	@ 0x43
 8005c8c:	7008      	strb	r0, [r1, #0]
 8005c8e:	0021      	movs	r1, r4
 8005c90:	1c5a      	adds	r2, r3, #1
 8005c92:	3145      	adds	r1, #69	@ 0x45
 8005c94:	7809      	ldrb	r1, [r1, #0]
 8005c96:	18a2      	adds	r2, r4, r2
 8005c98:	3243      	adds	r2, #67	@ 0x43
 8005c9a:	3302      	adds	r3, #2
 8005c9c:	7011      	strb	r1, [r2, #0]
 8005c9e:	e7c1      	b.n	8005c24 <_printf_common+0x4c>
 8005ca0:	0022      	movs	r2, r4
 8005ca2:	2301      	movs	r3, #1
 8005ca4:	9901      	ldr	r1, [sp, #4]
 8005ca6:	9800      	ldr	r0, [sp, #0]
 8005ca8:	9f08      	ldr	r7, [sp, #32]
 8005caa:	321a      	adds	r2, #26
 8005cac:	47b8      	blx	r7
 8005cae:	3001      	adds	r0, #1
 8005cb0:	d0e6      	beq.n	8005c80 <_printf_common+0xa8>
 8005cb2:	3601      	adds	r6, #1
 8005cb4:	e7d1      	b.n	8005c5a <_printf_common+0x82>
	...

08005cb8 <_printf_i>:
 8005cb8:	b5f0      	push	{r4, r5, r6, r7, lr}
 8005cba:	b08b      	sub	sp, #44	@ 0x2c
 8005cbc:	9206      	str	r2, [sp, #24]
 8005cbe:	000a      	movs	r2, r1
 8005cc0:	3243      	adds	r2, #67	@ 0x43
 8005cc2:	9307      	str	r3, [sp, #28]
 8005cc4:	9005      	str	r0, [sp, #20]
 8005cc6:	9203      	str	r2, [sp, #12]
 8005cc8:	7e0a      	ldrb	r2, [r1, #24]
 8005cca:	000c      	movs	r4, r1
 8005ccc:	9b10      	ldr	r3, [sp, #64]	@ 0x40
 8005cce:	2a78      	cmp	r2, #120	@ 0x78
 8005cd0:	d809      	bhi.n	8005ce6 <_printf_i+0x2e>
 8005cd2:	2a62      	cmp	r2, #98	@ 0x62
 8005cd4:	d80b      	bhi.n	8005cee <_printf_i+0x36>
 8005cd6:	2a00      	cmp	r2, #0
 8005cd8:	d100      	bne.n	8005cdc <_printf_i+0x24>
 8005cda:	e0ba      	b.n	8005e52 <_printf_i+0x19a>
 8005cdc:	497a      	ldr	r1, [pc, #488]	@ (8005ec8 <_printf_i+0x210>)
 8005cde:	9104      	str	r1, [sp, #16]
 8005ce0:	2a58      	cmp	r2, #88	@ 0x58
 8005ce2:	d100      	bne.n	8005ce6 <_printf_i+0x2e>
 8005ce4:	e08e      	b.n	8005e04 <_printf_i+0x14c>
 8005ce6:	0025      	movs	r5, r4
 8005ce8:	3542      	adds	r5, #66	@ 0x42
 8005cea:	702a      	strb	r2, [r5, #0]
 8005cec:	e022      	b.n	8005d34 <_printf_i+0x7c>
 8005cee:	0010      	movs	r0, r2
 8005cf0:	3863      	subs	r0, #99	@ 0x63
 8005cf2:	2815      	cmp	r0, #21
 8005cf4:	d8f7      	bhi.n	8005ce6 <_printf_i+0x2e>
 8005cf6:	f7fa fa11 	bl	800011c <__gnu_thumb1_case_shi>
 8005cfa:	0016      	.short	0x0016
 8005cfc:	fff6001f 	.word	0xfff6001f
 8005d00:	fff6fff6 	.word	0xfff6fff6
 8005d04:	001ffff6 	.word	0x001ffff6
 8005d08:	fff6fff6 	.word	0xfff6fff6
 8005d0c:	fff6fff6 	.word	0xfff6fff6
 8005d10:	0036009f 	.word	0x0036009f
 8005d14:	fff6007e 	.word	0xfff6007e
 8005d18:	00b0fff6 	.word	0x00b0fff6
 8005d1c:	0036fff6 	.word	0x0036fff6
 8005d20:	fff6fff6 	.word	0xfff6fff6
 8005d24:	0082      	.short	0x0082
 8005d26:	0025      	movs	r5, r4
 8005d28:	681a      	ldr	r2, [r3, #0]
 8005d2a:	3542      	adds	r5, #66	@ 0x42
 8005d2c:	1d11      	adds	r1, r2, #4
 8005d2e:	6019      	str	r1, [r3, #0]
 8005d30:	6813      	ldr	r3, [r2, #0]
 8005d32:	702b      	strb	r3, [r5, #0]
 8005d34:	2301      	movs	r3, #1
 8005d36:	e09e      	b.n	8005e76 <_printf_i+0x1be>
 8005d38:	6818      	ldr	r0, [r3, #0]
 8005d3a:	6809      	ldr	r1, [r1, #0]
 8005d3c:	1d02      	adds	r2, r0, #4
 8005d3e:	060d      	lsls	r5, r1, #24
 8005d40:	d50b      	bpl.n	8005d5a <_printf_i+0xa2>
 8005d42:	6806      	ldr	r6, [r0, #0]
 8005d44:	601a      	str	r2, [r3, #0]
 8005d46:	2e00      	cmp	r6, #0
 8005d48:	da03      	bge.n	8005d52 <_printf_i+0x9a>
 8005d4a:	232d      	movs	r3, #45	@ 0x2d
 8005d4c:	9a03      	ldr	r2, [sp, #12]
 8005d4e:	4276      	negs	r6, r6
 8005d50:	7013      	strb	r3, [r2, #0]
 8005d52:	4b5d      	ldr	r3, [pc, #372]	@ (8005ec8 <_printf_i+0x210>)
 8005d54:	270a      	movs	r7, #10
 8005d56:	9304      	str	r3, [sp, #16]
 8005d58:	e018      	b.n	8005d8c <_printf_i+0xd4>
 8005d5a:	6806      	ldr	r6, [r0, #0]
 8005d5c:	601a      	str	r2, [r3, #0]
 8005d5e:	0649      	lsls	r1, r1, #25
 8005d60:	d5f1      	bpl.n	8005d46 <_printf_i+0x8e>
 8005d62:	b236      	sxth	r6, r6
 8005d64:	e7ef      	b.n	8005d46 <_printf_i+0x8e>
 8005d66:	6808      	ldr	r0, [r1, #0]
 8005d68:	6819      	ldr	r1, [r3, #0]
 8005d6a:	c940      	ldmia	r1!, {r6}
 8005d6c:	0605      	lsls	r5, r0, #24
 8005d6e:	d402      	bmi.n	8005d76 <_printf_i+0xbe>
 8005d70:	0640      	lsls	r0, r0, #25
 8005d72:	d500      	bpl.n	8005d76 <_printf_i+0xbe>
 8005d74:	b2b6      	uxth	r6, r6
 8005d76:	6019      	str	r1, [r3, #0]
 8005d78:	4b53      	ldr	r3, [pc, #332]	@ (8005ec8 <_printf_i+0x210>)
 8005d7a:	270a      	movs	r7, #10
 8005d7c:	9304      	str	r3, [sp, #16]
 8005d7e:	2a6f      	cmp	r2, #111	@ 0x6f
 8005d80:	d100      	bne.n	8005d84 <_printf_i+0xcc>
 8005d82:	3f02      	subs	r7, #2
 8005d84:	0023      	movs	r3, r4
 8005d86:	2200      	movs	r2, #0
 8005d88:	3343      	adds	r3, #67	@ 0x43
 8005d8a:	701a      	strb	r2, [r3, #0]
 8005d8c:	6863      	ldr	r3, [r4, #4]
 8005d8e:	60a3      	str	r3, [r4, #8]
 8005d90:	2b00      	cmp	r3, #0
 8005d92:	db06      	blt.n	8005da2 <_printf_i+0xea>
 8005d94:	2104      	movs	r1, #4
 8005d96:	6822      	ldr	r2, [r4, #0]
 8005d98:	9d03      	ldr	r5, [sp, #12]
 8005d9a:	438a      	bics	r2, r1
 8005d9c:	6022      	str	r2, [r4, #0]
 8005d9e:	4333      	orrs	r3, r6
 8005da0:	d00c      	beq.n	8005dbc <_printf_i+0x104>
 8005da2:	9d03      	ldr	r5, [sp, #12]
 8005da4:	0030      	movs	r0, r6
 8005da6:	0039      	movs	r1, r7
 8005da8:	f7fa fa48 	bl	800023c <__aeabi_uidivmod>
 8005dac:	9b04      	ldr	r3, [sp, #16]
 8005dae:	3d01      	subs	r5, #1
 8005db0:	5c5b      	ldrb	r3, [r3, r1]
 8005db2:	702b      	strb	r3, [r5, #0]
 8005db4:	0033      	movs	r3, r6
 8005db6:	0006      	movs	r6, r0
 8005db8:	429f      	cmp	r7, r3
 8005dba:	d9f3      	bls.n	8005da4 <_printf_i+0xec>
 8005dbc:	2f08      	cmp	r7, #8
 8005dbe:	d109      	bne.n	8005dd4 <_printf_i+0x11c>
 8005dc0:	6823      	ldr	r3, [r4, #0]
 8005dc2:	07db      	lsls	r3, r3, #31
 8005dc4:	d506      	bpl.n	8005dd4 <_printf_i+0x11c>
 8005dc6:	6862      	ldr	r2, [r4, #4]
 8005dc8:	6923      	ldr	r3, [r4, #16]
 8005dca:	429a      	cmp	r2, r3
 8005dcc:	dc02      	bgt.n	8005dd4 <_printf_i+0x11c>
 8005dce:	2330      	movs	r3, #48	@ 0x30
 8005dd0:	3d01      	subs	r5, #1
 8005dd2:	702b      	strb	r3, [r5, #0]
 8005dd4:	9b03      	ldr	r3, [sp, #12]
 8005dd6:	1b5b      	subs	r3, r3, r5
 8005dd8:	6123      	str	r3, [r4, #16]
 8005dda:	9b07      	ldr	r3, [sp, #28]
 8005ddc:	0021      	movs	r1, r4
 8005dde:	9300      	str	r3, [sp, #0]
 8005de0:	9805      	ldr	r0, [sp, #20]
 8005de2:	9b06      	ldr	r3, [sp, #24]
 8005de4:	aa09      	add	r2, sp, #36	@ 0x24
 8005de6:	f7ff fef7 	bl	8005bd8 <_printf_common>
 8005dea:	3001      	adds	r0, #1
 8005dec:	d148      	bne.n	8005e80 <_printf_i+0x1c8>
 8005dee:	2001      	movs	r0, #1
 8005df0:	4240      	negs	r0, r0
 8005df2:	b00b      	add	sp, #44	@ 0x2c
 8005df4:	bdf0      	pop	{r4, r5, r6, r7, pc}
 8005df6:	2220      	movs	r2, #32
 8005df8:	6809      	ldr	r1, [r1, #0]
 8005dfa:	430a      	orrs	r2, r1
 8005dfc:	6022      	str	r2, [r4, #0]
 8005dfe:	2278      	movs	r2, #120	@ 0x78
 8005e00:	4932      	ldr	r1, [pc, #200]	@ (8005ecc <_printf_i+0x214>)
 8005e02:	9104      	str	r1, [sp, #16]
 8005e04:	0021      	movs	r1, r4
 8005e06:	3145      	adds	r1, #69	@ 0x45
 8005e08:	700a      	strb	r2, [r1, #0]
 8005e0a:	6819      	ldr	r1, [r3, #0]
 8005e0c:	6822      	ldr	r2, [r4, #0]
 8005e0e:	c940      	ldmia	r1!, {r6}
 8005e10:	0610      	lsls	r0, r2, #24
 8005e12:	d402      	bmi.n	8005e1a <_printf_i+0x162>
 8005e14:	0650      	lsls	r0, r2, #25
 8005e16:	d500      	bpl.n	8005e1a <_printf_i+0x162>
 8005e18:	b2b6      	uxth	r6, r6
 8005e1a:	6019      	str	r1, [r3, #0]
 8005e1c:	07d3      	lsls	r3, r2, #31
 8005e1e:	d502      	bpl.n	8005e26 <_printf_i+0x16e>
 8005e20:	2320      	movs	r3, #32
 8005e22:	4313      	orrs	r3, r2
 8005e24:	6023      	str	r3, [r4, #0]
 8005e26:	2e00      	cmp	r6, #0
 8005e28:	d001      	beq.n	8005e2e <_printf_i+0x176>
 8005e2a:	2710      	movs	r7, #16
 8005e2c:	e7aa      	b.n	8005d84 <_printf_i+0xcc>
 8005e2e:	2220      	movs	r2, #32
 8005e30:	6823      	ldr	r3, [r4, #0]
 8005e32:	4393      	bics	r3, r2
 8005e34:	6023      	str	r3, [r4, #0]
 8005e36:	e7f8      	b.n	8005e2a <_printf_i+0x172>
 8005e38:	681a      	ldr	r2, [r3, #0]
 8005e3a:	680d      	ldr	r5, [r1, #0]
 8005e3c:	1d10      	adds	r0, r2, #4
 8005e3e:	6949      	ldr	r1, [r1, #20]
 8005e40:	6018      	str	r0, [r3, #0]
 8005e42:	6813      	ldr	r3, [r2, #0]
 8005e44:	062e      	lsls	r6, r5, #24
 8005e46:	d501      	bpl.n	8005e4c <_printf_i+0x194>
 8005e48:	6019      	str	r1, [r3, #0]
 8005e4a:	e002      	b.n	8005e52 <_printf_i+0x19a>
 8005e4c:	066d      	lsls	r5, r5, #25
 8005e4e:	d5fb      	bpl.n	8005e48 <_printf_i+0x190>
 8005e50:	8019      	strh	r1, [r3, #0]
 8005e52:	2300      	movs	r3, #0
 8005e54:	9d03      	ldr	r5, [sp, #12]
 8005e56:	6123      	str	r3, [r4, #16]
 8005e58:	e7bf      	b.n	8005dda <_printf_i+0x122>
 8005e5a:	681a      	ldr	r2, [r3, #0]
 8005e5c:	1d11      	adds	r1, r2, #4
 8005e5e:	6019      	str	r1, [r3, #0]
 8005e60:	6815      	ldr	r5, [r2, #0]
 8005e62:	2100      	movs	r1, #0
 8005e64:	0028      	movs	r0, r5
 8005e66:	6862      	ldr	r2, [r4, #4]
 8005e68:	f000 f986 	bl	8006178 <memchr>
 8005e6c:	2800      	cmp	r0, #0
 8005e6e:	d001      	beq.n	8005e74 <_printf_i+0x1bc>
 8005e70:	1b40      	subs	r0, r0, r5
 8005e72:	6060      	str	r0, [r4, #4]
 8005e74:	6863      	ldr	r3, [r4, #4]
 8005e76:	6123      	str	r3, [r4, #16]
 8005e78:	2300      	movs	r3, #0
 8005e7a:	9a03      	ldr	r2, [sp, #12]
 8005e7c:	7013      	strb	r3, [r2, #0]
 8005e7e:	e7ac      	b.n	8005dda <_printf_i+0x122>
 8005e80:	002a      	movs	r2, r5
 8005e82:	6923      	ldr	r3, [r4, #16]
 8005e84:	9906      	ldr	r1, [sp, #24]
 8005e86:	9805      	ldr	r0, [sp, #20]
 8005e88:	9d07      	ldr	r5, [sp, #28]
 8005e8a:	47a8      	blx	r5
 8005e8c:	3001      	adds	r0, #1
 8005e8e:	d0ae      	beq.n	8005dee <_printf_i+0x136>
 8005e90:	6823      	ldr	r3, [r4, #0]
 8005e92:	079b      	lsls	r3, r3, #30
 8005e94:	d415      	bmi.n	8005ec2 <_printf_i+0x20a>
 8005e96:	9b09      	ldr	r3, [sp, #36]	@ 0x24
 8005e98:	68e0      	ldr	r0, [r4, #12]
 8005e9a:	4298      	cmp	r0, r3
 8005e9c:	daa9      	bge.n	8005df2 <_printf_i+0x13a>
 8005e9e:	0018      	movs	r0, r3
 8005ea0:	e7a7      	b.n	8005df2 <_printf_i+0x13a>
 8005ea2:	0022      	movs	r2, r4
 8005ea4:	2301      	movs	r3, #1
 8005ea6:	9906      	ldr	r1, [sp, #24]
 8005ea8:	9805      	ldr	r0, [sp, #20]
 8005eaa:	9e07      	ldr	r6, [sp, #28]
 8005eac:	3219      	adds	r2, #25
 8005eae:	47b0      	blx	r6
 8005eb0:	3001      	adds	r0, #1
 8005eb2:	d09c      	beq.n	8005dee <_printf_i+0x136>
 8005eb4:	3501      	adds	r5, #1
 8005eb6:	68e3      	ldr	r3, [r4, #12]
 8005eb8:	9a09      	ldr	r2, [sp, #36]	@ 0x24
 8005eba:	1a9b      	subs	r3, r3, r2
 8005ebc:	42ab      	cmp	r3, r5
 8005ebe:	dcf0      	bgt.n	8005ea2 <_printf_i+0x1ea>
 8005ec0:	e7e9      	b.n	8005e96 <_printf_i+0x1de>
 8005ec2:	2500      	movs	r5, #0
 8005ec4:	e7f7      	b.n	8005eb6 <_printf_i+0x1fe>
 8005ec6:	46c0      	nop			@ (mov r8, r8)
 8005ec8:	08006361 	.word	0x08006361
 8005ecc:	08006372 	.word	0x08006372

08005ed0 <__sflush_r>:
 8005ed0:	b5f7      	push	{r0, r1, r2, r4, r5, r6, r7, lr}
 8005ed2:	220c      	movs	r2, #12
 8005ed4:	5e8b      	ldrsh	r3, [r1, r2]
 8005ed6:	0005      	movs	r5, r0
 8005ed8:	000c      	movs	r4, r1
 8005eda:	071a      	lsls	r2, r3, #28
 8005edc:	d456      	bmi.n	8005f8c <__sflush_r+0xbc>
 8005ede:	684a      	ldr	r2, [r1, #4]
 8005ee0:	2a00      	cmp	r2, #0
 8005ee2:	dc02      	bgt.n	8005eea <__sflush_r+0x1a>
 8005ee4:	6c0a      	ldr	r2, [r1, #64]	@ 0x40
 8005ee6:	2a00      	cmp	r2, #0
 8005ee8:	dd4e      	ble.n	8005f88 <__sflush_r+0xb8>
 8005eea:	6ae7      	ldr	r7, [r4, #44]	@ 0x2c
 8005eec:	2f00      	cmp	r7, #0
 8005eee:	d04b      	beq.n	8005f88 <__sflush_r+0xb8>
 8005ef0:	2200      	movs	r2, #0
 8005ef2:	2080      	movs	r0, #128	@ 0x80
 8005ef4:	682e      	ldr	r6, [r5, #0]
 8005ef6:	602a      	str	r2, [r5, #0]
 8005ef8:	001a      	movs	r2, r3
 8005efa:	0140      	lsls	r0, r0, #5
 8005efc:	6a21      	ldr	r1, [r4, #32]
 8005efe:	4002      	ands	r2, r0
 8005f00:	4203      	tst	r3, r0
 8005f02:	d033      	beq.n	8005f6c <__sflush_r+0x9c>
 8005f04:	6d62      	ldr	r2, [r4, #84]	@ 0x54
 8005f06:	89a3      	ldrh	r3, [r4, #12]
 8005f08:	075b      	lsls	r3, r3, #29
 8005f0a:	d506      	bpl.n	8005f1a <__sflush_r+0x4a>
 8005f0c:	6863      	ldr	r3, [r4, #4]
 8005f0e:	1ad2      	subs	r2, r2, r3
 8005f10:	6b63      	ldr	r3, [r4, #52]	@ 0x34
 8005f12:	2b00      	cmp	r3, #0
 8005f14:	d001      	beq.n	8005f1a <__sflush_r+0x4a>
 8005f16:	6c23      	ldr	r3, [r4, #64]	@ 0x40
 8005f18:	1ad2      	subs	r2, r2, r3
 8005f1a:	2300      	movs	r3, #0
 8005f1c:	0028      	movs	r0, r5
 8005f1e:	6ae7      	ldr	r7, [r4, #44]	@ 0x2c
 8005f20:	6a21      	ldr	r1, [r4, #32]
 8005f22:	47b8      	blx	r7
 8005f24:	89a2      	ldrh	r2, [r4, #12]
 8005f26:	1c43      	adds	r3, r0, #1
 8005f28:	d106      	bne.n	8005f38 <__sflush_r+0x68>
 8005f2a:	6829      	ldr	r1, [r5, #0]
 8005f2c:	291d      	cmp	r1, #29
 8005f2e:	d846      	bhi.n	8005fbe <__sflush_r+0xee>
 8005f30:	4b29      	ldr	r3, [pc, #164]	@ (8005fd8 <__sflush_r+0x108>)
 8005f32:	40cb      	lsrs	r3, r1
 8005f34:	07db      	lsls	r3, r3, #31
 8005f36:	d542      	bpl.n	8005fbe <__sflush_r+0xee>
 8005f38:	2300      	movs	r3, #0
 8005f3a:	6063      	str	r3, [r4, #4]
 8005f3c:	6923      	ldr	r3, [r4, #16]
 8005f3e:	6023      	str	r3, [r4, #0]
 8005f40:	04d2      	lsls	r2, r2, #19
 8005f42:	d505      	bpl.n	8005f50 <__sflush_r+0x80>
 8005f44:	1c43      	adds	r3, r0, #1
 8005f46:	d102      	bne.n	8005f4e <__sflush_r+0x7e>
 8005f48:	682b      	ldr	r3, [r5, #0]
 8005f4a:	2b00      	cmp	r3, #0
 8005f4c:	d100      	bne.n	8005f50 <__sflush_r+0x80>
 8005f4e:	6560      	str	r0, [r4, #84]	@ 0x54
 8005f50:	6b61      	ldr	r1, [r4, #52]	@ 0x34
 8005f52:	602e      	str	r6, [r5, #0]
 8005f54:	2900      	cmp	r1, #0
 8005f56:	d017      	beq.n	8005f88 <__sflush_r+0xb8>
 8005f58:	0023      	movs	r3, r4
 8005f5a:	3344      	adds	r3, #68	@ 0x44
 8005f5c:	4299      	cmp	r1, r3
 8005f5e:	d002      	beq.n	8005f66 <__sflush_r+0x96>
 8005f60:	0028      	movs	r0, r5
 8005f62:	f7ff fa9b 	bl	800549c <_free_r>
 8005f66:	2300      	movs	r3, #0
 8005f68:	6363      	str	r3, [r4, #52]	@ 0x34
 8005f6a:	e00d      	b.n	8005f88 <__sflush_r+0xb8>
 8005f6c:	2301      	movs	r3, #1
 8005f6e:	0028      	movs	r0, r5
 8005f70:	47b8      	blx	r7
 8005f72:	0002      	movs	r2, r0
 8005f74:	1c43      	adds	r3, r0, #1
 8005f76:	d1c6      	bne.n	8005f06 <__sflush_r+0x36>
 8005f78:	682b      	ldr	r3, [r5, #0]
 8005f7a:	2b00      	cmp	r3, #0
 8005f7c:	d0c3      	beq.n	8005f06 <__sflush_r+0x36>
 8005f7e:	2b1d      	cmp	r3, #29
 8005f80:	d001      	beq.n	8005f86 <__sflush_r+0xb6>
 8005f82:	2b16      	cmp	r3, #22
 8005f84:	d11a      	bne.n	8005fbc <__sflush_r+0xec>
 8005f86:	602e      	str	r6, [r5, #0]
 8005f88:	2000      	movs	r0, #0
 8005f8a:	e01e      	b.n	8005fca <__sflush_r+0xfa>
 8005f8c:	690e      	ldr	r6, [r1, #16]
 8005f8e:	2e00      	cmp	r6, #0
 8005f90:	d0fa      	beq.n	8005f88 <__sflush_r+0xb8>
 8005f92:	680f      	ldr	r7, [r1, #0]
 8005f94:	600e      	str	r6, [r1, #0]
 8005f96:	1bba      	subs	r2, r7, r6
 8005f98:	9201      	str	r2, [sp, #4]
 8005f9a:	2200      	movs	r2, #0
 8005f9c:	079b      	lsls	r3, r3, #30
 8005f9e:	d100      	bne.n	8005fa2 <__sflush_r+0xd2>
 8005fa0:	694a      	ldr	r2, [r1, #20]
 8005fa2:	60a2      	str	r2, [r4, #8]
 8005fa4:	9b01      	ldr	r3, [sp, #4]
 8005fa6:	2b00      	cmp	r3, #0
 8005fa8:	ddee      	ble.n	8005f88 <__sflush_r+0xb8>
 8005faa:	6aa3      	ldr	r3, [r4, #40]	@ 0x28
 8005fac:	0032      	movs	r2, r6
 8005fae:	001f      	movs	r7, r3
 8005fb0:	0028      	movs	r0, r5
 8005fb2:	9b01      	ldr	r3, [sp, #4]
 8005fb4:	6a21      	ldr	r1, [r4, #32]
 8005fb6:	47b8      	blx	r7
 8005fb8:	2800      	cmp	r0, #0
 8005fba:	dc07      	bgt.n	8005fcc <__sflush_r+0xfc>
 8005fbc:	89a2      	ldrh	r2, [r4, #12]
 8005fbe:	2340      	movs	r3, #64	@ 0x40
 8005fc0:	2001      	movs	r0, #1
 8005fc2:	4313      	orrs	r3, r2
 8005fc4:	b21b      	sxth	r3, r3
 8005fc6:	81a3      	strh	r3, [r4, #12]
 8005fc8:	4240      	negs	r0, r0
 8005fca:	bdfe      	pop	{r1, r2, r3, r4, r5, r6, r7, pc}
 8005fcc:	9b01      	ldr	r3, [sp, #4]
 8005fce:	1836      	adds	r6, r6, r0
 8005fd0:	1a1b      	subs	r3, r3, r0
 8005fd2:	9301      	str	r3, [sp, #4]
 8005fd4:	e7e6      	b.n	8005fa4 <__sflush_r+0xd4>
 8005fd6:	46c0      	nop			@ (mov r8, r8)
 8005fd8:	20400001 	.word	0x20400001

08005fdc <_fflush_r>:
 8005fdc:	690b      	ldr	r3, [r1, #16]
 8005fde:	b570      	push	{r4, r5, r6, lr}
 8005fe0:	0005      	movs	r5, r0
 8005fe2:	000c      	movs	r4, r1
 8005fe4:	2b00      	cmp	r3, #0
 8005fe6:	d102      	bne.n	8005fee <_fflush_r+0x12>
 8005fe8:	2500      	movs	r5, #0
 8005fea:	0028      	movs	r0, r5
 8005fec:	bd70      	pop	{r4, r5, r6, pc}
 8005fee:	2800      	cmp	r0, #0
 8005ff0:	d004      	beq.n	8005ffc <_fflush_r+0x20>
 8005ff2:	6a03      	ldr	r3, [r0, #32]
 8005ff4:	2b00      	cmp	r3, #0
 8005ff6:	d101      	bne.n	8005ffc <_fflush_r+0x20>
 8005ff8:	f7ff f800 	bl	8004ffc <__sinit>
 8005ffc:	220c      	movs	r2, #12
 8005ffe:	5ea3      	ldrsh	r3, [r4, r2]
 8006000:	2b00      	cmp	r3, #0
 8006002:	d0f1      	beq.n	8005fe8 <_fflush_r+0xc>
 8006004:	6e62      	ldr	r2, [r4, #100]	@ 0x64
 8006006:	07d2      	lsls	r2, r2, #31
 8006008:	d404      	bmi.n	8006014 <_fflush_r+0x38>
 800600a:	059b      	lsls	r3, r3, #22
 800600c:	d402      	bmi.n	8006014 <_fflush_r+0x38>
 800600e:	6da0      	ldr	r0, [r4, #88]	@ 0x58
 8006010:	f7ff fa39 	bl	8005486 <__retarget_lock_acquire_recursive>
 8006014:	0028      	movs	r0, r5
 8006016:	0021      	movs	r1, r4
 8006018:	f7ff ff5a 	bl	8005ed0 <__sflush_r>
 800601c:	6e63      	ldr	r3, [r4, #100]	@ 0x64
 800601e:	0005      	movs	r5, r0
 8006020:	07db      	lsls	r3, r3, #31
 8006022:	d4e2      	bmi.n	8005fea <_fflush_r+0xe>
 8006024:	89a3      	ldrh	r3, [r4, #12]
 8006026:	059b      	lsls	r3, r3, #22
 8006028:	d4df      	bmi.n	8005fea <_fflush_r+0xe>
 800602a:	6da0      	ldr	r0, [r4, #88]	@ 0x58
 800602c:	f7ff fa2c 	bl	8005488 <__retarget_lock_release_recursive>
 8006030:	e7db      	b.n	8005fea <_fflush_r+0xe>
	...

08006034 <__swhatbuf_r>:
 8006034:	b570      	push	{r4, r5, r6, lr}
 8006036:	000e      	movs	r6, r1
 8006038:	001d      	movs	r5, r3
 800603a:	230e      	movs	r3, #14
 800603c:	5ec9      	ldrsh	r1, [r1, r3]
 800603e:	0014      	movs	r4, r2
 8006040:	b096      	sub	sp, #88	@ 0x58
 8006042:	2900      	cmp	r1, #0
 8006044:	da0c      	bge.n	8006060 <__swhatbuf_r+0x2c>
 8006046:	89b2      	ldrh	r2, [r6, #12]
 8006048:	2380      	movs	r3, #128	@ 0x80
 800604a:	0011      	movs	r1, r2
 800604c:	4019      	ands	r1, r3
 800604e:	421a      	tst	r2, r3
 8006050:	d114      	bne.n	800607c <__swhatbuf_r+0x48>
 8006052:	2380      	movs	r3, #128	@ 0x80
 8006054:	00db      	lsls	r3, r3, #3
 8006056:	2000      	movs	r0, #0
 8006058:	6029      	str	r1, [r5, #0]
 800605a:	6023      	str	r3, [r4, #0]
 800605c:	b016      	add	sp, #88	@ 0x58
 800605e:	bd70      	pop	{r4, r5, r6, pc}
 8006060:	466a      	mov	r2, sp
 8006062:	f000 f853 	bl	800610c <_fstat_r>
 8006066:	2800      	cmp	r0, #0
 8006068:	dbed      	blt.n	8006046 <__swhatbuf_r+0x12>
 800606a:	23f0      	movs	r3, #240	@ 0xf0
 800606c:	9901      	ldr	r1, [sp, #4]
 800606e:	021b      	lsls	r3, r3, #8
 8006070:	4019      	ands	r1, r3
 8006072:	4b04      	ldr	r3, [pc, #16]	@ (8006084 <__swhatbuf_r+0x50>)
 8006074:	18c9      	adds	r1, r1, r3
 8006076:	424b      	negs	r3, r1
 8006078:	4159      	adcs	r1, r3
 800607a:	e7ea      	b.n	8006052 <__swhatbuf_r+0x1e>
 800607c:	2100      	movs	r1, #0
 800607e:	2340      	movs	r3, #64	@ 0x40
 8006080:	e7e9      	b.n	8006056 <__swhatbuf_r+0x22>
 8006082:	46c0      	nop			@ (mov r8, r8)
 8006084:	ffffe000 	.word	0xffffe000

08006088 <__smakebuf_r>:
 8006088:	b5f0      	push	{r4, r5, r6, r7, lr}
 800608a:	2602      	movs	r6, #2
 800608c:	898b      	ldrh	r3, [r1, #12]
 800608e:	0005      	movs	r5, r0
 8006090:	000c      	movs	r4, r1
 8006092:	b085      	sub	sp, #20
 8006094:	4233      	tst	r3, r6
 8006096:	d007      	beq.n	80060a8 <__smakebuf_r+0x20>
 8006098:	0023      	movs	r3, r4
 800609a:	3347      	adds	r3, #71	@ 0x47
 800609c:	6023      	str	r3, [r4, #0]
 800609e:	6123      	str	r3, [r4, #16]
 80060a0:	2301      	movs	r3, #1
 80060a2:	6163      	str	r3, [r4, #20]
 80060a4:	b005      	add	sp, #20
 80060a6:	bdf0      	pop	{r4, r5, r6, r7, pc}
 80060a8:	ab03      	add	r3, sp, #12
 80060aa:	aa02      	add	r2, sp, #8
 80060ac:	f7ff ffc2 	bl	8006034 <__swhatbuf_r>
 80060b0:	9f02      	ldr	r7, [sp, #8]
 80060b2:	9001      	str	r0, [sp, #4]
 80060b4:	0039      	movs	r1, r7
 80060b6:	0028      	movs	r0, r5
 80060b8:	f7ff fa5c 	bl	8005574 <_malloc_r>
 80060bc:	2800      	cmp	r0, #0
 80060be:	d108      	bne.n	80060d2 <__smakebuf_r+0x4a>
 80060c0:	220c      	movs	r2, #12
 80060c2:	5ea3      	ldrsh	r3, [r4, r2]
 80060c4:	059a      	lsls	r2, r3, #22
 80060c6:	d4ed      	bmi.n	80060a4 <__smakebuf_r+0x1c>
 80060c8:	2203      	movs	r2, #3
 80060ca:	4393      	bics	r3, r2
 80060cc:	431e      	orrs	r6, r3
 80060ce:	81a6      	strh	r6, [r4, #12]
 80060d0:	e7e2      	b.n	8006098 <__smakebuf_r+0x10>
 80060d2:	2380      	movs	r3, #128	@ 0x80
 80060d4:	89a2      	ldrh	r2, [r4, #12]
 80060d6:	6020      	str	r0, [r4, #0]
 80060d8:	4313      	orrs	r3, r2
 80060da:	81a3      	strh	r3, [r4, #12]
 80060dc:	9b03      	ldr	r3, [sp, #12]
 80060de:	6120      	str	r0, [r4, #16]
 80060e0:	6167      	str	r7, [r4, #20]
 80060e2:	2b00      	cmp	r3, #0
 80060e4:	d00c      	beq.n	8006100 <__smakebuf_r+0x78>
 80060e6:	0028      	movs	r0, r5
 80060e8:	230e      	movs	r3, #14
 80060ea:	5ee1      	ldrsh	r1, [r4, r3]
 80060ec:	f000 f820 	bl	8006130 <_isatty_r>
 80060f0:	2800      	cmp	r0, #0
 80060f2:	d005      	beq.n	8006100 <__smakebuf_r+0x78>
 80060f4:	2303      	movs	r3, #3
 80060f6:	89a2      	ldrh	r2, [r4, #12]
 80060f8:	439a      	bics	r2, r3
 80060fa:	3b02      	subs	r3, #2
 80060fc:	4313      	orrs	r3, r2
 80060fe:	81a3      	strh	r3, [r4, #12]
 8006100:	89a3      	ldrh	r3, [r4, #12]
 8006102:	9a01      	ldr	r2, [sp, #4]
 8006104:	4313      	orrs	r3, r2
 8006106:	81a3      	strh	r3, [r4, #12]
 8006108:	e7cc      	b.n	80060a4 <__smakebuf_r+0x1c>
	...

0800610c <_fstat_r>:
 800610c:	2300      	movs	r3, #0
 800610e:	b570      	push	{r4, r5, r6, lr}
 8006110:	4d06      	ldr	r5, [pc, #24]	@ (800612c <_fstat_r+0x20>)
 8006112:	0004      	movs	r4, r0
 8006114:	0008      	movs	r0, r1
 8006116:	0011      	movs	r1, r2
 8006118:	602b      	str	r3, [r5, #0]
 800611a:	f7fb fade 	bl	80016da <_fstat>
 800611e:	1c43      	adds	r3, r0, #1
 8006120:	d103      	bne.n	800612a <_fstat_r+0x1e>
 8006122:	682b      	ldr	r3, [r5, #0]
 8006124:	2b00      	cmp	r3, #0
 8006126:	d000      	beq.n	800612a <_fstat_r+0x1e>
 8006128:	6023      	str	r3, [r4, #0]
 800612a:	bd70      	pop	{r4, r5, r6, pc}
 800612c:	20000908 	.word	0x20000908

08006130 <_isatty_r>:
 8006130:	2300      	movs	r3, #0
 8006132:	b570      	push	{r4, r5, r6, lr}
 8006134:	4d06      	ldr	r5, [pc, #24]	@ (8006150 <_isatty_r+0x20>)
 8006136:	0004      	movs	r4, r0
 8006138:	0008      	movs	r0, r1
 800613a:	602b      	str	r3, [r5, #0]
 800613c:	f7fb fad2 	bl	80016e4 <_isatty>
 8006140:	1c43      	adds	r3, r0, #1
 8006142:	d103      	bne.n	800614c <_isatty_r+0x1c>
 8006144:	682b      	ldr	r3, [r5, #0]
 8006146:	2b00      	cmp	r3, #0
 8006148:	d000      	beq.n	800614c <_isatty_r+0x1c>
 800614a:	6023      	str	r3, [r4, #0]
 800614c:	bd70      	pop	{r4, r5, r6, pc}
 800614e:	46c0      	nop			@ (mov r8, r8)
 8006150:	20000908 	.word	0x20000908

08006154 <_sbrk_r>:
 8006154:	2300      	movs	r3, #0
 8006156:	b570      	push	{r4, r5, r6, lr}
 8006158:	4d06      	ldr	r5, [pc, #24]	@ (8006174 <_sbrk_r+0x20>)
 800615a:	0004      	movs	r4, r0
 800615c:	0008      	movs	r0, r1
 800615e:	602b      	str	r3, [r5, #0]
 8006160:	f7fb fac4 	bl	80016ec <_sbrk>
 8006164:	1c43      	adds	r3, r0, #1
 8006166:	d103      	bne.n	8006170 <_sbrk_r+0x1c>
 8006168:	682b      	ldr	r3, [r5, #0]
 800616a:	2b00      	cmp	r3, #0
 800616c:	d000      	beq.n	8006170 <_sbrk_r+0x1c>
 800616e:	6023      	str	r3, [r4, #0]
 8006170:	bd70      	pop	{r4, r5, r6, pc}
 8006172:	46c0      	nop			@ (mov r8, r8)
 8006174:	20000908 	.word	0x20000908

08006178 <memchr>:
 8006178:	b2c9      	uxtb	r1, r1
 800617a:	1882      	adds	r2, r0, r2
 800617c:	4290      	cmp	r0, r2
 800617e:	d101      	bne.n	8006184 <memchr+0xc>
 8006180:	2000      	movs	r0, #0
 8006182:	4770      	bx	lr
 8006184:	7803      	ldrb	r3, [r0, #0]
 8006186:	428b      	cmp	r3, r1
 8006188:	d0fb      	beq.n	8006182 <memchr+0xa>
 800618a:	3001      	adds	r0, #1
 800618c:	e7f6      	b.n	800617c <memchr+0x4>

0800618e <_realloc_r>:
 800618e:	b5f7      	push	{r0, r1, r2, r4, r5, r6, r7, lr}
 8006190:	0006      	movs	r6, r0
 8006192:	000c      	movs	r4, r1
 8006194:	0015      	movs	r5, r2
 8006196:	2900      	cmp	r1, #0
 8006198:	d105      	bne.n	80061a6 <_realloc_r+0x18>
 800619a:	0011      	movs	r1, r2
 800619c:	f7ff f9ea 	bl	8005574 <_malloc_r>
 80061a0:	0004      	movs	r4, r0
 80061a2:	0020      	movs	r0, r4
 80061a4:	bdfe      	pop	{r1, r2, r3, r4, r5, r6, r7, pc}
 80061a6:	2a00      	cmp	r2, #0
 80061a8:	d103      	bne.n	80061b2 <_realloc_r+0x24>
 80061aa:	f7ff f977 	bl	800549c <_free_r>
 80061ae:	002c      	movs	r4, r5
 80061b0:	e7f7      	b.n	80061a2 <_realloc_r+0x14>
 80061b2:	f000 f81c 	bl	80061ee <_malloc_usable_size_r>
 80061b6:	0007      	movs	r7, r0
 80061b8:	4285      	cmp	r5, r0
 80061ba:	d802      	bhi.n	80061c2 <_realloc_r+0x34>
 80061bc:	0843      	lsrs	r3, r0, #1
 80061be:	42ab      	cmp	r3, r5
 80061c0:	d3ef      	bcc.n	80061a2 <_realloc_r+0x14>
 80061c2:	0029      	movs	r1, r5
 80061c4:	0030      	movs	r0, r6
 80061c6:	f7ff f9d5 	bl	8005574 <_malloc_r>
 80061ca:	9001      	str	r0, [sp, #4]
 80061cc:	2800      	cmp	r0, #0
 80061ce:	d101      	bne.n	80061d4 <_realloc_r+0x46>
 80061d0:	9c01      	ldr	r4, [sp, #4]
 80061d2:	e7e6      	b.n	80061a2 <_realloc_r+0x14>
 80061d4:	002a      	movs	r2, r5
 80061d6:	42bd      	cmp	r5, r7
 80061d8:	d900      	bls.n	80061dc <_realloc_r+0x4e>
 80061da:	003a      	movs	r2, r7
 80061dc:	0021      	movs	r1, r4
 80061de:	9801      	ldr	r0, [sp, #4]
 80061e0:	f7ff f953 	bl	800548a <memcpy>
 80061e4:	0021      	movs	r1, r4
 80061e6:	0030      	movs	r0, r6
 80061e8:	f7ff f958 	bl	800549c <_free_r>
 80061ec:	e7f0      	b.n	80061d0 <_realloc_r+0x42>

080061ee <_malloc_usable_size_r>:
 80061ee:	1f0b      	subs	r3, r1, #4
 80061f0:	681b      	ldr	r3, [r3, #0]
 80061f2:	1f18      	subs	r0, r3, #4
 80061f4:	2b00      	cmp	r3, #0
 80061f6:	da01      	bge.n	80061fc <_malloc_usable_size_r+0xe>
 80061f8:	580b      	ldr	r3, [r1, r0]
 80061fa:	18c0      	adds	r0, r0, r3
 80061fc:	4770      	bx	lr
	...

08006200 <_init>:
 8006200:	b5f8      	push	{r3, r4, r5, r6, r7, lr}
 8006202:	46c0      	nop			@ (mov r8, r8)
 8006204:	bcf8      	pop	{r3, r4, r5, r6, r7}
 8006206:	bc08      	pop	{r3}
 8006208:	469e      	mov	lr, r3
 800620a:	4770      	bx	lr

0800620c <_fini>:
 800620c:	b5f8      	push	{r3, r4, r5, r6, r7, lr}
 800620e:	46c0      	nop			@ (mov r8, r8)
 8006210:	bcf8      	pop	{r3, r4, r5, r6, r7}
 8006212:	bc08      	pop	{r3}
 8006214:	469e      	mov	lr, r3
 8006216:	4770      	bx	lr
