
qpc_tetris.elf:     file format elf32-littlearm

Sections:
Idx Name          Size      VMA       LMA       File off  Algn
  0 .isr_vector   000000c0  08000000  08000000  00001000  2**0
                  CONTENTS, ALLOC, LOAD, READONLY, DATA
  1 .text         00006450  080000c0  080000c0  000010c0  2**2
                  CONTENTS, ALLOC, LOAD, READONLY, CODE
  2 .rodata       00001588  08006510  08006510  00007510  2**2
                  CONTENTS, ALLOC, LOAD, READONLY, DATA
  3 .ARM.extab    00000000  08007a98  08007a98  00009068  2**0
                  CONTENTS, READONLY
  4 .ARM          00000000  08007a98  08007a98  00009068  2**0
                  CONTENTS, READONLY
  5 .preinit_array 00000000  08007a98  08007a98  00009068  2**0
                  CONTENTS, ALLOC, LOAD, DATA
  6 .init_array   00000004  08007a98  08007a98  00008a98  2**2
                  CONTENTS, ALLOC, LOAD, READONLY, DATA
  7 .fini_array   00000004  08007a9c  08007a9c  00008a9c  2**2
                  CONTENTS, ALLOC, LOAD, READONLY, DATA
  8 .data         00000068  20000000  08007aa0  00009000  2**2
                  CONTENTS, ALLOC, LOAD, DATA
  9 .bss          000008dc  20000068  08007b08  00009068  2**2
                  ALLOC
 10 ._user_heap_stack 00000604  20000944  08007b08  00009944  2**0
                  ALLOC
 11 .ARM.attributes 00000028  00000000  00000000  00009068  2**0
                  CONTENTS, READONLY
 12 .comment      00000043  00000000  00000000  00009090  2**0
                  CONTENTS, READONLY
 13 .debug_frame  000009a8  00000000  00000000  000090d4  2**2
                  CONTENTS, READONLY, DEBUGGING, OCTETS

Disassembly of section .text:

080000c0 <__do_global_dtors_aux>:
 80000c0:	b510      	push	{r4, lr}
 80000c2:	4c06      	ldr	r4, [pc, #24]	@ (80000dc <__do_global_dtors_aux+0x1c>)
 80000c4:	7823      	ldrb	r3, [r4, #0]
 80000c6:	2b00      	cmp	r3, #0
 80000c8:	d107      	bne.n	80000da <__do_global_dtors_aux+0x1a>
 80000ca:	4b05      	ldr	r3, [pc, #20]	@ (80000e0 <__do_global_dtors_aux+0x20>)
 80000cc:	2b00      	cmp	r3, #0
 80000ce:	d002      	beq.n	80000d6 <__do_global_dtors_aux+0x16>
 80000d0:	4804      	ldr	r0, [pc, #16]	@ (80000e4 <__do_global_dtors_aux+0x24>)
 80000d2:	e000      	b.n	80000d6 <__do_global_dtors_aux+0x16>
 80000d4:	bf00      	nop
 80000d6:	2301      	movs	r3, #1
 80000d8:	7023      	strb	r3, [r4, #0]
 80000da:	bd10      	pop	{r4, pc}
 80000dc:	20000068 	.word	0x20000068
 80000e0:	00000000 	.word	0x00000000
 80000e4:	080064f8 	.word	0x080064f8

080000e8 <frame_dummy>:
 80000e8:	4b04      	ldr	r3, [pc, #16]	@ (80000fc <frame_dummy+0x14>)
 80000ea:	b510      	push	{r4, lr}
 80000ec:	2b00      	cmp	r3, #0
 80000ee:	d003      	beq.n	80000f8 <frame_dummy+0x10>
 80000f0:	4903      	ldr	r1, [pc, #12]	@ (8000100 <frame_dummy+0x18>)
 80000f2:	4804      	ldr	r0, [pc, #16]	@ (8000104 <frame_dummy+0x1c>)
 80000f4:	e000      	b.n	80000f8 <frame_dummy+0x10>
 80000f6:	bf00      	nop
 80000f8:	bd10      	pop	{r4, pc}
 80000fa:	46c0      	nop			@ (mov r8, r8)
 80000fc:	00000000 	.word	0x00000000
 8000100:	2000006c 	.word	0x2000006c
 8000104:	080064f8 	.word	0x080064f8

08000108 <__gnu_thumb1_case_uqi>:
 8000108:	b402      	push	{r1}
 800010a:	4671      	mov	r1, lr
 800010c:	0849      	lsrs	r1, r1, #1
 800010e:	0049      	lsls	r1, r1, #1
 8000110:	5c09      	ldrb	r1, [r1, r0]
 8000112:	0049      	lsls	r1, r1, #1
 8000114:	448e      	add	lr, r1
 8000116:	bc02      	pop	{r1}
 8000118:	4770      	bx	lr
 800011a:	46c0      	nop			@ (mov r8, r8)

0800011c <__gnu_thumb1_case_shi>:
 800011c:	b403      	push	{r0, r1}
 800011e:	4671      	mov	r1, lr
 8000120:	0849      	lsrs	r1, r1, #1
 8000122:	0040      	lsls	r0, r0, #1
 8000124:	0049      	lsls	r1, r1, #1
 8000126:	5e09      	ldrsh	r1, [r1, r0]
 8000128:	0049      	lsls	r1, r1, #1
 800012a:	448e      	add	lr, r1
 800012c:	bc03      	pop	{r0, r1}
 800012e:	4770      	bx	lr

08000130 <__udivsi3>:
 8000130:	2200      	movs	r2, #0
 8000132:	0843      	lsrs	r3, r0, #1
 8000134:	428b      	cmp	r3, r1
 8000136:	d374      	bcc.n	8000222 <__udivsi3+0xf2>
 8000138:	0903      	lsrs	r3, r0, #4
 800013a:	428b      	cmp	r3, r1
 800013c:	d35f      	bcc.n	80001fe <__udivsi3+0xce>
 800013e:	0a03      	lsrs	r3, r0, #8
 8000140:	428b      	cmp	r3, r1
 8000142:	d344      	bcc.n	80001ce <__udivsi3+0x9e>
 8000144:	0b03      	lsrs	r3, r0, #12
 8000146:	428b      	cmp	r3, r1
 8000148:	d328      	bcc.n	800019c <__udivsi3+0x6c>
 800014a:	0c03      	lsrs	r3, r0, #16
 800014c:	428b      	cmp	r3, r1
 800014e:	d30d      	bcc.n	800016c <__udivsi3+0x3c>
 8000150:	22ff      	movs	r2, #255	@ 0xff
 8000152:	0209      	lsls	r1, r1, #8
 8000154:	ba12      	rev	r2, r2
 8000156:	0c03      	lsrs	r3, r0, #16
 8000158:	428b      	cmp	r3, r1
 800015a:	d302      	bcc.n	8000162 <__udivsi3+0x32>
 800015c:	1212      	asrs	r2, r2, #8
 800015e:	0209      	lsls	r1, r1, #8
 8000160:	d065      	beq.n	800022e <__udivsi3+0xfe>
 8000162:	0b03      	lsrs	r3, r0, #12
 8000164:	428b      	cmp	r3, r1
 8000166:	d319      	bcc.n	800019c <__udivsi3+0x6c>
 8000168:	e000      	b.n	800016c <__udivsi3+0x3c>
 800016a:	0a09      	lsrs	r1, r1, #8
 800016c:	0bc3      	lsrs	r3, r0, #15
 800016e:	428b      	cmp	r3, r1
 8000170:	d301      	bcc.n	8000176 <__udivsi3+0x46>
 8000172:	03cb      	lsls	r3, r1, #15
 8000174:	1ac0      	subs	r0, r0, r3
 8000176:	4152      	adcs	r2, r2
 8000178:	0b83      	lsrs	r3, r0, #14
 800017a:	428b      	cmp	r3, r1
 800017c:	d301      	bcc.n	8000182 <__udivsi3+0x52>
 800017e:	038b      	lsls	r3, r1, #14
 8000180:	1ac0      	subs	r0, r0, r3
 8000182:	4152      	adcs	r2, r2
 8000184:	0b43      	lsrs	r3, r0, #13
 8000186:	428b      	cmp	r3, r1
 8000188:	d301      	bcc.n	800018e <__udivsi3+0x5e>
 800018a:	034b      	lsls	r3, r1, #13
 800018c:	1ac0      	subs	r0, r0, r3
 800018e:	4152      	adcs	r2, r2
 8000190:	0b03      	lsrs	r3, r0, #12
 8000192:	428b      	cmp	r3, r1
 8000194:	d301      	bcc.n	800019a <__udivsi3+0x6a>
 8000196:	030b      	lsls	r3, r1, #12
 8000198:	1ac0      	subs	r0, r0, r3
 800019a:	4152      	adcs	r2, r2
 800019c:	0ac3      	lsrs	r3, r0, #11
 800019e:	428b      	cmp	r3, r1
 80001a0:	d301      	bcc.n	80001a6 <__udivsi3+0x76>
 80001a2:	02cb      	lsls	r3, r1, #11
 80001a4:	1ac0      	subs	r0, r0, r3
 80001a6:	4152      	adcs	r2, r2
 80001a8:	0a83      	lsrs	r3, r0, #10
 80001aa:	428b      	cmp	r3, r1
 80001ac:	d301      	bcc.n	80001b2 <__udivsi3+0x82>
 80001ae:	028b      	lsls	r3, r1, #10
 80001b0:	1ac0      	subs	r0, r0, r3
 80001b2:	4152      	adcs	r2, r2
 80001b4:	0a43      	lsrs	r3, r0, #9
 80001b6:	428b      	cmp	r3, r1
 80001b8:	d301      	bcc.n	80001be <__udivsi3+0x8e>
 80001ba:	024b      	lsls	r3, r1, #9
 80001bc:	1ac0      	subs	r0, r0, r3
 80001be:	4152      	adcs	r2, r2
 80001c0:	0a03      	lsrs	r3, r0, #8
 80001c2:	428b      	cmp	r3, r1
 80001c4:	d301      	bcc.n	80001ca <__udivsi3+0x9a>
 80001c6:	020b      	lsls	r3, r1, #8
 80001c8:	1ac0      	subs	r0, r0, r3
 80001ca:	4152      	adcs	r2, r2
 80001cc:	d2cd      	bcs.n	800016a <__udivsi3+0x3a>
 80001ce:	09c3      	lsrs	r3, r0, #7
 80001d0:	428b      	cmp	r3, r1
 80001d2:	d301      	bcc.n	80001d8 <__udivsi3+0xa8>
 80001d4:	01cb      	lsls	r3, r1, #7
 80001d6:	1ac0      	subs	r0, r0, r3
 80001d8:	4152      	adcs	r2, r2
 80001da:	0983      	lsrs	r3, r0, #6
 80001dc:	428b      	cmp	r3, r1
 80001de:	d301      	bcc.n	80001e4 <__udivsi3+0xb4>
 80001e0:	018b      	lsls	r3, r1, #6
 80001e2:	1ac0      	subs	r0, r0, r3
 80001e4:	4152      	adcs	r2, r2
 80001e6:	0943      	lsrs	r3, r0, #5
 80001e8:	428b      	cmp	r3, r1
 80001ea:	d301      	bcc.n	80001f0 <__udivsi3+0xc0>
 80001ec:	014b      	lsls	r3, r1, #5
 80001ee:	1ac0      	subs	r0, r0, r3
 80001f0:	4152      	adcs	r2, r2
 80001f2:	0903      	lsrs	r3, r0, #4
 80001f4:	428b      	cmp	r3, r1
 80001f6:	d301      	bcc.n	80001fc <__udivsi3+0xcc>
 80001f8:	010b      	lsls	r3, r1, #4
 80001fa:	1ac0      	subs	r0, r0, r3
 80001fc:	4152      	adcs	r2, r2
 80001fe:	08c3      	lsrs	r3, r0, #3
 8000200:	428b      	cmp	r3, r1
 8000202:	d301      	bcc.n	8000208 <__udivsi3+0xd8>
 8000204:	00cb      	lsls	r3, r1, #3
 8000206:	1ac0      	subs	r0, r0, r3
 8000208:	4152      	adcs	r2, r2
 800020a:	0883      	lsrs	r3, r0, #2
 800020c:	428b      	cmp	r3, r1
 800020e:	d301      	bcc.n	8000214 <__udivsi3+0xe4>
 8000210:	008b      	lsls	r3, r1, #2
 8000212:	1ac0      	subs	r0, r0, r3
 8000214:	4152      	adcs	r2, r2
 8000216:	0843      	lsrs	r3, r0, #1
 8000218:	428b      	cmp	r3, r1
 800021a:	d301      	bcc.n	8000220 <__udivsi3+0xf0>
 800021c:	004b      	lsls	r3, r1, #1
 800021e:	1ac0      	subs	r0, r0, r3
 8000220:	4152      	adcs	r2, r2
 8000222:	1a41      	subs	r1, r0, r1
 8000224:	d200      	bcs.n	8000228 <__udivsi3+0xf8>
 8000226:	4601      	mov	r1, r0
 8000228:	4152      	adcs	r2, r2
 800022a:	4610      	mov	r0, r2
 800022c:	4770      	bx	lr
 800022e:	e7ff      	b.n	8000230 <__udivsi3+0x100>
 8000230:	b501      	push	{r0, lr}
 8000232:	2000      	movs	r0, #0
 8000234:	f000 f8f0 	bl	8000418 <__aeabi_idiv0>
 8000238:	bd02      	pop	{r1, pc}
 800023a:	46c0      	nop			@ (mov r8, r8)

0800023c <__aeabi_uidivmod>:
 800023c:	2900      	cmp	r1, #0
 800023e:	d0f7      	beq.n	8000230 <__udivsi3+0x100>
 8000240:	e776      	b.n	8000130 <__udivsi3>
 8000242:	4770      	bx	lr

08000244 <__divsi3>:
 8000244:	4603      	mov	r3, r0
 8000246:	430b      	orrs	r3, r1
 8000248:	d47f      	bmi.n	800034a <__divsi3+0x106>
 800024a:	2200      	movs	r2, #0
 800024c:	0843      	lsrs	r3, r0, #1
 800024e:	428b      	cmp	r3, r1
 8000250:	d374      	bcc.n	800033c <__divsi3+0xf8>
 8000252:	0903      	lsrs	r3, r0, #4
 8000254:	428b      	cmp	r3, r1
 8000256:	d35f      	bcc.n	8000318 <__divsi3+0xd4>
 8000258:	0a03      	lsrs	r3, r0, #8
 800025a:	428b      	cmp	r3, r1
 800025c:	d344      	bcc.n	80002e8 <__divsi3+0xa4>
 800025e:	0b03      	lsrs	r3, r0, #12
 8000260:	428b      	cmp	r3, r1
 8000262:	d328      	bcc.n	80002b6 <__divsi3+0x72>
 8000264:	0c03      	lsrs	r3, r0, #16
 8000266:	428b      	cmp	r3, r1
 8000268:	d30d      	bcc.n	8000286 <__divsi3+0x42>
 800026a:	22ff      	movs	r2, #255	@ 0xff
 800026c:	0209      	lsls	r1, r1, #8
 800026e:	ba12      	rev	r2, r2
 8000270:	0c03      	lsrs	r3, r0, #16
 8000272:	428b      	cmp	r3, r1
 8000274:	d302      	bcc.n	800027c <__divsi3+0x38>
 8000276:	1212      	asrs	r2, r2, #8
 8000278:	0209      	lsls	r1, r1, #8
 800027a:	d065      	beq.n	8000348 <__divsi3+0x104>
 800027c:	0b03      	lsrs	r3, r0, #12
 800027e:	428b      	cmp	r3, r1
 8000280:	d319      	bcc.n	80002b6 <__divsi3+0x72>
 8000282:	e000      	b.n	8000286 <__divsi3+0x42>
 8000284:	0a09      	lsrs	r1, r1, #8
 8000286:	0bc3      	lsrs	r3, r0, #15
 8000288:	428b      	cmp	r3, r1
 800028a:	d301      	bcc.n	8000290 <__divsi3+0x4c>
 800028c:	03cb      	lsls	r3, r1, #15
 800028e:	1ac0      	subs	r0, r0, r3
 8000290:	4152      	adcs	r2, r2
 8000292:	0b83      	lsrs	r3, r0, #14
 8000294:	428b      	cmp	r3, r1
 8000296:	d301      	bcc.n	800029c <__divsi3+0x58>
 8000298:	038b      	lsls	r3, r1, #14
 800029a:	1ac0      	subs	r0, r0, r3
 800029c:	4152      	adcs	r2, r2
 800029e:	0b43      	lsrs	r3, r0, #13
 80002a0:	428b      	cmp	r3, r1
 80002a2:	d301      	bcc.n	80002a8 <__divsi3+0x64>
 80002a4:	034b      	lsls	r3, r1, #13
 80002a6:	1ac0      	subs	r0, r0, r3
 80002a8:	4152      	adcs	r2, r2
 80002aa:	0b03      	lsrs	r3, r0, #12
 80002ac:	428b      	cmp	r3, r1
 80002ae:	d301      	bcc.n	80002b4 <__divsi3+0x70>
 80002b0:	030b      	lsls	r3, r1, #12
 80002b2:	1ac0      	subs	r0, r0, r3
 80002b4:	4152      	adcs	r2, r2
 80002b6:	0ac3      	lsrs	r3, r0, #11
 80002b8:	428b      	cmp	r3, r1
 80002ba:	d301      	bcc.n	80002c0 <__divsi3+0x7c>
 80002bc:	02cb      	lsls	r3, r1, #11
 80002be:	1ac0      	subs	r0, r0, r3
 80002c0:	4152      	adcs	r2, r2
 80002c2:	0a83      	lsrs	r3, r0, #10
 80002c4:	428b      	cmp	r3, r1
 80002c6:	d301      	bcc.n	80002cc <__divsi3+0x88>
 80002c8:	028b      	lsls	r3, r1, #10
 80002ca:	1ac0      	subs	r0, r0, r3
 80002cc:	4152      	adcs	r2, r2
 80002ce:	0a43      	lsrs	r3, r0, #9
 80002d0:	428b      	cmp	r3, r1
 80002d2:	d301      	bcc.n	80002d8 <__divsi3+0x94>
 80002d4:	024b      	lsls	r3, r1, #9
 80002d6:	1ac0      	subs	r0, r0, r3
 80002d8:	4152      	adcs	r2, r2
 80002da:	0a03      	lsrs	r3, r0, #8
 80002dc:	428b      	cmp	r3, r1
 80002de:	d301      	bcc.n	80002e4 <__divsi3+0xa0>
 80002e0:	020b      	lsls	r3, r1, #8
 80002e2:	1ac0      	subs	r0, r0, r3
 80002e4:	4152      	adcs	r2, r2
 80002e6:	d2cd      	bcs.n	8000284 <__divsi3+0x40>
 80002e8:	09c3      	lsrs	r3, r0, #7
 80002ea:	428b      	cmp	r3, r1
 80002ec:	d301      	bcc.n	80002f2 <__divsi3+0xae>
 80002ee:	01cb      	lsls	r3, r1, #7
 80002f0:	1ac0      	subs	r0, r0, r3
 80002f2:	4152      	adcs	r2, r2
 80002f4:	0983      	lsrs	r3, r0, #6
 80002f6:	428b      	cmp	r3, r1
 80002f8:	d301      	bcc.n	80002fe <__divsi3+0xba>
 80002fa:	018b      	lsls	r3, r1, #6
 80002fc:	1ac0      	subs	r0, r0, r3
 80002fe:	4152      	adcs	r2, r2
 8000300:	0943      	lsrs	r3, r0, #5
 8000302:	428b      	cmp	r3, r1
 8000304:	d301      	bcc.n	800030a <__divsi3+0xc6>
 8000306:	014b      	lsls	r3, r1, #5
 8000308:	1ac0      	subs	r0, r0, r3
 800030a:	4152      	adcs	r2, r2
 800030c:	0903      	lsrs	r3, r0, #4
 800030e:	428b      	cmp	r3, r1
 8000310:	d301      	bcc.n	8000316 <__divsi3+0xd2>
 8000312:	010b      	lsls	r3, r1, #4
 8000314:	1ac0      	subs	r0, r0, r3
 8000316:	4152      	adcs	r2, r2
 8000318:	08c3      	lsrs	r3, r0, #3
 800031a:	428b      	cmp	r3, r1
 800031c:	d301      	bcc.n	8000322 <__divsi3+0xde>
 800031e:	00cb      	lsls	r3, r1, #3
 8000320:	1ac0      	subs	r0, r0, r3
 8000322:	4152      	adcs	r2, r2
 8000324:	0883      	lsrs	r3, r0, #2
 8000326:	428b      	cmp	r3, r1
 8000328:	d301      	bcc.n	800032e <__divsi3+0xea>
 800032a:	008b      	lsls	r3, r1, #2
 800032c:	1ac0      	subs	r0, r0, r3
 800032e:	4152      	adcs	r2, r2
 8000330:	0843      	lsrs	r3, r0, #1
 8000332:	428b      	cmp	r3, r1
 8000334:	d301      	bcc.n	800033a <__divsi3+0xf6>
 8000336:	004b      	lsls	r3, r1, #1
 8000338:	1ac0      	subs	r0, r0, r3
 800033a:	4152      	adcs	r2, r2
 800033c:	1a41      	subs	r1, r0, r1
 800033e:	d200      	bcs.n	8000342 <__divsi3+0xfe>
 8000340:	4601      	mov	r1, r0
 8000342:	4152      	adcs	r2, r2
 8000344:	4610      	mov	r0, r2
 8000346:	4770      	bx	lr
 8000348:	e05d      	b.n	8000406 <__divsi3+0x1c2>
 800034a:	0fca      	lsrs	r2, r1, #31
 800034c:	d000      	beq.n	8000350 <__divsi3+0x10c>
 800034e:	4249      	negs	r1, r1
 8000350:	1003      	asrs	r3, r0, #32
 8000352:	d300      	bcc.n	8000356 <__divsi3+0x112>
 8000354:	4240      	negs	r0, r0
 8000356:	4053      	eors	r3, r2
 8000358:	2200      	movs	r2, #0
 800035a:	469c      	mov	ip, r3
 800035c:	0903      	lsrs	r3, r0, #4
 800035e:	428b      	cmp	r3, r1
 8000360:	d32d      	bcc.n	80003be <__divsi3+0x17a>
 8000362:	0a03      	lsrs	r3, r0, #8
 8000364:	428b      	cmp	r3, r1
 8000366:	d312      	bcc.n	800038e <__divsi3+0x14a>
 8000368:	22fc      	movs	r2, #252	@ 0xfc
 800036a:	0189      	lsls	r1, r1, #6
 800036c:	ba12      	rev	r2, r2
 800036e:	0a03      	lsrs	r3, r0, #8
 8000370:	428b      	cmp	r3, r1
 8000372:	d30c      	bcc.n	800038e <__divsi3+0x14a>
 8000374:	0189      	lsls	r1, r1, #6
 8000376:	1192      	asrs	r2, r2, #6
 8000378:	428b      	cmp	r3, r1
 800037a:	d308      	bcc.n	800038e <__divsi3+0x14a>
 800037c:	0189      	lsls	r1, r1, #6
 800037e:	1192      	asrs	r2, r2, #6
 8000380:	428b      	cmp	r3, r1
 8000382:	d304      	bcc.n	800038e <__divsi3+0x14a>
 8000384:	0189      	lsls	r1, r1, #6
 8000386:	d03a      	beq.n	80003fe <__divsi3+0x1ba>
 8000388:	1192      	asrs	r2, r2, #6
 800038a:	e000      	b.n	800038e <__divsi3+0x14a>
 800038c:	0989      	lsrs	r1, r1, #6
 800038e:	09c3      	lsrs	r3, r0, #7
 8000390:	428b      	cmp	r3, r1
 8000392:	d301      	bcc.n	8000398 <__divsi3+0x154>
 8000394:	01cb      	lsls	r3, r1, #7
 8000396:	1ac0      	subs	r0, r0, r3
 8000398:	4152      	adcs	r2, r2
 800039a:	0983      	lsrs	r3, r0, #6
 800039c:	428b      	cmp	r3, r1
 800039e:	d301      	bcc.n	80003a4 <__divsi3+0x160>
 80003a0:	018b      	lsls	r3, r1, #6
 80003a2:	1ac0      	subs	r0, r0, r3
 80003a4:	4152      	adcs	r2, r2
 80003a6:	0943      	lsrs	r3, r0, #5
 80003a8:	428b      	cmp	r3, r1
 80003aa:	d301      	bcc.n	80003b0 <__divsi3+0x16c>
 80003ac:	014b      	lsls	r3, r1, #5
 80003ae:	1ac0      	subs	r0, r0, r3
 80003b0:	4152      	adcs	r2, r2
 80003b2:	0903      	lsrs	r3, r0, #4
 80003b4:	428b      	cmp	r3, r1
 80003b6:	d301      	bcc.n	80003bc <__divsi3+0x178>
 80003b8:	010b      	lsls	r3, r1, #4
 80003ba:	1ac0      	subs	r0, r0, r3
 80003bc:	4152      	adcs	r2, r2
 80003be:	08c3      	lsrs	r3, r0, #3
 80003c0:	428b      	cmp	r3, r1
 80003c2:	d301      	bcc.n	80003c8 <__divsi3+0x184>
 80003c4:	00cb      	lsls	r3, r1, #3
 80003c6:	1ac0      	subs	r0, r0, r3
 80003c8:	4152      	adcs	r2, r2
 80003ca:	0883      	lsrs	r3, r0, #2
 80003cc:	428b      	cmp	r3, r1
 80003ce:	d301      	bcc.n	80003d4 <__divsi3+0x190>
 80003d0:	008b      	lsls	r3, r1, #2
 80003d2:	1ac0      	subs	r0, r0, r3
 80003d4:	4152      	adcs	r2, r2
 80003d6:	d2d9      	bcs.n	800038c <__divsi3+0x148>
 80003d8:	0843      	lsrs	r3, r0, #1
 80003da:	428b      	cmp	r3, r1
 80003dc:	d301      	bcc.n	80003e2 <__divsi3+0x19e>
 80003de:	004b      	lsls	r3, r1, #1
 80003e0:	1ac0      	subs	r0, r0, r3
 80003e2:	4152      	adcs	r2, r2
 80003e4:	1a41      	subs	r1, r0, r1
 80003e6:	d200      	bcs.n	80003ea <__divsi3+0x1a6>
 80003e8:	4601      	mov	r1, r0
 80003ea:	4663      	mov	r3, ip
 80003ec:	4152      	adcs	r2, r2
 80003ee:	105b      	asrs	r3, r3, #1
 80003f0:	4610      	mov	r0, r2
 80003f2:	d301      	bcc.n	80003f8 <__divsi3+0x1b4>
 80003f4:	4240      	negs	r0, r0
 80003f6:	2b00      	cmp	r3, #0
 80003f8:	d500      	bpl.n	80003fc <__divsi3+0x1b8>
 80003fa:	4249      	negs	r1, r1
 80003fc:	4770      	bx	lr
 80003fe:	4663      	mov	r3, ip
 8000400:	105b      	asrs	r3, r3, #1
 8000402:	d300      	bcc.n	8000406 <__divsi3+0x1c2>
 8000404:	4240      	negs	r0, r0
 8000406:	b501      	push	{r0, lr}
 8000408:	2000      	movs	r0, #0
 800040a:	f000 f805 	bl	8000418 <__aeabi_idiv0>
 800040e:	bd02      	pop	{r1, pc}

08000410 <__aeabi_idivmod>:
 8000410:	2900      	cmp	r1, #0
 8000412:	d0f8      	beq.n	8000406 <__divsi3+0x1c2>
 8000414:	e716      	b.n	8000244 <__divsi3>
 8000416:	4770      	bx	lr

08000418 <__aeabi_idiv0>:
 8000418:	4770      	bx	lr
 800041a:	46c0      	nop			@ (mov r8, r8)

0800041c <init_nrf>:
 800041c:	b51f      	push	{r0, r1, r2, r3, r4, lr}
 800041e:	2405      	movs	r4, #5
 8000420:	0022      	movs	r2, r4
 8000422:	4937      	ldr	r1, [pc, #220]	@ (8000500 <init_nrf+0xe4>)
 8000424:	a802      	add	r0, sp, #8
 8000426:	f005 f9ac 	bl	8005782 <memcpy>
 800042a:	f004 fad3 	bl	80049d4 <csn_high>
 800042e:	f004 fae5 	bl	80049fc <ce_high>
 8000432:	0020      	movs	r0, r4
 8000434:	f000 f8a6 	bl	8000584 <BSP_delayMs>
 8000438:	f004 faea 	bl	8004a10 <ce_low>
 800043c:	f004 fd36 	bl	8004eac <nrf24_init>
 8000440:	2101      	movs	r1, #1
 8000442:	2000      	movs	r0, #0
 8000444:	f004 fb0c 	bl	8004a60 <nrf24_r_reg>
 8000448:	2001      	movs	r0, #1
 800044a:	f004 fcbc 	bl	8004dc6 <nrf24_auto_ack_all>
 800044e:	2000      	movs	r0, #0
 8000450:	f004 fcca 	bl	8004de8 <nrf24_en_ack_pld>
 8000454:	2000      	movs	r0, #0
 8000456:	f004 fc83 	bl	8004d60 <nrf24_dpl>
 800045a:	2101      	movs	r1, #1
 800045c:	0008      	movs	r0, r1
 800045e:	f004 fbec 	bl	8004c3a <nrf24_set_crc>
 8000462:	2003      	movs	r0, #3
 8000464:	f004 fb3f 	bl	8004ae6 <nrf24_tx_pwr>
 8000468:	2000      	movs	r0, #0
 800046a:	f004 fb51 	bl	8004b10 <nrf24_data_rate>
 800046e:	204c      	movs	r0, #76	@ 0x4c
 8000470:	f004 fb68 	bl	8004b44 <nrf24_set_channel>
 8000474:	0020      	movs	r0, r4
 8000476:	f004 fbf5 	bl	8004c64 <nrf24_set_addr_width>
 800047a:	2100      	movs	r1, #0
 800047c:	0008      	movs	r0, r1
 800047e:	f004 fc85 	bl	8004d8c <nrf24_set_rx_dpl>
 8000482:	2100      	movs	r1, #0
 8000484:	2001      	movs	r0, #1
 8000486:	f004 fc81 	bl	8004d8c <nrf24_set_rx_dpl>
 800048a:	2100      	movs	r1, #0
 800048c:	2002      	movs	r0, #2
 800048e:	f004 fc7d 	bl	8004d8c <nrf24_set_rx_dpl>
 8000492:	2100      	movs	r1, #0
 8000494:	2003      	movs	r0, #3
 8000496:	f004 fc79 	bl	8004d8c <nrf24_set_rx_dpl>
 800049a:	2100      	movs	r1, #0
 800049c:	2004      	movs	r0, #4
 800049e:	f004 fc75 	bl	8004d8c <nrf24_set_rx_dpl>
 80004a2:	0020      	movs	r0, r4
 80004a4:	2100      	movs	r1, #0
 80004a6:	f004 fc71 	bl	8004d8c <nrf24_set_rx_dpl>
 80004aa:	2120      	movs	r1, #32
 80004ac:	2000      	movs	r0, #0
 80004ae:	f004 fb59 	bl	8004b64 <nrf24_pipe_pld_size>
 80004b2:	2004      	movs	r0, #4
 80004b4:	f004 fcae 	bl	8004e14 <nrf24_auto_retr_delay>
 80004b8:	200a      	movs	r0, #10
 80004ba:	f004 fcbd 	bl	8004e38 <nrf24_auto_retr_limit>
 80004be:	a802      	add	r0, sp, #8
 80004c0:	f004 fb49 	bl	8004b56 <nrf24_open_tx_pipe>
 80004c4:	a902      	add	r1, sp, #8
 80004c6:	2000      	movs	r0, #0
 80004c8:	f004 fb6c 	bl	8004ba4 <nrf24_open_rx_pipe>
 80004cc:	f004 fa96 	bl	80049fc <ce_high>
 80004d0:	f004 fc00 	bl	8004cd4 <nrf24_clear_rx_dr>
 80004d4:	f004 fc0f 	bl	8004cf6 <nrf24_clear_tx_ds>
 80004d8:	f004 fc1e 	bl	8004d18 <nrf24_clear_max_rt>
 80004dc:	f004 fbd5 	bl	8004c8a <nrf24_flush_rx>
 80004e0:	f004 faee 	bl	8004ac0 <nrf24_pwr_up>
 80004e4:	2002      	movs	r0, #2
 80004e6:	f000 f84d 	bl	8000584 <BSP_delayMs>
 80004ea:	f004 fc26 	bl	8004d3a <nrf24_listen>
 80004ee:	466b      	mov	r3, sp
 80004f0:	1dd9      	adds	r1, r3, #7
 80004f2:	230f      	movs	r3, #15
 80004f4:	2201      	movs	r2, #1
 80004f6:	2000      	movs	r0, #0
 80004f8:	700b      	strb	r3, [r1, #0]
 80004fa:	f004 fa93 	bl	8004a24 <nrf24_w_reg>
 80004fe:	bd1f      	pop	{r0, r1, r2, r3, r4, pc}
 8000500:	08006510 	.word	0x08006510

08000504 <verify_rx_mode>:
 8000504:	b570      	push	{r4, r5, r6, lr}
 8000506:	2101      	movs	r1, #1
 8000508:	2000      	movs	r0, #0
 800050a:	f004 faa9 	bl	8004a60 <nrf24_r_reg>
 800050e:	0005      	movs	r5, r0
 8000510:	f004 fbc4 	bl	8004c9c <nrf24_r_status>
 8000514:	2101      	movs	r1, #1
 8000516:	2002      	movs	r0, #2
 8000518:	f004 faa2 	bl	8004a60 <nrf24_r_reg>
 800051c:	2101      	movs	r1, #1
 800051e:	0004      	movs	r4, r0
 8000520:	2011      	movs	r0, #17
 8000522:	f004 fa9d 	bl	8004a60 <nrf24_r_reg>
 8000526:	2d0f      	cmp	r5, #15
 8000528:	d000      	beq.n	800052c <verify_rx_mode+0x28>
 800052a:	e7fe      	b.n	800052a <verify_rx_mode+0x26>
 800052c:	2101      	movs	r1, #1
 800052e:	420c      	tst	r4, r1
 8000530:	d100      	bne.n	8000534 <verify_rx_mode+0x30>
 8000532:	e7fe      	b.n	8000532 <verify_rx_mode+0x2e>
 8000534:	2820      	cmp	r0, #32
 8000536:	d000      	beq.n	800053a <verify_rx_mode+0x36>
 8000538:	e7fe      	b.n	8000538 <verify_rx_mode+0x34>
 800053a:	4803      	ldr	r0, [pc, #12]	@ (8000548 <verify_rx_mode+0x44>)
 800053c:	f001 fb26 	bl	8001b8c <HAL_GPIO_ReadPin>
 8000540:	2801      	cmp	r0, #1
 8000542:	d000      	beq.n	8000546 <verify_rx_mode+0x42>
 8000544:	e7fe      	b.n	8000544 <verify_rx_mode+0x40>
 8000546:	bd70      	pop	{r4, r5, r6, pc}
 8000548:	50000400 	.word	0x50000400

0800054c <Q_onError>:
 800054c:	e7fe      	b.n	800054c <Q_onError>
	...

08000550 <SysTick_Handler>:
 8000550:	2100      	movs	r1, #0
 8000552:	4a0a      	ldr	r2, [pc, #40]	@ (800057c <SysTick_Handler+0x2c>)
 8000554:	b510      	push	{r4, lr}
 8000556:	6813      	ldr	r3, [r2, #0]
 8000558:	0008      	movs	r0, r1
 800055a:	3301      	adds	r3, #1
 800055c:	6013      	str	r3, [r2, #0]
 800055e:	f004 f90f 	bl	8004780 <QTimeEvt_tick_>
 8000562:	f003 fc4b 	bl	8003dfc <QF_int_disable_>
 8000566:	f004 f953 	bl	8004810 <QK_sched_>
 800056a:	2800      	cmp	r0, #0
 800056c:	d003      	beq.n	8000576 <SysTick_Handler+0x26>
 800056e:	2280      	movs	r2, #128	@ 0x80
 8000570:	4b03      	ldr	r3, [pc, #12]	@ (8000580 <SysTick_Handler+0x30>)
 8000572:	0552      	lsls	r2, r2, #21
 8000574:	601a      	str	r2, [r3, #0]
 8000576:	f003 fc4f 	bl	8003e18 <QF_int_enable_>
 800057a:	bd10      	pop	{r4, pc}
 800057c:	20000094 	.word	0x20000094
 8000580:	e000ed04 	.word	0xe000ed04

08000584 <BSP_delayMs>:
 8000584:	4a03      	ldr	r2, [pc, #12]	@ (8000594 <BSP_delayMs+0x10>)
 8000586:	6811      	ldr	r1, [r2, #0]
 8000588:	6813      	ldr	r3, [r2, #0]
 800058a:	1a5b      	subs	r3, r3, r1
 800058c:	4283      	cmp	r3, r0
 800058e:	d3fb      	bcc.n	8000588 <BSP_delayMs+0x4>
 8000590:	4770      	bx	lr
 8000592:	46c0      	nop			@ (mov r8, r8)
 8000594:	20000094 	.word	0x20000094

08000598 <EXTI0_1_IRQHandler>:
 8000598:	480c      	ldr	r0, [pc, #48]	@ (80005cc <EXTI0_1_IRQHandler+0x34>)
 800059a:	b510      	push	{r4, lr}
 800059c:	2300      	movs	r3, #0
 800059e:	490c      	ldr	r1, [pc, #48]	@ (80005d0 <EXTI0_1_IRQHandler+0x38>)
 80005a0:	4a0c      	ldr	r2, [pc, #48]	@ (80005d4 <EXTI0_1_IRQHandler+0x3c>)
 80005a2:	6800      	ldr	r0, [r0, #0]
 80005a4:	f003 fe70 	bl	8004288 <QActive_post_>
 80005a8:	2201      	movs	r2, #1
 80005aa:	4b0b      	ldr	r3, [pc, #44]	@ (80005d8 <EXTI0_1_IRQHandler+0x40>)
 80005ac:	60da      	str	r2, [r3, #12]
 80005ae:	611a      	str	r2, [r3, #16]
 80005b0:	f003 fc24 	bl	8003dfc <QF_int_disable_>
 80005b4:	f004 f92c 	bl	8004810 <QK_sched_>
 80005b8:	2800      	cmp	r0, #0
 80005ba:	d003      	beq.n	80005c4 <EXTI0_1_IRQHandler+0x2c>
 80005bc:	2280      	movs	r2, #128	@ 0x80
 80005be:	4b07      	ldr	r3, [pc, #28]	@ (80005dc <EXTI0_1_IRQHandler+0x44>)
 80005c0:	0552      	lsls	r2, r2, #21
 80005c2:	601a      	str	r2, [r3, #0]
 80005c4:	f003 fc28 	bl	8003e18 <QF_int_enable_>
 80005c8:	bd10      	pop	{r4, pc}
 80005ca:	46c0      	nop			@ (mov r8, r8)
 80005cc:	08006620 	.word	0x08006620
 80005d0:	08006610 	.word	0x08006610
 80005d4:	0000ffff 	.word	0x0000ffff
 80005d8:	40021800 	.word	0x40021800
 80005dc:	e000ed04 	.word	0xe000ed04

080005e0 <TIM3_IRQHandler>:
 80005e0:	480b      	ldr	r0, [pc, #44]	@ (8000610 <TIM3_IRQHandler+0x30>)
 80005e2:	b510      	push	{r4, lr}
 80005e4:	6803      	ldr	r3, [r0, #0]
 80005e6:	691a      	ldr	r2, [r3, #16]
 80005e8:	07d2      	lsls	r2, r2, #31
 80005ea:	d502      	bpl.n	80005f2 <TIM3_IRQHandler+0x12>
 80005ec:	2202      	movs	r2, #2
 80005ee:	4252      	negs	r2, r2
 80005f0:	611a      	str	r2, [r3, #16]
 80005f2:	f002 fd01 	bl	8002ff8 <HAL_TIM_IRQHandler>
 80005f6:	f003 fc01 	bl	8003dfc <QF_int_disable_>
 80005fa:	f004 f909 	bl	8004810 <QK_sched_>
 80005fe:	2800      	cmp	r0, #0
 8000600:	d003      	beq.n	800060a <TIM3_IRQHandler+0x2a>
 8000602:	2280      	movs	r2, #128	@ 0x80
 8000604:	4b03      	ldr	r3, [pc, #12]	@ (8000614 <TIM3_IRQHandler+0x34>)
 8000606:	0552      	lsls	r2, r2, #21
 8000608:	601a      	str	r2, [r3, #0]
 800060a:	f003 fc05 	bl	8003e18 <QF_int_enable_>
 800060e:	bd10      	pop	{r4, pc}
 8000610:	200002d4 	.word	0x200002d4
 8000614:	e000ed04 	.word	0xe000ed04

08000618 <HAL_TIM_IC_CaptureCallback>:
 8000618:	b537      	push	{r0, r1, r2, r4, r5, lr}
 800061a:	0004      	movs	r4, r0
 800061c:	2100      	movs	r1, #0
 800061e:	f002 fcd0 	bl	8002fc2 <HAL_TIM_ReadCapturedValue>
 8000622:	6823      	ldr	r3, [r4, #0]
 8000624:	4c05      	ldr	r4, [pc, #20]	@ (800063c <HAL_TIM_IC_CaptureCallback+0x24>)
 8000626:	6919      	ldr	r1, [r3, #16]
 8000628:	68da      	ldr	r2, [r3, #12]
 800062a:	7823      	ldrb	r3, [r4, #0]
 800062c:	1c5d      	adds	r5, r3, #1
 800062e:	7025      	strb	r5, [r4, #0]
 8000630:	4c03      	ldr	r4, [pc, #12]	@ (8000640 <HAL_TIM_IC_CaptureCallback+0x28>)
 8000632:	9000      	str	r0, [sp, #0]
 8000634:	0020      	movs	r0, r4
 8000636:	f004 fe91 	bl	800535c <iprintf>
 800063a:	bd37      	pop	{r0, r1, r2, r4, r5, pc}
 800063c:	20000090 	.word	0x20000090
 8000640:	08006516 	.word	0x08006516

08000644 <BSP_init>:
 8000644:	b510      	push	{r4, lr}
 8000646:	f000 ff59 	bl	80014fc <HAL_Init>
 800064a:	f000 f8cf 	bl	80007ec <SystemClock_Config>
 800064e:	f001 ff63 	bl	8002518 <HAL_RCC_GetHCLKFreq>
 8000652:	21fa      	movs	r1, #250	@ 0xfa
 8000654:	0089      	lsls	r1, r1, #2
 8000656:	f7ff fd6b 	bl	8000130 <__udivsi3>
 800065a:	f001 f9c3 	bl	80019e4 <HAL_SYSTICK_Config>
 800065e:	4816      	ldr	r0, [pc, #88]	@ (80006b8 <BSP_init+0x74>)
 8000660:	f002 fc86 	bl	8002f70 <HAL_TIM_Base_Start>
 8000664:	2800      	cmp	r0, #0
 8000666:	d001      	beq.n	800066c <BSP_init+0x28>
 8000668:	f000 f8b8 	bl	80007dc <Error_Handler>
 800066c:	4813      	ldr	r0, [pc, #76]	@ (80006bc <BSP_init+0x78>)
 800066e:	f002 fc7f 	bl	8002f70 <HAL_TIM_Base_Start>
 8000672:	2800      	cmp	r0, #0
 8000674:	d001      	beq.n	800067a <BSP_init+0x36>
 8000676:	f000 f8b1 	bl	80007dc <Error_Handler>
 800067a:	2302      	movs	r3, #2
 800067c:	4a10      	ldr	r2, [pc, #64]	@ (80006c0 <BSP_init+0x7c>)
 800067e:	4c11      	ldr	r4, [pc, #68]	@ (80006c4 <BSP_init+0x80>)
 8000680:	6811      	ldr	r1, [r2, #0]
 8000682:	0020      	movs	r0, r4
 8000684:	430b      	orrs	r3, r1
 8000686:	6013      	str	r3, [r2, #0]
 8000688:	f002 fc72 	bl	8002f70 <HAL_TIM_Base_Start>
 800068c:	2800      	cmp	r0, #0
 800068e:	d001      	beq.n	8000694 <BSP_init+0x50>
 8000690:	f000 f8a4 	bl	80007dc <Error_Handler>
 8000694:	2100      	movs	r1, #0
 8000696:	0020      	movs	r0, r4
 8000698:	f003 f800 	bl	800369c <HAL_TIM_IC_Start_IT>
 800069c:	2101      	movs	r1, #1
 800069e:	6823      	ldr	r3, [r4, #0]
 80006a0:	68da      	ldr	r2, [r3, #12]
 80006a2:	438a      	bics	r2, r1
 80006a4:	60da      	str	r2, [r3, #12]
 80006a6:	2202      	movs	r2, #2
 80006a8:	4252      	negs	r2, r2
 80006aa:	611a      	str	r2, [r3, #16]
 80006ac:	f004 fd2e 	bl	800510c <ssd1306_Init>
 80006b0:	f7ff feb4 	bl	800041c <init_nrf>
 80006b4:	bd10      	pop	{r4, pc}
 80006b6:	46c0      	nop			@ (mov r8, r8)
 80006b8:	20000288 	.word	0x20000288
 80006bc:	2000023c 	.word	0x2000023c
 80006c0:	40000400 	.word	0x40000400
 80006c4:	200002d4 	.word	0x200002d4

080006c8 <QF_onStartup>:
 80006c8:	4b17      	ldr	r3, [pc, #92]	@ (8000728 <QF_onStartup+0x60>)
 80006ca:	2164      	movs	r1, #100	@ 0x64
 80006cc:	6818      	ldr	r0, [r3, #0]
 80006ce:	b510      	push	{r4, lr}
 80006d0:	f7ff fd2e 	bl	8000130 <__udivsi3>
 80006d4:	2380      	movs	r3, #128	@ 0x80
 80006d6:	3801      	subs	r0, #1
 80006d8:	4914      	ldr	r1, [pc, #80]	@ (800072c <QF_onStartup+0x64>)
 80006da:	045b      	lsls	r3, r3, #17
 80006dc:	4298      	cmp	r0, r3
 80006de:	d20c      	bcs.n	80006fa <QF_onStartup+0x32>
 80006e0:	4a13      	ldr	r2, [pc, #76]	@ (8000730 <QF_onStartup+0x68>)
 80006e2:	6050      	str	r0, [r2, #4]
 80006e4:	20c0      	movs	r0, #192	@ 0xc0
 80006e6:	6a0b      	ldr	r3, [r1, #32]
 80006e8:	0600      	lsls	r0, r0, #24
 80006ea:	021b      	lsls	r3, r3, #8
 80006ec:	0a1b      	lsrs	r3, r3, #8
 80006ee:	4303      	orrs	r3, r0
 80006f0:	620b      	str	r3, [r1, #32]
 80006f2:	2300      	movs	r3, #0
 80006f4:	6093      	str	r3, [r2, #8]
 80006f6:	3307      	adds	r3, #7
 80006f8:	6013      	str	r3, [r2, #0]
 80006fa:	20c7      	movs	r0, #199	@ 0xc7
 80006fc:	24ff      	movs	r4, #255	@ 0xff
 80006fe:	4b0d      	ldr	r3, [pc, #52]	@ (8000734 <QF_onStartup+0x6c>)
 8000700:	0080      	lsls	r0, r0, #2
 8000702:	581a      	ldr	r2, [r3, r0]
 8000704:	43a2      	bics	r2, r4
 8000706:	501a      	str	r2, [r3, r0]
 8000708:	3818      	subs	r0, #24
 800070a:	581a      	ldr	r2, [r3, r0]
 800070c:	4c0a      	ldr	r4, [pc, #40]	@ (8000738 <QF_onStartup+0x70>)
 800070e:	4022      	ands	r2, r4
 8000710:	501a      	str	r2, [r3, r0]
 8000712:	2080      	movs	r0, #128	@ 0x80
 8000714:	6a0a      	ldr	r2, [r1, #32]
 8000716:	05c0      	lsls	r0, r0, #23
 8000718:	0212      	lsls	r2, r2, #8
 800071a:	0a12      	lsrs	r2, r2, #8
 800071c:	4302      	orrs	r2, r0
 800071e:	620a      	str	r2, [r1, #32]
 8000720:	2220      	movs	r2, #32
 8000722:	601a      	str	r2, [r3, #0]
 8000724:	bd10      	pop	{r4, pc}
 8000726:	46c0      	nop			@ (mov r8, r8)
 8000728:	20000000 	.word	0x20000000
 800072c:	e000ed00 	.word	0xe000ed00
 8000730:	e000e010 	.word	0xe000e010
 8000734:	e000e100 	.word	0xe000e100
 8000738:	ffff00ff 	.word	0xffff00ff

0800073c <QK_onIdle>:
 800073c:	4770      	bx	lr
	...

08000740 <display_temp>:
 8000740:	b530      	push	{r4, r5, lr}
 8000742:	0004      	movs	r4, r0
 8000744:	2501      	movs	r5, #1
 8000746:	b087      	sub	sp, #28
 8000748:	2000      	movs	r0, #0
 800074a:	f004 fbe3 	bl	8004f14 <ssd1306_Fill>
 800074e:	0022      	movs	r2, r4
 8000750:	490f      	ldr	r1, [pc, #60]	@ (8000790 <display_temp+0x50>)
 8000752:	a802      	add	r0, sp, #8
 8000754:	f004 fe72 	bl	800543c <siprintf>
 8000758:	2104      	movs	r1, #4
 800075a:	2000      	movs	r0, #0
 800075c:	f004 fc8a 	bl	8005074 <ssd1306_SetCursor>
 8000760:	4c0c      	ldr	r4, [pc, #48]	@ (8000794 <display_temp+0x54>)
 8000762:	9500      	str	r5, [sp, #0]
 8000764:	6821      	ldr	r1, [r4, #0]
 8000766:	6862      	ldr	r2, [r4, #4]
 8000768:	68a3      	ldr	r3, [r4, #8]
 800076a:	a802      	add	r0, sp, #8
 800076c:	f004 fc68 	bl	8005040 <ssd1306_WriteString>
 8000770:	f004 fbde 	bl	8004f30 <ssd1306_UpdateScreen>
 8000774:	2104      	movs	r1, #4
 8000776:	201e      	movs	r0, #30
 8000778:	f004 fc7c 	bl	8005074 <ssd1306_SetCursor>
 800077c:	cc0e      	ldmia	r4!, {r1, r2, r3}
 800077e:	9500      	str	r5, [sp, #0]
 8000780:	4805      	ldr	r0, [pc, #20]	@ (8000798 <display_temp+0x58>)
 8000782:	f004 fc5d 	bl	8005040 <ssd1306_WriteString>
 8000786:	f004 fbd3 	bl	8004f30 <ssd1306_UpdateScreen>
 800078a:	b007      	add	sp, #28
 800078c:	bd30      	pop	{r4, r5, pc}
 800078e:	46c0      	nop			@ (mov r8, r8)
 8000790:	0800653e 	.word	0x0800653e
 8000794:	08006740 	.word	0x08006740
 8000798:	08006541 	.word	0x08006541

0800079c <display_dry>:
 800079c:	b510      	push	{r4, lr}
 800079e:	0004      	movs	r4, r0
 80007a0:	b086      	sub	sp, #24
 80007a2:	2000      	movs	r0, #0
 80007a4:	f004 fbb6 	bl	8004f14 <ssd1306_Fill>
 80007a8:	0022      	movs	r2, r4
 80007aa:	490b      	ldr	r1, [pc, #44]	@ (80007d8 <display_dry+0x3c>)
 80007ac:	a802      	add	r0, sp, #8
 80007ae:	f004 fe45 	bl	800543c <siprintf>
 80007b2:	2164      	movs	r1, #100	@ 0x64
 80007b4:	207f      	movs	r0, #127	@ 0x7f
 80007b6:	1b0c      	subs	r4, r1, r4
 80007b8:	b2e4      	uxtb	r4, r4
 80007ba:	4360      	muls	r0, r4
 80007bc:	f7ff fd42 	bl	8000244 <__divsi3>
 80007c0:	b2c2      	uxtb	r2, r0
 80007c2:	2001      	movs	r0, #1
 80007c4:	231f      	movs	r3, #31
 80007c6:	0001      	movs	r1, r0
 80007c8:	9000      	str	r0, [sp, #0]
 80007ca:	f004 fc59 	bl	8005080 <ssd1306_FillRectangle>
 80007ce:	f004 fbaf 	bl	8004f30 <ssd1306_UpdateScreen>
 80007d2:	b006      	add	sp, #24
 80007d4:	bd10      	pop	{r4, pc}
 80007d6:	46c0      	nop			@ (mov r8, r8)
 80007d8:	0800653e 	.word	0x0800653e

080007dc <Error_Handler>:
 80007dc:	b510      	push	{r4, lr}
 80007de:	b672      	cpsid	i
 80007e0:	2100      	movs	r1, #0
 80007e2:	4801      	ldr	r0, [pc, #4]	@ (80007e8 <Error_Handler+0xc>)
 80007e4:	f7ff feb2 	bl	800054c <Q_onError>
 80007e8:	08006543 	.word	0x08006543

080007ec <SystemClock_Config>:
 80007ec:	b530      	push	{r4, r5, lr}
 80007ee:	2507      	movs	r5, #7
 80007f0:	2401      	movs	r4, #1
 80007f2:	b08d      	sub	sp, #52	@ 0x34
 80007f4:	2214      	movs	r2, #20
 80007f6:	2100      	movs	r1, #0
 80007f8:	a807      	add	r0, sp, #28
 80007fa:	f004 ff3f 	bl	800567c <memset>
 80007fe:	2214      	movs	r2, #20
 8000800:	2100      	movs	r1, #0
 8000802:	4668      	mov	r0, sp
 8000804:	f004 ff3a 	bl	800567c <memset>
 8000808:	4a0e      	ldr	r2, [pc, #56]	@ (8000844 <SystemClock_Config+0x58>)
 800080a:	a805      	add	r0, sp, #20
 800080c:	6813      	ldr	r3, [r2, #0]
 800080e:	43ab      	bics	r3, r5
 8000810:	4323      	orrs	r3, r4
 8000812:	6013      	str	r3, [r2, #0]
 8000814:	2380      	movs	r3, #128	@ 0x80
 8000816:	025b      	lsls	r3, r3, #9
 8000818:	9405      	str	r4, [sp, #20]
 800081a:	9306      	str	r3, [sp, #24]
 800081c:	f001 fc76 	bl	800210c <HAL_RCC_OscConfig>
 8000820:	2800      	cmp	r0, #0
 8000822:	d001      	beq.n	8000828 <SystemClock_Config+0x3c>
 8000824:	f7ff ffda 	bl	80007dc <Error_Handler>
 8000828:	9002      	str	r0, [sp, #8]
 800082a:	9003      	str	r0, [sp, #12]
 800082c:	9004      	str	r0, [sp, #16]
 800082e:	0021      	movs	r1, r4
 8000830:	4668      	mov	r0, sp
 8000832:	9500      	str	r5, [sp, #0]
 8000834:	9401      	str	r4, [sp, #4]
 8000836:	f001 fdc3 	bl	80023c0 <HAL_RCC_ClockConfig>
 800083a:	2800      	cmp	r0, #0
 800083c:	d1f2      	bne.n	8000824 <SystemClock_Config+0x38>
 800083e:	b00d      	add	sp, #52	@ 0x34
 8000840:	bd30      	pop	{r4, r5, pc}
 8000842:	46c0      	nop			@ (mov r8, r8)
 8000844:	40022000 	.word	0x40022000

08000848 <main>:
 8000848:	b5f0      	push	{r4, r5, r6, r7, lr}
 800084a:	2704      	movs	r7, #4
 800084c:	b09f      	sub	sp, #124	@ 0x7c
 800084e:	48c7      	ldr	r0, [pc, #796]	@ (8000b6c <main+0x324>)
 8000850:	f004 fdea 	bl	8005428 <puts>
 8000854:	f000 fe52 	bl	80014fc <HAL_Init>
 8000858:	f7ff ffc8 	bl	80007ec <SystemClock_Config>
 800085c:	2214      	movs	r2, #20
 800085e:	2100      	movs	r1, #0
 8000860:	a819      	add	r0, sp, #100	@ 0x64
 8000862:	f004 ff0b 	bl	800567c <memset>
 8000866:	2120      	movs	r1, #32
 8000868:	2601      	movs	r6, #1
 800086a:	2502      	movs	r5, #2
 800086c:	4bc0      	ldr	r3, [pc, #768]	@ (8000b70 <main+0x328>)
 800086e:	20a0      	movs	r0, #160	@ 0xa0
 8000870:	6b5a      	ldr	r2, [r3, #52]	@ 0x34
 8000872:	05c0      	lsls	r0, r0, #23
 8000874:	433a      	orrs	r2, r7
 8000876:	635a      	str	r2, [r3, #52]	@ 0x34
 8000878:	6b5a      	ldr	r2, [r3, #52]	@ 0x34
 800087a:	2400      	movs	r4, #0
 800087c:	403a      	ands	r2, r7
 800087e:	9207      	str	r2, [sp, #28]
 8000880:	9a07      	ldr	r2, [sp, #28]
 8000882:	6b5a      	ldr	r2, [r3, #52]	@ 0x34
 8000884:	430a      	orrs	r2, r1
 8000886:	635a      	str	r2, [r3, #52]	@ 0x34
 8000888:	6b5a      	ldr	r2, [r3, #52]	@ 0x34
 800088a:	400a      	ands	r2, r1
 800088c:	9208      	str	r2, [sp, #32]
 800088e:	9a08      	ldr	r2, [sp, #32]
 8000890:	6b5a      	ldr	r2, [r3, #52]	@ 0x34
 8000892:	1949      	adds	r1, r1, r5
 8000894:	4332      	orrs	r2, r6
 8000896:	635a      	str	r2, [r3, #52]	@ 0x34
 8000898:	6b5a      	ldr	r2, [r3, #52]	@ 0x34
 800089a:	4032      	ands	r2, r6
 800089c:	9209      	str	r2, [sp, #36]	@ 0x24
 800089e:	9a09      	ldr	r2, [sp, #36]	@ 0x24
 80008a0:	6b5a      	ldr	r2, [r3, #52]	@ 0x34
 80008a2:	432a      	orrs	r2, r5
 80008a4:	635a      	str	r2, [r3, #52]	@ 0x34
 80008a6:	6b5b      	ldr	r3, [r3, #52]	@ 0x34
 80008a8:	2200      	movs	r2, #0
 80008aa:	402b      	ands	r3, r5
 80008ac:	930a      	str	r3, [sp, #40]	@ 0x28
 80008ae:	9b0a      	ldr	r3, [sp, #40]	@ 0x28
 80008b0:	f001 f972 	bl	8001b98 <HAL_GPIO_WritePin>
 80008b4:	2200      	movs	r2, #0
 80008b6:	2103      	movs	r1, #3
 80008b8:	48ae      	ldr	r0, [pc, #696]	@ (8000b74 <main+0x32c>)
 80008ba:	f001 f96d 	bl	8001b98 <HAL_GPIO_WritePin>
 80008be:	2380      	movs	r3, #128	@ 0x80
 80008c0:	019b      	lsls	r3, r3, #6
 80008c2:	9319      	str	r3, [sp, #100]	@ 0x64
 80008c4:	4bac      	ldr	r3, [pc, #688]	@ (8000b78 <main+0x330>)
 80008c6:	48ad      	ldr	r0, [pc, #692]	@ (8000b7c <main+0x334>)
 80008c8:	a919      	add	r1, sp, #100	@ 0x64
 80008ca:	931a      	str	r3, [sp, #104]	@ 0x68
 80008cc:	941b      	str	r4, [sp, #108]	@ 0x6c
 80008ce:	f001 f8a3 	bl	8001a18 <HAL_GPIO_Init>
 80008d2:	20a0      	movs	r0, #160	@ 0xa0
 80008d4:	4baa      	ldr	r3, [pc, #680]	@ (8000b80 <main+0x338>)
 80008d6:	a919      	add	r1, sp, #100	@ 0x64
 80008d8:	05c0      	lsls	r0, r0, #23
 80008da:	931a      	str	r3, [sp, #104]	@ 0x68
 80008dc:	9619      	str	r6, [sp, #100]	@ 0x64
 80008de:	941b      	str	r4, [sp, #108]	@ 0x6c
 80008e0:	f001 f89a 	bl	8001a18 <HAL_GPIO_Init>
 80008e4:	20a0      	movs	r0, #160	@ 0xa0
 80008e6:	2322      	movs	r3, #34	@ 0x22
 80008e8:	a919      	add	r1, sp, #100	@ 0x64
 80008ea:	05c0      	lsls	r0, r0, #23
 80008ec:	9319      	str	r3, [sp, #100]	@ 0x64
 80008ee:	961a      	str	r6, [sp, #104]	@ 0x68
 80008f0:	941b      	str	r4, [sp, #108]	@ 0x6c
 80008f2:	941c      	str	r4, [sp, #112]	@ 0x70
 80008f4:	f001 f890 	bl	8001a18 <HAL_GPIO_Init>
 80008f8:	2303      	movs	r3, #3
 80008fa:	489e      	ldr	r0, [pc, #632]	@ (8000b74 <main+0x32c>)
 80008fc:	a919      	add	r1, sp, #100	@ 0x64
 80008fe:	9319      	str	r3, [sp, #100]	@ 0x64
 8000900:	961a      	str	r6, [sp, #104]	@ 0x68
 8000902:	941b      	str	r4, [sp, #108]	@ 0x6c
 8000904:	951c      	str	r5, [sp, #112]	@ 0x70
 8000906:	f001 f887 	bl	8001a18 <HAL_GPIO_Init>
 800090a:	2005      	movs	r0, #5
 800090c:	0022      	movs	r2, r4
 800090e:	0021      	movs	r1, r4
 8000910:	f001 f83e 	bl	8001990 <HAL_NVIC_SetPriority>
 8000914:	489b      	ldr	r0, [pc, #620]	@ (8000b84 <main+0x33c>)
 8000916:	4b9c      	ldr	r3, [pc, #624]	@ (8000b88 <main+0x340>)
 8000918:	6084      	str	r4, [r0, #8]
 800091a:	6003      	str	r3, [r0, #0]
 800091c:	23e1      	movs	r3, #225	@ 0xe1
 800091e:	025b      	lsls	r3, r3, #9
 8000920:	6043      	str	r3, [r0, #4]
 8000922:	230c      	movs	r3, #12
 8000924:	60c4      	str	r4, [r0, #12]
 8000926:	6104      	str	r4, [r0, #16]
 8000928:	6143      	str	r3, [r0, #20]
 800092a:	6184      	str	r4, [r0, #24]
 800092c:	61c4      	str	r4, [r0, #28]
 800092e:	6204      	str	r4, [r0, #32]
 8000930:	6244      	str	r4, [r0, #36]	@ 0x24
 8000932:	6284      	str	r4, [r0, #40]	@ 0x28
 8000934:	f003 fa2e 	bl	8003d94 <HAL_UART_Init>
 8000938:	42a0      	cmp	r0, r4
 800093a:	d001      	beq.n	8000940 <main+0xf8>
 800093c:	f7ff ff4e 	bl	80007dc <Error_Handler>
 8000940:	4c92      	ldr	r4, [pc, #584]	@ (8000b8c <main+0x344>)
 8000942:	4b93      	ldr	r3, [pc, #588]	@ (8000b90 <main+0x348>)
 8000944:	60a0      	str	r0, [r4, #8]
 8000946:	6023      	str	r3, [r4, #0]
 8000948:	4b92      	ldr	r3, [pc, #584]	@ (8000b94 <main+0x34c>)
 800094a:	6120      	str	r0, [r4, #16]
 800094c:	6160      	str	r0, [r4, #20]
 800094e:	61a0      	str	r0, [r4, #24]
 8000950:	61e0      	str	r0, [r4, #28]
 8000952:	6220      	str	r0, [r4, #32]
 8000954:	0020      	movs	r0, r4
 8000956:	6063      	str	r3, [r4, #4]
 8000958:	60e6      	str	r6, [r4, #12]
 800095a:	f001 fa55 	bl	8001e08 <HAL_I2C_Init>
 800095e:	1e01      	subs	r1, r0, #0
 8000960:	d1ec      	bne.n	800093c <main+0xf4>
 8000962:	0020      	movs	r0, r4
 8000964:	f001 fb88 	bl	8002078 <HAL_I2CEx_ConfigAnalogFilter>
 8000968:	1e01      	subs	r1, r0, #0
 800096a:	d1e7      	bne.n	800093c <main+0xf4>
 800096c:	0020      	movs	r0, r4
 800096e:	f001 fba9 	bl	80020c4 <HAL_I2CEx_ConfigDigitalFilter>
 8000972:	1e05      	subs	r5, r0, #0
 8000974:	d1e2      	bne.n	800093c <main+0xf4>
 8000976:	0001      	movs	r1, r0
 8000978:	220c      	movs	r2, #12
 800097a:	a80e      	add	r0, sp, #56	@ 0x38
 800097c:	f004 fe7e 	bl	800567c <memset>
 8000980:	4c85      	ldr	r4, [pc, #532]	@ (8000b98 <main+0x350>)
 8000982:	4b86      	ldr	r3, [pc, #536]	@ (8000b9c <main+0x354>)
 8000984:	0020      	movs	r0, r4
 8000986:	6023      	str	r3, [r4, #0]
 8000988:	2380      	movs	r3, #128	@ 0x80
 800098a:	05db      	lsls	r3, r3, #23
 800098c:	6063      	str	r3, [r4, #4]
 800098e:	2380      	movs	r3, #128	@ 0x80
 8000990:	061b      	lsls	r3, r3, #24
 8000992:	6123      	str	r3, [r4, #16]
 8000994:	1c63      	adds	r3, r4, #1
 8000996:	77dd      	strb	r5, [r3, #31]
 8000998:	0023      	movs	r3, r4
 800099a:	332c      	adds	r3, #44	@ 0x2c
 800099c:	701d      	strb	r5, [r3, #0]
 800099e:	0023      	movs	r3, r4
 80009a0:	333c      	adds	r3, #60	@ 0x3c
 80009a2:	60a5      	str	r5, [r4, #8]
 80009a4:	60e5      	str	r5, [r4, #12]
 80009a6:	6167      	str	r7, [r4, #20]
 80009a8:	8325      	strh	r5, [r4, #24]
 80009aa:	76a5      	strb	r5, [r4, #26]
 80009ac:	61e6      	str	r6, [r4, #28]
 80009ae:	6265      	str	r5, [r4, #36]	@ 0x24
 80009b0:	62a5      	str	r5, [r4, #40]	@ 0x28
 80009b2:	6325      	str	r5, [r4, #48]	@ 0x30
 80009b4:	6365      	str	r5, [r4, #52]	@ 0x34
 80009b6:	701d      	strb	r5, [r3, #0]
 80009b8:	64e5      	str	r5, [r4, #76]	@ 0x4c
 80009ba:	f000 fdb5 	bl	8001528 <HAL_ADC_Init>
 80009be:	2800      	cmp	r0, #0
 80009c0:	d1bc      	bne.n	800093c <main+0xf4>
 80009c2:	4b77      	ldr	r3, [pc, #476]	@ (8000ba0 <main+0x358>)
 80009c4:	0020      	movs	r0, r4
 80009c6:	a90e      	add	r1, sp, #56	@ 0x38
 80009c8:	930e      	str	r3, [sp, #56]	@ 0x38
 80009ca:	960f      	str	r6, [sp, #60]	@ 0x3c
 80009cc:	f000 febc 	bl	8001748 <HAL_ADC_ConfigChannel>
 80009d0:	1e03      	subs	r3, r0, #0
 80009d2:	d1b3      	bne.n	800093c <main+0xf4>
 80009d4:	4873      	ldr	r0, [pc, #460]	@ (8000ba4 <main+0x35c>)
 80009d6:	4a74      	ldr	r2, [pc, #464]	@ (8000ba8 <main+0x360>)
 80009d8:	2610      	movs	r6, #16
 80009da:	6002      	str	r2, [r0, #0]
 80009dc:	2282      	movs	r2, #130	@ 0x82
 80009de:	0052      	lsls	r2, r2, #1
 80009e0:	6042      	str	r2, [r0, #4]
 80009e2:	22e0      	movs	r2, #224	@ 0xe0
 80009e4:	00d2      	lsls	r2, r2, #3
 80009e6:	60c2      	str	r2, [r0, #12]
 80009e8:	2280      	movs	r2, #128	@ 0x80
 80009ea:	0092      	lsls	r2, r2, #2
 80009ec:	6182      	str	r2, [r0, #24]
 80009ee:	3afa      	subs	r2, #250	@ 0xfa
 80009f0:	6083      	str	r3, [r0, #8]
 80009f2:	6103      	str	r3, [r0, #16]
 80009f4:	6143      	str	r3, [r0, #20]
 80009f6:	6203      	str	r3, [r0, #32]
 80009f8:	6243      	str	r3, [r0, #36]	@ 0x24
 80009fa:	6283      	str	r3, [r0, #40]	@ 0x28
 80009fc:	3aff      	subs	r2, #255	@ 0xff
 80009fe:	6303      	str	r3, [r0, #48]	@ 0x30
 8000a00:	3308      	adds	r3, #8
 8000a02:	6343      	str	r3, [r0, #52]	@ 0x34
 8000a04:	61c6      	str	r6, [r0, #28]
 8000a06:	62c2      	str	r2, [r0, #44]	@ 0x2c
 8000a08:	f001 ff60 	bl	80028cc <HAL_SPI_Init>
 8000a0c:	1e03      	subs	r3, r0, #0
 8000a0e:	d195      	bne.n	800093c <main+0xf4>
 8000a10:	4866      	ldr	r0, [pc, #408]	@ (8000bac <main+0x364>)
 8000a12:	4a67      	ldr	r2, [pc, #412]	@ (8000bb0 <main+0x368>)
 8000a14:	4c67      	ldr	r4, [pc, #412]	@ (8000bb4 <main+0x36c>)
 8000a16:	6002      	str	r2, [r0, #0]
 8000a18:	4a67      	ldr	r2, [pc, #412]	@ (8000bb8 <main+0x370>)
 8000a1a:	6083      	str	r3, [r0, #8]
 8000a1c:	6042      	str	r2, [r0, #4]
 8000a1e:	60c4      	str	r4, [r0, #12]
 8000a20:	6103      	str	r3, [r0, #16]
 8000a22:	6143      	str	r3, [r0, #20]
 8000a24:	6183      	str	r3, [r0, #24]
 8000a26:	f002 fbd5 	bl	80031d4 <HAL_TIM_Base_Init>
 8000a2a:	1e05      	subs	r5, r0, #0
 8000a2c:	d186      	bne.n	800093c <main+0xf4>
 8000a2e:	0032      	movs	r2, r6
 8000a30:	0001      	movs	r1, r0
 8000a32:	a811      	add	r0, sp, #68	@ 0x44
 8000a34:	f004 fe22 	bl	800567c <memset>
 8000a38:	2214      	movs	r2, #20
 8000a3a:	0029      	movs	r1, r5
 8000a3c:	a819      	add	r0, sp, #100	@ 0x64
 8000a3e:	f004 fe1d 	bl	800567c <memset>
 8000a42:	220c      	movs	r2, #12
 8000a44:	0029      	movs	r1, r5
 8000a46:	a80b      	add	r0, sp, #44	@ 0x2c
 8000a48:	f004 fe18 	bl	800567c <memset>
 8000a4c:	0032      	movs	r2, r6
 8000a4e:	0029      	movs	r1, r5
 8000a50:	a815      	add	r0, sp, #84	@ 0x54
 8000a52:	f004 fe13 	bl	800567c <memset>
 8000a56:	4e59      	ldr	r6, [pc, #356]	@ (8000bbc <main+0x374>)
 8000a58:	4b59      	ldr	r3, [pc, #356]	@ (8000bc0 <main+0x378>)
 8000a5a:	0030      	movs	r0, r6
 8000a5c:	6033      	str	r3, [r6, #0]
 8000a5e:	232f      	movs	r3, #47	@ 0x2f
 8000a60:	60b5      	str	r5, [r6, #8]
 8000a62:	6073      	str	r3, [r6, #4]
 8000a64:	60f4      	str	r4, [r6, #12]
 8000a66:	6135      	str	r5, [r6, #16]
 8000a68:	61b5      	str	r5, [r6, #24]
 8000a6a:	f002 fbb3 	bl	80031d4 <HAL_TIM_Base_Init>
 8000a6e:	2800      	cmp	r0, #0
 8000a70:	d000      	beq.n	8000a74 <main+0x22c>
 8000a72:	e763      	b.n	800093c <main+0xf4>
 8000a74:	2380      	movs	r3, #128	@ 0x80
 8000a76:	0030      	movs	r0, r6
 8000a78:	015b      	lsls	r3, r3, #5
 8000a7a:	a911      	add	r1, sp, #68	@ 0x44
 8000a7c:	9311      	str	r3, [sp, #68]	@ 0x44
 8000a7e:	f002 fcd7 	bl	8003430 <HAL_TIM_ConfigClockSource>
 8000a82:	2800      	cmp	r0, #0
 8000a84:	d000      	beq.n	8000a88 <main+0x240>
 8000a86:	e759      	b.n	800093c <main+0xf4>
 8000a88:	0030      	movs	r0, r6
 8000a8a:	f002 fbcd 	bl	8003228 <HAL_TIM_IC_Init>
 8000a8e:	2800      	cmp	r0, #0
 8000a90:	d000      	beq.n	8000a94 <main+0x24c>
 8000a92:	e753      	b.n	800093c <main+0xf4>
 8000a94:	2304      	movs	r3, #4
 8000a96:	350a      	adds	r5, #10
 8000a98:	9319      	str	r3, [sp, #100]	@ 0x64
 8000a9a:	901d      	str	r0, [sp, #116]	@ 0x74
 8000a9c:	334c      	adds	r3, #76	@ 0x4c
 8000a9e:	0030      	movs	r0, r6
 8000aa0:	a919      	add	r1, sp, #100	@ 0x64
 8000aa2:	931a      	str	r3, [sp, #104]	@ 0x68
 8000aa4:	951b      	str	r5, [sp, #108]	@ 0x6c
 8000aa6:	f002 fdc5 	bl	8003634 <HAL_TIM_SlaveConfigSynchro>
 8000aaa:	2800      	cmp	r0, #0
 8000aac:	d000      	beq.n	8000ab0 <main+0x268>
 8000aae:	e745      	b.n	800093c <main+0xf4>
 8000ab0:	900b      	str	r0, [sp, #44]	@ 0x2c
 8000ab2:	900d      	str	r0, [sp, #52]	@ 0x34
 8000ab4:	a90b      	add	r1, sp, #44	@ 0x2c
 8000ab6:	0030      	movs	r0, r6
 8000ab8:	f002 fec4 	bl	8003844 <HAL_TIMEx_MasterConfigSynchronization>
 8000abc:	1e02      	subs	r2, r0, #0
 8000abe:	d000      	beq.n	8000ac2 <main+0x27a>
 8000ac0:	e73c      	b.n	800093c <main+0xf4>
 8000ac2:	2701      	movs	r7, #1
 8000ac4:	9017      	str	r0, [sp, #92]	@ 0x5c
 8000ac6:	9018      	str	r0, [sp, #96]	@ 0x60
 8000ac8:	a915      	add	r1, sp, #84	@ 0x54
 8000aca:	0030      	movs	r0, r6
 8000acc:	9515      	str	r5, [sp, #84]	@ 0x54
 8000ace:	9716      	str	r7, [sp, #88]	@ 0x58
 8000ad0:	f002 fbf8 	bl	80032c4 <HAL_TIM_IC_ConfigChannel>
 8000ad4:	1e03      	subs	r3, r0, #0
 8000ad6:	d000      	beq.n	8000ada <main+0x292>
 8000ad8:	e730      	b.n	800093c <main+0xf4>
 8000ada:	483a      	ldr	r0, [pc, #232]	@ (8000bc4 <main+0x37c>)
 8000adc:	4a3a      	ldr	r2, [pc, #232]	@ (8000bc8 <main+0x380>)
 8000ade:	60c4      	str	r4, [r0, #12]
 8000ae0:	6002      	str	r2, [r0, #0]
 8000ae2:	6043      	str	r3, [r0, #4]
 8000ae4:	6083      	str	r3, [r0, #8]
 8000ae6:	6103      	str	r3, [r0, #16]
 8000ae8:	6183      	str	r3, [r0, #24]
 8000aea:	f002 fb73 	bl	80031d4 <HAL_TIM_Base_Init>
 8000aee:	1e04      	subs	r4, r0, #0
 8000af0:	d000      	beq.n	8000af4 <main+0x2ac>
 8000af2:	e723      	b.n	800093c <main+0xf4>
 8000af4:	f003 ff16 	bl	8004924 <QF_init>
 8000af8:	f7ff fda4 	bl	8000644 <BSP_init>
 8000afc:	220c      	movs	r2, #12
 8000afe:	2118      	movs	r1, #24
 8000b00:	4832      	ldr	r0, [pc, #200]	@ (8000bcc <main+0x384>)
 8000b02:	f003 fc4b 	bl	800439c <QF_poolInit>
 8000b06:	2210      	movs	r2, #16
 8000b08:	2180      	movs	r1, #128	@ 0x80
 8000b0a:	4831      	ldr	r0, [pc, #196]	@ (8000bd0 <main+0x388>)
 8000b0c:	f003 fc46 	bl	800439c <QF_poolInit>
 8000b10:	4b30      	ldr	r3, [pc, #192]	@ (8000bd4 <main+0x38c>)
 8000b12:	0018      	movs	r0, r3
 8000b14:	9304      	str	r3, [sp, #16]
 8000b16:	f000 f941 	bl	8000d9c <Main_App_ctor>
 8000b1a:	4e2f      	ldr	r6, [pc, #188]	@ (8000bd8 <main+0x390>)
 8000b1c:	0030      	movs	r0, r6
 8000b1e:	f000 f957 	bl	8000dd0 <Sensor_ctor>
 8000b22:	4b2e      	ldr	r3, [pc, #184]	@ (8000bdc <main+0x394>)
 8000b24:	0018      	movs	r0, r3
 8000b26:	9305      	str	r3, [sp, #20]
 8000b28:	f000 f962 	bl	8000df0 <RFButton_ctor>
 8000b2c:	0039      	movs	r1, r7
 8000b2e:	9804      	ldr	r0, [sp, #16]
 8000b30:	230f      	movs	r3, #15
 8000b32:	4a2b      	ldr	r2, [pc, #172]	@ (8000be0 <main+0x398>)
 8000b34:	9402      	str	r4, [sp, #8]
 8000b36:	9401      	str	r4, [sp, #4]
 8000b38:	9400      	str	r4, [sp, #0]
 8000b3a:	f003 ff15 	bl	8004968 <QActive_start>
 8000b3e:	002b      	movs	r3, r5
 8000b40:	0030      	movs	r0, r6
 8000b42:	2103      	movs	r1, #3
 8000b44:	4a27      	ldr	r2, [pc, #156]	@ (8000be4 <main+0x39c>)
 8000b46:	9402      	str	r4, [sp, #8]
 8000b48:	9401      	str	r4, [sp, #4]
 8000b4a:	9400      	str	r4, [sp, #0]
 8000b4c:	f003 ff0c 	bl	8004968 <QActive_start>
 8000b50:	2305      	movs	r3, #5
 8000b52:	2102      	movs	r1, #2
 8000b54:	4a24      	ldr	r2, [pc, #144]	@ (8000be8 <main+0x3a0>)
 8000b56:	9805      	ldr	r0, [sp, #20]
 8000b58:	9402      	str	r4, [sp, #8]
 8000b5a:	9401      	str	r4, [sp, #4]
 8000b5c:	9400      	str	r4, [sp, #0]
 8000b5e:	f003 ff03 	bl	8004968 <QActive_start>
 8000b62:	f003 feeb 	bl	800493c <QF_run>
 8000b66:	b01f      	add	sp, #124	@ 0x7c
 8000b68:	bdf0      	pop	{r4, r5, r6, r7, pc}
 8000b6a:	46c0      	nop			@ (mov r8, r8)
 8000b6c:	0800654d 	.word	0x0800654d
 8000b70:	40021000 	.word	0x40021000
 8000b74:	50000400 	.word	0x50000400
 8000b78:	10110000 	.word	0x10110000
 8000b7c:	50000800 	.word	0x50000800
 8000b80:	10210000 	.word	0x10210000
 8000b84:	200001a8 	.word	0x200001a8
 8000b88:	40004400 	.word	0x40004400
 8000b8c:	20000384 	.word	0x20000384
 8000b90:	40005400 	.word	0x40005400
 8000b94:	0090194b 	.word	0x0090194b
 8000b98:	200003d8 	.word	0x200003d8
 8000b9c:	40012400 	.word	0x40012400
 8000ba0:	10000010 	.word	0x10000010
 8000ba4:	20000320 	.word	0x20000320
 8000ba8:	40013000 	.word	0x40013000
 8000bac:	2000023c 	.word	0x2000023c
 8000bb0:	40014800 	.word	0x40014800
 8000bb4:	0000ffff 	.word	0x0000ffff
 8000bb8:	0000bb7f 	.word	0x0000bb7f
 8000bbc:	200002d4 	.word	0x200002d4
 8000bc0:	40000400 	.word	0x40000400
 8000bc4:	20000288 	.word	0x20000288
 8000bc8:	40002000 	.word	0x40002000
 8000bcc:	20000118 	.word	0x20000118
 8000bd0:	20000098 	.word	0x20000098
 8000bd4:	2000043c 	.word	0x2000043c
 8000bd8:	200004c4 	.word	0x200004c4
 8000bdc:	200004a0 	.word	0x200004a0
 8000be0:	2000016c 	.word	0x2000016c
 8000be4:	20000144 	.word	0x20000144
 8000be8:	20000130 	.word	0x20000130

08000bec <MainApp_initial>:
 8000bec:	4b01      	ldr	r3, [pc, #4]	@ (8000bf4 <MainApp_initial+0x8>)
 8000bee:	6083      	str	r3, [r0, #8]
 8000bf0:	2003      	movs	r0, #3
 8000bf2:	4770      	bx	lr
 8000bf4:	08000cbd 	.word	0x08000cbd

08000bf8 <MainApp_display_stats>:
 8000bf8:	880b      	ldrh	r3, [r1, #0]
 8000bfa:	b510      	push	{r4, lr}
 8000bfc:	2b01      	cmp	r3, #1
 8000bfe:	d005      	beq.n	8000c0c <MainApp_display_stats+0x14>
 8000c00:	2b02      	cmp	r3, #2
 8000c02:	d009      	beq.n	8000c18 <MainApp_display_stats+0x20>
 8000c04:	4b06      	ldr	r3, [pc, #24]	@ (8000c20 <MainApp_display_stats+0x28>)
 8000c06:	6083      	str	r3, [r0, #8]
 8000c08:	2000      	movs	r0, #0
 8000c0a:	e004      	b.n	8000c16 <MainApp_display_stats+0x1e>
 8000c0c:	3040      	adds	r0, #64	@ 0x40
 8000c0e:	7800      	ldrb	r0, [r0, #0]
 8000c10:	f7ff fd96 	bl	8000740 <display_temp>
 8000c14:	2002      	movs	r0, #2
 8000c16:	bd10      	pop	{r4, pc}
 8000c18:	3024      	adds	r0, #36	@ 0x24
 8000c1a:	f003 fd81 	bl	8004720 <QTimeEvt_disarm>
 8000c1e:	e7f9      	b.n	8000c14 <MainApp_display_stats+0x1c>
 8000c20:	08000cbd 	.word	0x08000cbd

08000c24 <MainApp_pump>:
 8000c24:	b570      	push	{r4, r5, r6, lr}
 8000c26:	880d      	ldrh	r5, [r1, #0]
 8000c28:	0004      	movs	r4, r0
 8000c2a:	2d02      	cmp	r5, #2
 8000c2c:	d012      	beq.n	8000c54 <MainApp_pump+0x30>
 8000c2e:	2d08      	cmp	r5, #8
 8000c30:	d015      	beq.n	8000c5e <MainApp_pump+0x3a>
 8000c32:	2d01      	cmp	r5, #1
 8000c34:	d11a      	bne.n	8000c6c <MainApp_pump+0x48>
 8000c36:	480f      	ldr	r0, [pc, #60]	@ (8000c74 <MainApp_pump+0x50>)
 8000c38:	f004 fbf6 	bl	8005428 <puts>
 8000c3c:	0020      	movs	r0, r4
 8000c3e:	3048      	adds	r0, #72	@ 0x48
 8000c40:	f003 fd6e 	bl	8004720 <QTimeEvt_disarm>
 8000c44:	002a      	movs	r2, r5
 8000c46:	20a0      	movs	r0, #160	@ 0xa0
 8000c48:	2120      	movs	r1, #32
 8000c4a:	05c0      	lsls	r0, r0, #23
 8000c4c:	f000 ffa4 	bl	8001b98 <HAL_GPIO_WritePin>
 8000c50:	2002      	movs	r0, #2
 8000c52:	bd70      	pop	{r4, r5, r6, pc}
 8000c54:	4808      	ldr	r0, [pc, #32]	@ (8000c78 <MainApp_pump+0x54>)
 8000c56:	f004 fbe7 	bl	8005428 <puts>
 8000c5a:	2200      	movs	r2, #0
 8000c5c:	e7f3      	b.n	8000c46 <MainApp_pump+0x22>
 8000c5e:	4807      	ldr	r0, [pc, #28]	@ (8000c7c <MainApp_pump+0x58>)
 8000c60:	f004 fbe2 	bl	8005428 <puts>
 8000c64:	4b06      	ldr	r3, [pc, #24]	@ (8000c80 <MainApp_pump+0x5c>)
 8000c66:	2003      	movs	r0, #3
 8000c68:	60a3      	str	r3, [r4, #8]
 8000c6a:	e7f2      	b.n	8000c52 <MainApp_pump+0x2e>
 8000c6c:	4b05      	ldr	r3, [pc, #20]	@ (8000c84 <MainApp_pump+0x60>)
 8000c6e:	6083      	str	r3, [r0, #8]
 8000c70:	2000      	movs	r0, #0
 8000c72:	e7ee      	b.n	8000c52 <MainApp_pump+0x2e>
 8000c74:	08006553 	.word	0x08006553
 8000c78:	0800655e 	.word	0x0800655e
 8000c7c:	08006568 	.word	0x08006568
 8000c80:	08000bf9 	.word	0x08000bf9
 8000c84:	08003f1d 	.word	0x08003f1d

08000c88 <MainApp_calc_dryness_percent>:
 8000c88:	4a09      	ldr	r2, [pc, #36]	@ (8000cb0 <MainApp_calc_dryness_percent+0x28>)
 8000c8a:	0003      	movs	r3, r0
 8000c8c:	b510      	push	{r4, lr}
 8000c8e:	2064      	movs	r0, #100	@ 0x64
 8000c90:	4293      	cmp	r3, r2
 8000c92:	d80c      	bhi.n	8000cae <MainApp_calc_dryness_percent+0x26>
 8000c94:	22fa      	movs	r2, #250	@ 0xfa
 8000c96:	2000      	movs	r0, #0
 8000c98:	0092      	lsls	r2, r2, #2
 8000c9a:	4293      	cmp	r3, r2
 8000c9c:	d907      	bls.n	8000cae <MainApp_calc_dryness_percent+0x26>
 8000c9e:	3064      	adds	r0, #100	@ 0x64
 8000ca0:	4358      	muls	r0, r3
 8000ca2:	4b04      	ldr	r3, [pc, #16]	@ (8000cb4 <MainApp_calc_dryness_percent+0x2c>)
 8000ca4:	4904      	ldr	r1, [pc, #16]	@ (8000cb8 <MainApp_calc_dryness_percent+0x30>)
 8000ca6:	18c0      	adds	r0, r0, r3
 8000ca8:	f7ff fa42 	bl	8000130 <__udivsi3>
 8000cac:	b2c0      	uxtb	r0, r0
 8000cae:	bd10      	pop	{r4, pc}
 8000cb0:	000009c3 	.word	0x000009c3
 8000cb4:	fffe7960 	.word	0xfffe7960
 8000cb8:	000005dc 	.word	0x000005dc

08000cbc <MainApp_display>:
 8000cbc:	b570      	push	{r4, r5, r6, lr}
 8000cbe:	0004      	movs	r4, r0
 8000cc0:	8808      	ldrh	r0, [r1, #0]
 8000cc2:	3801      	subs	r0, #1
 8000cc4:	2809      	cmp	r0, #9
 8000cc6:	d858      	bhi.n	8000d7a <MainApp_display+0xbe>
 8000cc8:	f7ff fa1e 	bl	8000108 <__gnu_thumb1_case_uqi>
 8000ccc:	37145705 	.word	0x37145705
 8000cd0:	4341572e 	.word	0x4341572e
 8000cd4:	1857      	.short	0x1857
 8000cd6:	22c8      	movs	r2, #200	@ 0xc8
 8000cd8:	0020      	movs	r0, r4
 8000cda:	0092      	lsls	r2, r2, #2
 8000cdc:	0011      	movs	r1, r2
 8000cde:	3024      	adds	r0, #36	@ 0x24
 8000ce0:	f003 fce8 	bl	80046b4 <QTimeEvt_armX>
 8000ce4:	20a0      	movs	r0, #160	@ 0xa0
 8000ce6:	2200      	movs	r2, #0
 8000ce8:	2120      	movs	r1, #32
 8000cea:	05c0      	lsls	r0, r0, #23
 8000cec:	f000 ff54 	bl	8001b98 <HAL_GPIO_WritePin>
 8000cf0:	2002      	movs	r0, #2
 8000cf2:	bd70      	pop	{r4, r5, r6, pc}
 8000cf4:	4b23      	ldr	r3, [pc, #140]	@ (8000d84 <MainApp_display+0xc8>)
 8000cf6:	2003      	movs	r0, #3
 8000cf8:	60a3      	str	r3, [r4, #8]
 8000cfa:	e7fa      	b.n	8000cf2 <MainApp_display+0x36>
 8000cfc:	0022      	movs	r2, r4
 8000cfe:	894b      	ldrh	r3, [r1, #10]
 8000d00:	3240      	adds	r2, #64	@ 0x40
 8000d02:	7013      	strb	r3, [r2, #0]
 8000d04:	1d25      	adds	r5, r4, #4
 8000d06:	3444      	adds	r4, #68	@ 0x44
 8000d08:	7822      	ldrb	r2, [r4, #0]
 8000d0a:	8908      	ldrh	r0, [r1, #8]
 8000d0c:	2a00      	cmp	r2, #0
 8000d0e:	d007      	beq.n	8000d20 <MainApp_display+0x64>
 8000d10:	2a01      	cmp	r2, #1
 8000d12:	d1ed      	bne.n	8000cf0 <MainApp_display+0x34>
 8000d14:	f7ff ffb8 	bl	8000c88 <MainApp_calc_dryness_percent>
 8000d18:	87e8      	strh	r0, [r5, #62]	@ 0x3e
 8000d1a:	f7ff fd3f 	bl	800079c <display_dry>
 8000d1e:	e7e7      	b.n	8000cf0 <MainApp_display+0x34>
 8000d20:	b2d8      	uxtb	r0, r3
 8000d22:	f7ff fd0d 	bl	8000740 <display_temp>
 8000d26:	e7e3      	b.n	8000cf0 <MainApp_display+0x34>
 8000d28:	2300      	movs	r3, #0
 8000d2a:	4917      	ldr	r1, [pc, #92]	@ (8000d88 <MainApp_display+0xcc>)
 8000d2c:	4a17      	ldr	r2, [pc, #92]	@ (8000d8c <MainApp_display+0xd0>)
 8000d2e:	4818      	ldr	r0, [pc, #96]	@ (8000d90 <MainApp_display+0xd4>)
 8000d30:	f003 faaa 	bl	8004288 <QActive_post_>
 8000d34:	f7ff fbe6 	bl	8000504 <verify_rx_mode>
 8000d38:	e7da      	b.n	8000cf0 <MainApp_display+0x34>
 8000d3a:	3448      	adds	r4, #72	@ 0x48
 8000d3c:	0020      	movs	r0, r4
 8000d3e:	f003 fcef 	bl	8004720 <QTimeEvt_disarm>
 8000d42:	2200      	movs	r2, #0
 8000d44:	2164      	movs	r1, #100	@ 0x64
 8000d46:	0020      	movs	r0, r4
 8000d48:	f003 fcb4 	bl	80046b4 <QTimeEvt_armX>
 8000d4c:	e7d0      	b.n	8000cf0 <MainApp_display+0x34>
 8000d4e:	4b11      	ldr	r3, [pc, #68]	@ (8000d94 <MainApp_display+0xd8>)
 8000d50:	e7d1      	b.n	8000cf6 <MainApp_display+0x3a>
 8000d52:	0020      	movs	r0, r4
 8000d54:	3048      	adds	r0, #72	@ 0x48
 8000d56:	f003 fce3 	bl	8004720 <QTimeEvt_disarm>
 8000d5a:	0023      	movs	r3, r4
 8000d5c:	3344      	adds	r3, #68	@ 0x44
 8000d5e:	7819      	ldrb	r1, [r3, #0]
 8000d60:	1d22      	adds	r2, r4, #4
 8000d62:	2900      	cmp	r1, #0
 8000d64:	d104      	bne.n	8000d70 <MainApp_display+0xb4>
 8000d66:	3101      	adds	r1, #1
 8000d68:	7019      	strb	r1, [r3, #0]
 8000d6a:	8fd0      	ldrh	r0, [r2, #62]	@ 0x3e
 8000d6c:	b2c0      	uxtb	r0, r0
 8000d6e:	e7d4      	b.n	8000d1a <MainApp_display+0x5e>
 8000d70:	2200      	movs	r2, #0
 8000d72:	3440      	adds	r4, #64	@ 0x40
 8000d74:	701a      	strb	r2, [r3, #0]
 8000d76:	7820      	ldrb	r0, [r4, #0]
 8000d78:	e7d3      	b.n	8000d22 <MainApp_display+0x66>
 8000d7a:	4b07      	ldr	r3, [pc, #28]	@ (8000d98 <MainApp_display+0xdc>)
 8000d7c:	2000      	movs	r0, #0
 8000d7e:	60a3      	str	r3, [r4, #8]
 8000d80:	e7b7      	b.n	8000cf2 <MainApp_display+0x36>
 8000d82:	46c0      	nop			@ (mov r8, r8)
 8000d84:	08000bf9 	.word	0x08000bf9
 8000d88:	08006618 	.word	0x08006618
 8000d8c:	0000ffff 	.word	0x0000ffff
 8000d90:	200004c4 	.word	0x200004c4
 8000d94:	08000c25 	.word	0x08000c25
 8000d98:	08003f1d 	.word	0x08003f1d

08000d9c <Main_App_ctor>:
 8000d9c:	b510      	push	{r4, lr}
 8000d9e:	0004      	movs	r4, r0
 8000da0:	490a      	ldr	r1, [pc, #40]	@ (8000dcc <Main_App_ctor+0x30>)
 8000da2:	f003 fbd1 	bl	8004548 <QActive_ctor>
 8000da6:	0020      	movs	r0, r4
 8000da8:	0021      	movs	r1, r4
 8000daa:	2300      	movs	r3, #0
 8000dac:	2205      	movs	r2, #5
 8000dae:	3024      	adds	r0, #36	@ 0x24
 8000db0:	f003 fc5e 	bl	8004670 <QTimeEvt_ctorX>
 8000db4:	0020      	movs	r0, r4
 8000db6:	0021      	movs	r1, r4
 8000db8:	2300      	movs	r3, #0
 8000dba:	2207      	movs	r2, #7
 8000dbc:	3048      	adds	r0, #72	@ 0x48
 8000dbe:	f003 fc57 	bl	8004670 <QTimeEvt_ctorX>
 8000dc2:	2300      	movs	r3, #0
 8000dc4:	3440      	adds	r4, #64	@ 0x40
 8000dc6:	7023      	strb	r3, [r4, #0]
 8000dc8:	bd10      	pop	{r4, pc}
 8000dca:	46c0      	nop			@ (mov r8, r8)
 8000dcc:	08000bed 	.word	0x08000bed

08000dd0 <Sensor_ctor>:
 8000dd0:	b510      	push	{r4, lr}
 8000dd2:	0004      	movs	r4, r0
 8000dd4:	4904      	ldr	r1, [pc, #16]	@ (8000de8 <Sensor_ctor+0x18>)
 8000dd6:	f003 fbb7 	bl	8004548 <QActive_ctor>
 8000dda:	4b04      	ldr	r3, [pc, #16]	@ (8000dec <Sensor_ctor+0x1c>)
 8000ddc:	6323      	str	r3, [r4, #48]	@ 0x30
 8000dde:	2300      	movs	r3, #0
 8000de0:	3434      	adds	r4, #52	@ 0x34
 8000de2:	7023      	strb	r3, [r4, #0]
 8000de4:	bd10      	pop	{r4, pc}
 8000de6:	46c0      	nop			@ (mov r8, r8)
 8000de8:	08000ff1 	.word	0x08000ff1
 8000dec:	20000084 	.word	0x20000084

08000df0 <RFButton_ctor>:
 8000df0:	b510      	push	{r4, lr}
 8000df2:	4902      	ldr	r1, [pc, #8]	@ (8000dfc <RFButton_ctor+0xc>)
 8000df4:	f003 fba8 	bl	8004548 <QActive_ctor>
 8000df8:	bd10      	pop	{r4, pc}
 8000dfa:	46c0      	nop			@ (mov r8, r8)
 8000dfc:	08000e85 	.word	0x08000e85

08000e00 <RFButton_receive_rf>:
 8000e00:	b500      	push	{lr}
 8000e02:	b089      	sub	sp, #36	@ 0x24
 8000e04:	f004 f829 	bl	8004e5a <nrf24_data_available>
 8000e08:	2800      	cmp	r0, #0
 8000e0a:	d101      	bne.n	8000e10 <RFButton_receive_rf+0x10>
 8000e0c:	b009      	add	sp, #36	@ 0x24
 8000e0e:	bd00      	pop	{pc}
 8000e10:	2120      	movs	r1, #32
 8000e12:	4668      	mov	r0, sp
 8000e14:	f004 f82a 	bl	8004e6c <nrf24_receive>
 8000e18:	466b      	mov	r3, sp
 8000e1a:	781b      	ldrb	r3, [r3, #0]
 8000e1c:	2b31      	cmp	r3, #49	@ 0x31
 8000e1e:	d106      	bne.n	8000e2e <RFButton_receive_rf+0x2e>
 8000e20:	4809      	ldr	r0, [pc, #36]	@ (8000e48 <RFButton_receive_rf+0x48>)
 8000e22:	2300      	movs	r3, #0
 8000e24:	4909      	ldr	r1, [pc, #36]	@ (8000e4c <RFButton_receive_rf+0x4c>)
 8000e26:	4a0a      	ldr	r2, [pc, #40]	@ (8000e50 <RFButton_receive_rf+0x50>)
 8000e28:	6800      	ldr	r0, [r0, #0]
 8000e2a:	f003 fa2d 	bl	8004288 <QActive_post_>
 8000e2e:	466b      	mov	r3, sp
 8000e30:	781b      	ldrb	r3, [r3, #0]
 8000e32:	2b32      	cmp	r3, #50	@ 0x32
 8000e34:	d1e6      	bne.n	8000e04 <RFButton_receive_rf+0x4>
 8000e36:	4804      	ldr	r0, [pc, #16]	@ (8000e48 <RFButton_receive_rf+0x48>)
 8000e38:	2300      	movs	r3, #0
 8000e3a:	4906      	ldr	r1, [pc, #24]	@ (8000e54 <RFButton_receive_rf+0x54>)
 8000e3c:	4a04      	ldr	r2, [pc, #16]	@ (8000e50 <RFButton_receive_rf+0x50>)
 8000e3e:	6800      	ldr	r0, [r0, #0]
 8000e40:	f003 fa22 	bl	8004288 <QActive_post_>
 8000e44:	e7de      	b.n	8000e04 <RFButton_receive_rf+0x4>
 8000e46:	46c0      	nop			@ (mov r8, r8)
 8000e48:	08006624 	.word	0x08006624
 8000e4c:	08006630 	.word	0x08006630
 8000e50:	0000ffff 	.word	0x0000ffff
 8000e54:	08006628 	.word	0x08006628

08000e58 <RFButton_wait>:
 8000e58:	880b      	ldrh	r3, [r1, #0]
 8000e5a:	b510      	push	{r4, lr}
 8000e5c:	2b01      	cmp	r3, #1
 8000e5e:	d005      	beq.n	8000e6c <RFButton_wait+0x14>
 8000e60:	2b0b      	cmp	r3, #11
 8000e62:	d008      	beq.n	8000e76 <RFButton_wait+0x1e>
 8000e64:	4b05      	ldr	r3, [pc, #20]	@ (8000e7c <RFButton_wait+0x24>)
 8000e66:	6083      	str	r3, [r0, #8]
 8000e68:	2000      	movs	r0, #0
 8000e6a:	e003      	b.n	8000e74 <RFButton_wait+0x1c>
 8000e6c:	4804      	ldr	r0, [pc, #16]	@ (8000e80 <RFButton_wait+0x28>)
 8000e6e:	f004 fadb 	bl	8005428 <puts>
 8000e72:	2002      	movs	r0, #2
 8000e74:	bd10      	pop	{r4, pc}
 8000e76:	f7ff ffc3 	bl	8000e00 <RFButton_receive_rf>
 8000e7a:	e7fa      	b.n	8000e72 <RFButton_wait+0x1a>
 8000e7c:	08003f1d 	.word	0x08003f1d
 8000e80:	08006586 	.word	0x08006586

08000e84 <RFButton_initial>:
 8000e84:	4b01      	ldr	r3, [pc, #4]	@ (8000e8c <RFButton_initial+0x8>)
 8000e86:	6083      	str	r3, [r0, #8]
 8000e88:	2003      	movs	r0, #3
 8000e8a:	4770      	bx	lr
 8000e8c:	08000e59 	.word	0x08000e59

08000e90 <Sensor_wait_response>:
 8000e90:	880b      	ldrh	r3, [r1, #0]
 8000e92:	b5f7      	push	{r0, r1, r2, r4, r5, r6, r7, lr}
 8000e94:	0004      	movs	r4, r0
 8000e96:	2b01      	cmp	r3, #1
 8000e98:	d005      	beq.n	8000ea6 <Sensor_wait_response+0x16>
 8000e9a:	2b0c      	cmp	r3, #12
 8000e9c:	d00f      	beq.n	8000ebe <Sensor_wait_response+0x2e>
 8000e9e:	4b30      	ldr	r3, [pc, #192]	@ (8000f60 <Sensor_wait_response+0xd0>)
 8000ea0:	6083      	str	r3, [r0, #8]
 8000ea2:	2000      	movs	r0, #0
 8000ea4:	e00a      	b.n	8000ebc <Sensor_wait_response+0x2c>
 8000ea6:	0003      	movs	r3, r0
 8000ea8:	2100      	movs	r1, #0
 8000eaa:	3329      	adds	r3, #41	@ 0x29
 8000eac:	7019      	strb	r1, [r3, #0]
 8000eae:	2205      	movs	r2, #5
 8000eb0:	8541      	strh	r1, [r0, #42]	@ 0x2a
 8000eb2:	70d9      	strb	r1, [r3, #3]
 8000eb4:	3024      	adds	r0, #36	@ 0x24
 8000eb6:	f004 fbe1 	bl	800567c <memset>
 8000eba:	2002      	movs	r0, #2
 8000ebc:	bdfe      	pop	{r1, r2, r3, r4, r5, r6, r7, pc}
 8000ebe:	688a      	ldr	r2, [r1, #8]
 8000ec0:	0001      	movs	r1, r0
 8000ec2:	312c      	adds	r1, #44	@ 0x2c
 8000ec4:	780b      	ldrb	r3, [r1, #0]
 8000ec6:	3301      	adds	r3, #1
 8000ec8:	b2db      	uxtb	r3, r3
 8000eca:	700b      	strb	r3, [r1, #0]
 8000ecc:	2b02      	cmp	r3, #2
 8000ece:	d9f4      	bls.n	8000eba <Sensor_wait_response+0x2a>
 8000ed0:	2101      	movs	r1, #1
 8000ed2:	302b      	adds	r0, #43	@ 0x2b
 8000ed4:	7803      	ldrb	r3, [r0, #0]
 8000ed6:	404b      	eors	r3, r1
 8000ed8:	7003      	strb	r3, [r0, #0]
 8000eda:	d0ee      	beq.n	8000eba <Sensor_wait_response+0x2a>
 8000edc:	3802      	subs	r0, #2
 8000ede:	7803      	ldrb	r3, [r0, #0]
 8000ee0:	2a28      	cmp	r2, #40	@ 0x28
 8000ee2:	d90a      	bls.n	8000efa <Sensor_wait_response+0x6a>
 8000ee4:	2507      	movs	r5, #7
 8000ee6:	0022      	movs	r2, r4
 8000ee8:	1aed      	subs	r5, r5, r3
 8000eea:	40a9      	lsls	r1, r5
 8000eec:	322a      	adds	r2, #42	@ 0x2a
 8000eee:	7812      	ldrb	r2, [r2, #0]
 8000ef0:	18a2      	adds	r2, r4, r2
 8000ef2:	3205      	adds	r2, #5
 8000ef4:	7fd5      	ldrb	r5, [r2, #31]
 8000ef6:	4329      	orrs	r1, r5
 8000ef8:	77d1      	strb	r1, [r2, #31]
 8000efa:	3301      	adds	r3, #1
 8000efc:	b2db      	uxtb	r3, r3
 8000efe:	2b07      	cmp	r3, #7
 8000f00:	d801      	bhi.n	8000f06 <Sensor_wait_response+0x76>
 8000f02:	7003      	strb	r3, [r0, #0]
 8000f04:	e7d9      	b.n	8000eba <Sensor_wait_response+0x2a>
 8000f06:	2100      	movs	r1, #0
 8000f08:	0022      	movs	r2, r4
 8000f0a:	7001      	strb	r1, [r0, #0]
 8000f0c:	322a      	adds	r2, #42	@ 0x2a
 8000f0e:	7813      	ldrb	r3, [r2, #0]
 8000f10:	3301      	adds	r3, #1
 8000f12:	b2db      	uxtb	r3, r3
 8000f14:	7013      	strb	r3, [r2, #0]
 8000f16:	2b04      	cmp	r3, #4
 8000f18:	d9cf      	bls.n	8000eba <Sensor_wait_response+0x2a>
 8000f1a:	4812      	ldr	r0, [pc, #72]	@ (8000f64 <Sensor_wait_response+0xd4>)
 8000f1c:	f002 fc46 	bl	80037ac <HAL_TIM_IC_Stop_IT>
 8000f20:	0021      	movs	r1, r4
 8000f22:	1d63      	adds	r3, r4, #5
 8000f24:	7fdd      	ldrb	r5, [r3, #31]
 8000f26:	1da3      	adds	r3, r4, #6
 8000f28:	7fda      	ldrb	r2, [r3, #31]
 8000f2a:	1de3      	adds	r3, r4, #7
 8000f2c:	3108      	adds	r1, #8
 8000f2e:	7fdb      	ldrb	r3, [r3, #31]
 8000f30:	7fce      	ldrb	r6, [r1, #31]
 8000f32:	18a8      	adds	r0, r5, r2
 8000f34:	1818      	adds	r0, r3, r0
 8000f36:	1830      	adds	r0, r6, r0
 8000f38:	b2c1      	uxtb	r1, r0
 8000f3a:	0020      	movs	r0, r4
 8000f3c:	3028      	adds	r0, #40	@ 0x28
 8000f3e:	7807      	ldrb	r7, [r0, #0]
 8000f40:	428f      	cmp	r7, r1
 8000f42:	d108      	bne.n	8000f56 <Sensor_wait_response+0xc6>
 8000f44:	0029      	movs	r1, r5
 8000f46:	4808      	ldr	r0, [pc, #32]	@ (8000f68 <Sensor_wait_response+0xd8>)
 8000f48:	9600      	str	r6, [sp, #0]
 8000f4a:	f004 fa07 	bl	800535c <iprintf>
 8000f4e:	4b07      	ldr	r3, [pc, #28]	@ (8000f6c <Sensor_wait_response+0xdc>)
 8000f50:	2003      	movs	r0, #3
 8000f52:	60a3      	str	r3, [r4, #8]
 8000f54:	e7b2      	b.n	8000ebc <Sensor_wait_response+0x2c>
 8000f56:	003a      	movs	r2, r7
 8000f58:	4805      	ldr	r0, [pc, #20]	@ (8000f70 <Sensor_wait_response+0xe0>)
 8000f5a:	f004 f9ff 	bl	800535c <iprintf>
 8000f5e:	e7f6      	b.n	8000f4e <Sensor_wait_response+0xbe>
 8000f60:	08000fa5 	.word	0x08000fa5
 8000f64:	200002d4 	.word	0x200002d4
 8000f68:	0800658b 	.word	0x0800658b
 8000f6c:	08000f75 	.word	0x08000f75
 8000f70:	080065b5 	.word	0x080065b5

08000f74 <Sensor_waiting>:
 8000f74:	8809      	ldrh	r1, [r1, #0]
 8000f76:	0002      	movs	r2, r0
 8000f78:	2002      	movs	r0, #2
 8000f7a:	2901      	cmp	r1, #1
 8000f7c:	d00a      	beq.n	8000f94 <Sensor_waiting+0x20>
 8000f7e:	2000      	movs	r0, #0
 8000f80:	2909      	cmp	r1, #9
 8000f82:	d108      	bne.n	8000f96 <Sensor_waiting+0x22>
 8000f84:	0011      	movs	r1, r2
 8000f86:	4b05      	ldr	r3, [pc, #20]	@ (8000f9c <Sensor_waiting+0x28>)
 8000f88:	312a      	adds	r1, #42	@ 0x2a
 8000f8a:	6250      	str	r0, [r2, #36]	@ 0x24
 8000f8c:	8510      	strh	r0, [r2, #40]	@ 0x28
 8000f8e:	7008      	strb	r0, [r1, #0]
 8000f90:	6093      	str	r3, [r2, #8]
 8000f92:	3003      	adds	r0, #3
 8000f94:	4770      	bx	lr
 8000f96:	4902      	ldr	r1, [pc, #8]	@ (8000fa0 <Sensor_waiting+0x2c>)
 8000f98:	6091      	str	r1, [r2, #8]
 8000f9a:	e7fb      	b.n	8000f94 <Sensor_waiting+0x20>
 8000f9c:	08000fa5 	.word	0x08000fa5
 8000fa0:	08003f1d 	.word	0x08003f1d

08000fa4 <Sensor_start_temperature>:
 8000fa4:	b570      	push	{r4, r5, r6, lr}
 8000fa6:	880e      	ldrh	r6, [r1, #0]
 8000fa8:	0005      	movs	r5, r0
 8000faa:	2400      	movs	r4, #0
 8000fac:	4b0d      	ldr	r3, [pc, #52]	@ (8000fe4 <Sensor_start_temperature+0x40>)
 8000fae:	2e03      	cmp	r6, #3
 8000fb0:	d115      	bne.n	8000fde <Sensor_start_temperature+0x3a>
 8000fb2:	f000 f9e9 	bl	8001388 <DHT11_SetPinOutput>
 8000fb6:	0022      	movs	r2, r4
 8000fb8:	0034      	movs	r4, r6
 8000fba:	2140      	movs	r1, #64	@ 0x40
 8000fbc:	480a      	ldr	r0, [pc, #40]	@ (8000fe8 <Sensor_start_temperature+0x44>)
 8000fbe:	f000 fdeb 	bl	8001b98 <HAL_GPIO_WritePin>
 8000fc2:	2014      	movs	r0, #20
 8000fc4:	f000 fa3e 	bl	8001444 <Delay_ms>
 8000fc8:	2201      	movs	r2, #1
 8000fca:	2140      	movs	r1, #64	@ 0x40
 8000fcc:	4806      	ldr	r0, [pc, #24]	@ (8000fe8 <Sensor_start_temperature+0x44>)
 8000fce:	f000 fde3 	bl	8001b98 <HAL_GPIO_WritePin>
 8000fd2:	201e      	movs	r0, #30
 8000fd4:	f000 f9f6 	bl	80013c4 <Delay_us>
 8000fd8:	f000 f9fe 	bl	80013d8 <DHT11_SetPinInput>
 8000fdc:	4b03      	ldr	r3, [pc, #12]	@ (8000fec <Sensor_start_temperature+0x48>)
 8000fde:	0020      	movs	r0, r4
 8000fe0:	60ab      	str	r3, [r5, #8]
 8000fe2:	bd70      	pop	{r4, r5, r6, pc}
 8000fe4:	08003f1d 	.word	0x08003f1d
 8000fe8:	50000800 	.word	0x50000800
 8000fec:	08000e91 	.word	0x08000e91

08000ff0 <Sensor_initial>:
 8000ff0:	4b01      	ldr	r3, [pc, #4]	@ (8000ff8 <Sensor_initial+0x8>)
 8000ff2:	6083      	str	r3, [r0, #8]
 8000ff4:	2003      	movs	r0, #3
 8000ff6:	4770      	bx	lr
 8000ff8:	08000f75 	.word	0x08000f75

08000ffc <HAL_MspInit>:
 8000ffc:	2101      	movs	r1, #1
 8000ffe:	4b0a      	ldr	r3, [pc, #40]	@ (8001028 <HAL_MspInit+0x2c>)
 8001000:	b082      	sub	sp, #8
 8001002:	6c1a      	ldr	r2, [r3, #64]	@ 0x40
 8001004:	430a      	orrs	r2, r1
 8001006:	641a      	str	r2, [r3, #64]	@ 0x40
 8001008:	6c1a      	ldr	r2, [r3, #64]	@ 0x40
 800100a:	400a      	ands	r2, r1
 800100c:	2180      	movs	r1, #128	@ 0x80
 800100e:	9200      	str	r2, [sp, #0]
 8001010:	9a00      	ldr	r2, [sp, #0]
 8001012:	6bda      	ldr	r2, [r3, #60]	@ 0x3c
 8001014:	0549      	lsls	r1, r1, #21
 8001016:	430a      	orrs	r2, r1
 8001018:	63da      	str	r2, [r3, #60]	@ 0x3c
 800101a:	6bdb      	ldr	r3, [r3, #60]	@ 0x3c
 800101c:	400b      	ands	r3, r1
 800101e:	9301      	str	r3, [sp, #4]
 8001020:	9b01      	ldr	r3, [sp, #4]
 8001022:	b002      	add	sp, #8
 8001024:	4770      	bx	lr
 8001026:	46c0      	nop			@ (mov r8, r8)
 8001028:	40021000 	.word	0x40021000

0800102c <HAL_ADC_MspInit>:
 800102c:	b510      	push	{r4, lr}
 800102e:	0004      	movs	r4, r0
 8001030:	b08e      	sub	sp, #56	@ 0x38
 8001032:	2214      	movs	r2, #20
 8001034:	2100      	movs	r1, #0
 8001036:	a802      	add	r0, sp, #8
 8001038:	f004 fb20 	bl	800567c <memset>
 800103c:	221c      	movs	r2, #28
 800103e:	2100      	movs	r1, #0
 8001040:	a807      	add	r0, sp, #28
 8001042:	f004 fb1b 	bl	800567c <memset>
 8001046:	4b16      	ldr	r3, [pc, #88]	@ (80010a0 <HAL_ADC_MspInit+0x74>)
 8001048:	6822      	ldr	r2, [r4, #0]
 800104a:	429a      	cmp	r2, r3
 800104c:	d125      	bne.n	800109a <HAL_ADC_MspInit+0x6e>
 800104e:	2320      	movs	r3, #32
 8001050:	a807      	add	r0, sp, #28
 8001052:	9307      	str	r3, [sp, #28]
 8001054:	f001 fa88 	bl	8002568 <HAL_RCCEx_PeriphCLKConfig>
 8001058:	2800      	cmp	r0, #0
 800105a:	d001      	beq.n	8001060 <HAL_ADC_MspInit+0x34>
 800105c:	f7ff fbbe 	bl	80007dc <Error_Handler>
 8001060:	2180      	movs	r1, #128	@ 0x80
 8001062:	4b10      	ldr	r3, [pc, #64]	@ (80010a4 <HAL_ADC_MspInit+0x78>)
 8001064:	0349      	lsls	r1, r1, #13
 8001066:	6c1a      	ldr	r2, [r3, #64]	@ 0x40
 8001068:	20a0      	movs	r0, #160	@ 0xa0
 800106a:	430a      	orrs	r2, r1
 800106c:	641a      	str	r2, [r3, #64]	@ 0x40
 800106e:	6c1a      	ldr	r2, [r3, #64]	@ 0x40
 8001070:	05c0      	lsls	r0, r0, #23
 8001072:	400a      	ands	r2, r1
 8001074:	2101      	movs	r1, #1
 8001076:	9200      	str	r2, [sp, #0]
 8001078:	9a00      	ldr	r2, [sp, #0]
 800107a:	6b5a      	ldr	r2, [r3, #52]	@ 0x34
 800107c:	430a      	orrs	r2, r1
 800107e:	635a      	str	r2, [r3, #52]	@ 0x34
 8001080:	6b5b      	ldr	r3, [r3, #52]	@ 0x34
 8001082:	400b      	ands	r3, r1
 8001084:	9301      	str	r3, [sp, #4]
 8001086:	9b01      	ldr	r3, [sp, #4]
 8001088:	2310      	movs	r3, #16
 800108a:	9302      	str	r3, [sp, #8]
 800108c:	3b0d      	subs	r3, #13
 800108e:	9303      	str	r3, [sp, #12]
 8001090:	2300      	movs	r3, #0
 8001092:	a902      	add	r1, sp, #8
 8001094:	9304      	str	r3, [sp, #16]
 8001096:	f000 fcbf 	bl	8001a18 <HAL_GPIO_Init>
 800109a:	b00e      	add	sp, #56	@ 0x38
 800109c:	bd10      	pop	{r4, pc}
 800109e:	46c0      	nop			@ (mov r8, r8)
 80010a0:	40012400 	.word	0x40012400
 80010a4:	40021000 	.word	0x40021000

080010a8 <HAL_I2C_MspInit>:
 80010a8:	b510      	push	{r4, lr}
 80010aa:	0004      	movs	r4, r0
 80010ac:	b08e      	sub	sp, #56	@ 0x38
 80010ae:	2214      	movs	r2, #20
 80010b0:	2100      	movs	r1, #0
 80010b2:	a802      	add	r0, sp, #8
 80010b4:	f004 fae2 	bl	800567c <memset>
 80010b8:	221c      	movs	r2, #28
 80010ba:	2100      	movs	r1, #0
 80010bc:	a807      	add	r0, sp, #28
 80010be:	f004 fadd 	bl	800567c <memset>
 80010c2:	4b18      	ldr	r3, [pc, #96]	@ (8001124 <HAL_I2C_MspInit+0x7c>)
 80010c4:	6822      	ldr	r2, [r4, #0]
 80010c6:	429a      	cmp	r2, r3
 80010c8:	d129      	bne.n	800111e <HAL_I2C_MspInit+0x76>
 80010ca:	2302      	movs	r3, #2
 80010cc:	a807      	add	r0, sp, #28
 80010ce:	9307      	str	r3, [sp, #28]
 80010d0:	f001 fa4a 	bl	8002568 <HAL_RCCEx_PeriphCLKConfig>
 80010d4:	2800      	cmp	r0, #0
 80010d6:	d001      	beq.n	80010dc <HAL_I2C_MspInit+0x34>
 80010d8:	f7ff fb80 	bl	80007dc <Error_Handler>
 80010dc:	2201      	movs	r2, #1
 80010de:	4c12      	ldr	r4, [pc, #72]	@ (8001128 <HAL_I2C_MspInit+0x80>)
 80010e0:	20a0      	movs	r0, #160	@ 0xa0
 80010e2:	6b63      	ldr	r3, [r4, #52]	@ 0x34
 80010e4:	a902      	add	r1, sp, #8
 80010e6:	4313      	orrs	r3, r2
 80010e8:	6363      	str	r3, [r4, #52]	@ 0x34
 80010ea:	6b63      	ldr	r3, [r4, #52]	@ 0x34
 80010ec:	05c0      	lsls	r0, r0, #23
 80010ee:	4013      	ands	r3, r2
 80010f0:	9300      	str	r3, [sp, #0]
 80010f2:	9b00      	ldr	r3, [sp, #0]
 80010f4:	23c0      	movs	r3, #192	@ 0xc0
 80010f6:	00db      	lsls	r3, r3, #3
 80010f8:	9302      	str	r3, [sp, #8]
 80010fa:	2312      	movs	r3, #18
 80010fc:	9303      	str	r3, [sp, #12]
 80010fe:	2300      	movs	r3, #0
 8001100:	9304      	str	r3, [sp, #16]
 8001102:	9305      	str	r3, [sp, #20]
 8001104:	3306      	adds	r3, #6
 8001106:	9306      	str	r3, [sp, #24]
 8001108:	f000 fc86 	bl	8001a18 <HAL_GPIO_Init>
 800110c:	2280      	movs	r2, #128	@ 0x80
 800110e:	6be3      	ldr	r3, [r4, #60]	@ 0x3c
 8001110:	0392      	lsls	r2, r2, #14
 8001112:	4313      	orrs	r3, r2
 8001114:	63e3      	str	r3, [r4, #60]	@ 0x3c
 8001116:	6be3      	ldr	r3, [r4, #60]	@ 0x3c
 8001118:	4013      	ands	r3, r2
 800111a:	9301      	str	r3, [sp, #4]
 800111c:	9b01      	ldr	r3, [sp, #4]
 800111e:	b00e      	add	sp, #56	@ 0x38
 8001120:	bd10      	pop	{r4, pc}
 8001122:	46c0      	nop			@ (mov r8, r8)
 8001124:	40005400 	.word	0x40005400
 8001128:	40021000 	.word	0x40021000

0800112c <HAL_SPI_MspInit>:
 800112c:	b530      	push	{r4, r5, lr}
 800112e:	0004      	movs	r4, r0
 8001130:	b091      	sub	sp, #68	@ 0x44
 8001132:	2214      	movs	r2, #20
 8001134:	2100      	movs	r1, #0
 8001136:	a804      	add	r0, sp, #16
 8001138:	f004 faa0 	bl	800567c <memset>
 800113c:	221c      	movs	r2, #28
 800113e:	2100      	movs	r1, #0
 8001140:	a809      	add	r0, sp, #36	@ 0x24
 8001142:	f004 fa9b 	bl	800567c <memset>
 8001146:	4b22      	ldr	r3, [pc, #136]	@ (80011d0 <HAL_SPI_MspInit+0xa4>)
 8001148:	6822      	ldr	r2, [r4, #0]
 800114a:	429a      	cmp	r2, r3
 800114c:	d13d      	bne.n	80011ca <HAL_SPI_MspInit+0x9e>
 800114e:	2304      	movs	r3, #4
 8001150:	a809      	add	r0, sp, #36	@ 0x24
 8001152:	9309      	str	r3, [sp, #36]	@ 0x24
 8001154:	f001 fa08 	bl	8002568 <HAL_RCCEx_PeriphCLKConfig>
 8001158:	2800      	cmp	r0, #0
 800115a:	d001      	beq.n	8001160 <HAL_SPI_MspInit+0x34>
 800115c:	f7ff fb3e 	bl	80007dc <Error_Handler>
 8001160:	2180      	movs	r1, #128	@ 0x80
 8001162:	4b1c      	ldr	r3, [pc, #112]	@ (80011d4 <HAL_SPI_MspInit+0xa8>)
 8001164:	0149      	lsls	r1, r1, #5
 8001166:	6c1a      	ldr	r2, [r3, #64]	@ 0x40
 8001168:	2502      	movs	r5, #2
 800116a:	430a      	orrs	r2, r1
 800116c:	641a      	str	r2, [r3, #64]	@ 0x40
 800116e:	6c1a      	ldr	r2, [r3, #64]	@ 0x40
 8001170:	20a0      	movs	r0, #160	@ 0xa0
 8001172:	400a      	ands	r2, r1
 8001174:	2101      	movs	r1, #1
 8001176:	9201      	str	r2, [sp, #4]
 8001178:	9a01      	ldr	r2, [sp, #4]
 800117a:	6b5a      	ldr	r2, [r3, #52]	@ 0x34
 800117c:	2400      	movs	r4, #0
 800117e:	430a      	orrs	r2, r1
 8001180:	635a      	str	r2, [r3, #52]	@ 0x34
 8001182:	6b5a      	ldr	r2, [r3, #52]	@ 0x34
 8001184:	05c0      	lsls	r0, r0, #23
 8001186:	400a      	ands	r2, r1
 8001188:	9202      	str	r2, [sp, #8]
 800118a:	9a02      	ldr	r2, [sp, #8]
 800118c:	6b5a      	ldr	r2, [r3, #52]	@ 0x34
 800118e:	a904      	add	r1, sp, #16
 8001190:	432a      	orrs	r2, r5
 8001192:	635a      	str	r2, [r3, #52]	@ 0x34
 8001194:	6b5b      	ldr	r3, [r3, #52]	@ 0x34
 8001196:	9505      	str	r5, [sp, #20]
 8001198:	402b      	ands	r3, r5
 800119a:	9303      	str	r3, [sp, #12]
 800119c:	9b03      	ldr	r3, [sp, #12]
 800119e:	23c0      	movs	r3, #192	@ 0xc0
 80011a0:	9406      	str	r4, [sp, #24]
 80011a2:	9304      	str	r3, [sp, #16]
 80011a4:	9407      	str	r4, [sp, #28]
 80011a6:	9408      	str	r4, [sp, #32]
 80011a8:	f000 fc36 	bl	8001a18 <HAL_GPIO_Init>
 80011ac:	2308      	movs	r3, #8
 80011ae:	480a      	ldr	r0, [pc, #40]	@ (80011d8 <HAL_SPI_MspInit+0xac>)
 80011b0:	a904      	add	r1, sp, #16
 80011b2:	9304      	str	r3, [sp, #16]
 80011b4:	9505      	str	r5, [sp, #20]
 80011b6:	9406      	str	r4, [sp, #24]
 80011b8:	9407      	str	r4, [sp, #28]
 80011ba:	9408      	str	r4, [sp, #32]
 80011bc:	f000 fc2c 	bl	8001a18 <HAL_GPIO_Init>
 80011c0:	0022      	movs	r2, r4
 80011c2:	0021      	movs	r1, r4
 80011c4:	2019      	movs	r0, #25
 80011c6:	f000 fbe3 	bl	8001990 <HAL_NVIC_SetPriority>
 80011ca:	b011      	add	sp, #68	@ 0x44
 80011cc:	bd30      	pop	{r4, r5, pc}
 80011ce:	46c0      	nop			@ (mov r8, r8)
 80011d0:	40013000 	.word	0x40013000
 80011d4:	40021000 	.word	0x40021000
 80011d8:	50000400 	.word	0x50000400

080011dc <HAL_TIM_Base_MspInit>:
 80011dc:	b510      	push	{r4, lr}
 80011de:	0004      	movs	r4, r0
 80011e0:	b08a      	sub	sp, #40	@ 0x28
 80011e2:	2214      	movs	r2, #20
 80011e4:	2100      	movs	r1, #0
 80011e6:	a805      	add	r0, sp, #20
 80011e8:	f004 fa48 	bl	800567c <memset>
 80011ec:	6823      	ldr	r3, [r4, #0]
 80011ee:	4a1d      	ldr	r2, [pc, #116]	@ (8001264 <HAL_TIM_Base_MspInit+0x88>)
 80011f0:	4293      	cmp	r3, r2
 80011f2:	d11b      	bne.n	800122c <HAL_TIM_Base_MspInit+0x50>
 80011f4:	2202      	movs	r2, #2
 80011f6:	2004      	movs	r0, #4
 80011f8:	4b1b      	ldr	r3, [pc, #108]	@ (8001268 <HAL_TIM_Base_MspInit+0x8c>)
 80011fa:	6bd9      	ldr	r1, [r3, #60]	@ 0x3c
 80011fc:	4311      	orrs	r1, r2
 80011fe:	63d9      	str	r1, [r3, #60]	@ 0x3c
 8001200:	6bd9      	ldr	r1, [r3, #60]	@ 0x3c
 8001202:	4011      	ands	r1, r2
 8001204:	9101      	str	r1, [sp, #4]
 8001206:	9901      	ldr	r1, [sp, #4]
 8001208:	6b59      	ldr	r1, [r3, #52]	@ 0x34
 800120a:	4301      	orrs	r1, r0
 800120c:	6359      	str	r1, [r3, #52]	@ 0x34
 800120e:	6b5b      	ldr	r3, [r3, #52]	@ 0x34
 8001210:	a905      	add	r1, sp, #20
 8001212:	4003      	ands	r3, r0
 8001214:	9302      	str	r3, [sp, #8]
 8001216:	9b02      	ldr	r3, [sp, #8]
 8001218:	2340      	movs	r3, #64	@ 0x40
 800121a:	4814      	ldr	r0, [pc, #80]	@ (800126c <HAL_TIM_Base_MspInit+0x90>)
 800121c:	9305      	str	r3, [sp, #20]
 800121e:	3b3f      	subs	r3, #63	@ 0x3f
 8001220:	9206      	str	r2, [sp, #24]
 8001222:	9309      	str	r3, [sp, #36]	@ 0x24
 8001224:	f000 fbf8 	bl	8001a18 <HAL_GPIO_Init>
 8001228:	b00a      	add	sp, #40	@ 0x28
 800122a:	bd10      	pop	{r4, pc}
 800122c:	4a10      	ldr	r2, [pc, #64]	@ (8001270 <HAL_TIM_Base_MspInit+0x94>)
 800122e:	4293      	cmp	r3, r2
 8001230:	d10a      	bne.n	8001248 <HAL_TIM_Base_MspInit+0x6c>
 8001232:	2180      	movs	r1, #128	@ 0x80
 8001234:	4b0c      	ldr	r3, [pc, #48]	@ (8001268 <HAL_TIM_Base_MspInit+0x8c>)
 8001236:	0209      	lsls	r1, r1, #8
 8001238:	6c1a      	ldr	r2, [r3, #64]	@ 0x40
 800123a:	430a      	orrs	r2, r1
 800123c:	641a      	str	r2, [r3, #64]	@ 0x40
 800123e:	6c1b      	ldr	r3, [r3, #64]	@ 0x40
 8001240:	400b      	ands	r3, r1
 8001242:	9303      	str	r3, [sp, #12]
 8001244:	9b03      	ldr	r3, [sp, #12]
 8001246:	e7ef      	b.n	8001228 <HAL_TIM_Base_MspInit+0x4c>
 8001248:	4a0a      	ldr	r2, [pc, #40]	@ (8001274 <HAL_TIM_Base_MspInit+0x98>)
 800124a:	4293      	cmp	r3, r2
 800124c:	d1ec      	bne.n	8001228 <HAL_TIM_Base_MspInit+0x4c>
 800124e:	2180      	movs	r1, #128	@ 0x80
 8001250:	4b05      	ldr	r3, [pc, #20]	@ (8001268 <HAL_TIM_Base_MspInit+0x8c>)
 8001252:	02c9      	lsls	r1, r1, #11
 8001254:	6c1a      	ldr	r2, [r3, #64]	@ 0x40
 8001256:	430a      	orrs	r2, r1
 8001258:	641a      	str	r2, [r3, #64]	@ 0x40
 800125a:	6c1b      	ldr	r3, [r3, #64]	@ 0x40
 800125c:	400b      	ands	r3, r1
 800125e:	9304      	str	r3, [sp, #16]
 8001260:	9b04      	ldr	r3, [sp, #16]
 8001262:	e7e1      	b.n	8001228 <HAL_TIM_Base_MspInit+0x4c>
 8001264:	40000400 	.word	0x40000400
 8001268:	40021000 	.word	0x40021000
 800126c:	50000800 	.word	0x50000800
 8001270:	40002000 	.word	0x40002000
 8001274:	40014800 	.word	0x40014800

08001278 <HAL_UART_MspInit>:
 8001278:	b510      	push	{r4, lr}
 800127a:	0004      	movs	r4, r0
 800127c:	b088      	sub	sp, #32
 800127e:	2214      	movs	r2, #20
 8001280:	2100      	movs	r1, #0
 8001282:	a803      	add	r0, sp, #12
 8001284:	f004 f9fa 	bl	800567c <memset>
 8001288:	4b10      	ldr	r3, [pc, #64]	@ (80012cc <HAL_UART_MspInit+0x54>)
 800128a:	6822      	ldr	r2, [r4, #0]
 800128c:	429a      	cmp	r2, r3
 800128e:	d11b      	bne.n	80012c8 <HAL_UART_MspInit+0x50>
 8001290:	2180      	movs	r1, #128	@ 0x80
 8001292:	4b0f      	ldr	r3, [pc, #60]	@ (80012d0 <HAL_UART_MspInit+0x58>)
 8001294:	0289      	lsls	r1, r1, #10
 8001296:	6bda      	ldr	r2, [r3, #60]	@ 0x3c
 8001298:	20a0      	movs	r0, #160	@ 0xa0
 800129a:	430a      	orrs	r2, r1
 800129c:	63da      	str	r2, [r3, #60]	@ 0x3c
 800129e:	6bda      	ldr	r2, [r3, #60]	@ 0x3c
 80012a0:	05c0      	lsls	r0, r0, #23
 80012a2:	400a      	ands	r2, r1
 80012a4:	9201      	str	r2, [sp, #4]
 80012a6:	9a01      	ldr	r2, [sp, #4]
 80012a8:	2201      	movs	r2, #1
 80012aa:	6b59      	ldr	r1, [r3, #52]	@ 0x34
 80012ac:	4311      	orrs	r1, r2
 80012ae:	6359      	str	r1, [r3, #52]	@ 0x34
 80012b0:	6b5b      	ldr	r3, [r3, #52]	@ 0x34
 80012b2:	a903      	add	r1, sp, #12
 80012b4:	4013      	ands	r3, r2
 80012b6:	9302      	str	r3, [sp, #8]
 80012b8:	9b02      	ldr	r3, [sp, #8]
 80012ba:	230c      	movs	r3, #12
 80012bc:	9303      	str	r3, [sp, #12]
 80012be:	3b0a      	subs	r3, #10
 80012c0:	9304      	str	r3, [sp, #16]
 80012c2:	9207      	str	r2, [sp, #28]
 80012c4:	f000 fba8 	bl	8001a18 <HAL_GPIO_Init>
 80012c8:	b008      	add	sp, #32
 80012ca:	bd10      	pop	{r4, pc}
 80012cc:	40004400 	.word	0x40004400
 80012d0:	40021000 	.word	0x40021000

080012d4 <HardFault_Handler>:
 80012d4:	b510      	push	{r4, lr}
 80012d6:	b672      	cpsid	i
 80012d8:	2100      	movs	r1, #0
 80012da:	4802      	ldr	r0, [pc, #8]	@ (80012e4 <HardFault_Handler+0x10>)
 80012dc:	f7ff f936 	bl	800054c <Q_onError>
 80012e0:	e7fe      	b.n	80012e0 <HardFault_Handler+0xc>
 80012e2:	46c0      	nop			@ (mov r8, r8)
 80012e4:	08006543 	.word	0x08006543

080012e8 <SVC_Handler>:
 80012e8:	4770      	bx	lr

080012ea <_read>:
 80012ea:	b570      	push	{r4, r5, r6, lr}
 80012ec:	000e      	movs	r6, r1
 80012ee:	0014      	movs	r4, r2
 80012f0:	2500      	movs	r5, #0
 80012f2:	42a5      	cmp	r5, r4
 80012f4:	db01      	blt.n	80012fa <_read+0x10>
 80012f6:	0020      	movs	r0, r4
 80012f8:	bd70      	pop	{r4, r5, r6, pc}
 80012fa:	e000      	b.n	80012fe <_read+0x14>
 80012fc:	bf00      	nop
 80012fe:	5570      	strb	r0, [r6, r5]
 8001300:	3501      	adds	r5, #1
 8001302:	e7f6      	b.n	80012f2 <_read+0x8>

08001304 <_write>:
 8001304:	b510      	push	{r4, lr}
 8001306:	1e14      	subs	r4, r2, #0
 8001308:	dd05      	ble.n	8001316 <_write+0x12>
 800130a:	2301      	movs	r3, #1
 800130c:	4803      	ldr	r0, [pc, #12]	@ (800131c <_write+0x18>)
 800130e:	b292      	uxth	r2, r2
 8001310:	425b      	negs	r3, r3
 8001312:	f002 fc70 	bl	8003bf6 <HAL_UART_Transmit>
 8001316:	0020      	movs	r0, r4
 8001318:	bd10      	pop	{r4, pc}
 800131a:	46c0      	nop			@ (mov r8, r8)
 800131c:	200001a8 	.word	0x200001a8

08001320 <_close>:
 8001320:	2001      	movs	r0, #1
 8001322:	4240      	negs	r0, r0
 8001324:	4770      	bx	lr

08001326 <_fstat>:
 8001326:	2380      	movs	r3, #128	@ 0x80
 8001328:	019b      	lsls	r3, r3, #6
 800132a:	2000      	movs	r0, #0
 800132c:	604b      	str	r3, [r1, #4]
 800132e:	4770      	bx	lr

08001330 <_isatty>:
 8001330:	2001      	movs	r0, #1
 8001332:	4770      	bx	lr

08001334 <_lseek>:
 8001334:	2000      	movs	r0, #0
 8001336:	4770      	bx	lr

08001338 <_sbrk>:
 8001338:	490b      	ldr	r1, [pc, #44]	@ (8001368 <_sbrk+0x30>)
 800133a:	4a0c      	ldr	r2, [pc, #48]	@ (800136c <_sbrk+0x34>)
 800133c:	0003      	movs	r3, r0
 800133e:	1a52      	subs	r2, r2, r1
 8001340:	490b      	ldr	r1, [pc, #44]	@ (8001370 <_sbrk+0x38>)
 8001342:	b510      	push	{r4, lr}
 8001344:	6808      	ldr	r0, [r1, #0]
 8001346:	2800      	cmp	r0, #0
 8001348:	d101      	bne.n	800134e <_sbrk+0x16>
 800134a:	480a      	ldr	r0, [pc, #40]	@ (8001374 <_sbrk+0x3c>)
 800134c:	6008      	str	r0, [r1, #0]
 800134e:	6808      	ldr	r0, [r1, #0]
 8001350:	18c3      	adds	r3, r0, r3
 8001352:	4293      	cmp	r3, r2
 8001354:	d906      	bls.n	8001364 <_sbrk+0x2c>
 8001356:	f004 f9e7 	bl	8005728 <__errno>
 800135a:	230c      	movs	r3, #12
 800135c:	6003      	str	r3, [r0, #0]
 800135e:	2001      	movs	r0, #1
 8001360:	4240      	negs	r0, r0
 8001362:	bd10      	pop	{r4, pc}
 8001364:	600b      	str	r3, [r1, #0]
 8001366:	e7fc      	b.n	8001362 <_sbrk+0x2a>
 8001368:	00000400 	.word	0x00000400
 800136c:	20003000 	.word	0x20003000
 8001370:	200004fc 	.word	0x200004fc
 8001374:	20000948 	.word	0x20000948

08001378 <SystemInit>:
 8001378:	2280      	movs	r2, #128	@ 0x80
 800137a:	4b02      	ldr	r3, [pc, #8]	@ (8001384 <SystemInit+0xc>)
 800137c:	0512      	lsls	r2, r2, #20
 800137e:	609a      	str	r2, [r3, #8]
 8001380:	4770      	bx	lr
 8001382:	46c0      	nop			@ (mov r8, r8)
 8001384:	e000ed00 	.word	0xe000ed00

08001388 <DHT11_SetPinOutput>:
 8001388:	b57f      	push	{r0, r1, r2, r3, r4, r5, r6, lr}
 800138a:	220c      	movs	r2, #12
 800138c:	2100      	movs	r1, #0
 800138e:	a803      	add	r0, sp, #12
 8001390:	f004 f974 	bl	800567c <memset>
 8001394:	2108      	movs	r1, #8
 8001396:	4b09      	ldr	r3, [pc, #36]	@ (80013bc <DHT11_SetPinOutput+0x34>)
 8001398:	4809      	ldr	r0, [pc, #36]	@ (80013c0 <DHT11_SetPinOutput+0x38>)
 800139a:	6b5a      	ldr	r2, [r3, #52]	@ 0x34
 800139c:	430a      	orrs	r2, r1
 800139e:	635a      	str	r2, [r3, #52]	@ 0x34
 80013a0:	6b5b      	ldr	r3, [r3, #52]	@ 0x34
 80013a2:	400b      	ands	r3, r1
 80013a4:	9300      	str	r3, [sp, #0]
 80013a6:	9b00      	ldr	r3, [sp, #0]
 80013a8:	2340      	movs	r3, #64	@ 0x40
 80013aa:	a901      	add	r1, sp, #4
 80013ac:	9301      	str	r3, [sp, #4]
 80013ae:	3b3f      	subs	r3, #63	@ 0x3f
 80013b0:	9302      	str	r3, [sp, #8]
 80013b2:	f000 fb31 	bl	8001a18 <HAL_GPIO_Init>
 80013b6:	b007      	add	sp, #28
 80013b8:	bd00      	pop	{pc}
 80013ba:	46c0      	nop			@ (mov r8, r8)
 80013bc:	40021000 	.word	0x40021000
 80013c0:	50000800 	.word	0x50000800

080013c4 <Delay_us>:
 80013c4:	2200      	movs	r2, #0
 80013c6:	4b03      	ldr	r3, [pc, #12]	@ (80013d4 <Delay_us+0x10>)
 80013c8:	681b      	ldr	r3, [r3, #0]
 80013ca:	625a      	str	r2, [r3, #36]	@ 0x24
 80013cc:	6a5a      	ldr	r2, [r3, #36]	@ 0x24
 80013ce:	4282      	cmp	r2, r0
 80013d0:	d3fc      	bcc.n	80013cc <Delay_us+0x8>
 80013d2:	4770      	bx	lr
 80013d4:	20000288 	.word	0x20000288

080013d8 <DHT11_SetPinInput>:
 80013d8:	b510      	push	{r4, lr}
 80013da:	2408      	movs	r4, #8
 80013dc:	b086      	sub	sp, #24
 80013de:	0022      	movs	r2, r4
 80013e0:	2100      	movs	r1, #0
 80013e2:	a803      	add	r0, sp, #12
 80013e4:	f004 f94a 	bl	800567c <memset>
 80013e8:	4b12      	ldr	r3, [pc, #72]	@ (8001434 <DHT11_SetPinInput+0x5c>)
 80013ea:	a901      	add	r1, sp, #4
 80013ec:	6b5a      	ldr	r2, [r3, #52]	@ 0x34
 80013ee:	4812      	ldr	r0, [pc, #72]	@ (8001438 <DHT11_SetPinInput+0x60>)
 80013f0:	4322      	orrs	r2, r4
 80013f2:	635a      	str	r2, [r3, #52]	@ 0x34
 80013f4:	6b5a      	ldr	r2, [r3, #52]	@ 0x34
 80013f6:	4022      	ands	r2, r4
 80013f8:	9200      	str	r2, [sp, #0]
 80013fa:	9b00      	ldr	r3, [sp, #0]
 80013fc:	2340      	movs	r3, #64	@ 0x40
 80013fe:	9301      	str	r3, [sp, #4]
 8001400:	3b3e      	subs	r3, #62	@ 0x3e
 8001402:	9302      	str	r3, [sp, #8]
 8001404:	3b01      	subs	r3, #1
 8001406:	9305      	str	r3, [sp, #20]
 8001408:	f000 fb06 	bl	8001a18 <HAL_GPIO_Init>
 800140c:	21c4      	movs	r1, #196	@ 0xc4
 800140e:	20ff      	movs	r0, #255	@ 0xff
 8001410:	4b0a      	ldr	r3, [pc, #40]	@ (800143c <DHT11_SetPinInput+0x64>)
 8001412:	0089      	lsls	r1, r1, #2
 8001414:	585a      	ldr	r2, [r3, r1]
 8001416:	4382      	bics	r2, r0
 8001418:	505a      	str	r2, [r3, r1]
 800141a:	2280      	movs	r2, #128	@ 0x80
 800141c:	0252      	lsls	r2, r2, #9
 800141e:	601a      	str	r2, [r3, #0]
 8001420:	38f5      	subs	r0, #245	@ 0xf5
 8001422:	f7ff ffcf 	bl	80013c4 <Delay_us>
 8001426:	2100      	movs	r1, #0
 8001428:	4805      	ldr	r0, [pc, #20]	@ (8001440 <DHT11_SetPinInput+0x68>)
 800142a:	f002 f937 	bl	800369c <HAL_TIM_IC_Start_IT>
 800142e:	b006      	add	sp, #24
 8001430:	bd10      	pop	{r4, pc}
 8001432:	46c0      	nop			@ (mov r8, r8)
 8001434:	40021000 	.word	0x40021000
 8001438:	50000800 	.word	0x50000800
 800143c:	e000e100 	.word	0xe000e100
 8001440:	200002d4 	.word	0x200002d4

08001444 <Delay_ms>:
 8001444:	2200      	movs	r2, #0
 8001446:	4b03      	ldr	r3, [pc, #12]	@ (8001454 <Delay_ms+0x10>)
 8001448:	681b      	ldr	r3, [r3, #0]
 800144a:	625a      	str	r2, [r3, #36]	@ 0x24
 800144c:	6a5a      	ldr	r2, [r3, #36]	@ 0x24
 800144e:	4282      	cmp	r2, r0
 8001450:	d3fc      	bcc.n	800144c <Delay_ms+0x8>
 8001452:	4770      	bx	lr
 8001454:	2000023c 	.word	0x2000023c

08001458 <Reset_Handler>:
 8001458:	480d      	ldr	r0, [pc, #52]	@ (8001490 <LoopForever+0x2>)
 800145a:	4685      	mov	sp, r0
 800145c:	f7ff ff8c 	bl	8001378 <SystemInit>
 8001460:	2100      	movs	r1, #0
 8001462:	e003      	b.n	800146c <LoopCopyDataInit>

08001464 <CopyDataInit>:
 8001464:	4b0b      	ldr	r3, [pc, #44]	@ (8001494 <LoopForever+0x6>)
 8001466:	585b      	ldr	r3, [r3, r1]
 8001468:	5043      	str	r3, [r0, r1]
 800146a:	3104      	adds	r1, #4

0800146c <LoopCopyDataInit>:
 800146c:	480a      	ldr	r0, [pc, #40]	@ (8001498 <LoopForever+0xa>)
 800146e:	4b0b      	ldr	r3, [pc, #44]	@ (800149c <LoopForever+0xe>)
 8001470:	1842      	adds	r2, r0, r1
 8001472:	429a      	cmp	r2, r3
 8001474:	d3f6      	bcc.n	8001464 <CopyDataInit>
 8001476:	4a0a      	ldr	r2, [pc, #40]	@ (80014a0 <LoopForever+0x12>)
 8001478:	e002      	b.n	8001480 <LoopFillZerobss>

0800147a <FillZerobss>:
 800147a:	2300      	movs	r3, #0
 800147c:	6013      	str	r3, [r2, #0]
 800147e:	3204      	adds	r2, #4

08001480 <LoopFillZerobss>:
 8001480:	4b08      	ldr	r3, [pc, #32]	@ (80014a4 <LoopForever+0x16>)
 8001482:	429a      	cmp	r2, r3
 8001484:	d3f9      	bcc.n	800147a <FillZerobss>
 8001486:	f004 f955 	bl	8005734 <__libc_init_array>
 800148a:	f7ff f9dd 	bl	8000848 <main>

0800148e <LoopForever>:
 800148e:	e7fe      	b.n	800148e <LoopForever>
 8001490:	20003000 	.word	0x20003000
 8001494:	08007aa0 	.word	0x08007aa0
 8001498:	20000000 	.word	0x20000000
 800149c:	20000068 	.word	0x20000068
 80014a0:	20000068 	.word	0x20000068
 80014a4:	20000944 	.word	0x20000944

080014a8 <ADC1_IRQHandler>:
 80014a8:	e7fe      	b.n	80014a8 <ADC1_IRQHandler>
	...

080014ac <HAL_InitTick>:
 80014ac:	b570      	push	{r4, r5, r6, lr}
 80014ae:	4b10      	ldr	r3, [pc, #64]	@ (80014f0 <HAL_InitTick+0x44>)
 80014b0:	0005      	movs	r5, r0
 80014b2:	7819      	ldrb	r1, [r3, #0]
 80014b4:	2900      	cmp	r1, #0
 80014b6:	d101      	bne.n	80014bc <HAL_InitTick+0x10>
 80014b8:	2001      	movs	r0, #1
 80014ba:	bd70      	pop	{r4, r5, r6, pc}
 80014bc:	20fa      	movs	r0, #250	@ 0xfa
 80014be:	0080      	lsls	r0, r0, #2
 80014c0:	f7fe fe36 	bl	8000130 <__udivsi3>
 80014c4:	4c0b      	ldr	r4, [pc, #44]	@ (80014f4 <HAL_InitTick+0x48>)
 80014c6:	0001      	movs	r1, r0
 80014c8:	6820      	ldr	r0, [r4, #0]
 80014ca:	f7fe fe31 	bl	8000130 <__udivsi3>
 80014ce:	f000 fa89 	bl	80019e4 <HAL_SYSTICK_Config>
 80014d2:	1e04      	subs	r4, r0, #0
 80014d4:	d1f0      	bne.n	80014b8 <HAL_InitTick+0xc>
 80014d6:	2d03      	cmp	r5, #3
 80014d8:	d8ee      	bhi.n	80014b8 <HAL_InitTick+0xc>
 80014da:	0002      	movs	r2, r0
 80014dc:	2001      	movs	r0, #1
 80014de:	0029      	movs	r1, r5
 80014e0:	4240      	negs	r0, r0
 80014e2:	f000 fa55 	bl	8001990 <HAL_NVIC_SetPriority>
 80014e6:	4b04      	ldr	r3, [pc, #16]	@ (80014f8 <HAL_InitTick+0x4c>)
 80014e8:	0020      	movs	r0, r4
 80014ea:	601d      	str	r5, [r3, #0]
 80014ec:	e7e5      	b.n	80014ba <HAL_InitTick+0xe>
 80014ee:	46c0      	nop			@ (mov r8, r8)
 80014f0:	20000004 	.word	0x20000004
 80014f4:	20000000 	.word	0x20000000
 80014f8:	20000008 	.word	0x20000008

080014fc <HAL_Init>:
 80014fc:	b510      	push	{r4, lr}
 80014fe:	2003      	movs	r0, #3
 8001500:	f7ff ffd4 	bl	80014ac <HAL_InitTick>
 8001504:	1e04      	subs	r4, r0, #0
 8001506:	d103      	bne.n	8001510 <HAL_Init+0x14>
 8001508:	f7ff fd78 	bl	8000ffc <HAL_MspInit>
 800150c:	0020      	movs	r0, r4
 800150e:	bd10      	pop	{r4, pc}
 8001510:	2401      	movs	r4, #1
 8001512:	e7fb      	b.n	800150c <HAL_Init+0x10>

08001514 <HAL_GetTick>:
 8001514:	4b01      	ldr	r3, [pc, #4]	@ (800151c <HAL_GetTick+0x8>)
 8001516:	6818      	ldr	r0, [r3, #0]
 8001518:	4770      	bx	lr
 800151a:	46c0      	nop			@ (mov r8, r8)
 800151c:	20000500 	.word	0x20000500

08001520 <LL_ADC_REG_IsConversionOngoing>:
 8001520:	6880      	ldr	r0, [r0, #8]
 8001522:	0740      	lsls	r0, r0, #29
 8001524:	0fc0      	lsrs	r0, r0, #31
 8001526:	4770      	bx	lr

08001528 <HAL_ADC_Init>:
 8001528:	2300      	movs	r3, #0
 800152a:	b5f0      	push	{r4, r5, r6, r7, lr}
 800152c:	b085      	sub	sp, #20
 800152e:	0004      	movs	r4, r0
 8001530:	9303      	str	r3, [sp, #12]
 8001532:	4298      	cmp	r0, r3
 8001534:	d100      	bne.n	8001538 <HAL_ADC_Init+0x10>
 8001536:	e0ef      	b.n	8001718 <HAL_ADC_Init+0x1f0>
 8001538:	6d85      	ldr	r5, [r0, #88]	@ 0x58
 800153a:	429d      	cmp	r5, r3
 800153c:	d105      	bne.n	800154a <HAL_ADC_Init+0x22>
 800153e:	f7ff fd75 	bl	800102c <HAL_ADC_MspInit>
 8001542:	0023      	movs	r3, r4
 8001544:	3354      	adds	r3, #84	@ 0x54
 8001546:	65e5      	str	r5, [r4, #92]	@ 0x5c
 8001548:	701d      	strb	r5, [r3, #0]
 800154a:	2380      	movs	r3, #128	@ 0x80
 800154c:	6825      	ldr	r5, [r4, #0]
 800154e:	055b      	lsls	r3, r3, #21
 8001550:	68aa      	ldr	r2, [r5, #8]
 8001552:	421a      	tst	r2, r3
 8001554:	d100      	bne.n	8001558 <HAL_ADC_Init+0x30>
 8001556:	e0a7      	b.n	80016a8 <HAL_ADC_Init+0x180>
 8001558:	2200      	movs	r2, #0
 800155a:	68ab      	ldr	r3, [r5, #8]
 800155c:	9201      	str	r2, [sp, #4]
 800155e:	00db      	lsls	r3, r3, #3
 8001560:	d408      	bmi.n	8001574 <HAL_ADC_Init+0x4c>
 8001562:	2310      	movs	r3, #16
 8001564:	2601      	movs	r6, #1
 8001566:	6da2      	ldr	r2, [r4, #88]	@ 0x58
 8001568:	9601      	str	r6, [sp, #4]
 800156a:	4313      	orrs	r3, r2
 800156c:	65a3      	str	r3, [r4, #88]	@ 0x58
 800156e:	6de3      	ldr	r3, [r4, #92]	@ 0x5c
 8001570:	4333      	orrs	r3, r6
 8001572:	65e3      	str	r3, [r4, #92]	@ 0x5c
 8001574:	0028      	movs	r0, r5
 8001576:	f7ff ffd3 	bl	8001520 <LL_ADC_REG_IsConversionOngoing>
 800157a:	2210      	movs	r2, #16
 800157c:	6da3      	ldr	r3, [r4, #88]	@ 0x58
 800157e:	4013      	ands	r3, r2
 8001580:	4303      	orrs	r3, r0
 8001582:	d000      	beq.n	8001586 <HAL_ADC_Init+0x5e>
 8001584:	e0cb      	b.n	800171e <HAL_ADC_Init+0x1f6>
 8001586:	6da2      	ldr	r2, [r4, #88]	@ 0x58
 8001588:	4b67      	ldr	r3, [pc, #412]	@ (8001728 <HAL_ADC_Init+0x200>)
 800158a:	6920      	ldr	r0, [r4, #16]
 800158c:	401a      	ands	r2, r3
 800158e:	3306      	adds	r3, #6
 8001590:	33ff      	adds	r3, #255	@ 0xff
 8001592:	4313      	orrs	r3, r2
 8001594:	65a3      	str	r3, [r4, #88]	@ 0x58
 8001596:	68ab      	ldr	r3, [r5, #8]
 8001598:	07db      	lsls	r3, r3, #31
 800159a:	d461      	bmi.n	8001660 <HAL_ADC_Init+0x138>
 800159c:	6b27      	ldr	r7, [r4, #48]	@ 0x30
 800159e:	68e1      	ldr	r1, [r4, #12]
 80015a0:	1e7b      	subs	r3, r7, #1
 80015a2:	419f      	sbcs	r7, r3
 80015a4:	68a3      	ldr	r3, [r4, #8]
 80015a6:	7ea2      	ldrb	r2, [r4, #26]
 80015a8:	430b      	orrs	r3, r1
 80015aa:	7e21      	ldrb	r1, [r4, #24]
 80015ac:	033f      	lsls	r7, r7, #12
 80015ae:	0389      	lsls	r1, r1, #14
 80015b0:	430b      	orrs	r3, r1
 80015b2:	7e61      	ldrb	r1, [r4, #25]
 80015b4:	03c9      	lsls	r1, r1, #15
 80015b6:	430b      	orrs	r3, r1
 80015b8:	0351      	lsls	r1, r2, #13
 80015ba:	430b      	orrs	r3, r1
 80015bc:	469c      	mov	ip, r3
 80015be:	2800      	cmp	r0, #0
 80015c0:	db00      	blt.n	80015c4 <HAL_ADC_Init+0x9c>
 80015c2:	e085      	b.n	80016d0 <HAL_ADC_Init+0x1a8>
 80015c4:	0041      	lsls	r1, r0, #1
 80015c6:	0849      	lsrs	r1, r1, #1
 80015c8:	0023      	movs	r3, r4
 80015ca:	4666      	mov	r6, ip
 80015cc:	332c      	adds	r3, #44	@ 0x2c
 80015ce:	781b      	ldrb	r3, [r3, #0]
 80015d0:	005b      	lsls	r3, r3, #1
 80015d2:	4333      	orrs	r3, r6
 80015d4:	433b      	orrs	r3, r7
 80015d6:	430b      	orrs	r3, r1
 80015d8:	1c61      	adds	r1, r4, #1
 80015da:	7fc9      	ldrb	r1, [r1, #31]
 80015dc:	2901      	cmp	r1, #1
 80015de:	d105      	bne.n	80015ec <HAL_ADC_Init+0xc4>
 80015e0:	2a00      	cmp	r2, #0
 80015e2:	d000      	beq.n	80015e6 <HAL_ADC_Init+0xbe>
 80015e4:	e077      	b.n	80016d6 <HAL_ADC_Init+0x1ae>
 80015e6:	2280      	movs	r2, #128	@ 0x80
 80015e8:	0252      	lsls	r2, r2, #9
 80015ea:	4313      	orrs	r3, r2
 80015ec:	6a62      	ldr	r2, [r4, #36]	@ 0x24
 80015ee:	2a00      	cmp	r2, #0
 80015f0:	d005      	beq.n	80015fe <HAL_ADC_Init+0xd6>
 80015f2:	21e0      	movs	r1, #224	@ 0xe0
 80015f4:	0049      	lsls	r1, r1, #1
 80015f6:	400a      	ands	r2, r1
 80015f8:	6aa1      	ldr	r1, [r4, #40]	@ 0x28
 80015fa:	430a      	orrs	r2, r1
 80015fc:	4313      	orrs	r3, r2
 80015fe:	68ea      	ldr	r2, [r5, #12]
 8001600:	494a      	ldr	r1, [pc, #296]	@ (800172c <HAL_ADC_Init+0x204>)
 8001602:	400a      	ands	r2, r1
 8001604:	4313      	orrs	r3, r2
 8001606:	60eb      	str	r3, [r5, #12]
 8001608:	0023      	movs	r3, r4
 800160a:	6862      	ldr	r2, [r4, #4]
 800160c:	333c      	adds	r3, #60	@ 0x3c
 800160e:	6ce1      	ldr	r1, [r4, #76]	@ 0x4c
 8001610:	781b      	ldrb	r3, [r3, #0]
 8001612:	0f97      	lsrs	r7, r2, #30
 8001614:	07bf      	lsls	r7, r7, #30
 8001616:	469c      	mov	ip, r3
 8001618:	4339      	orrs	r1, r7
 800161a:	2b01      	cmp	r3, #1
 800161c:	d108      	bne.n	8001630 <HAL_ADC_Init+0x108>
 800161e:	6c23      	ldr	r3, [r4, #64]	@ 0x40
 8001620:	6c66      	ldr	r6, [r4, #68]	@ 0x44
 8001622:	4333      	orrs	r3, r6
 8001624:	430b      	orrs	r3, r1
 8001626:	6ca1      	ldr	r1, [r4, #72]	@ 0x48
 8001628:	430b      	orrs	r3, r1
 800162a:	4661      	mov	r1, ip
 800162c:	433b      	orrs	r3, r7
 800162e:	4319      	orrs	r1, r3
 8001630:	692b      	ldr	r3, [r5, #16]
 8001632:	4f3f      	ldr	r7, [pc, #252]	@ (8001730 <HAL_ADC_Init+0x208>)
 8001634:	403b      	ands	r3, r7
 8001636:	430b      	orrs	r3, r1
 8001638:	2180      	movs	r1, #128	@ 0x80
 800163a:	612b      	str	r3, [r5, #16]
 800163c:	0053      	lsls	r3, r2, #1
 800163e:	085b      	lsrs	r3, r3, #1
 8001640:	05c9      	lsls	r1, r1, #23
 8001642:	428b      	cmp	r3, r1
 8001644:	d00c      	beq.n	8001660 <HAL_ADC_Init+0x138>
 8001646:	2380      	movs	r3, #128	@ 0x80
 8001648:	061b      	lsls	r3, r3, #24
 800164a:	429a      	cmp	r2, r3
 800164c:	d008      	beq.n	8001660 <HAL_ADC_Init+0x138>
 800164e:	4939      	ldr	r1, [pc, #228]	@ (8001734 <HAL_ADC_Init+0x20c>)
 8001650:	4f39      	ldr	r7, [pc, #228]	@ (8001738 <HAL_ADC_Init+0x210>)
 8001652:	680b      	ldr	r3, [r1, #0]
 8001654:	403b      	ands	r3, r7
 8001656:	27f0      	movs	r7, #240	@ 0xf0
 8001658:	03bf      	lsls	r7, r7, #14
 800165a:	403a      	ands	r2, r7
 800165c:	4313      	orrs	r3, r2
 800165e:	600b      	str	r3, [r1, #0]
 8001660:	2107      	movs	r1, #7
 8001662:	2770      	movs	r7, #112	@ 0x70
 8001664:	696b      	ldr	r3, [r5, #20]
 8001666:	6b62      	ldr	r2, [r4, #52]	@ 0x34
 8001668:	438b      	bics	r3, r1
 800166a:	4313      	orrs	r3, r2
 800166c:	616b      	str	r3, [r5, #20]
 800166e:	6969      	ldr	r1, [r5, #20]
 8001670:	6ba3      	ldr	r3, [r4, #56]	@ 0x38
 8001672:	43b9      	bics	r1, r7
 8001674:	011b      	lsls	r3, r3, #4
 8001676:	430b      	orrs	r3, r1
 8001678:	616b      	str	r3, [r5, #20]
 800167a:	2800      	cmp	r0, #0
 800167c:	d133      	bne.n	80016e6 <HAL_ADC_Init+0x1be>
 800167e:	2310      	movs	r3, #16
 8001680:	6aa9      	ldr	r1, [r5, #40]	@ 0x28
 8001682:	425b      	negs	r3, r3
 8001684:	430b      	orrs	r3, r1
 8001686:	62ab      	str	r3, [r5, #40]	@ 0x28
 8001688:	2107      	movs	r1, #7
 800168a:	696b      	ldr	r3, [r5, #20]
 800168c:	400b      	ands	r3, r1
 800168e:	429a      	cmp	r2, r3
 8001690:	d138      	bne.n	8001704 <HAL_ADC_Init+0x1dc>
 8001692:	2300      	movs	r3, #0
 8001694:	65e3      	str	r3, [r4, #92]	@ 0x5c
 8001696:	6da2      	ldr	r2, [r4, #88]	@ 0x58
 8001698:	3303      	adds	r3, #3
 800169a:	439a      	bics	r2, r3
 800169c:	3b02      	subs	r3, #2
 800169e:	4313      	orrs	r3, r2
 80016a0:	65a3      	str	r3, [r4, #88]	@ 0x58
 80016a2:	9801      	ldr	r0, [sp, #4]
 80016a4:	b005      	add	sp, #20
 80016a6:	bdf0      	pop	{r4, r5, r6, r7, pc}
 80016a8:	68aa      	ldr	r2, [r5, #8]
 80016aa:	4924      	ldr	r1, [pc, #144]	@ (800173c <HAL_ADC_Init+0x214>)
 80016ac:	400a      	ands	r2, r1
 80016ae:	4313      	orrs	r3, r2
 80016b0:	60ab      	str	r3, [r5, #8]
 80016b2:	4b23      	ldr	r3, [pc, #140]	@ (8001740 <HAL_ADC_Init+0x218>)
 80016b4:	4923      	ldr	r1, [pc, #140]	@ (8001744 <HAL_ADC_Init+0x21c>)
 80016b6:	6818      	ldr	r0, [r3, #0]
 80016b8:	f7fe fd3a 	bl	8000130 <__udivsi3>
 80016bc:	0040      	lsls	r0, r0, #1
 80016be:	9003      	str	r0, [sp, #12]
 80016c0:	9b03      	ldr	r3, [sp, #12]
 80016c2:	2b00      	cmp	r3, #0
 80016c4:	d100      	bne.n	80016c8 <HAL_ADC_Init+0x1a0>
 80016c6:	e747      	b.n	8001558 <HAL_ADC_Init+0x30>
 80016c8:	9b03      	ldr	r3, [sp, #12]
 80016ca:	3b01      	subs	r3, #1
 80016cc:	9303      	str	r3, [sp, #12]
 80016ce:	e7f7      	b.n	80016c0 <HAL_ADC_Init+0x198>
 80016d0:	2180      	movs	r1, #128	@ 0x80
 80016d2:	0389      	lsls	r1, r1, #14
 80016d4:	e778      	b.n	80015c8 <HAL_ADC_Init+0xa0>
 80016d6:	2220      	movs	r2, #32
 80016d8:	6da7      	ldr	r7, [r4, #88]	@ 0x58
 80016da:	433a      	orrs	r2, r7
 80016dc:	65a2      	str	r2, [r4, #88]	@ 0x58
 80016de:	6de2      	ldr	r2, [r4, #92]	@ 0x5c
 80016e0:	4311      	orrs	r1, r2
 80016e2:	65e1      	str	r1, [r4, #92]	@ 0x5c
 80016e4:	e782      	b.n	80015ec <HAL_ADC_Init+0xc4>
 80016e6:	2380      	movs	r3, #128	@ 0x80
 80016e8:	039b      	lsls	r3, r3, #14
 80016ea:	4298      	cmp	r0, r3
 80016ec:	d1cc      	bne.n	8001688 <HAL_ADC_Init+0x160>
 80016ee:	211c      	movs	r1, #28
 80016f0:	6aab      	ldr	r3, [r5, #40]	@ 0x28
 80016f2:	69e3      	ldr	r3, [r4, #28]
 80016f4:	3b01      	subs	r3, #1
 80016f6:	009b      	lsls	r3, r3, #2
 80016f8:	400b      	ands	r3, r1
 80016fa:	392c      	subs	r1, #44	@ 0x2c
 80016fc:	4099      	lsls	r1, r3
 80016fe:	000b      	movs	r3, r1
 8001700:	6e21      	ldr	r1, [r4, #96]	@ 0x60
 8001702:	e7bf      	b.n	8001684 <HAL_ADC_Init+0x15c>
 8001704:	2312      	movs	r3, #18
 8001706:	6da2      	ldr	r2, [r4, #88]	@ 0x58
 8001708:	439a      	bics	r2, r3
 800170a:	3b02      	subs	r3, #2
 800170c:	4313      	orrs	r3, r2
 800170e:	65a3      	str	r3, [r4, #88]	@ 0x58
 8001710:	2301      	movs	r3, #1
 8001712:	6de2      	ldr	r2, [r4, #92]	@ 0x5c
 8001714:	4313      	orrs	r3, r2
 8001716:	65e3      	str	r3, [r4, #92]	@ 0x5c
 8001718:	2301      	movs	r3, #1
 800171a:	9301      	str	r3, [sp, #4]
 800171c:	e7c1      	b.n	80016a2 <HAL_ADC_Init+0x17a>
 800171e:	6da3      	ldr	r3, [r4, #88]	@ 0x58
 8001720:	431a      	orrs	r2, r3
 8001722:	65a2      	str	r2, [r4, #88]	@ 0x58
 8001724:	e7f8      	b.n	8001718 <HAL_ADC_Init+0x1f0>
 8001726:	46c0      	nop			@ (mov r8, r8)
 8001728:	fffffefd 	.word	0xfffffefd
 800172c:	ffde0201 	.word	0xffde0201
 8001730:	1ffffc02 	.word	0x1ffffc02
 8001734:	40012708 	.word	0x40012708
 8001738:	ffc3ffff 	.word	0xffc3ffff
 800173c:	6fffffe8 	.word	0x6fffffe8
 8001740:	20000000 	.word	0x20000000
 8001744:	00030d40 	.word	0x00030d40

08001748 <HAL_ADC_ConfigChannel>:
 8001748:	2300      	movs	r3, #0
 800174a:	b5f0      	push	{r4, r5, r6, r7, lr}
 800174c:	b085      	sub	sp, #20
 800174e:	9303      	str	r3, [sp, #12]
 8001750:	0003      	movs	r3, r0
 8001752:	9100      	str	r1, [sp, #0]
 8001754:	3354      	adds	r3, #84	@ 0x54
 8001756:	781a      	ldrb	r2, [r3, #0]
 8001758:	0004      	movs	r4, r0
 800175a:	2002      	movs	r0, #2
 800175c:	2a01      	cmp	r2, #1
 800175e:	d04d      	beq.n	80017fc <HAL_ADC_ConfigChannel+0xb4>
 8001760:	2201      	movs	r2, #1
 8001762:	6927      	ldr	r7, [r4, #16]
 8001764:	701a      	strb	r2, [r3, #0]
 8001766:	6825      	ldr	r5, [r4, #0]
 8001768:	0028      	movs	r0, r5
 800176a:	f7ff fed9 	bl	8001520 <LL_ADC_REG_IsConversionOngoing>
 800176e:	2800      	cmp	r0, #0
 8001770:	d000      	beq.n	8001774 <HAL_ADC_ConfigChannel+0x2c>
 8001772:	e0f9      	b.n	8001968 <HAL_ADC_ConfigChannel+0x220>
 8001774:	9b00      	ldr	r3, [sp, #0]
 8001776:	2204      	movs	r2, #4
 8001778:	685b      	ldr	r3, [r3, #4]
 800177a:	2180      	movs	r1, #128	@ 0x80
 800177c:	469c      	mov	ip, r3
 800177e:	4397      	bics	r7, r2
 8001780:	4662      	mov	r2, ip
 8001782:	9b00      	ldr	r3, [sp, #0]
 8001784:	0609      	lsls	r1, r1, #24
 8001786:	681b      	ldr	r3, [r3, #0]
 8001788:	2a02      	cmp	r2, #2
 800178a:	d100      	bne.n	800178e <HAL_ADC_ConfigChannel+0x46>
 800178c:	e0c7      	b.n	800191e <HAL_ADC_ConfigChannel+0x1d6>
 800178e:	025a      	lsls	r2, r3, #9
 8001790:	0a52      	lsrs	r2, r2, #9
 8001792:	428f      	cmp	r7, r1
 8001794:	d134      	bne.n	8001800 <HAL_ADC_ConfigChannel+0xb8>
 8001796:	6aa9      	ldr	r1, [r5, #40]	@ 0x28
 8001798:	430a      	orrs	r2, r1
 800179a:	62aa      	str	r2, [r5, #40]	@ 0x28
 800179c:	9a00      	ldr	r2, [sp, #0]
 800179e:	6968      	ldr	r0, [r5, #20]
 80017a0:	6892      	ldr	r2, [r2, #8]
 80017a2:	0219      	lsls	r1, r3, #8
 80017a4:	4e73      	ldr	r6, [pc, #460]	@ (8001974 <HAL_ADC_ConfigChannel+0x22c>)
 80017a6:	400a      	ands	r2, r1
 80017a8:	4032      	ands	r2, r6
 80017aa:	4388      	bics	r0, r1
 80017ac:	4302      	orrs	r2, r0
 80017ae:	616a      	str	r2, [r5, #20]
 80017b0:	2b00      	cmp	r3, #0
 80017b2:	da1f      	bge.n	80017f4 <HAL_ADC_ConfigChannel+0xac>
 80017b4:	20c0      	movs	r0, #192	@ 0xc0
 80017b6:	4a70      	ldr	r2, [pc, #448]	@ (8001978 <HAL_ADC_ConfigChannel+0x230>)
 80017b8:	4970      	ldr	r1, [pc, #448]	@ (800197c <HAL_ADC_ConfigChannel+0x234>)
 80017ba:	6815      	ldr	r5, [r2, #0]
 80017bc:	0400      	lsls	r0, r0, #16
 80017be:	4028      	ands	r0, r5
 80017c0:	428b      	cmp	r3, r1
 80017c2:	d000      	beq.n	80017c6 <HAL_ADC_ConfigChannel+0x7e>
 80017c4:	e09b      	b.n	80018fe <HAL_ADC_ConfigChannel+0x1b6>
 80017c6:	2180      	movs	r1, #128	@ 0x80
 80017c8:	0409      	lsls	r1, r1, #16
 80017ca:	420d      	tst	r5, r1
 80017cc:	d112      	bne.n	80017f4 <HAL_ADC_ConfigChannel+0xac>
 80017ce:	6813      	ldr	r3, [r2, #0]
 80017d0:	4d6b      	ldr	r5, [pc, #428]	@ (8001980 <HAL_ADC_ConfigChannel+0x238>)
 80017d2:	402b      	ands	r3, r5
 80017d4:	4303      	orrs	r3, r0
 80017d6:	4319      	orrs	r1, r3
 80017d8:	4b6a      	ldr	r3, [pc, #424]	@ (8001984 <HAL_ADC_ConfigChannel+0x23c>)
 80017da:	6011      	str	r1, [r2, #0]
 80017dc:	6818      	ldr	r0, [r3, #0]
 80017de:	496a      	ldr	r1, [pc, #424]	@ (8001988 <HAL_ADC_ConfigChannel+0x240>)
 80017e0:	f7fe fca6 	bl	8000130 <__udivsi3>
 80017e4:	230c      	movs	r3, #12
 80017e6:	4343      	muls	r3, r0
 80017e8:	3301      	adds	r3, #1
 80017ea:	9303      	str	r3, [sp, #12]
 80017ec:	9b03      	ldr	r3, [sp, #12]
 80017ee:	2b00      	cmp	r3, #0
 80017f0:	d000      	beq.n	80017f4 <HAL_ADC_ConfigChannel+0xac>
 80017f2:	e081      	b.n	80018f8 <HAL_ADC_ConfigChannel+0x1b0>
 80017f4:	2000      	movs	r0, #0
 80017f6:	2300      	movs	r3, #0
 80017f8:	3454      	adds	r4, #84	@ 0x54
 80017fa:	7023      	strb	r3, [r4, #0]
 80017fc:	b005      	add	sp, #20
 80017fe:	bdf0      	pop	{r4, r5, r6, r7, pc}
 8001800:	211f      	movs	r1, #31
 8001802:	4667      	mov	r7, ip
 8001804:	400f      	ands	r7, r1
 8001806:	3910      	subs	r1, #16
 8001808:	40b9      	lsls	r1, r7
 800180a:	43ce      	mvns	r6, r1
 800180c:	9601      	str	r6, [sp, #4]
 800180e:	6e26      	ldr	r6, [r4, #96]	@ 0x60
 8001810:	438e      	bics	r6, r1
 8001812:	0031      	movs	r1, r6
 8001814:	2a00      	cmp	r2, #0
 8001816:	d112      	bne.n	800183e <HAL_ADC_ConfigChannel+0xf6>
 8001818:	0e98      	lsrs	r0, r3, #26
 800181a:	321f      	adds	r2, #31
 800181c:	4010      	ands	r0, r2
 800181e:	40b8      	lsls	r0, r7
 8001820:	4662      	mov	r2, ip
 8001822:	4308      	orrs	r0, r1
 8001824:	0892      	lsrs	r2, r2, #2
 8001826:	69e1      	ldr	r1, [r4, #28]
 8001828:	3201      	adds	r2, #1
 800182a:	6620      	str	r0, [r4, #96]	@ 0x60
 800182c:	428a      	cmp	r2, r1
 800182e:	d8b5      	bhi.n	800179c <HAL_ADC_ConfigChannel+0x54>
 8001830:	6aa9      	ldr	r1, [r5, #40]	@ 0x28
 8001832:	9801      	ldr	r0, [sp, #4]
 8001834:	009a      	lsls	r2, r3, #2
 8001836:	0f12      	lsrs	r2, r2, #28
 8001838:	40ba      	lsls	r2, r7
 800183a:	4001      	ands	r1, r0
 800183c:	e7ac      	b.n	8001798 <HAL_ADC_ConfigChannel+0x50>
 800183e:	2201      	movs	r2, #1
 8001840:	4213      	tst	r3, r2
 8001842:	d1ec      	bne.n	800181e <HAL_ADC_ConfigChannel+0xd6>
 8001844:	1892      	adds	r2, r2, r2
 8001846:	4213      	tst	r3, r2
 8001848:	d12c      	bne.n	80018a4 <HAL_ADC_ConfigChannel+0x15c>
 800184a:	2604      	movs	r6, #4
 800184c:	4233      	tst	r3, r6
 800184e:	d12b      	bne.n	80018a8 <HAL_ADC_ConfigChannel+0x160>
 8001850:	071a      	lsls	r2, r3, #28
 8001852:	d42b      	bmi.n	80018ac <HAL_ADC_ConfigChannel+0x164>
 8001854:	06da      	lsls	r2, r3, #27
 8001856:	d42b      	bmi.n	80018b0 <HAL_ADC_ConfigChannel+0x168>
 8001858:	069a      	lsls	r2, r3, #26
 800185a:	d42b      	bmi.n	80018b4 <HAL_ADC_ConfigChannel+0x16c>
 800185c:	065a      	lsls	r2, r3, #25
 800185e:	d42b      	bmi.n	80018b8 <HAL_ADC_ConfigChannel+0x170>
 8001860:	061a      	lsls	r2, r3, #24
 8001862:	d42b      	bmi.n	80018bc <HAL_ADC_ConfigChannel+0x174>
 8001864:	05da      	lsls	r2, r3, #23
 8001866:	d42b      	bmi.n	80018c0 <HAL_ADC_ConfigChannel+0x178>
 8001868:	059a      	lsls	r2, r3, #22
 800186a:	d42b      	bmi.n	80018c4 <HAL_ADC_ConfigChannel+0x17c>
 800186c:	055a      	lsls	r2, r3, #21
 800186e:	d42b      	bmi.n	80018c8 <HAL_ADC_ConfigChannel+0x180>
 8001870:	051a      	lsls	r2, r3, #20
 8001872:	d42b      	bmi.n	80018cc <HAL_ADC_ConfigChannel+0x184>
 8001874:	04da      	lsls	r2, r3, #19
 8001876:	d42b      	bmi.n	80018d0 <HAL_ADC_ConfigChannel+0x188>
 8001878:	049a      	lsls	r2, r3, #18
 800187a:	d42b      	bmi.n	80018d4 <HAL_ADC_ConfigChannel+0x18c>
 800187c:	045a      	lsls	r2, r3, #17
 800187e:	d42b      	bmi.n	80018d8 <HAL_ADC_ConfigChannel+0x190>
 8001880:	041a      	lsls	r2, r3, #16
 8001882:	d42b      	bmi.n	80018dc <HAL_ADC_ConfigChannel+0x194>
 8001884:	03da      	lsls	r2, r3, #15
 8001886:	d42b      	bmi.n	80018e0 <HAL_ADC_ConfigChannel+0x198>
 8001888:	039a      	lsls	r2, r3, #14
 800188a:	d42b      	bmi.n	80018e4 <HAL_ADC_ConfigChannel+0x19c>
 800188c:	035a      	lsls	r2, r3, #13
 800188e:	d42b      	bmi.n	80018e8 <HAL_ADC_ConfigChannel+0x1a0>
 8001890:	031a      	lsls	r2, r3, #12
 8001892:	d42b      	bmi.n	80018ec <HAL_ADC_ConfigChannel+0x1a4>
 8001894:	02da      	lsls	r2, r3, #11
 8001896:	d42b      	bmi.n	80018f0 <HAL_ADC_ConfigChannel+0x1a8>
 8001898:	029a      	lsls	r2, r3, #10
 800189a:	d42b      	bmi.n	80018f4 <HAL_ADC_ConfigChannel+0x1ac>
 800189c:	025a      	lsls	r2, r3, #9
 800189e:	d5be      	bpl.n	800181e <HAL_ADC_ConfigChannel+0xd6>
 80018a0:	2016      	movs	r0, #22
 80018a2:	e7bc      	b.n	800181e <HAL_ADC_ConfigChannel+0xd6>
 80018a4:	2001      	movs	r0, #1
 80018a6:	e7ba      	b.n	800181e <HAL_ADC_ConfigChannel+0xd6>
 80018a8:	0010      	movs	r0, r2
 80018aa:	e7b8      	b.n	800181e <HAL_ADC_ConfigChannel+0xd6>
 80018ac:	2003      	movs	r0, #3
 80018ae:	e7b6      	b.n	800181e <HAL_ADC_ConfigChannel+0xd6>
 80018b0:	2004      	movs	r0, #4
 80018b2:	e7b4      	b.n	800181e <HAL_ADC_ConfigChannel+0xd6>
 80018b4:	2005      	movs	r0, #5
 80018b6:	e7b2      	b.n	800181e <HAL_ADC_ConfigChannel+0xd6>
 80018b8:	2006      	movs	r0, #6
 80018ba:	e7b0      	b.n	800181e <HAL_ADC_ConfigChannel+0xd6>
 80018bc:	2007      	movs	r0, #7
 80018be:	e7ae      	b.n	800181e <HAL_ADC_ConfigChannel+0xd6>
 80018c0:	2008      	movs	r0, #8
 80018c2:	e7ac      	b.n	800181e <HAL_ADC_ConfigChannel+0xd6>
 80018c4:	2009      	movs	r0, #9
 80018c6:	e7aa      	b.n	800181e <HAL_ADC_ConfigChannel+0xd6>
 80018c8:	200a      	movs	r0, #10
 80018ca:	e7a8      	b.n	800181e <HAL_ADC_ConfigChannel+0xd6>
 80018cc:	200b      	movs	r0, #11
 80018ce:	e7a6      	b.n	800181e <HAL_ADC_ConfigChannel+0xd6>
 80018d0:	200c      	movs	r0, #12
 80018d2:	e7a4      	b.n	800181e <HAL_ADC_ConfigChannel+0xd6>
 80018d4:	200d      	movs	r0, #13
 80018d6:	e7a2      	b.n	800181e <HAL_ADC_ConfigChannel+0xd6>
 80018d8:	200e      	movs	r0, #14
 80018da:	e7a0      	b.n	800181e <HAL_ADC_ConfigChannel+0xd6>
 80018dc:	200f      	movs	r0, #15
 80018de:	e79e      	b.n	800181e <HAL_ADC_ConfigChannel+0xd6>
 80018e0:	2010      	movs	r0, #16
 80018e2:	e79c      	b.n	800181e <HAL_ADC_ConfigChannel+0xd6>
 80018e4:	2011      	movs	r0, #17
 80018e6:	e79a      	b.n	800181e <HAL_ADC_ConfigChannel+0xd6>
 80018e8:	2012      	movs	r0, #18
 80018ea:	e798      	b.n	800181e <HAL_ADC_ConfigChannel+0xd6>
 80018ec:	2013      	movs	r0, #19
 80018ee:	e796      	b.n	800181e <HAL_ADC_ConfigChannel+0xd6>
 80018f0:	2014      	movs	r0, #20
 80018f2:	e794      	b.n	800181e <HAL_ADC_ConfigChannel+0xd6>
 80018f4:	2015      	movs	r0, #21
 80018f6:	e792      	b.n	800181e <HAL_ADC_ConfigChannel+0xd6>
 80018f8:	9b03      	ldr	r3, [sp, #12]
 80018fa:	3b01      	subs	r3, #1
 80018fc:	e775      	b.n	80017ea <HAL_ADC_ConfigChannel+0xa2>
 80018fe:	4923      	ldr	r1, [pc, #140]	@ (800198c <HAL_ADC_ConfigChannel+0x244>)
 8001900:	428b      	cmp	r3, r1
 8001902:	d000      	beq.n	8001906 <HAL_ADC_ConfigChannel+0x1be>
 8001904:	e776      	b.n	80017f4 <HAL_ADC_ConfigChannel+0xac>
 8001906:	2180      	movs	r1, #128	@ 0x80
 8001908:	03c9      	lsls	r1, r1, #15
 800190a:	420d      	tst	r5, r1
 800190c:	d000      	beq.n	8001910 <HAL_ADC_ConfigChannel+0x1c8>
 800190e:	e771      	b.n	80017f4 <HAL_ADC_ConfigChannel+0xac>
 8001910:	6813      	ldr	r3, [r2, #0]
 8001912:	4d1b      	ldr	r5, [pc, #108]	@ (8001980 <HAL_ADC_ConfigChannel+0x238>)
 8001914:	402b      	ands	r3, r5
 8001916:	4303      	orrs	r3, r0
 8001918:	4319      	orrs	r1, r3
 800191a:	6011      	str	r1, [r2, #0]
 800191c:	e76a      	b.n	80017f4 <HAL_ADC_ConfigChannel+0xac>
 800191e:	428f      	cmp	r7, r1
 8001920:	d104      	bne.n	800192c <HAL_ADC_ConfigChannel+0x1e4>
 8001922:	6aaa      	ldr	r2, [r5, #40]	@ 0x28
 8001924:	0259      	lsls	r1, r3, #9
 8001926:	0a49      	lsrs	r1, r1, #9
 8001928:	438a      	bics	r2, r1
 800192a:	62aa      	str	r2, [r5, #40]	@ 0x28
 800192c:	2b00      	cmp	r3, #0
 800192e:	db00      	blt.n	8001932 <HAL_ADC_ConfigChannel+0x1ea>
 8001930:	e760      	b.n	80017f4 <HAL_ADC_ConfigChannel+0xac>
 8001932:	4911      	ldr	r1, [pc, #68]	@ (8001978 <HAL_ADC_ConfigChannel+0x230>)
 8001934:	4811      	ldr	r0, [pc, #68]	@ (800197c <HAL_ADC_ConfigChannel+0x234>)
 8001936:	680a      	ldr	r2, [r1, #0]
 8001938:	4283      	cmp	r3, r0
 800193a:	d108      	bne.n	800194e <HAL_ADC_ConfigChannel+0x206>
 800193c:	2380      	movs	r3, #128	@ 0x80
 800193e:	03db      	lsls	r3, r3, #15
 8001940:	6808      	ldr	r0, [r1, #0]
 8001942:	4013      	ands	r3, r2
 8001944:	4a0e      	ldr	r2, [pc, #56]	@ (8001980 <HAL_ADC_ConfigChannel+0x238>)
 8001946:	4002      	ands	r2, r0
 8001948:	4313      	orrs	r3, r2
 800194a:	600b      	str	r3, [r1, #0]
 800194c:	e752      	b.n	80017f4 <HAL_ADC_ConfigChannel+0xac>
 800194e:	480f      	ldr	r0, [pc, #60]	@ (800198c <HAL_ADC_ConfigChannel+0x244>)
 8001950:	4283      	cmp	r3, r0
 8001952:	d000      	beq.n	8001956 <HAL_ADC_ConfigChannel+0x20e>
 8001954:	e74e      	b.n	80017f4 <HAL_ADC_ConfigChannel+0xac>
 8001956:	2080      	movs	r0, #128	@ 0x80
 8001958:	0400      	lsls	r0, r0, #16
 800195a:	680b      	ldr	r3, [r1, #0]
 800195c:	4002      	ands	r2, r0
 800195e:	4808      	ldr	r0, [pc, #32]	@ (8001980 <HAL_ADC_ConfigChannel+0x238>)
 8001960:	4003      	ands	r3, r0
 8001962:	431a      	orrs	r2, r3
 8001964:	600a      	str	r2, [r1, #0]
 8001966:	e745      	b.n	80017f4 <HAL_ADC_ConfigChannel+0xac>
 8001968:	2320      	movs	r3, #32
 800196a:	6da2      	ldr	r2, [r4, #88]	@ 0x58
 800196c:	2001      	movs	r0, #1
 800196e:	4313      	orrs	r3, r2
 8001970:	65a3      	str	r3, [r4, #88]	@ 0x58
 8001972:	e740      	b.n	80017f6 <HAL_ADC_ConfigChannel+0xae>
 8001974:	7fffff00 	.word	0x7fffff00
 8001978:	40012708 	.word	0x40012708
 800197c:	a4000200 	.word	0xa4000200
 8001980:	ff3fffff 	.word	0xff3fffff
 8001984:	20000000 	.word	0x20000000
 8001988:	00030d40 	.word	0x00030d40
 800198c:	a8000400 	.word	0xa8000400

08001990 <HAL_NVIC_SetPriority>:
 8001990:	b510      	push	{r4, lr}
 8001992:	24ff      	movs	r4, #255	@ 0xff
 8001994:	2203      	movs	r2, #3
 8001996:	000b      	movs	r3, r1
 8001998:	0021      	movs	r1, r4
 800199a:	4002      	ands	r2, r0
 800199c:	00d2      	lsls	r2, r2, #3
 800199e:	4091      	lsls	r1, r2
 80019a0:	019b      	lsls	r3, r3, #6
 80019a2:	4023      	ands	r3, r4
 80019a4:	43c9      	mvns	r1, r1
 80019a6:	4093      	lsls	r3, r2
 80019a8:	2800      	cmp	r0, #0
 80019aa:	db0a      	blt.n	80019c2 <HAL_NVIC_SetPriority+0x32>
 80019ac:	24c0      	movs	r4, #192	@ 0xc0
 80019ae:	4a0b      	ldr	r2, [pc, #44]	@ (80019dc <HAL_NVIC_SetPriority+0x4c>)
 80019b0:	0880      	lsrs	r0, r0, #2
 80019b2:	0080      	lsls	r0, r0, #2
 80019b4:	1880      	adds	r0, r0, r2
 80019b6:	00a4      	lsls	r4, r4, #2
 80019b8:	5902      	ldr	r2, [r0, r4]
 80019ba:	400a      	ands	r2, r1
 80019bc:	4313      	orrs	r3, r2
 80019be:	5103      	str	r3, [r0, r4]
 80019c0:	bd10      	pop	{r4, pc}
 80019c2:	220f      	movs	r2, #15
 80019c4:	4010      	ands	r0, r2
 80019c6:	3808      	subs	r0, #8
 80019c8:	4a05      	ldr	r2, [pc, #20]	@ (80019e0 <HAL_NVIC_SetPriority+0x50>)
 80019ca:	0880      	lsrs	r0, r0, #2
 80019cc:	0080      	lsls	r0, r0, #2
 80019ce:	1880      	adds	r0, r0, r2
 80019d0:	69c2      	ldr	r2, [r0, #28]
 80019d2:	4011      	ands	r1, r2
 80019d4:	4319      	orrs	r1, r3
 80019d6:	61c1      	str	r1, [r0, #28]
 80019d8:	e7f2      	b.n	80019c0 <HAL_NVIC_SetPriority+0x30>
 80019da:	46c0      	nop			@ (mov r8, r8)
 80019dc:	e000e100 	.word	0xe000e100
 80019e0:	e000ed00 	.word	0xe000ed00

080019e4 <HAL_SYSTICK_Config>:
 80019e4:	2280      	movs	r2, #128	@ 0x80
 80019e6:	1e43      	subs	r3, r0, #1
 80019e8:	0452      	lsls	r2, r2, #17
 80019ea:	2001      	movs	r0, #1
 80019ec:	4293      	cmp	r3, r2
 80019ee:	d20d      	bcs.n	8001a0c <HAL_SYSTICK_Config+0x28>
 80019f0:	21c0      	movs	r1, #192	@ 0xc0
 80019f2:	4a07      	ldr	r2, [pc, #28]	@ (8001a10 <HAL_SYSTICK_Config+0x2c>)
 80019f4:	4807      	ldr	r0, [pc, #28]	@ (8001a14 <HAL_SYSTICK_Config+0x30>)
 80019f6:	6053      	str	r3, [r2, #4]
 80019f8:	6a03      	ldr	r3, [r0, #32]
 80019fa:	0609      	lsls	r1, r1, #24
 80019fc:	021b      	lsls	r3, r3, #8
 80019fe:	0a1b      	lsrs	r3, r3, #8
 8001a00:	430b      	orrs	r3, r1
 8001a02:	6203      	str	r3, [r0, #32]
 8001a04:	2000      	movs	r0, #0
 8001a06:	2307      	movs	r3, #7
 8001a08:	6090      	str	r0, [r2, #8]
 8001a0a:	6013      	str	r3, [r2, #0]
 8001a0c:	4770      	bx	lr
 8001a0e:	46c0      	nop			@ (mov r8, r8)
 8001a10:	e000e010 	.word	0xe000e010
 8001a14:	e000ed00 	.word	0xe000ed00

08001a18 <HAL_GPIO_Init>:
 8001a18:	2300      	movs	r3, #0
 8001a1a:	469c      	mov	ip, r3
 8001a1c:	b5f0      	push	{r4, r5, r6, r7, lr}
 8001a1e:	b085      	sub	sp, #20
 8001a20:	680b      	ldr	r3, [r1, #0]
 8001a22:	4664      	mov	r4, ip
 8001a24:	001a      	movs	r2, r3
 8001a26:	40e2      	lsrs	r2, r4
 8001a28:	d101      	bne.n	8001a2e <HAL_GPIO_Init+0x16>
 8001a2a:	b005      	add	sp, #20
 8001a2c:	bdf0      	pop	{r4, r5, r6, r7, pc}
 8001a2e:	4662      	mov	r2, ip
 8001a30:	2601      	movs	r6, #1
 8001a32:	4096      	lsls	r6, r2
 8001a34:	001a      	movs	r2, r3
 8001a36:	4032      	ands	r2, r6
 8001a38:	9201      	str	r2, [sp, #4]
 8001a3a:	4233      	tst	r3, r6
 8001a3c:	d100      	bne.n	8001a40 <HAL_GPIO_Init+0x28>
 8001a3e:	e084      	b.n	8001b4a <HAL_GPIO_Init+0x132>
 8001a40:	684f      	ldr	r7, [r1, #4]
 8001a42:	2310      	movs	r3, #16
 8001a44:	003d      	movs	r5, r7
 8001a46:	439d      	bics	r5, r3
 8001a48:	9503      	str	r5, [sp, #12]
 8001a4a:	2d02      	cmp	r5, #2
 8001a4c:	d114      	bne.n	8001a78 <HAL_GPIO_Init+0x60>
 8001a4e:	4663      	mov	r3, ip
 8001a50:	08da      	lsrs	r2, r3, #3
 8001a52:	0092      	lsls	r2, r2, #2
 8001a54:	1882      	adds	r2, r0, r2
 8001a56:	6a13      	ldr	r3, [r2, #32]
 8001a58:	2407      	movs	r4, #7
 8001a5a:	001d      	movs	r5, r3
 8001a5c:	4663      	mov	r3, ip
 8001a5e:	401c      	ands	r4, r3
 8001a60:	230f      	movs	r3, #15
 8001a62:	00a4      	lsls	r4, r4, #2
 8001a64:	40a3      	lsls	r3, r4
 8001a66:	439d      	bics	r5, r3
 8001a68:	9502      	str	r5, [sp, #8]
 8001a6a:	250f      	movs	r5, #15
 8001a6c:	690b      	ldr	r3, [r1, #16]
 8001a6e:	402b      	ands	r3, r5
 8001a70:	40a3      	lsls	r3, r4
 8001a72:	9c02      	ldr	r4, [sp, #8]
 8001a74:	4323      	orrs	r3, r4
 8001a76:	6213      	str	r3, [r2, #32]
 8001a78:	4663      	mov	r3, ip
 8001a7a:	005a      	lsls	r2, r3, #1
 8001a7c:	2303      	movs	r3, #3
 8001a7e:	4093      	lsls	r3, r2
 8001a80:	6804      	ldr	r4, [r0, #0]
 8001a82:	43dd      	mvns	r5, r3
 8001a84:	439c      	bics	r4, r3
 8001a86:	2303      	movs	r3, #3
 8001a88:	403b      	ands	r3, r7
 8001a8a:	4093      	lsls	r3, r2
 8001a8c:	9502      	str	r5, [sp, #8]
 8001a8e:	9d03      	ldr	r5, [sp, #12]
 8001a90:	4323      	orrs	r3, r4
 8001a92:	3d01      	subs	r5, #1
 8001a94:	6003      	str	r3, [r0, #0]
 8001a96:	2d01      	cmp	r5, #1
 8001a98:	d95a      	bls.n	8001b50 <HAL_GPIO_Init+0x138>
 8001a9a:	2f03      	cmp	r7, #3
 8001a9c:	d055      	beq.n	8001b4a <HAL_GPIO_Init+0x132>
 8001a9e:	68c4      	ldr	r4, [r0, #12]
 8001aa0:	9b02      	ldr	r3, [sp, #8]
 8001aa2:	401c      	ands	r4, r3
 8001aa4:	688b      	ldr	r3, [r1, #8]
 8001aa6:	4093      	lsls	r3, r2
 8001aa8:	4323      	orrs	r3, r4
 8001aaa:	60c3      	str	r3, [r0, #12]
 8001aac:	2380      	movs	r3, #128	@ 0x80
 8001aae:	055b      	lsls	r3, r3, #21
 8001ab0:	421f      	tst	r7, r3
 8001ab2:	d04a      	beq.n	8001b4a <HAL_GPIO_Init+0x132>
 8001ab4:	4663      	mov	r3, ip
 8001ab6:	089a      	lsrs	r2, r3, #2
 8001ab8:	4b2d      	ldr	r3, [pc, #180]	@ (8001b70 <HAL_GPIO_Init+0x158>)
 8001aba:	0092      	lsls	r2, r2, #2
 8001abc:	18d2      	adds	r2, r2, r3
 8001abe:	2403      	movs	r4, #3
 8001ac0:	4663      	mov	r3, ip
 8001ac2:	401c      	ands	r4, r3
 8001ac4:	230f      	movs	r3, #15
 8001ac6:	00e4      	lsls	r4, r4, #3
 8001ac8:	40a3      	lsls	r3, r4
 8001aca:	26a0      	movs	r6, #160	@ 0xa0
 8001acc:	6e15      	ldr	r5, [r2, #96]	@ 0x60
 8001ace:	05f6      	lsls	r6, r6, #23
 8001ad0:	439d      	bics	r5, r3
 8001ad2:	2300      	movs	r3, #0
 8001ad4:	42b0      	cmp	r0, r6
 8001ad6:	d010      	beq.n	8001afa <HAL_GPIO_Init+0xe2>
 8001ad8:	4e26      	ldr	r6, [pc, #152]	@ (8001b74 <HAL_GPIO_Init+0x15c>)
 8001ada:	3301      	adds	r3, #1
 8001adc:	42b0      	cmp	r0, r6
 8001ade:	d00c      	beq.n	8001afa <HAL_GPIO_Init+0xe2>
 8001ae0:	4e25      	ldr	r6, [pc, #148]	@ (8001b78 <HAL_GPIO_Init+0x160>)
 8001ae2:	3301      	adds	r3, #1
 8001ae4:	42b0      	cmp	r0, r6
 8001ae6:	d008      	beq.n	8001afa <HAL_GPIO_Init+0xe2>
 8001ae8:	4e24      	ldr	r6, [pc, #144]	@ (8001b7c <HAL_GPIO_Init+0x164>)
 8001aea:	3301      	adds	r3, #1
 8001aec:	42b0      	cmp	r0, r6
 8001aee:	d004      	beq.n	8001afa <HAL_GPIO_Init+0xe2>
 8001af0:	4b23      	ldr	r3, [pc, #140]	@ (8001b80 <HAL_GPIO_Init+0x168>)
 8001af2:	18c3      	adds	r3, r0, r3
 8001af4:	1e5e      	subs	r6, r3, #1
 8001af6:	41b3      	sbcs	r3, r6
 8001af8:	3305      	adds	r3, #5
 8001afa:	40a3      	lsls	r3, r4
 8001afc:	432b      	orrs	r3, r5
 8001afe:	6613      	str	r3, [r2, #96]	@ 0x60
 8001b00:	4b20      	ldr	r3, [pc, #128]	@ (8001b84 <HAL_GPIO_Init+0x16c>)
 8001b02:	9a01      	ldr	r2, [sp, #4]
 8001b04:	6fdd      	ldr	r5, [r3, #124]	@ 0x7c
 8001b06:	9c01      	ldr	r4, [sp, #4]
 8001b08:	43d2      	mvns	r2, r2
 8001b0a:	432c      	orrs	r4, r5
 8001b0c:	03fe      	lsls	r6, r7, #15
 8001b0e:	d401      	bmi.n	8001b14 <HAL_GPIO_Init+0xfc>
 8001b10:	002c      	movs	r4, r5
 8001b12:	4014      	ands	r4, r2
 8001b14:	67dc      	str	r4, [r3, #124]	@ 0x7c
 8001b16:	4c1c      	ldr	r4, [pc, #112]	@ (8001b88 <HAL_GPIO_Init+0x170>)
 8001b18:	9d01      	ldr	r5, [sp, #4]
 8001b1a:	6fe3      	ldr	r3, [r4, #124]	@ 0x7c
 8001b1c:	431d      	orrs	r5, r3
 8001b1e:	03be      	lsls	r6, r7, #14
 8001b20:	d401      	bmi.n	8001b26 <HAL_GPIO_Init+0x10e>
 8001b22:	4013      	ands	r3, r2
 8001b24:	001d      	movs	r5, r3
 8001b26:	4b12      	ldr	r3, [pc, #72]	@ (8001b70 <HAL_GPIO_Init+0x158>)
 8001b28:	67e5      	str	r5, [r4, #124]	@ 0x7c
 8001b2a:	681d      	ldr	r5, [r3, #0]
 8001b2c:	9c01      	ldr	r4, [sp, #4]
 8001b2e:	432c      	orrs	r4, r5
 8001b30:	02fe      	lsls	r6, r7, #11
 8001b32:	d401      	bmi.n	8001b38 <HAL_GPIO_Init+0x120>
 8001b34:	002c      	movs	r4, r5
 8001b36:	4014      	ands	r4, r2
 8001b38:	601c      	str	r4, [r3, #0]
 8001b3a:	685c      	ldr	r4, [r3, #4]
 8001b3c:	9d01      	ldr	r5, [sp, #4]
 8001b3e:	4325      	orrs	r5, r4
 8001b40:	02bf      	lsls	r7, r7, #10
 8001b42:	d401      	bmi.n	8001b48 <HAL_GPIO_Init+0x130>
 8001b44:	4014      	ands	r4, r2
 8001b46:	0025      	movs	r5, r4
 8001b48:	605d      	str	r5, [r3, #4]
 8001b4a:	2301      	movs	r3, #1
 8001b4c:	449c      	add	ip, r3
 8001b4e:	e767      	b.n	8001a20 <HAL_GPIO_Init+0x8>
 8001b50:	6884      	ldr	r4, [r0, #8]
 8001b52:	9b02      	ldr	r3, [sp, #8]
 8001b54:	4665      	mov	r5, ip
 8001b56:	401c      	ands	r4, r3
 8001b58:	68cb      	ldr	r3, [r1, #12]
 8001b5a:	4093      	lsls	r3, r2
 8001b5c:	4323      	orrs	r3, r4
 8001b5e:	6083      	str	r3, [r0, #8]
 8001b60:	093b      	lsrs	r3, r7, #4
 8001b62:	40ab      	lsls	r3, r5
 8001b64:	6844      	ldr	r4, [r0, #4]
 8001b66:	43b4      	bics	r4, r6
 8001b68:	4323      	orrs	r3, r4
 8001b6a:	6043      	str	r3, [r0, #4]
 8001b6c:	e797      	b.n	8001a9e <HAL_GPIO_Init+0x86>
 8001b6e:	46c0      	nop			@ (mov r8, r8)
 8001b70:	40021800 	.word	0x40021800
 8001b74:	50000400 	.word	0x50000400
 8001b78:	50000800 	.word	0x50000800
 8001b7c:	50000c00 	.word	0x50000c00
 8001b80:	afffec00 	.word	0xafffec00
 8001b84:	40021804 	.word	0x40021804
 8001b88:	40021808 	.word	0x40021808

08001b8c <HAL_GPIO_ReadPin>:
 8001b8c:	6900      	ldr	r0, [r0, #16]
 8001b8e:	4008      	ands	r0, r1
 8001b90:	1e43      	subs	r3, r0, #1
 8001b92:	4198      	sbcs	r0, r3
 8001b94:	b2c0      	uxtb	r0, r0
 8001b96:	4770      	bx	lr

08001b98 <HAL_GPIO_WritePin>:
 8001b98:	2a00      	cmp	r2, #0
 8001b9a:	d001      	beq.n	8001ba0 <HAL_GPIO_WritePin+0x8>
 8001b9c:	6181      	str	r1, [r0, #24]
 8001b9e:	4770      	bx	lr
 8001ba0:	6281      	str	r1, [r0, #40]	@ 0x28
 8001ba2:	e7fc      	b.n	8001b9e <HAL_GPIO_WritePin+0x6>

08001ba4 <I2C_Flush_TXDR>:
 8001ba4:	6803      	ldr	r3, [r0, #0]
 8001ba6:	699a      	ldr	r2, [r3, #24]
 8001ba8:	0792      	lsls	r2, r2, #30
 8001baa:	d501      	bpl.n	8001bb0 <I2C_Flush_TXDR+0xc>
 8001bac:	2200      	movs	r2, #0
 8001bae:	629a      	str	r2, [r3, #40]	@ 0x28
 8001bb0:	2201      	movs	r2, #1
 8001bb2:	6999      	ldr	r1, [r3, #24]
 8001bb4:	4211      	tst	r1, r2
 8001bb6:	d102      	bne.n	8001bbe <I2C_Flush_TXDR+0x1a>
 8001bb8:	6999      	ldr	r1, [r3, #24]
 8001bba:	430a      	orrs	r2, r1
 8001bbc:	619a      	str	r2, [r3, #24]
 8001bbe:	4770      	bx	lr

08001bc0 <I2C_TransferConfig>:
 8001bc0:	b530      	push	{r4, r5, lr}
 8001bc2:	9c03      	ldr	r4, [sp, #12]
 8001bc4:	6800      	ldr	r0, [r0, #0]
 8001bc6:	4323      	orrs	r3, r4
 8001bc8:	0412      	lsls	r2, r2, #16
 8001bca:	0589      	lsls	r1, r1, #22
 8001bcc:	431a      	orrs	r2, r3
 8001bce:	0d89      	lsrs	r1, r1, #22
 8001bd0:	4b05      	ldr	r3, [pc, #20]	@ (8001be8 <I2C_TransferConfig+0x28>)
 8001bd2:	6845      	ldr	r5, [r0, #4]
 8001bd4:	430a      	orrs	r2, r1
 8001bd6:	0d64      	lsrs	r4, r4, #21
 8001bd8:	4323      	orrs	r3, r4
 8001bda:	0052      	lsls	r2, r2, #1
 8001bdc:	439d      	bics	r5, r3
 8001bde:	0852      	lsrs	r2, r2, #1
 8001be0:	432a      	orrs	r2, r5
 8001be2:	6042      	str	r2, [r0, #4]
 8001be4:	bd30      	pop	{r4, r5, pc}
 8001be6:	46c0      	nop			@ (mov r8, r8)
 8001be8:	03ff63ff 	.word	0x03ff63ff

08001bec <I2C_IsErrorOccurred>:
 8001bec:	b5f7      	push	{r0, r1, r2, r4, r5, r6, r7, lr}
 8001bee:	0015      	movs	r5, r2
 8001bf0:	6802      	ldr	r2, [r0, #0]
 8001bf2:	000e      	movs	r6, r1
 8001bf4:	6991      	ldr	r1, [r2, #24]
 8001bf6:	2310      	movs	r3, #16
 8001bf8:	000f      	movs	r7, r1
 8001bfa:	0004      	movs	r4, r0
 8001bfc:	401f      	ands	r7, r3
 8001bfe:	2000      	movs	r0, #0
 8001c00:	4219      	tst	r1, r3
 8001c02:	d00d      	beq.n	8001c20 <I2C_IsErrorOccurred+0x34>
 8001c04:	0007      	movs	r7, r0
 8001c06:	61d3      	str	r3, [r2, #28]
 8001c08:	9001      	str	r0, [sp, #4]
 8001c0a:	6823      	ldr	r3, [r4, #0]
 8001c0c:	2120      	movs	r1, #32
 8001c0e:	699a      	ldr	r2, [r3, #24]
 8001c10:	420a      	tst	r2, r1
 8001c12:	d15f      	bne.n	8001cd4 <I2C_IsErrorOccurred+0xe8>
 8001c14:	2f00      	cmp	r7, #0
 8001c16:	d031      	beq.n	8001c7c <I2C_IsErrorOccurred+0x90>
 8001c18:	2704      	movs	r7, #4
 8001c1a:	2001      	movs	r0, #1
 8001c1c:	9b01      	ldr	r3, [sp, #4]
 8001c1e:	431f      	orrs	r7, r3
 8001c20:	2280      	movs	r2, #128	@ 0x80
 8001c22:	6825      	ldr	r5, [r4, #0]
 8001c24:	0052      	lsls	r2, r2, #1
 8001c26:	69ab      	ldr	r3, [r5, #24]
 8001c28:	4213      	tst	r3, r2
 8001c2a:	d002      	beq.n	8001c32 <I2C_IsErrorOccurred+0x46>
 8001c2c:	2001      	movs	r0, #1
 8001c2e:	61ea      	str	r2, [r5, #28]
 8001c30:	4307      	orrs	r7, r0
 8001c32:	2280      	movs	r2, #128	@ 0x80
 8001c34:	00d2      	lsls	r2, r2, #3
 8001c36:	4213      	tst	r3, r2
 8001c38:	d003      	beq.n	8001c42 <I2C_IsErrorOccurred+0x56>
 8001c3a:	2108      	movs	r1, #8
 8001c3c:	2001      	movs	r0, #1
 8001c3e:	430f      	orrs	r7, r1
 8001c40:	61ea      	str	r2, [r5, #28]
 8001c42:	2280      	movs	r2, #128	@ 0x80
 8001c44:	0092      	lsls	r2, r2, #2
 8001c46:	4213      	tst	r3, r2
 8001c48:	d049      	beq.n	8001cde <I2C_IsErrorOccurred+0xf2>
 8001c4a:	2302      	movs	r3, #2
 8001c4c:	61ea      	str	r2, [r5, #28]
 8001c4e:	431f      	orrs	r7, r3
 8001c50:	0020      	movs	r0, r4
 8001c52:	f7ff ffa7 	bl	8001ba4 <I2C_Flush_TXDR>
 8001c56:	686b      	ldr	r3, [r5, #4]
 8001c58:	4a22      	ldr	r2, [pc, #136]	@ (8001ce4 <I2C_IsErrorOccurred+0xf8>)
 8001c5a:	2001      	movs	r0, #1
 8001c5c:	4013      	ands	r3, r2
 8001c5e:	606b      	str	r3, [r5, #4]
 8001c60:	6c63      	ldr	r3, [r4, #68]	@ 0x44
 8001c62:	2220      	movs	r2, #32
 8001c64:	433b      	orrs	r3, r7
 8001c66:	6463      	str	r3, [r4, #68]	@ 0x44
 8001c68:	0023      	movs	r3, r4
 8001c6a:	3341      	adds	r3, #65	@ 0x41
 8001c6c:	701a      	strb	r2, [r3, #0]
 8001c6e:	0022      	movs	r2, r4
 8001c70:	2300      	movs	r3, #0
 8001c72:	3242      	adds	r2, #66	@ 0x42
 8001c74:	3440      	adds	r4, #64	@ 0x40
 8001c76:	7013      	strb	r3, [r2, #0]
 8001c78:	7023      	strb	r3, [r4, #0]
 8001c7a:	e032      	b.n	8001ce2 <I2C_IsErrorOccurred+0xf6>
 8001c7c:	1c72      	adds	r2, r6, #1
 8001c7e:	d0c5      	beq.n	8001c0c <I2C_IsErrorOccurred+0x20>
 8001c80:	f7ff fc48 	bl	8001514 <HAL_GetTick>
 8001c84:	1b40      	subs	r0, r0, r5
 8001c86:	42b0      	cmp	r0, r6
 8001c88:	d801      	bhi.n	8001c8e <I2C_IsErrorOccurred+0xa2>
 8001c8a:	2e00      	cmp	r6, #0
 8001c8c:	d1bd      	bne.n	8001c0a <I2C_IsErrorOccurred+0x1e>
 8001c8e:	0022      	movs	r2, r4
 8001c90:	6823      	ldr	r3, [r4, #0]
 8001c92:	3242      	adds	r2, #66	@ 0x42
 8001c94:	6858      	ldr	r0, [r3, #4]
 8001c96:	7811      	ldrb	r1, [r2, #0]
 8001c98:	699a      	ldr	r2, [r3, #24]
 8001c9a:	b2c9      	uxtb	r1, r1
 8001c9c:	0412      	lsls	r2, r2, #16
 8001c9e:	d50b      	bpl.n	8001cb8 <I2C_IsErrorOccurred+0xcc>
 8001ca0:	2280      	movs	r2, #128	@ 0x80
 8001ca2:	01d2      	lsls	r2, r2, #7
 8001ca4:	4210      	tst	r0, r2
 8001ca6:	d107      	bne.n	8001cb8 <I2C_IsErrorOccurred+0xcc>
 8001ca8:	2920      	cmp	r1, #32
 8001caa:	d005      	beq.n	8001cb8 <I2C_IsErrorOccurred+0xcc>
 8001cac:	6859      	ldr	r1, [r3, #4]
 8001cae:	430a      	orrs	r2, r1
 8001cb0:	605a      	str	r2, [r3, #4]
 8001cb2:	f7ff fc2f 	bl	8001514 <HAL_GetTick>
 8001cb6:	0005      	movs	r5, r0
 8001cb8:	2220      	movs	r2, #32
 8001cba:	6823      	ldr	r3, [r4, #0]
 8001cbc:	699b      	ldr	r3, [r3, #24]
 8001cbe:	4213      	tst	r3, r2
 8001cc0:	d1a3      	bne.n	8001c0a <I2C_IsErrorOccurred+0x1e>
 8001cc2:	f7ff fc27 	bl	8001514 <HAL_GetTick>
 8001cc6:	1b40      	subs	r0, r0, r5
 8001cc8:	2819      	cmp	r0, #25
 8001cca:	d9f5      	bls.n	8001cb8 <I2C_IsErrorOccurred+0xcc>
 8001ccc:	2320      	movs	r3, #32
 8001cce:	2701      	movs	r7, #1
 8001cd0:	9301      	str	r3, [sp, #4]
 8001cd2:	e79a      	b.n	8001c0a <I2C_IsErrorOccurred+0x1e>
 8001cd4:	2f00      	cmp	r7, #0
 8001cd6:	d19f      	bne.n	8001c18 <I2C_IsErrorOccurred+0x2c>
 8001cd8:	2220      	movs	r2, #32
 8001cda:	61da      	str	r2, [r3, #28]
 8001cdc:	e79c      	b.n	8001c18 <I2C_IsErrorOccurred+0x2c>
 8001cde:	2800      	cmp	r0, #0
 8001ce0:	d1b6      	bne.n	8001c50 <I2C_IsErrorOccurred+0x64>
 8001ce2:	bdfe      	pop	{r1, r2, r3, r4, r5, r6, r7, pc}
 8001ce4:	fe00e800 	.word	0xfe00e800

08001ce8 <I2C_WaitOnTXISFlagUntilTimeout>:
 8001ce8:	b5f8      	push	{r3, r4, r5, r6, r7, lr}
 8001cea:	0004      	movs	r4, r0
 8001cec:	000d      	movs	r5, r1
 8001cee:	0016      	movs	r6, r2
 8001cf0:	2702      	movs	r7, #2
 8001cf2:	6823      	ldr	r3, [r4, #0]
 8001cf4:	699b      	ldr	r3, [r3, #24]
 8001cf6:	423b      	tst	r3, r7
 8001cf8:	d001      	beq.n	8001cfe <I2C_WaitOnTXISFlagUntilTimeout+0x16>
 8001cfa:	2000      	movs	r0, #0
 8001cfc:	e021      	b.n	8001d42 <I2C_WaitOnTXISFlagUntilTimeout+0x5a>
 8001cfe:	0032      	movs	r2, r6
 8001d00:	0029      	movs	r1, r5
 8001d02:	0020      	movs	r0, r4
 8001d04:	f7ff ff72 	bl	8001bec <I2C_IsErrorOccurred>
 8001d08:	2800      	cmp	r0, #0
 8001d0a:	d119      	bne.n	8001d40 <I2C_WaitOnTXISFlagUntilTimeout+0x58>
 8001d0c:	1c6b      	adds	r3, r5, #1
 8001d0e:	d0f0      	beq.n	8001cf2 <I2C_WaitOnTXISFlagUntilTimeout+0xa>
 8001d10:	f7ff fc00 	bl	8001514 <HAL_GetTick>
 8001d14:	1b80      	subs	r0, r0, r6
 8001d16:	42a8      	cmp	r0, r5
 8001d18:	d801      	bhi.n	8001d1e <I2C_WaitOnTXISFlagUntilTimeout+0x36>
 8001d1a:	2d00      	cmp	r5, #0
 8001d1c:	d1e9      	bne.n	8001cf2 <I2C_WaitOnTXISFlagUntilTimeout+0xa>
 8001d1e:	6823      	ldr	r3, [r4, #0]
 8001d20:	6999      	ldr	r1, [r3, #24]
 8001d22:	2302      	movs	r3, #2
 8001d24:	000a      	movs	r2, r1
 8001d26:	401a      	ands	r2, r3
 8001d28:	4219      	tst	r1, r3
 8001d2a:	d1e2      	bne.n	8001cf2 <I2C_WaitOnTXISFlagUntilTimeout+0xa>
 8001d2c:	2120      	movs	r1, #32
 8001d2e:	6c63      	ldr	r3, [r4, #68]	@ 0x44
 8001d30:	430b      	orrs	r3, r1
 8001d32:	6463      	str	r3, [r4, #68]	@ 0x44
 8001d34:	0023      	movs	r3, r4
 8001d36:	3440      	adds	r4, #64	@ 0x40
 8001d38:	3341      	adds	r3, #65	@ 0x41
 8001d3a:	7019      	strb	r1, [r3, #0]
 8001d3c:	705a      	strb	r2, [r3, #1]
 8001d3e:	7022      	strb	r2, [r4, #0]
 8001d40:	2001      	movs	r0, #1
 8001d42:	bdf8      	pop	{r3, r4, r5, r6, r7, pc}

08001d44 <I2C_WaitOnFlagUntilTimeout>:
 8001d44:	b5f8      	push	{r3, r4, r5, r6, r7, lr}
 8001d46:	0004      	movs	r4, r0
 8001d48:	000d      	movs	r5, r1
 8001d4a:	0017      	movs	r7, r2
 8001d4c:	001e      	movs	r6, r3
 8001d4e:	6823      	ldr	r3, [r4, #0]
 8001d50:	699b      	ldr	r3, [r3, #24]
 8001d52:	402b      	ands	r3, r5
 8001d54:	1b5b      	subs	r3, r3, r5
 8001d56:	425a      	negs	r2, r3
 8001d58:	4153      	adcs	r3, r2
 8001d5a:	42bb      	cmp	r3, r7
 8001d5c:	d001      	beq.n	8001d62 <I2C_WaitOnFlagUntilTimeout+0x1e>
 8001d5e:	2000      	movs	r0, #0
 8001d60:	e026      	b.n	8001db0 <I2C_WaitOnFlagUntilTimeout+0x6c>
 8001d62:	0031      	movs	r1, r6
 8001d64:	0020      	movs	r0, r4
 8001d66:	9a06      	ldr	r2, [sp, #24]
 8001d68:	f7ff ff40 	bl	8001bec <I2C_IsErrorOccurred>
 8001d6c:	2800      	cmp	r0, #0
 8001d6e:	d11e      	bne.n	8001dae <I2C_WaitOnFlagUntilTimeout+0x6a>
 8001d70:	1c73      	adds	r3, r6, #1
 8001d72:	d0ec      	beq.n	8001d4e <I2C_WaitOnFlagUntilTimeout+0xa>
 8001d74:	f7ff fbce 	bl	8001514 <HAL_GetTick>
 8001d78:	9b06      	ldr	r3, [sp, #24]
 8001d7a:	1ac0      	subs	r0, r0, r3
 8001d7c:	42b0      	cmp	r0, r6
 8001d7e:	d801      	bhi.n	8001d84 <I2C_WaitOnFlagUntilTimeout+0x40>
 8001d80:	2e00      	cmp	r6, #0
 8001d82:	d1e4      	bne.n	8001d4e <I2C_WaitOnFlagUntilTimeout+0xa>
 8001d84:	6823      	ldr	r3, [r4, #0]
 8001d86:	699b      	ldr	r3, [r3, #24]
 8001d88:	402b      	ands	r3, r5
 8001d8a:	1b5b      	subs	r3, r3, r5
 8001d8c:	425a      	negs	r2, r3
 8001d8e:	4153      	adcs	r3, r2
 8001d90:	42bb      	cmp	r3, r7
 8001d92:	d1dc      	bne.n	8001d4e <I2C_WaitOnFlagUntilTimeout+0xa>
 8001d94:	2220      	movs	r2, #32
 8001d96:	6c63      	ldr	r3, [r4, #68]	@ 0x44
 8001d98:	4313      	orrs	r3, r2
 8001d9a:	6463      	str	r3, [r4, #68]	@ 0x44
 8001d9c:	0023      	movs	r3, r4
 8001d9e:	3341      	adds	r3, #65	@ 0x41
 8001da0:	701a      	strb	r2, [r3, #0]
 8001da2:	0022      	movs	r2, r4
 8001da4:	2300      	movs	r3, #0
 8001da6:	3242      	adds	r2, #66	@ 0x42
 8001da8:	3440      	adds	r4, #64	@ 0x40
 8001daa:	7013      	strb	r3, [r2, #0]
 8001dac:	7023      	strb	r3, [r4, #0]
 8001dae:	2001      	movs	r0, #1
 8001db0:	bdf8      	pop	{r3, r4, r5, r6, r7, pc}

08001db2 <I2C_WaitOnSTOPFlagUntilTimeout>:
 8001db2:	b5f8      	push	{r3, r4, r5, r6, r7, lr}
 8001db4:	0004      	movs	r4, r0
 8001db6:	000e      	movs	r6, r1
 8001db8:	0017      	movs	r7, r2
 8001dba:	2520      	movs	r5, #32
 8001dbc:	6823      	ldr	r3, [r4, #0]
 8001dbe:	699b      	ldr	r3, [r3, #24]
 8001dc0:	422b      	tst	r3, r5
 8001dc2:	d001      	beq.n	8001dc8 <I2C_WaitOnSTOPFlagUntilTimeout+0x16>
 8001dc4:	2000      	movs	r0, #0
 8001dc6:	e01d      	b.n	8001e04 <I2C_WaitOnSTOPFlagUntilTimeout+0x52>
 8001dc8:	003a      	movs	r2, r7
 8001dca:	0031      	movs	r1, r6
 8001dcc:	0020      	movs	r0, r4
 8001dce:	f7ff ff0d 	bl	8001bec <I2C_IsErrorOccurred>
 8001dd2:	2800      	cmp	r0, #0
 8001dd4:	d115      	bne.n	8001e02 <I2C_WaitOnSTOPFlagUntilTimeout+0x50>
 8001dd6:	f7ff fb9d 	bl	8001514 <HAL_GetTick>
 8001dda:	1bc0      	subs	r0, r0, r7
 8001ddc:	42b0      	cmp	r0, r6
 8001dde:	d801      	bhi.n	8001de4 <I2C_WaitOnSTOPFlagUntilTimeout+0x32>
 8001de0:	2e00      	cmp	r6, #0
 8001de2:	d1eb      	bne.n	8001dbc <I2C_WaitOnSTOPFlagUntilTimeout+0xa>
 8001de4:	6823      	ldr	r3, [r4, #0]
 8001de6:	699b      	ldr	r3, [r3, #24]
 8001de8:	001a      	movs	r2, r3
 8001dea:	402a      	ands	r2, r5
 8001dec:	422b      	tst	r3, r5
 8001dee:	d1e5      	bne.n	8001dbc <I2C_WaitOnSTOPFlagUntilTimeout+0xa>
 8001df0:	6c63      	ldr	r3, [r4, #68]	@ 0x44
 8001df2:	432b      	orrs	r3, r5
 8001df4:	6463      	str	r3, [r4, #68]	@ 0x44
 8001df6:	0023      	movs	r3, r4
 8001df8:	3440      	adds	r4, #64	@ 0x40
 8001dfa:	3341      	adds	r3, #65	@ 0x41
 8001dfc:	701d      	strb	r5, [r3, #0]
 8001dfe:	705a      	strb	r2, [r3, #1]
 8001e00:	7022      	strb	r2, [r4, #0]
 8001e02:	2001      	movs	r0, #1
 8001e04:	bdf8      	pop	{r3, r4, r5, r6, r7, pc}
	...

08001e08 <HAL_I2C_Init>:
 8001e08:	b570      	push	{r4, r5, r6, lr}
 8001e0a:	0004      	movs	r4, r0
 8001e0c:	2001      	movs	r0, #1
 8001e0e:	2c00      	cmp	r4, #0
 8001e10:	d04e      	beq.n	8001eb0 <HAL_I2C_Init+0xa8>
 8001e12:	0025      	movs	r5, r4
 8001e14:	3541      	adds	r5, #65	@ 0x41
 8001e16:	782b      	ldrb	r3, [r5, #0]
 8001e18:	b2da      	uxtb	r2, r3
 8001e1a:	2b00      	cmp	r3, #0
 8001e1c:	d105      	bne.n	8001e2a <HAL_I2C_Init+0x22>
 8001e1e:	0023      	movs	r3, r4
 8001e20:	3340      	adds	r3, #64	@ 0x40
 8001e22:	0020      	movs	r0, r4
 8001e24:	701a      	strb	r2, [r3, #0]
 8001e26:	f7ff f93f 	bl	80010a8 <HAL_I2C_MspInit>
 8001e2a:	2324      	movs	r3, #36	@ 0x24
 8001e2c:	2101      	movs	r1, #1
 8001e2e:	702b      	strb	r3, [r5, #0]
 8001e30:	6823      	ldr	r3, [r4, #0]
 8001e32:	68e0      	ldr	r0, [r4, #12]
 8001e34:	681a      	ldr	r2, [r3, #0]
 8001e36:	68a6      	ldr	r6, [r4, #8]
 8001e38:	438a      	bics	r2, r1
 8001e3a:	601a      	str	r2, [r3, #0]
 8001e3c:	491d      	ldr	r1, [pc, #116]	@ (8001eb4 <HAL_I2C_Init+0xac>)
 8001e3e:	6862      	ldr	r2, [r4, #4]
 8001e40:	400a      	ands	r2, r1
 8001e42:	611a      	str	r2, [r3, #16]
 8001e44:	689a      	ldr	r2, [r3, #8]
 8001e46:	491c      	ldr	r1, [pc, #112]	@ (8001eb8 <HAL_I2C_Init+0xb0>)
 8001e48:	400a      	ands	r2, r1
 8001e4a:	609a      	str	r2, [r3, #8]
 8001e4c:	2801      	cmp	r0, #1
 8001e4e:	d107      	bne.n	8001e60 <HAL_I2C_Init+0x58>
 8001e50:	2280      	movs	r2, #128	@ 0x80
 8001e52:	0212      	lsls	r2, r2, #8
 8001e54:	4332      	orrs	r2, r6
 8001e56:	609a      	str	r2, [r3, #8]
 8001e58:	685a      	ldr	r2, [r3, #4]
 8001e5a:	4818      	ldr	r0, [pc, #96]	@ (8001ebc <HAL_I2C_Init+0xb4>)
 8001e5c:	4002      	ands	r2, r0
 8001e5e:	e009      	b.n	8001e74 <HAL_I2C_Init+0x6c>
 8001e60:	2284      	movs	r2, #132	@ 0x84
 8001e62:	0212      	lsls	r2, r2, #8
 8001e64:	4332      	orrs	r2, r6
 8001e66:	609a      	str	r2, [r3, #8]
 8001e68:	2802      	cmp	r0, #2
 8001e6a:	d1f5      	bne.n	8001e58 <HAL_I2C_Init+0x50>
 8001e6c:	2280      	movs	r2, #128	@ 0x80
 8001e6e:	6858      	ldr	r0, [r3, #4]
 8001e70:	0112      	lsls	r2, r2, #4
 8001e72:	4302      	orrs	r2, r0
 8001e74:	605a      	str	r2, [r3, #4]
 8001e76:	6858      	ldr	r0, [r3, #4]
 8001e78:	4a11      	ldr	r2, [pc, #68]	@ (8001ec0 <HAL_I2C_Init+0xb8>)
 8001e7a:	4302      	orrs	r2, r0
 8001e7c:	605a      	str	r2, [r3, #4]
 8001e7e:	68da      	ldr	r2, [r3, #12]
 8001e80:	2000      	movs	r0, #0
 8001e82:	400a      	ands	r2, r1
 8001e84:	60da      	str	r2, [r3, #12]
 8001e86:	6961      	ldr	r1, [r4, #20]
 8001e88:	6922      	ldr	r2, [r4, #16]
 8001e8a:	430a      	orrs	r2, r1
 8001e8c:	69a1      	ldr	r1, [r4, #24]
 8001e8e:	0209      	lsls	r1, r1, #8
 8001e90:	430a      	orrs	r2, r1
 8001e92:	60da      	str	r2, [r3, #12]
 8001e94:	6a21      	ldr	r1, [r4, #32]
 8001e96:	69e2      	ldr	r2, [r4, #28]
 8001e98:	430a      	orrs	r2, r1
 8001e9a:	601a      	str	r2, [r3, #0]
 8001e9c:	2201      	movs	r2, #1
 8001e9e:	6819      	ldr	r1, [r3, #0]
 8001ea0:	430a      	orrs	r2, r1
 8001ea2:	601a      	str	r2, [r3, #0]
 8001ea4:	2320      	movs	r3, #32
 8001ea6:	6460      	str	r0, [r4, #68]	@ 0x44
 8001ea8:	702b      	strb	r3, [r5, #0]
 8001eaa:	6320      	str	r0, [r4, #48]	@ 0x30
 8001eac:	3442      	adds	r4, #66	@ 0x42
 8001eae:	7020      	strb	r0, [r4, #0]
 8001eb0:	bd70      	pop	{r4, r5, r6, pc}
 8001eb2:	46c0      	nop			@ (mov r8, r8)
 8001eb4:	f0ffffff 	.word	0xf0ffffff
 8001eb8:	ffff7fff 	.word	0xffff7fff
 8001ebc:	fffff7ff 	.word	0xfffff7ff
 8001ec0:	02008000 	.word	0x02008000

08001ec4 <HAL_I2C_Mem_Write>:
 8001ec4:	b5f0      	push	{r4, r5, r6, r7, lr}
 8001ec6:	0007      	movs	r7, r0
 8001ec8:	b087      	sub	sp, #28
 8001eca:	9303      	str	r3, [sp, #12]
 8001ecc:	ab0c      	add	r3, sp, #48	@ 0x30
 8001ece:	9202      	str	r2, [sp, #8]
 8001ed0:	cb04      	ldmia	r3!, {r2}
 8001ed2:	3741      	adds	r7, #65	@ 0x41
 8001ed4:	881b      	ldrh	r3, [r3, #0]
 8001ed6:	9204      	str	r2, [sp, #16]
 8001ed8:	9305      	str	r3, [sp, #20]
 8001eda:	783b      	ldrb	r3, [r7, #0]
 8001edc:	0004      	movs	r4, r0
 8001ede:	000e      	movs	r6, r1
 8001ee0:	2002      	movs	r0, #2
 8001ee2:	2b20      	cmp	r3, #32
 8001ee4:	d108      	bne.n	8001ef8 <HAL_I2C_Mem_Write+0x34>
 8001ee6:	2a00      	cmp	r2, #0
 8001ee8:	d002      	beq.n	8001ef0 <HAL_I2C_Mem_Write+0x2c>
 8001eea:	9b05      	ldr	r3, [sp, #20]
 8001eec:	2b00      	cmp	r3, #0
 8001eee:	d105      	bne.n	8001efc <HAL_I2C_Mem_Write+0x38>
 8001ef0:	2380      	movs	r3, #128	@ 0x80
 8001ef2:	009b      	lsls	r3, r3, #2
 8001ef4:	6463      	str	r3, [r4, #68]	@ 0x44
 8001ef6:	2001      	movs	r0, #1
 8001ef8:	b007      	add	sp, #28
 8001efa:	bdf0      	pop	{r4, r5, r6, r7, pc}
 8001efc:	0023      	movs	r3, r4
 8001efe:	3340      	adds	r3, #64	@ 0x40
 8001f00:	781a      	ldrb	r2, [r3, #0]
 8001f02:	2002      	movs	r0, #2
 8001f04:	2a01      	cmp	r2, #1
 8001f06:	d0f7      	beq.n	8001ef8 <HAL_I2C_Mem_Write+0x34>
 8001f08:	2201      	movs	r2, #1
 8001f0a:	701a      	strb	r2, [r3, #0]
 8001f0c:	f7ff fb02 	bl	8001514 <HAL_GetTick>
 8001f10:	2180      	movs	r1, #128	@ 0x80
 8001f12:	0005      	movs	r5, r0
 8001f14:	9000      	str	r0, [sp, #0]
 8001f16:	2319      	movs	r3, #25
 8001f18:	2201      	movs	r2, #1
 8001f1a:	0020      	movs	r0, r4
 8001f1c:	0209      	lsls	r1, r1, #8
 8001f1e:	f7ff ff11 	bl	8001d44 <I2C_WaitOnFlagUntilTimeout>
 8001f22:	2800      	cmp	r0, #0
 8001f24:	d1e7      	bne.n	8001ef6 <HAL_I2C_Mem_Write+0x32>
 8001f26:	2321      	movs	r3, #33	@ 0x21
 8001f28:	703b      	strb	r3, [r7, #0]
 8001f2a:	0027      	movs	r7, r4
 8001f2c:	331f      	adds	r3, #31
 8001f2e:	3742      	adds	r7, #66	@ 0x42
 8001f30:	703b      	strb	r3, [r7, #0]
 8001f32:	9b04      	ldr	r3, [sp, #16]
 8001f34:	6460      	str	r0, [r4, #68]	@ 0x44
 8001f36:	6263      	str	r3, [r4, #36]	@ 0x24
 8001f38:	9b05      	ldr	r3, [sp, #20]
 8001f3a:	6360      	str	r0, [r4, #52]	@ 0x34
 8001f3c:	8563      	strh	r3, [r4, #42]	@ 0x2a
 8001f3e:	466b      	mov	r3, sp
 8001f40:	7b1a      	ldrb	r2, [r3, #12]
 8001f42:	4b4b      	ldr	r3, [pc, #300]	@ (8002070 <HAL_I2C_Mem_Write+0x1ac>)
 8001f44:	0031      	movs	r1, r6
 8001f46:	9300      	str	r3, [sp, #0]
 8001f48:	2380      	movs	r3, #128	@ 0x80
 8001f4a:	0020      	movs	r0, r4
 8001f4c:	045b      	lsls	r3, r3, #17
 8001f4e:	f7ff fe37 	bl	8001bc0 <I2C_TransferConfig>
 8001f52:	002a      	movs	r2, r5
 8001f54:	0020      	movs	r0, r4
 8001f56:	990e      	ldr	r1, [sp, #56]	@ 0x38
 8001f58:	f7ff fec6 	bl	8001ce8 <I2C_WaitOnTXISFlagUntilTimeout>
 8001f5c:	2800      	cmp	r0, #0
 8001f5e:	d129      	bne.n	8001fb4 <HAL_I2C_Mem_Write+0xf0>
 8001f60:	9a03      	ldr	r2, [sp, #12]
 8001f62:	6823      	ldr	r3, [r4, #0]
 8001f64:	2a01      	cmp	r2, #1
 8001f66:	d116      	bne.n	8001f96 <HAL_I2C_Mem_Write+0xd2>
 8001f68:	466a      	mov	r2, sp
 8001f6a:	7a12      	ldrb	r2, [r2, #8]
 8001f6c:	629a      	str	r2, [r3, #40]	@ 0x28
 8001f6e:	2200      	movs	r2, #0
 8001f70:	2180      	movs	r1, #128	@ 0x80
 8001f72:	0020      	movs	r0, r4
 8001f74:	9b0e      	ldr	r3, [sp, #56]	@ 0x38
 8001f76:	9500      	str	r5, [sp, #0]
 8001f78:	f7ff fee4 	bl	8001d44 <I2C_WaitOnFlagUntilTimeout>
 8001f7c:	2800      	cmp	r0, #0
 8001f7e:	d119      	bne.n	8001fb4 <HAL_I2C_Mem_Write+0xf0>
 8001f80:	8d63      	ldrh	r3, [r4, #42]	@ 0x2a
 8001f82:	2bff      	cmp	r3, #255	@ 0xff
 8001f84:	d81a      	bhi.n	8001fbc <HAL_I2C_Mem_Write+0xf8>
 8001f86:	2380      	movs	r3, #128	@ 0x80
 8001f88:	8d62      	ldrh	r2, [r4, #42]	@ 0x2a
 8001f8a:	049b      	lsls	r3, r3, #18
 8001f8c:	b292      	uxth	r2, r2
 8001f8e:	8522      	strh	r2, [r4, #40]	@ 0x28
 8001f90:	b2d2      	uxtb	r2, r2
 8001f92:	9000      	str	r0, [sp, #0]
 8001f94:	e017      	b.n	8001fc6 <HAL_I2C_Mem_Write+0x102>
 8001f96:	9a02      	ldr	r2, [sp, #8]
 8001f98:	0020      	movs	r0, r4
 8001f9a:	0a12      	lsrs	r2, r2, #8
 8001f9c:	629a      	str	r2, [r3, #40]	@ 0x28
 8001f9e:	990e      	ldr	r1, [sp, #56]	@ 0x38
 8001fa0:	002a      	movs	r2, r5
 8001fa2:	f7ff fea1 	bl	8001ce8 <I2C_WaitOnTXISFlagUntilTimeout>
 8001fa6:	2800      	cmp	r0, #0
 8001fa8:	d104      	bne.n	8001fb4 <HAL_I2C_Mem_Write+0xf0>
 8001faa:	466b      	mov	r3, sp
 8001fac:	6822      	ldr	r2, [r4, #0]
 8001fae:	7a1b      	ldrb	r3, [r3, #8]
 8001fb0:	6293      	str	r3, [r2, #40]	@ 0x28
 8001fb2:	e7dc      	b.n	8001f6e <HAL_I2C_Mem_Write+0xaa>
 8001fb4:	2300      	movs	r3, #0
 8001fb6:	3440      	adds	r4, #64	@ 0x40
 8001fb8:	7023      	strb	r3, [r4, #0]
 8001fba:	e79c      	b.n	8001ef6 <HAL_I2C_Mem_Write+0x32>
 8001fbc:	22ff      	movs	r2, #255	@ 0xff
 8001fbe:	2380      	movs	r3, #128	@ 0x80
 8001fc0:	8522      	strh	r2, [r4, #40]	@ 0x28
 8001fc2:	045b      	lsls	r3, r3, #17
 8001fc4:	9000      	str	r0, [sp, #0]
 8001fc6:	0031      	movs	r1, r6
 8001fc8:	0020      	movs	r0, r4
 8001fca:	f7ff fdf9 	bl	8001bc0 <I2C_TransferConfig>
 8001fce:	002a      	movs	r2, r5
 8001fd0:	0020      	movs	r0, r4
 8001fd2:	990e      	ldr	r1, [sp, #56]	@ 0x38
 8001fd4:	f7ff fe88 	bl	8001ce8 <I2C_WaitOnTXISFlagUntilTimeout>
 8001fd8:	2800      	cmp	r0, #0
 8001fda:	d000      	beq.n	8001fde <HAL_I2C_Mem_Write+0x11a>
 8001fdc:	e78b      	b.n	8001ef6 <HAL_I2C_Mem_Write+0x32>
 8001fde:	6a63      	ldr	r3, [r4, #36]	@ 0x24
 8001fe0:	6822      	ldr	r2, [r4, #0]
 8001fe2:	7819      	ldrb	r1, [r3, #0]
 8001fe4:	3301      	adds	r3, #1
 8001fe6:	6291      	str	r1, [r2, #40]	@ 0x28
 8001fe8:	6263      	str	r3, [r4, #36]	@ 0x24
 8001fea:	8d63      	ldrh	r3, [r4, #42]	@ 0x2a
 8001fec:	8d22      	ldrh	r2, [r4, #40]	@ 0x28
 8001fee:	3b01      	subs	r3, #1
 8001ff0:	b29b      	uxth	r3, r3
 8001ff2:	8563      	strh	r3, [r4, #42]	@ 0x2a
 8001ff4:	3a01      	subs	r2, #1
 8001ff6:	8d63      	ldrh	r3, [r4, #42]	@ 0x2a
 8001ff8:	b292      	uxth	r2, r2
 8001ffa:	8522      	strh	r2, [r4, #40]	@ 0x28
 8001ffc:	2b00      	cmp	r3, #0
 8001ffe:	d016      	beq.n	800202e <HAL_I2C_Mem_Write+0x16a>
 8002000:	2a00      	cmp	r2, #0
 8002002:	d114      	bne.n	800202e <HAL_I2C_Mem_Write+0x16a>
 8002004:	2180      	movs	r1, #128	@ 0x80
 8002006:	0020      	movs	r0, r4
 8002008:	9b0e      	ldr	r3, [sp, #56]	@ 0x38
 800200a:	9500      	str	r5, [sp, #0]
 800200c:	f7ff fe9a 	bl	8001d44 <I2C_WaitOnFlagUntilTimeout>
 8002010:	2800      	cmp	r0, #0
 8002012:	d000      	beq.n	8002016 <HAL_I2C_Mem_Write+0x152>
 8002014:	e76f      	b.n	8001ef6 <HAL_I2C_Mem_Write+0x32>
 8002016:	8d63      	ldrh	r3, [r4, #42]	@ 0x2a
 8002018:	2bff      	cmp	r3, #255	@ 0xff
 800201a:	d921      	bls.n	8002060 <HAL_I2C_Mem_Write+0x19c>
 800201c:	22ff      	movs	r2, #255	@ 0xff
 800201e:	2380      	movs	r3, #128	@ 0x80
 8002020:	8522      	strh	r2, [r4, #40]	@ 0x28
 8002022:	045b      	lsls	r3, r3, #17
 8002024:	9000      	str	r0, [sp, #0]
 8002026:	0031      	movs	r1, r6
 8002028:	0020      	movs	r0, r4
 800202a:	f7ff fdc9 	bl	8001bc0 <I2C_TransferConfig>
 800202e:	8d63      	ldrh	r3, [r4, #42]	@ 0x2a
 8002030:	2b00      	cmp	r3, #0
 8002032:	d1cc      	bne.n	8001fce <HAL_I2C_Mem_Write+0x10a>
 8002034:	002a      	movs	r2, r5
 8002036:	0020      	movs	r0, r4
 8002038:	990e      	ldr	r1, [sp, #56]	@ 0x38
 800203a:	f7ff feba 	bl	8001db2 <I2C_WaitOnSTOPFlagUntilTimeout>
 800203e:	2800      	cmp	r0, #0
 8002040:	d000      	beq.n	8002044 <HAL_I2C_Mem_Write+0x180>
 8002042:	e758      	b.n	8001ef6 <HAL_I2C_Mem_Write+0x32>
 8002044:	2120      	movs	r1, #32
 8002046:	6823      	ldr	r3, [r4, #0]
 8002048:	4d0a      	ldr	r5, [pc, #40]	@ (8002074 <HAL_I2C_Mem_Write+0x1b0>)
 800204a:	61d9      	str	r1, [r3, #28]
 800204c:	685a      	ldr	r2, [r3, #4]
 800204e:	402a      	ands	r2, r5
 8002050:	605a      	str	r2, [r3, #4]
 8002052:	0023      	movs	r3, r4
 8002054:	3440      	adds	r4, #64	@ 0x40
 8002056:	3341      	adds	r3, #65	@ 0x41
 8002058:	7019      	strb	r1, [r3, #0]
 800205a:	7038      	strb	r0, [r7, #0]
 800205c:	7020      	strb	r0, [r4, #0]
 800205e:	e74b      	b.n	8001ef8 <HAL_I2C_Mem_Write+0x34>
 8002060:	2380      	movs	r3, #128	@ 0x80
 8002062:	8d62      	ldrh	r2, [r4, #42]	@ 0x2a
 8002064:	049b      	lsls	r3, r3, #18
 8002066:	b292      	uxth	r2, r2
 8002068:	8522      	strh	r2, [r4, #40]	@ 0x28
 800206a:	b2d2      	uxtb	r2, r2
 800206c:	9000      	str	r0, [sp, #0]
 800206e:	e7da      	b.n	8002026 <HAL_I2C_Mem_Write+0x162>
 8002070:	80002000 	.word	0x80002000
 8002074:	fe00e800 	.word	0xfe00e800

08002078 <HAL_I2CEx_ConfigAnalogFilter>:
 8002078:	b5f0      	push	{r4, r5, r6, r7, lr}
 800207a:	0004      	movs	r4, r0
 800207c:	3441      	adds	r4, #65	@ 0x41
 800207e:	7822      	ldrb	r2, [r4, #0]
 8002080:	0003      	movs	r3, r0
 8002082:	000f      	movs	r7, r1
 8002084:	2002      	movs	r0, #2
 8002086:	b2d6      	uxtb	r6, r2
 8002088:	2a20      	cmp	r2, #32
 800208a:	d118      	bne.n	80020be <HAL_I2CEx_ConfigAnalogFilter+0x46>
 800208c:	001d      	movs	r5, r3
 800208e:	3540      	adds	r5, #64	@ 0x40
 8002090:	782a      	ldrb	r2, [r5, #0]
 8002092:	2a01      	cmp	r2, #1
 8002094:	d013      	beq.n	80020be <HAL_I2CEx_ConfigAnalogFilter+0x46>
 8002096:	2224      	movs	r2, #36	@ 0x24
 8002098:	7022      	strb	r2, [r4, #0]
 800209a:	681b      	ldr	r3, [r3, #0]
 800209c:	3a23      	subs	r2, #35	@ 0x23
 800209e:	6819      	ldr	r1, [r3, #0]
 80020a0:	4807      	ldr	r0, [pc, #28]	@ (80020c0 <HAL_I2CEx_ConfigAnalogFilter+0x48>)
 80020a2:	4391      	bics	r1, r2
 80020a4:	6019      	str	r1, [r3, #0]
 80020a6:	6819      	ldr	r1, [r3, #0]
 80020a8:	4001      	ands	r1, r0
 80020aa:	2000      	movs	r0, #0
 80020ac:	6019      	str	r1, [r3, #0]
 80020ae:	6819      	ldr	r1, [r3, #0]
 80020b0:	4339      	orrs	r1, r7
 80020b2:	6019      	str	r1, [r3, #0]
 80020b4:	6819      	ldr	r1, [r3, #0]
 80020b6:	430a      	orrs	r2, r1
 80020b8:	601a      	str	r2, [r3, #0]
 80020ba:	7026      	strb	r6, [r4, #0]
 80020bc:	7028      	strb	r0, [r5, #0]
 80020be:	bdf0      	pop	{r4, r5, r6, r7, pc}
 80020c0:	ffffefff 	.word	0xffffefff

080020c4 <HAL_I2CEx_ConfigDigitalFilter>:
 80020c4:	0002      	movs	r2, r0
 80020c6:	b5f0      	push	{r4, r5, r6, r7, lr}
 80020c8:	3241      	adds	r2, #65	@ 0x41
 80020ca:	7814      	ldrb	r4, [r2, #0]
 80020cc:	0003      	movs	r3, r0
 80020ce:	b2e5      	uxtb	r5, r4
 80020d0:	2002      	movs	r0, #2
 80020d2:	2c20      	cmp	r4, #32
 80020d4:	d117      	bne.n	8002106 <HAL_I2CEx_ConfigDigitalFilter+0x42>
 80020d6:	001c      	movs	r4, r3
 80020d8:	3440      	adds	r4, #64	@ 0x40
 80020da:	7826      	ldrb	r6, [r4, #0]
 80020dc:	2e01      	cmp	r6, #1
 80020de:	d012      	beq.n	8002106 <HAL_I2CEx_ConfigDigitalFilter+0x42>
 80020e0:	3022      	adds	r0, #34	@ 0x22
 80020e2:	7010      	strb	r0, [r2, #0]
 80020e4:	681b      	ldr	r3, [r3, #0]
 80020e6:	3823      	subs	r0, #35	@ 0x23
 80020e8:	681e      	ldr	r6, [r3, #0]
 80020ea:	4f07      	ldr	r7, [pc, #28]	@ (8002108 <HAL_I2CEx_ConfigDigitalFilter+0x44>)
 80020ec:	4386      	bics	r6, r0
 80020ee:	601e      	str	r6, [r3, #0]
 80020f0:	681e      	ldr	r6, [r3, #0]
 80020f2:	0209      	lsls	r1, r1, #8
 80020f4:	403e      	ands	r6, r7
 80020f6:	4331      	orrs	r1, r6
 80020f8:	6019      	str	r1, [r3, #0]
 80020fa:	6819      	ldr	r1, [r3, #0]
 80020fc:	4308      	orrs	r0, r1
 80020fe:	6018      	str	r0, [r3, #0]
 8002100:	2000      	movs	r0, #0
 8002102:	7015      	strb	r5, [r2, #0]
 8002104:	7020      	strb	r0, [r4, #0]
 8002106:	bdf0      	pop	{r4, r5, r6, r7, pc}
 8002108:	fffff0ff 	.word	0xfffff0ff

0800210c <HAL_RCC_OscConfig>:
 800210c:	b5f8      	push	{r3, r4, r5, r6, r7, lr}
 800210e:	1e05      	subs	r5, r0, #0
 8002110:	d101      	bne.n	8002116 <HAL_RCC_OscConfig+0xa>
 8002112:	2001      	movs	r0, #1
 8002114:	bdf8      	pop	{r3, r4, r5, r6, r7, pc}
 8002116:	6803      	ldr	r3, [r0, #0]
 8002118:	07db      	lsls	r3, r3, #31
 800211a:	d40d      	bmi.n	8002138 <HAL_RCC_OscConfig+0x2c>
 800211c:	682b      	ldr	r3, [r5, #0]
 800211e:	079b      	lsls	r3, r3, #30
 8002120:	d44f      	bmi.n	80021c2 <HAL_RCC_OscConfig+0xb6>
 8002122:	682b      	ldr	r3, [r5, #0]
 8002124:	071b      	lsls	r3, r3, #28
 8002126:	d500      	bpl.n	800212a <HAL_RCC_OscConfig+0x1e>
 8002128:	e0a4      	b.n	8002274 <HAL_RCC_OscConfig+0x168>
 800212a:	2204      	movs	r2, #4
 800212c:	682b      	ldr	r3, [r5, #0]
 800212e:	4213      	tst	r3, r2
 8002130:	d000      	beq.n	8002134 <HAL_RCC_OscConfig+0x28>
 8002132:	e0cf      	b.n	80022d4 <HAL_RCC_OscConfig+0x1c8>
 8002134:	2000      	movs	r0, #0
 8002136:	e7ed      	b.n	8002114 <HAL_RCC_OscConfig+0x8>
 8002138:	2138      	movs	r1, #56	@ 0x38
 800213a:	4c85      	ldr	r4, [pc, #532]	@ (8002350 <HAL_RCC_OscConfig+0x244>)
 800213c:	6843      	ldr	r3, [r0, #4]
 800213e:	68a2      	ldr	r2, [r4, #8]
 8002140:	400a      	ands	r2, r1
 8002142:	2a08      	cmp	r2, #8
 8002144:	d102      	bne.n	800214c <HAL_RCC_OscConfig+0x40>
 8002146:	2b00      	cmp	r3, #0
 8002148:	d1e8      	bne.n	800211c <HAL_RCC_OscConfig+0x10>
 800214a:	e7e2      	b.n	8002112 <HAL_RCC_OscConfig+0x6>
 800214c:	2280      	movs	r2, #128	@ 0x80
 800214e:	0252      	lsls	r2, r2, #9
 8002150:	4293      	cmp	r3, r2
 8002152:	d111      	bne.n	8002178 <HAL_RCC_OscConfig+0x6c>
 8002154:	6822      	ldr	r2, [r4, #0]
 8002156:	4313      	orrs	r3, r2
 8002158:	6023      	str	r3, [r4, #0]
 800215a:	f7ff f9db 	bl	8001514 <HAL_GetTick>
 800215e:	2780      	movs	r7, #128	@ 0x80
 8002160:	0006      	movs	r6, r0
 8002162:	02bf      	lsls	r7, r7, #10
 8002164:	6823      	ldr	r3, [r4, #0]
 8002166:	423b      	tst	r3, r7
 8002168:	d1d8      	bne.n	800211c <HAL_RCC_OscConfig+0x10>
 800216a:	f7ff f9d3 	bl	8001514 <HAL_GetTick>
 800216e:	1b80      	subs	r0, r0, r6
 8002170:	2864      	cmp	r0, #100	@ 0x64
 8002172:	d9f7      	bls.n	8002164 <HAL_RCC_OscConfig+0x58>
 8002174:	2003      	movs	r0, #3
 8002176:	e7cd      	b.n	8002114 <HAL_RCC_OscConfig+0x8>
 8002178:	21a0      	movs	r1, #160	@ 0xa0
 800217a:	02c9      	lsls	r1, r1, #11
 800217c:	428b      	cmp	r3, r1
 800217e:	d108      	bne.n	8002192 <HAL_RCC_OscConfig+0x86>
 8002180:	2380      	movs	r3, #128	@ 0x80
 8002182:	6821      	ldr	r1, [r4, #0]
 8002184:	02db      	lsls	r3, r3, #11
 8002186:	430b      	orrs	r3, r1
 8002188:	6023      	str	r3, [r4, #0]
 800218a:	6823      	ldr	r3, [r4, #0]
 800218c:	431a      	orrs	r2, r3
 800218e:	6022      	str	r2, [r4, #0]
 8002190:	e7e3      	b.n	800215a <HAL_RCC_OscConfig+0x4e>
 8002192:	6822      	ldr	r2, [r4, #0]
 8002194:	496f      	ldr	r1, [pc, #444]	@ (8002354 <HAL_RCC_OscConfig+0x248>)
 8002196:	400a      	ands	r2, r1
 8002198:	6022      	str	r2, [r4, #0]
 800219a:	6822      	ldr	r2, [r4, #0]
 800219c:	496e      	ldr	r1, [pc, #440]	@ (8002358 <HAL_RCC_OscConfig+0x24c>)
 800219e:	400a      	ands	r2, r1
 80021a0:	6022      	str	r2, [r4, #0]
 80021a2:	2b00      	cmp	r3, #0
 80021a4:	d1d9      	bne.n	800215a <HAL_RCC_OscConfig+0x4e>
 80021a6:	f7ff f9b5 	bl	8001514 <HAL_GetTick>
 80021aa:	2780      	movs	r7, #128	@ 0x80
 80021ac:	0006      	movs	r6, r0
 80021ae:	02bf      	lsls	r7, r7, #10
 80021b0:	6823      	ldr	r3, [r4, #0]
 80021b2:	423b      	tst	r3, r7
 80021b4:	d0b2      	beq.n	800211c <HAL_RCC_OscConfig+0x10>
 80021b6:	f7ff f9ad 	bl	8001514 <HAL_GetTick>
 80021ba:	1b80      	subs	r0, r0, r6
 80021bc:	2864      	cmp	r0, #100	@ 0x64
 80021be:	d9f7      	bls.n	80021b0 <HAL_RCC_OscConfig+0xa4>
 80021c0:	e7d8      	b.n	8002174 <HAL_RCC_OscConfig+0x68>
 80021c2:	2238      	movs	r2, #56	@ 0x38
 80021c4:	4c62      	ldr	r4, [pc, #392]	@ (8002350 <HAL_RCC_OscConfig+0x244>)
 80021c6:	68eb      	ldr	r3, [r5, #12]
 80021c8:	68a1      	ldr	r1, [r4, #8]
 80021ca:	4211      	tst	r1, r2
 80021cc:	d11c      	bne.n	8002208 <HAL_RCC_OscConfig+0xfc>
 80021ce:	2b00      	cmp	r3, #0
 80021d0:	d09f      	beq.n	8002112 <HAL_RCC_OscConfig+0x6>
 80021d2:	6862      	ldr	r2, [r4, #4]
 80021d4:	696b      	ldr	r3, [r5, #20]
 80021d6:	4961      	ldr	r1, [pc, #388]	@ (800235c <HAL_RCC_OscConfig+0x250>)
 80021d8:	021b      	lsls	r3, r3, #8
 80021da:	400a      	ands	r2, r1
 80021dc:	4313      	orrs	r3, r2
 80021de:	6063      	str	r3, [r4, #4]
 80021e0:	6823      	ldr	r3, [r4, #0]
 80021e2:	4a5f      	ldr	r2, [pc, #380]	@ (8002360 <HAL_RCC_OscConfig+0x254>)
 80021e4:	495f      	ldr	r1, [pc, #380]	@ (8002364 <HAL_RCC_OscConfig+0x258>)
 80021e6:	4013      	ands	r3, r2
 80021e8:	692a      	ldr	r2, [r5, #16]
 80021ea:	4313      	orrs	r3, r2
 80021ec:	6023      	str	r3, [r4, #0]
 80021ee:	6823      	ldr	r3, [r4, #0]
 80021f0:	4a5d      	ldr	r2, [pc, #372]	@ (8002368 <HAL_RCC_OscConfig+0x25c>)
 80021f2:	049b      	lsls	r3, r3, #18
 80021f4:	0f5b      	lsrs	r3, r3, #29
 80021f6:	40da      	lsrs	r2, r3
 80021f8:	4b5c      	ldr	r3, [pc, #368]	@ (800236c <HAL_RCC_OscConfig+0x260>)
 80021fa:	600a      	str	r2, [r1, #0]
 80021fc:	6818      	ldr	r0, [r3, #0]
 80021fe:	f7ff f955 	bl	80014ac <HAL_InitTick>
 8002202:	2800      	cmp	r0, #0
 8002204:	d08d      	beq.n	8002122 <HAL_RCC_OscConfig+0x16>
 8002206:	e784      	b.n	8002112 <HAL_RCC_OscConfig+0x6>
 8002208:	2b00      	cmp	r3, #0
 800220a:	d020      	beq.n	800224e <HAL_RCC_OscConfig+0x142>
 800220c:	6823      	ldr	r3, [r4, #0]
 800220e:	4a54      	ldr	r2, [pc, #336]	@ (8002360 <HAL_RCC_OscConfig+0x254>)
 8002210:	2780      	movs	r7, #128	@ 0x80
 8002212:	4013      	ands	r3, r2
 8002214:	692a      	ldr	r2, [r5, #16]
 8002216:	00ff      	lsls	r7, r7, #3
 8002218:	4313      	orrs	r3, r2
 800221a:	6023      	str	r3, [r4, #0]
 800221c:	2380      	movs	r3, #128	@ 0x80
 800221e:	6822      	ldr	r2, [r4, #0]
 8002220:	005b      	lsls	r3, r3, #1
 8002222:	4313      	orrs	r3, r2
 8002224:	6023      	str	r3, [r4, #0]
 8002226:	f7ff f975 	bl	8001514 <HAL_GetTick>
 800222a:	0006      	movs	r6, r0
 800222c:	6823      	ldr	r3, [r4, #0]
 800222e:	423b      	tst	r3, r7
 8002230:	d007      	beq.n	8002242 <HAL_RCC_OscConfig+0x136>
 8002232:	6862      	ldr	r2, [r4, #4]
 8002234:	696b      	ldr	r3, [r5, #20]
 8002236:	4949      	ldr	r1, [pc, #292]	@ (800235c <HAL_RCC_OscConfig+0x250>)
 8002238:	021b      	lsls	r3, r3, #8
 800223a:	400a      	ands	r2, r1
 800223c:	4313      	orrs	r3, r2
 800223e:	6063      	str	r3, [r4, #4]
 8002240:	e76f      	b.n	8002122 <HAL_RCC_OscConfig+0x16>
 8002242:	f7ff f967 	bl	8001514 <HAL_GetTick>
 8002246:	1b80      	subs	r0, r0, r6
 8002248:	2802      	cmp	r0, #2
 800224a:	d9ef      	bls.n	800222c <HAL_RCC_OscConfig+0x120>
 800224c:	e792      	b.n	8002174 <HAL_RCC_OscConfig+0x68>
 800224e:	6823      	ldr	r3, [r4, #0]
 8002250:	4a47      	ldr	r2, [pc, #284]	@ (8002370 <HAL_RCC_OscConfig+0x264>)
 8002252:	2780      	movs	r7, #128	@ 0x80
 8002254:	4013      	ands	r3, r2
 8002256:	6023      	str	r3, [r4, #0]
 8002258:	f7ff f95c 	bl	8001514 <HAL_GetTick>
 800225c:	0006      	movs	r6, r0
 800225e:	00ff      	lsls	r7, r7, #3
 8002260:	6823      	ldr	r3, [r4, #0]
 8002262:	423b      	tst	r3, r7
 8002264:	d100      	bne.n	8002268 <HAL_RCC_OscConfig+0x15c>
 8002266:	e75c      	b.n	8002122 <HAL_RCC_OscConfig+0x16>
 8002268:	f7ff f954 	bl	8001514 <HAL_GetTick>
 800226c:	1b80      	subs	r0, r0, r6
 800226e:	2802      	cmp	r0, #2
 8002270:	d9f6      	bls.n	8002260 <HAL_RCC_OscConfig+0x154>
 8002272:	e77f      	b.n	8002174 <HAL_RCC_OscConfig+0x68>
 8002274:	2138      	movs	r1, #56	@ 0x38
 8002276:	4c36      	ldr	r4, [pc, #216]	@ (8002350 <HAL_RCC_OscConfig+0x244>)
 8002278:	69aa      	ldr	r2, [r5, #24]
 800227a:	68a3      	ldr	r3, [r4, #8]
 800227c:	400b      	ands	r3, r1
 800227e:	2b18      	cmp	r3, #24
 8002280:	d103      	bne.n	800228a <HAL_RCC_OscConfig+0x17e>
 8002282:	2a00      	cmp	r2, #0
 8002284:	d000      	beq.n	8002288 <HAL_RCC_OscConfig+0x17c>
 8002286:	e750      	b.n	800212a <HAL_RCC_OscConfig+0x1e>
 8002288:	e743      	b.n	8002112 <HAL_RCC_OscConfig+0x6>
 800228a:	2301      	movs	r3, #1
 800228c:	2a00      	cmp	r2, #0
 800228e:	d010      	beq.n	80022b2 <HAL_RCC_OscConfig+0x1a6>
 8002290:	6e22      	ldr	r2, [r4, #96]	@ 0x60
 8002292:	2702      	movs	r7, #2
 8002294:	4313      	orrs	r3, r2
 8002296:	6623      	str	r3, [r4, #96]	@ 0x60
 8002298:	f7ff f93c 	bl	8001514 <HAL_GetTick>
 800229c:	0006      	movs	r6, r0
 800229e:	6e23      	ldr	r3, [r4, #96]	@ 0x60
 80022a0:	423b      	tst	r3, r7
 80022a2:	d000      	beq.n	80022a6 <HAL_RCC_OscConfig+0x19a>
 80022a4:	e741      	b.n	800212a <HAL_RCC_OscConfig+0x1e>
 80022a6:	f7ff f935 	bl	8001514 <HAL_GetTick>
 80022aa:	1b80      	subs	r0, r0, r6
 80022ac:	2802      	cmp	r0, #2
 80022ae:	d9f6      	bls.n	800229e <HAL_RCC_OscConfig+0x192>
 80022b0:	e760      	b.n	8002174 <HAL_RCC_OscConfig+0x68>
 80022b2:	6e22      	ldr	r2, [r4, #96]	@ 0x60
 80022b4:	2702      	movs	r7, #2
 80022b6:	439a      	bics	r2, r3
 80022b8:	6622      	str	r2, [r4, #96]	@ 0x60
 80022ba:	f7ff f92b 	bl	8001514 <HAL_GetTick>
 80022be:	0006      	movs	r6, r0
 80022c0:	6e23      	ldr	r3, [r4, #96]	@ 0x60
 80022c2:	423b      	tst	r3, r7
 80022c4:	d100      	bne.n	80022c8 <HAL_RCC_OscConfig+0x1bc>
 80022c6:	e730      	b.n	800212a <HAL_RCC_OscConfig+0x1e>
 80022c8:	f7ff f924 	bl	8001514 <HAL_GetTick>
 80022cc:	1b80      	subs	r0, r0, r6
 80022ce:	2802      	cmp	r0, #2
 80022d0:	d9f6      	bls.n	80022c0 <HAL_RCC_OscConfig+0x1b4>
 80022d2:	e74f      	b.n	8002174 <HAL_RCC_OscConfig+0x68>
 80022d4:	2138      	movs	r1, #56	@ 0x38
 80022d6:	4c1e      	ldr	r4, [pc, #120]	@ (8002350 <HAL_RCC_OscConfig+0x244>)
 80022d8:	68a8      	ldr	r0, [r5, #8]
 80022da:	68a3      	ldr	r3, [r4, #8]
 80022dc:	400b      	ands	r3, r1
 80022de:	2b20      	cmp	r3, #32
 80022e0:	d103      	bne.n	80022ea <HAL_RCC_OscConfig+0x1de>
 80022e2:	4243      	negs	r3, r0
 80022e4:	4158      	adcs	r0, r3
 80022e6:	b2c0      	uxtb	r0, r0
 80022e8:	e714      	b.n	8002114 <HAL_RCC_OscConfig+0x8>
 80022ea:	6de3      	ldr	r3, [r4, #92]	@ 0x5c
 80022ec:	2801      	cmp	r0, #1
 80022ee:	d110      	bne.n	8002312 <HAL_RCC_OscConfig+0x206>
 80022f0:	4303      	orrs	r3, r0
 80022f2:	65e3      	str	r3, [r4, #92]	@ 0x5c
 80022f4:	f7ff f90e 	bl	8001514 <HAL_GetTick>
 80022f8:	2602      	movs	r6, #2
 80022fa:	0005      	movs	r5, r0
 80022fc:	6de3      	ldr	r3, [r4, #92]	@ 0x5c
 80022fe:	4233      	tst	r3, r6
 8002300:	d000      	beq.n	8002304 <HAL_RCC_OscConfig+0x1f8>
 8002302:	e717      	b.n	8002134 <HAL_RCC_OscConfig+0x28>
 8002304:	f7ff f906 	bl	8001514 <HAL_GetTick>
 8002308:	4b1a      	ldr	r3, [pc, #104]	@ (8002374 <HAL_RCC_OscConfig+0x268>)
 800230a:	1b40      	subs	r0, r0, r5
 800230c:	4298      	cmp	r0, r3
 800230e:	d9f5      	bls.n	80022fc <HAL_RCC_OscConfig+0x1f0>
 8002310:	e730      	b.n	8002174 <HAL_RCC_OscConfig+0x68>
 8002312:	2805      	cmp	r0, #5
 8002314:	d105      	bne.n	8002322 <HAL_RCC_OscConfig+0x216>
 8002316:	4313      	orrs	r3, r2
 8002318:	65e3      	str	r3, [r4, #92]	@ 0x5c
 800231a:	2301      	movs	r3, #1
 800231c:	6de2      	ldr	r2, [r4, #92]	@ 0x5c
 800231e:	4313      	orrs	r3, r2
 8002320:	e7e7      	b.n	80022f2 <HAL_RCC_OscConfig+0x1e6>
 8002322:	2101      	movs	r1, #1
 8002324:	438b      	bics	r3, r1
 8002326:	65e3      	str	r3, [r4, #92]	@ 0x5c
 8002328:	6de3      	ldr	r3, [r4, #92]	@ 0x5c
 800232a:	4393      	bics	r3, r2
 800232c:	65e3      	str	r3, [r4, #92]	@ 0x5c
 800232e:	2800      	cmp	r0, #0
 8002330:	d1e0      	bne.n	80022f4 <HAL_RCC_OscConfig+0x1e8>
 8002332:	f7ff f8ef 	bl	8001514 <HAL_GetTick>
 8002336:	2602      	movs	r6, #2
 8002338:	0005      	movs	r5, r0
 800233a:	6de3      	ldr	r3, [r4, #92]	@ 0x5c
 800233c:	4233      	tst	r3, r6
 800233e:	d100      	bne.n	8002342 <HAL_RCC_OscConfig+0x236>
 8002340:	e6f8      	b.n	8002134 <HAL_RCC_OscConfig+0x28>
 8002342:	f7ff f8e7 	bl	8001514 <HAL_GetTick>
 8002346:	4b0b      	ldr	r3, [pc, #44]	@ (8002374 <HAL_RCC_OscConfig+0x268>)
 8002348:	1b40      	subs	r0, r0, r5
 800234a:	4298      	cmp	r0, r3
 800234c:	d9f5      	bls.n	800233a <HAL_RCC_OscConfig+0x22e>
 800234e:	e711      	b.n	8002174 <HAL_RCC_OscConfig+0x68>
 8002350:	40021000 	.word	0x40021000
 8002354:	fffeffff 	.word	0xfffeffff
 8002358:	fffbffff 	.word	0xfffbffff
 800235c:	ffff80ff 	.word	0xffff80ff
 8002360:	ffffc7ff 	.word	0xffffc7ff
 8002364:	20000000 	.word	0x20000000
 8002368:	02dc6c00 	.word	0x02dc6c00
 800236c:	20000008 	.word	0x20000008
 8002370:	fffffeff 	.word	0xfffffeff
 8002374:	00001388 	.word	0x00001388

08002378 <HAL_RCC_GetSysClockFreq>:
 8002378:	2238      	movs	r2, #56	@ 0x38
 800237a:	4b0f      	ldr	r3, [pc, #60]	@ (80023b8 <HAL_RCC_GetSysClockFreq+0x40>)
 800237c:	6899      	ldr	r1, [r3, #8]
 800237e:	4211      	tst	r1, r2
 8002380:	d105      	bne.n	800238e <HAL_RCC_GetSysClockFreq+0x16>
 8002382:	681b      	ldr	r3, [r3, #0]
 8002384:	480d      	ldr	r0, [pc, #52]	@ (80023bc <HAL_RCC_GetSysClockFreq+0x44>)
 8002386:	049b      	lsls	r3, r3, #18
 8002388:	0f5b      	lsrs	r3, r3, #29
 800238a:	40d8      	lsrs	r0, r3
 800238c:	4770      	bx	lr
 800238e:	6899      	ldr	r1, [r3, #8]
 8002390:	4011      	ands	r1, r2
 8002392:	2908      	cmp	r1, #8
 8002394:	d00b      	beq.n	80023ae <HAL_RCC_GetSysClockFreq+0x36>
 8002396:	6899      	ldr	r1, [r3, #8]
 8002398:	4011      	ands	r1, r2
 800239a:	2920      	cmp	r1, #32
 800239c:	d009      	beq.n	80023b2 <HAL_RCC_GetSysClockFreq+0x3a>
 800239e:	689b      	ldr	r3, [r3, #8]
 80023a0:	2000      	movs	r0, #0
 80023a2:	4013      	ands	r3, r2
 80023a4:	2b18      	cmp	r3, #24
 80023a6:	d1f1      	bne.n	800238c <HAL_RCC_GetSysClockFreq+0x14>
 80023a8:	20fa      	movs	r0, #250	@ 0xfa
 80023aa:	01c0      	lsls	r0, r0, #7
 80023ac:	e7ee      	b.n	800238c <HAL_RCC_GetSysClockFreq+0x14>
 80023ae:	4803      	ldr	r0, [pc, #12]	@ (80023bc <HAL_RCC_GetSysClockFreq+0x44>)
 80023b0:	e7ec      	b.n	800238c <HAL_RCC_GetSysClockFreq+0x14>
 80023b2:	2080      	movs	r0, #128	@ 0x80
 80023b4:	0200      	lsls	r0, r0, #8
 80023b6:	e7e9      	b.n	800238c <HAL_RCC_GetSysClockFreq+0x14>
 80023b8:	40021000 	.word	0x40021000
 80023bc:	02dc6c00 	.word	0x02dc6c00

080023c0 <HAL_RCC_ClockConfig>:
 80023c0:	b5f7      	push	{r0, r1, r2, r4, r5, r6, r7, lr}
 80023c2:	0004      	movs	r4, r0
 80023c4:	000d      	movs	r5, r1
 80023c6:	2800      	cmp	r0, #0
 80023c8:	d101      	bne.n	80023ce <HAL_RCC_ClockConfig+0xe>
 80023ca:	2001      	movs	r0, #1
 80023cc:	bdfe      	pop	{r1, r2, r3, r4, r5, r6, r7, pc}
 80023ce:	2707      	movs	r7, #7
 80023d0:	4e48      	ldr	r6, [pc, #288]	@ (80024f4 <HAL_RCC_ClockConfig+0x134>)
 80023d2:	6833      	ldr	r3, [r6, #0]
 80023d4:	403b      	ands	r3, r7
 80023d6:	428b      	cmp	r3, r1
 80023d8:	d32a      	bcc.n	8002430 <HAL_RCC_ClockConfig+0x70>
 80023da:	6822      	ldr	r2, [r4, #0]
 80023dc:	0793      	lsls	r3, r2, #30
 80023de:	d43b      	bmi.n	8002458 <HAL_RCC_ClockConfig+0x98>
 80023e0:	07d2      	lsls	r2, r2, #31
 80023e2:	d44a      	bmi.n	800247a <HAL_RCC_ClockConfig+0xba>
 80023e4:	2707      	movs	r7, #7
 80023e6:	6833      	ldr	r3, [r6, #0]
 80023e8:	403b      	ands	r3, r7
 80023ea:	42ab      	cmp	r3, r5
 80023ec:	d90a      	bls.n	8002404 <HAL_RCC_ClockConfig+0x44>
 80023ee:	6833      	ldr	r3, [r6, #0]
 80023f0:	43bb      	bics	r3, r7
 80023f2:	432b      	orrs	r3, r5
 80023f4:	6033      	str	r3, [r6, #0]
 80023f6:	f7ff f88d 	bl	8001514 <HAL_GetTick>
 80023fa:	9001      	str	r0, [sp, #4]
 80023fc:	6833      	ldr	r3, [r6, #0]
 80023fe:	403b      	ands	r3, r7
 8002400:	42ab      	cmp	r3, r5
 8002402:	d167      	bne.n	80024d4 <HAL_RCC_ClockConfig+0x114>
 8002404:	6823      	ldr	r3, [r4, #0]
 8002406:	4d3c      	ldr	r5, [pc, #240]	@ (80024f8 <HAL_RCC_ClockConfig+0x138>)
 8002408:	075b      	lsls	r3, r3, #29
 800240a:	d46b      	bmi.n	80024e4 <HAL_RCC_ClockConfig+0x124>
 800240c:	f7ff ffb4 	bl	8002378 <HAL_RCC_GetSysClockFreq>
 8002410:	68ab      	ldr	r3, [r5, #8]
 8002412:	493a      	ldr	r1, [pc, #232]	@ (80024fc <HAL_RCC_ClockConfig+0x13c>)
 8002414:	051b      	lsls	r3, r3, #20
 8002416:	0f1b      	lsrs	r3, r3, #28
 8002418:	009b      	lsls	r3, r3, #2
 800241a:	585b      	ldr	r3, [r3, r1]
 800241c:	211f      	movs	r1, #31
 800241e:	400b      	ands	r3, r1
 8002420:	40d8      	lsrs	r0, r3
 8002422:	4a37      	ldr	r2, [pc, #220]	@ (8002500 <HAL_RCC_ClockConfig+0x140>)
 8002424:	4b37      	ldr	r3, [pc, #220]	@ (8002504 <HAL_RCC_ClockConfig+0x144>)
 8002426:	6010      	str	r0, [r2, #0]
 8002428:	6818      	ldr	r0, [r3, #0]
 800242a:	f7ff f83f 	bl	80014ac <HAL_InitTick>
 800242e:	e7cd      	b.n	80023cc <HAL_RCC_ClockConfig+0xc>
 8002430:	6833      	ldr	r3, [r6, #0]
 8002432:	43bb      	bics	r3, r7
 8002434:	430b      	orrs	r3, r1
 8002436:	6033      	str	r3, [r6, #0]
 8002438:	f7ff f86c 	bl	8001514 <HAL_GetTick>
 800243c:	9001      	str	r0, [sp, #4]
 800243e:	6833      	ldr	r3, [r6, #0]
 8002440:	403b      	ands	r3, r7
 8002442:	42ab      	cmp	r3, r5
 8002444:	d0c9      	beq.n	80023da <HAL_RCC_ClockConfig+0x1a>
 8002446:	f7ff f865 	bl	8001514 <HAL_GetTick>
 800244a:	9b01      	ldr	r3, [sp, #4]
 800244c:	1ac0      	subs	r0, r0, r3
 800244e:	4b2e      	ldr	r3, [pc, #184]	@ (8002508 <HAL_RCC_ClockConfig+0x148>)
 8002450:	4298      	cmp	r0, r3
 8002452:	d9f4      	bls.n	800243e <HAL_RCC_ClockConfig+0x7e>
 8002454:	2003      	movs	r0, #3
 8002456:	e7b9      	b.n	80023cc <HAL_RCC_ClockConfig+0xc>
 8002458:	4927      	ldr	r1, [pc, #156]	@ (80024f8 <HAL_RCC_ClockConfig+0x138>)
 800245a:	0753      	lsls	r3, r2, #29
 800245c:	d506      	bpl.n	800246c <HAL_RCC_ClockConfig+0xac>
 800245e:	6888      	ldr	r0, [r1, #8]
 8002460:	4b2a      	ldr	r3, [pc, #168]	@ (800250c <HAL_RCC_ClockConfig+0x14c>)
 8002462:	4018      	ands	r0, r3
 8002464:	23b0      	movs	r3, #176	@ 0xb0
 8002466:	011b      	lsls	r3, r3, #4
 8002468:	4303      	orrs	r3, r0
 800246a:	608b      	str	r3, [r1, #8]
 800246c:	688b      	ldr	r3, [r1, #8]
 800246e:	4828      	ldr	r0, [pc, #160]	@ (8002510 <HAL_RCC_ClockConfig+0x150>)
 8002470:	4003      	ands	r3, r0
 8002472:	68e0      	ldr	r0, [r4, #12]
 8002474:	4303      	orrs	r3, r0
 8002476:	608b      	str	r3, [r1, #8]
 8002478:	e7b2      	b.n	80023e0 <HAL_RCC_ClockConfig+0x20>
 800247a:	6862      	ldr	r2, [r4, #4]
 800247c:	4f1e      	ldr	r7, [pc, #120]	@ (80024f8 <HAL_RCC_ClockConfig+0x138>)
 800247e:	2a01      	cmp	r2, #1
 8002480:	d119      	bne.n	80024b6 <HAL_RCC_ClockConfig+0xf6>
 8002482:	683b      	ldr	r3, [r7, #0]
 8002484:	039b      	lsls	r3, r3, #14
 8002486:	d5a0      	bpl.n	80023ca <HAL_RCC_ClockConfig+0xa>
 8002488:	2107      	movs	r1, #7
 800248a:	68bb      	ldr	r3, [r7, #8]
 800248c:	438b      	bics	r3, r1
 800248e:	4313      	orrs	r3, r2
 8002490:	60bb      	str	r3, [r7, #8]
 8002492:	f7ff f83f 	bl	8001514 <HAL_GetTick>
 8002496:	9001      	str	r0, [sp, #4]
 8002498:	2338      	movs	r3, #56	@ 0x38
 800249a:	68ba      	ldr	r2, [r7, #8]
 800249c:	401a      	ands	r2, r3
 800249e:	6863      	ldr	r3, [r4, #4]
 80024a0:	00db      	lsls	r3, r3, #3
 80024a2:	429a      	cmp	r2, r3
 80024a4:	d09e      	beq.n	80023e4 <HAL_RCC_ClockConfig+0x24>
 80024a6:	f7ff f835 	bl	8001514 <HAL_GetTick>
 80024aa:	9b01      	ldr	r3, [sp, #4]
 80024ac:	1ac0      	subs	r0, r0, r3
 80024ae:	4b16      	ldr	r3, [pc, #88]	@ (8002508 <HAL_RCC_ClockConfig+0x148>)
 80024b0:	4298      	cmp	r0, r3
 80024b2:	d9f1      	bls.n	8002498 <HAL_RCC_ClockConfig+0xd8>
 80024b4:	e7ce      	b.n	8002454 <HAL_RCC_ClockConfig+0x94>
 80024b6:	2a00      	cmp	r2, #0
 80024b8:	d103      	bne.n	80024c2 <HAL_RCC_ClockConfig+0x102>
 80024ba:	683b      	ldr	r3, [r7, #0]
 80024bc:	055b      	lsls	r3, r3, #21
 80024be:	d4e3      	bmi.n	8002488 <HAL_RCC_ClockConfig+0xc8>
 80024c0:	e783      	b.n	80023ca <HAL_RCC_ClockConfig+0xa>
 80024c2:	2302      	movs	r3, #2
 80024c4:	2a03      	cmp	r2, #3
 80024c6:	d103      	bne.n	80024d0 <HAL_RCC_ClockConfig+0x110>
 80024c8:	6e39      	ldr	r1, [r7, #96]	@ 0x60
 80024ca:	4219      	tst	r1, r3
 80024cc:	d1dc      	bne.n	8002488 <HAL_RCC_ClockConfig+0xc8>
 80024ce:	e77c      	b.n	80023ca <HAL_RCC_ClockConfig+0xa>
 80024d0:	6df9      	ldr	r1, [r7, #92]	@ 0x5c
 80024d2:	e7fa      	b.n	80024ca <HAL_RCC_ClockConfig+0x10a>
 80024d4:	f7ff f81e 	bl	8001514 <HAL_GetTick>
 80024d8:	9b01      	ldr	r3, [sp, #4]
 80024da:	1ac0      	subs	r0, r0, r3
 80024dc:	4b0a      	ldr	r3, [pc, #40]	@ (8002508 <HAL_RCC_ClockConfig+0x148>)
 80024de:	4298      	cmp	r0, r3
 80024e0:	d98c      	bls.n	80023fc <HAL_RCC_ClockConfig+0x3c>
 80024e2:	e7b7      	b.n	8002454 <HAL_RCC_ClockConfig+0x94>
 80024e4:	68ab      	ldr	r3, [r5, #8]
 80024e6:	4a0b      	ldr	r2, [pc, #44]	@ (8002514 <HAL_RCC_ClockConfig+0x154>)
 80024e8:	4013      	ands	r3, r2
 80024ea:	6922      	ldr	r2, [r4, #16]
 80024ec:	4313      	orrs	r3, r2
 80024ee:	60ab      	str	r3, [r5, #8]
 80024f0:	e78c      	b.n	800240c <HAL_RCC_ClockConfig+0x4c>
 80024f2:	46c0      	nop			@ (mov r8, r8)
 80024f4:	40022000 	.word	0x40022000
 80024f8:	40021000 	.word	0x40021000
 80024fc:	08006658 	.word	0x08006658
 8002500:	20000000 	.word	0x20000000
 8002504:	20000008 	.word	0x20000008
 8002508:	00001388 	.word	0x00001388
 800250c:	ffff84ff 	.word	0xffff84ff
 8002510:	fffff0ff 	.word	0xfffff0ff
 8002514:	ffff8fff 	.word	0xffff8fff

08002518 <HAL_RCC_GetHCLKFreq>:
 8002518:	b510      	push	{r4, lr}
 800251a:	f7ff ff2d 	bl	8002378 <HAL_RCC_GetSysClockFreq>
 800251e:	4b06      	ldr	r3, [pc, #24]	@ (8002538 <HAL_RCC_GetHCLKFreq+0x20>)
 8002520:	4a06      	ldr	r2, [pc, #24]	@ (800253c <HAL_RCC_GetHCLKFreq+0x24>)
 8002522:	689b      	ldr	r3, [r3, #8]
 8002524:	051b      	lsls	r3, r3, #20
 8002526:	0f1b      	lsrs	r3, r3, #28
 8002528:	009b      	lsls	r3, r3, #2
 800252a:	589b      	ldr	r3, [r3, r2]
 800252c:	221f      	movs	r2, #31
 800252e:	4013      	ands	r3, r2
 8002530:	40d8      	lsrs	r0, r3
 8002532:	4b03      	ldr	r3, [pc, #12]	@ (8002540 <HAL_RCC_GetHCLKFreq+0x28>)
 8002534:	6018      	str	r0, [r3, #0]
 8002536:	bd10      	pop	{r4, pc}
 8002538:	40021000 	.word	0x40021000
 800253c:	08006658 	.word	0x08006658
 8002540:	20000000 	.word	0x20000000

08002544 <HAL_RCC_GetPCLK1Freq>:
 8002544:	b510      	push	{r4, lr}
 8002546:	f7ff ffe7 	bl	8002518 <HAL_RCC_GetHCLKFreq>
 800254a:	4b05      	ldr	r3, [pc, #20]	@ (8002560 <HAL_RCC_GetPCLK1Freq+0x1c>)
 800254c:	4a05      	ldr	r2, [pc, #20]	@ (8002564 <HAL_RCC_GetPCLK1Freq+0x20>)
 800254e:	689b      	ldr	r3, [r3, #8]
 8002550:	045b      	lsls	r3, r3, #17
 8002552:	0f5b      	lsrs	r3, r3, #29
 8002554:	009b      	lsls	r3, r3, #2
 8002556:	589b      	ldr	r3, [r3, r2]
 8002558:	221f      	movs	r2, #31
 800255a:	4013      	ands	r3, r2
 800255c:	40d8      	lsrs	r0, r3
 800255e:	bd10      	pop	{r4, pc}
 8002560:	40021000 	.word	0x40021000
 8002564:	08006638 	.word	0x08006638

08002568 <HAL_RCCEx_PeriphCLKConfig>:
 8002568:	b5f0      	push	{r4, r5, r6, r7, lr}
 800256a:	6803      	ldr	r3, [r0, #0]
 800256c:	0005      	movs	r5, r0
 800256e:	b085      	sub	sp, #20
 8002570:	2000      	movs	r0, #0
 8002572:	065b      	lsls	r3, r3, #25
 8002574:	d523      	bpl.n	80025be <HAL_RCCEx_PeriphCLKConfig+0x56>
 8002576:	2280      	movs	r2, #128	@ 0x80
 8002578:	4c39      	ldr	r4, [pc, #228]	@ (8002660 <HAL_RCCEx_PeriphCLKConfig+0xf8>)
 800257a:	0552      	lsls	r2, r2, #21
 800257c:	6be3      	ldr	r3, [r4, #60]	@ 0x3c
 800257e:	0006      	movs	r6, r0
 8002580:	4213      	tst	r3, r2
 8002582:	d107      	bne.n	8002594 <HAL_RCCEx_PeriphCLKConfig+0x2c>
 8002584:	6be3      	ldr	r3, [r4, #60]	@ 0x3c
 8002586:	3601      	adds	r6, #1
 8002588:	4313      	orrs	r3, r2
 800258a:	63e3      	str	r3, [r4, #60]	@ 0x3c
 800258c:	6be3      	ldr	r3, [r4, #60]	@ 0x3c
 800258e:	4013      	ands	r3, r2
 8002590:	9303      	str	r3, [sp, #12]
 8002592:	9b03      	ldr	r3, [sp, #12]
 8002594:	6de2      	ldr	r2, [r4, #92]	@ 0x5c
 8002596:	23c0      	movs	r3, #192	@ 0xc0
 8002598:	0011      	movs	r1, r2
 800259a:	009b      	lsls	r3, r3, #2
 800259c:	69a8      	ldr	r0, [r5, #24]
 800259e:	4f31      	ldr	r7, [pc, #196]	@ (8002664 <HAL_RCCEx_PeriphCLKConfig+0xfc>)
 80025a0:	4019      	ands	r1, r3
 80025a2:	421a      	tst	r2, r3
 80025a4:	d13b      	bne.n	800261e <HAL_RCCEx_PeriphCLKConfig+0xb6>
 80025a6:	2000      	movs	r0, #0
 80025a8:	6de3      	ldr	r3, [r4, #92]	@ 0x5c
 80025aa:	69aa      	ldr	r2, [r5, #24]
 80025ac:	403b      	ands	r3, r7
 80025ae:	4313      	orrs	r3, r2
 80025b0:	65e3      	str	r3, [r4, #92]	@ 0x5c
 80025b2:	2e01      	cmp	r6, #1
 80025b4:	d103      	bne.n	80025be <HAL_RCCEx_PeriphCLKConfig+0x56>
 80025b6:	6be3      	ldr	r3, [r4, #60]	@ 0x3c
 80025b8:	4a2b      	ldr	r2, [pc, #172]	@ (8002668 <HAL_RCCEx_PeriphCLKConfig+0x100>)
 80025ba:	4013      	ands	r3, r2
 80025bc:	63e3      	str	r3, [r4, #60]	@ 0x3c
 80025be:	682a      	ldr	r2, [r5, #0]
 80025c0:	07d3      	lsls	r3, r2, #31
 80025c2:	d506      	bpl.n	80025d2 <HAL_RCCEx_PeriphCLKConfig+0x6a>
 80025c4:	2403      	movs	r4, #3
 80025c6:	4926      	ldr	r1, [pc, #152]	@ (8002660 <HAL_RCCEx_PeriphCLKConfig+0xf8>)
 80025c8:	6d4b      	ldr	r3, [r1, #84]	@ 0x54
 80025ca:	43a3      	bics	r3, r4
 80025cc:	68ac      	ldr	r4, [r5, #8]
 80025ce:	4323      	orrs	r3, r4
 80025d0:	654b      	str	r3, [r1, #84]	@ 0x54
 80025d2:	0793      	lsls	r3, r2, #30
 80025d4:	d506      	bpl.n	80025e4 <HAL_RCCEx_PeriphCLKConfig+0x7c>
 80025d6:	4922      	ldr	r1, [pc, #136]	@ (8002660 <HAL_RCCEx_PeriphCLKConfig+0xf8>)
 80025d8:	4c24      	ldr	r4, [pc, #144]	@ (800266c <HAL_RCCEx_PeriphCLKConfig+0x104>)
 80025da:	6d4b      	ldr	r3, [r1, #84]	@ 0x54
 80025dc:	4023      	ands	r3, r4
 80025de:	68ec      	ldr	r4, [r5, #12]
 80025e0:	4323      	orrs	r3, r4
 80025e2:	654b      	str	r3, [r1, #84]	@ 0x54
 80025e4:	0693      	lsls	r3, r2, #26
 80025e6:	d506      	bpl.n	80025f6 <HAL_RCCEx_PeriphCLKConfig+0x8e>
 80025e8:	491d      	ldr	r1, [pc, #116]	@ (8002660 <HAL_RCCEx_PeriphCLKConfig+0xf8>)
 80025ea:	696c      	ldr	r4, [r5, #20]
 80025ec:	6d4b      	ldr	r3, [r1, #84]	@ 0x54
 80025ee:	009b      	lsls	r3, r3, #2
 80025f0:	089b      	lsrs	r3, r3, #2
 80025f2:	4323      	orrs	r3, r4
 80025f4:	654b      	str	r3, [r1, #84]	@ 0x54
 80025f6:	0753      	lsls	r3, r2, #29
 80025f8:	d506      	bpl.n	8002608 <HAL_RCCEx_PeriphCLKConfig+0xa0>
 80025fa:	4919      	ldr	r1, [pc, #100]	@ (8002660 <HAL_RCCEx_PeriphCLKConfig+0xf8>)
 80025fc:	4c1c      	ldr	r4, [pc, #112]	@ (8002670 <HAL_RCCEx_PeriphCLKConfig+0x108>)
 80025fe:	6d4b      	ldr	r3, [r1, #84]	@ 0x54
 8002600:	4023      	ands	r3, r4
 8002602:	692c      	ldr	r4, [r5, #16]
 8002604:	4323      	orrs	r3, r4
 8002606:	654b      	str	r3, [r1, #84]	@ 0x54
 8002608:	0612      	lsls	r2, r2, #24
 800260a:	d506      	bpl.n	800261a <HAL_RCCEx_PeriphCLKConfig+0xb2>
 800260c:	21e0      	movs	r1, #224	@ 0xe0
 800260e:	4a14      	ldr	r2, [pc, #80]	@ (8002660 <HAL_RCCEx_PeriphCLKConfig+0xf8>)
 8002610:	6813      	ldr	r3, [r2, #0]
 8002612:	438b      	bics	r3, r1
 8002614:	6869      	ldr	r1, [r5, #4]
 8002616:	430b      	orrs	r3, r1
 8002618:	6013      	str	r3, [r2, #0]
 800261a:	b005      	add	sp, #20
 800261c:	bdf0      	pop	{r4, r5, r6, r7, pc}
 800261e:	4288      	cmp	r0, r1
 8002620:	d0c1      	beq.n	80025a6 <HAL_RCCEx_PeriphCLKConfig+0x3e>
 8002622:	2280      	movs	r2, #128	@ 0x80
 8002624:	6de3      	ldr	r3, [r4, #92]	@ 0x5c
 8002626:	6de0      	ldr	r0, [r4, #92]	@ 0x5c
 8002628:	0019      	movs	r1, r3
 800262a:	0252      	lsls	r2, r2, #9
 800262c:	4302      	orrs	r2, r0
 800262e:	65e2      	str	r2, [r4, #92]	@ 0x5c
 8002630:	6de2      	ldr	r2, [r4, #92]	@ 0x5c
 8002632:	4810      	ldr	r0, [pc, #64]	@ (8002674 <HAL_RCCEx_PeriphCLKConfig+0x10c>)
 8002634:	4039      	ands	r1, r7
 8002636:	4002      	ands	r2, r0
 8002638:	65e2      	str	r2, [r4, #92]	@ 0x5c
 800263a:	65e1      	str	r1, [r4, #92]	@ 0x5c
 800263c:	07db      	lsls	r3, r3, #31
 800263e:	d5b2      	bpl.n	80025a6 <HAL_RCCEx_PeriphCLKConfig+0x3e>
 8002640:	f7fe ff68 	bl	8001514 <HAL_GetTick>
 8002644:	9001      	str	r0, [sp, #4]
 8002646:	2202      	movs	r2, #2
 8002648:	6de3      	ldr	r3, [r4, #92]	@ 0x5c
 800264a:	4213      	tst	r3, r2
 800264c:	d1ab      	bne.n	80025a6 <HAL_RCCEx_PeriphCLKConfig+0x3e>
 800264e:	f7fe ff61 	bl	8001514 <HAL_GetTick>
 8002652:	9b01      	ldr	r3, [sp, #4]
 8002654:	1ac0      	subs	r0, r0, r3
 8002656:	4b08      	ldr	r3, [pc, #32]	@ (8002678 <HAL_RCCEx_PeriphCLKConfig+0x110>)
 8002658:	4298      	cmp	r0, r3
 800265a:	d9f4      	bls.n	8002646 <HAL_RCCEx_PeriphCLKConfig+0xde>
 800265c:	2003      	movs	r0, #3
 800265e:	e7a8      	b.n	80025b2 <HAL_RCCEx_PeriphCLKConfig+0x4a>
 8002660:	40021000 	.word	0x40021000
 8002664:	fffffcff 	.word	0xfffffcff
 8002668:	efffffff 	.word	0xefffffff
 800266c:	ffffcfff 	.word	0xffffcfff
 8002670:	ffff3fff 	.word	0xffff3fff
 8002674:	fffeffff 	.word	0xfffeffff
 8002678:	00001388 	.word	0x00001388

0800267c <SPI_WaitFlagStateUntilTimeout.constprop.0>:
 800267c:	b5f0      	push	{r4, r5, r6, r7, lr}
 800267e:	000e      	movs	r6, r1
 8002680:	b085      	sub	sp, #20
 8002682:	0015      	movs	r5, r2
 8002684:	0004      	movs	r4, r0
 8002686:	f7fe ff45 	bl	8001514 <HAL_GetTick>
 800268a:	19ad      	adds	r5, r5, r6
 800268c:	1a2d      	subs	r5, r5, r0
 800268e:	f7fe ff41 	bl	8001514 <HAL_GetTick>
 8002692:	2780      	movs	r7, #128	@ 0x80
 8002694:	4b25      	ldr	r3, [pc, #148]	@ (800272c <SPI_WaitFlagStateUntilTimeout.constprop.0+0xb0>)
 8002696:	9001      	str	r0, [sp, #4]
 8002698:	681b      	ldr	r3, [r3, #0]
 800269a:	015b      	lsls	r3, r3, #5
 800269c:	0d1b      	lsrs	r3, r3, #20
 800269e:	436b      	muls	r3, r5
 80026a0:	9303      	str	r3, [sp, #12]
 80026a2:	6822      	ldr	r2, [r4, #0]
 80026a4:	6893      	ldr	r3, [r2, #8]
 80026a6:	0018      	movs	r0, r3
 80026a8:	4038      	ands	r0, r7
 80026aa:	423b      	tst	r3, r7
 80026ac:	d032      	beq.n	8002714 <SPI_WaitFlagStateUntilTimeout.constprop.0+0x98>
 80026ae:	1c73      	adds	r3, r6, #1
 80026b0:	d0f8      	beq.n	80026a4 <SPI_WaitFlagStateUntilTimeout.constprop.0+0x28>
 80026b2:	f7fe ff2f 	bl	8001514 <HAL_GetTick>
 80026b6:	9b01      	ldr	r3, [sp, #4]
 80026b8:	1ac0      	subs	r0, r0, r3
 80026ba:	42a8      	cmp	r0, r5
 80026bc:	d32c      	bcc.n	8002718 <SPI_WaitFlagStateUntilTimeout.constprop.0+0x9c>
 80026be:	21e0      	movs	r1, #224	@ 0xe0
 80026c0:	6823      	ldr	r3, [r4, #0]
 80026c2:	685a      	ldr	r2, [r3, #4]
 80026c4:	438a      	bics	r2, r1
 80026c6:	605a      	str	r2, [r3, #4]
 80026c8:	2282      	movs	r2, #130	@ 0x82
 80026ca:	6861      	ldr	r1, [r4, #4]
 80026cc:	0052      	lsls	r2, r2, #1
 80026ce:	4291      	cmp	r1, r2
 80026d0:	d10c      	bne.n	80026ec <SPI_WaitFlagStateUntilTimeout.constprop.0+0x70>
 80026d2:	2180      	movs	r1, #128	@ 0x80
 80026d4:	68a2      	ldr	r2, [r4, #8]
 80026d6:	0209      	lsls	r1, r1, #8
 80026d8:	428a      	cmp	r2, r1
 80026da:	d003      	beq.n	80026e4 <SPI_WaitFlagStateUntilTimeout.constprop.0+0x68>
 80026dc:	2180      	movs	r1, #128	@ 0x80
 80026de:	00c9      	lsls	r1, r1, #3
 80026e0:	428a      	cmp	r2, r1
 80026e2:	d103      	bne.n	80026ec <SPI_WaitFlagStateUntilTimeout.constprop.0+0x70>
 80026e4:	2140      	movs	r1, #64	@ 0x40
 80026e6:	681a      	ldr	r2, [r3, #0]
 80026e8:	438a      	bics	r2, r1
 80026ea:	601a      	str	r2, [r3, #0]
 80026ec:	2180      	movs	r1, #128	@ 0x80
 80026ee:	6aa2      	ldr	r2, [r4, #40]	@ 0x28
 80026f0:	0189      	lsls	r1, r1, #6
 80026f2:	428a      	cmp	r2, r1
 80026f4:	d106      	bne.n	8002704 <SPI_WaitFlagStateUntilTimeout.constprop.0+0x88>
 80026f6:	6819      	ldr	r1, [r3, #0]
 80026f8:	480d      	ldr	r0, [pc, #52]	@ (8002730 <SPI_WaitFlagStateUntilTimeout.constprop.0+0xb4>)
 80026fa:	4001      	ands	r1, r0
 80026fc:	6019      	str	r1, [r3, #0]
 80026fe:	6819      	ldr	r1, [r3, #0]
 8002700:	430a      	orrs	r2, r1
 8002702:	601a      	str	r2, [r3, #0]
 8002704:	0023      	movs	r3, r4
 8002706:	2201      	movs	r2, #1
 8002708:	335d      	adds	r3, #93	@ 0x5d
 800270a:	701a      	strb	r2, [r3, #0]
 800270c:	2300      	movs	r3, #0
 800270e:	2003      	movs	r0, #3
 8002710:	345c      	adds	r4, #92	@ 0x5c
 8002712:	7023      	strb	r3, [r4, #0]
 8002714:	b005      	add	sp, #20
 8002716:	bdf0      	pop	{r4, r5, r6, r7, pc}
 8002718:	9b03      	ldr	r3, [sp, #12]
 800271a:	2b00      	cmp	r3, #0
 800271c:	d000      	beq.n	8002720 <SPI_WaitFlagStateUntilTimeout.constprop.0+0xa4>
 800271e:	002b      	movs	r3, r5
 8002720:	9a03      	ldr	r2, [sp, #12]
 8002722:	001d      	movs	r5, r3
 8002724:	3a01      	subs	r2, #1
 8002726:	9203      	str	r2, [sp, #12]
 8002728:	e7bb      	b.n	80026a2 <SPI_WaitFlagStateUntilTimeout.constprop.0+0x26>
 800272a:	46c0      	nop			@ (mov r8, r8)
 800272c:	20000000 	.word	0x20000000
 8002730:	ffffdfff 	.word	0xffffdfff

08002734 <SPI_WaitFifoStateUntilTimeout.constprop.0>:
 8002734:	b5f0      	push	{r4, r5, r6, r7, lr}
 8002736:	0017      	movs	r7, r2
 8002738:	2200      	movs	r2, #0
 800273a:	b085      	sub	sp, #20
 800273c:	001d      	movs	r5, r3
 800273e:	ab02      	add	r3, sp, #8
 8002740:	70da      	strb	r2, [r3, #3]
 8002742:	0004      	movs	r4, r0
 8002744:	000e      	movs	r6, r1
 8002746:	f7fe fee5 	bl	8001514 <HAL_GetTick>
 800274a:	19ed      	adds	r5, r5, r7
 800274c:	1a2d      	subs	r5, r5, r0
 800274e:	f7fe fee1 	bl	8001514 <HAL_GetTick>
 8002752:	2223      	movs	r2, #35	@ 0x23
 8002754:	6823      	ldr	r3, [r4, #0]
 8002756:	9000      	str	r0, [sp, #0]
 8002758:	9301      	str	r3, [sp, #4]
 800275a:	4b2a      	ldr	r3, [pc, #168]	@ (8002804 <SPI_WaitFifoStateUntilTimeout.constprop.0+0xd0>)
 800275c:	681b      	ldr	r3, [r3, #0]
 800275e:	4353      	muls	r3, r2
 8002760:	0d1b      	lsrs	r3, r3, #20
 8002762:	436b      	muls	r3, r5
 8002764:	9303      	str	r3, [sp, #12]
 8002766:	ab02      	add	r3, sp, #8
 8002768:	6821      	ldr	r1, [r4, #0]
 800276a:	1cda      	adds	r2, r3, #3
 800276c:	688b      	ldr	r3, [r1, #8]
 800276e:	0018      	movs	r0, r3
 8002770:	4030      	ands	r0, r6
 8002772:	4233      	tst	r3, r6
 8002774:	d03b      	beq.n	80027ee <SPI_WaitFifoStateUntilTimeout.constprop.0+0xba>
 8002776:	23c0      	movs	r3, #192	@ 0xc0
 8002778:	00db      	lsls	r3, r3, #3
 800277a:	429e      	cmp	r6, r3
 800277c:	d104      	bne.n	8002788 <SPI_WaitFifoStateUntilTimeout.constprop.0+0x54>
 800277e:	9b01      	ldr	r3, [sp, #4]
 8002780:	7b1b      	ldrb	r3, [r3, #12]
 8002782:	b2db      	uxtb	r3, r3
 8002784:	7013      	strb	r3, [r2, #0]
 8002786:	7813      	ldrb	r3, [r2, #0]
 8002788:	1c7b      	adds	r3, r7, #1
 800278a:	d0ef      	beq.n	800276c <SPI_WaitFifoStateUntilTimeout.constprop.0+0x38>
 800278c:	f7fe fec2 	bl	8001514 <HAL_GetTick>
 8002790:	9b00      	ldr	r3, [sp, #0]
 8002792:	1ac0      	subs	r0, r0, r3
 8002794:	42a8      	cmp	r0, r5
 8002796:	d32c      	bcc.n	80027f2 <SPI_WaitFifoStateUntilTimeout.constprop.0+0xbe>
 8002798:	21e0      	movs	r1, #224	@ 0xe0
 800279a:	6823      	ldr	r3, [r4, #0]
 800279c:	685a      	ldr	r2, [r3, #4]
 800279e:	438a      	bics	r2, r1
 80027a0:	605a      	str	r2, [r3, #4]
 80027a2:	2282      	movs	r2, #130	@ 0x82
 80027a4:	6861      	ldr	r1, [r4, #4]
 80027a6:	0052      	lsls	r2, r2, #1
 80027a8:	4291      	cmp	r1, r2
 80027aa:	d10c      	bne.n	80027c6 <SPI_WaitFifoStateUntilTimeout.constprop.0+0x92>
 80027ac:	2180      	movs	r1, #128	@ 0x80
 80027ae:	68a2      	ldr	r2, [r4, #8]
 80027b0:	0209      	lsls	r1, r1, #8
 80027b2:	428a      	cmp	r2, r1
 80027b4:	d003      	beq.n	80027be <SPI_WaitFifoStateUntilTimeout.constprop.0+0x8a>
 80027b6:	2180      	movs	r1, #128	@ 0x80
 80027b8:	00c9      	lsls	r1, r1, #3
 80027ba:	428a      	cmp	r2, r1
 80027bc:	d103      	bne.n	80027c6 <SPI_WaitFifoStateUntilTimeout.constprop.0+0x92>
 80027be:	2140      	movs	r1, #64	@ 0x40
 80027c0:	681a      	ldr	r2, [r3, #0]
 80027c2:	438a      	bics	r2, r1
 80027c4:	601a      	str	r2, [r3, #0]
 80027c6:	2180      	movs	r1, #128	@ 0x80
 80027c8:	6aa2      	ldr	r2, [r4, #40]	@ 0x28
 80027ca:	0189      	lsls	r1, r1, #6
 80027cc:	428a      	cmp	r2, r1
 80027ce:	d106      	bne.n	80027de <SPI_WaitFifoStateUntilTimeout.constprop.0+0xaa>
 80027d0:	6819      	ldr	r1, [r3, #0]
 80027d2:	480d      	ldr	r0, [pc, #52]	@ (8002808 <SPI_WaitFifoStateUntilTimeout.constprop.0+0xd4>)
 80027d4:	4001      	ands	r1, r0
 80027d6:	6019      	str	r1, [r3, #0]
 80027d8:	6819      	ldr	r1, [r3, #0]
 80027da:	430a      	orrs	r2, r1
 80027dc:	601a      	str	r2, [r3, #0]
 80027de:	0023      	movs	r3, r4
 80027e0:	2201      	movs	r2, #1
 80027e2:	335d      	adds	r3, #93	@ 0x5d
 80027e4:	701a      	strb	r2, [r3, #0]
 80027e6:	2300      	movs	r3, #0
 80027e8:	2003      	movs	r0, #3
 80027ea:	345c      	adds	r4, #92	@ 0x5c
 80027ec:	7023      	strb	r3, [r4, #0]
 80027ee:	b005      	add	sp, #20
 80027f0:	bdf0      	pop	{r4, r5, r6, r7, pc}
 80027f2:	9b03      	ldr	r3, [sp, #12]
 80027f4:	2b00      	cmp	r3, #0
 80027f6:	d000      	beq.n	80027fa <SPI_WaitFifoStateUntilTimeout.constprop.0+0xc6>
 80027f8:	002b      	movs	r3, r5
 80027fa:	9a03      	ldr	r2, [sp, #12]
 80027fc:	001d      	movs	r5, r3
 80027fe:	3a01      	subs	r2, #1
 8002800:	9203      	str	r2, [sp, #12]
 8002802:	e7b0      	b.n	8002766 <SPI_WaitFifoStateUntilTimeout.constprop.0+0x32>
 8002804:	20000000 	.word	0x20000000
 8002808:	ffffdfff 	.word	0xffffdfff

0800280c <SPI_EndRxTransaction>:
 800280c:	b5f8      	push	{r3, r4, r5, r6, r7, lr}
 800280e:	2382      	movs	r3, #130	@ 0x82
 8002810:	0017      	movs	r7, r2
 8002812:	6842      	ldr	r2, [r0, #4]
 8002814:	0004      	movs	r4, r0
 8002816:	000e      	movs	r6, r1
 8002818:	005b      	lsls	r3, r3, #1
 800281a:	429a      	cmp	r2, r3
 800281c:	d10d      	bne.n	800283a <SPI_EndRxTransaction+0x2e>
 800281e:	2280      	movs	r2, #128	@ 0x80
 8002820:	6883      	ldr	r3, [r0, #8]
 8002822:	0212      	lsls	r2, r2, #8
 8002824:	4293      	cmp	r3, r2
 8002826:	d003      	beq.n	8002830 <SPI_EndRxTransaction+0x24>
 8002828:	2280      	movs	r2, #128	@ 0x80
 800282a:	00d2      	lsls	r2, r2, #3
 800282c:	4293      	cmp	r3, r2
 800282e:	d104      	bne.n	800283a <SPI_EndRxTransaction+0x2e>
 8002830:	2140      	movs	r1, #64	@ 0x40
 8002832:	6822      	ldr	r2, [r4, #0]
 8002834:	6813      	ldr	r3, [r2, #0]
 8002836:	438b      	bics	r3, r1
 8002838:	6013      	str	r3, [r2, #0]
 800283a:	003a      	movs	r2, r7
 800283c:	0031      	movs	r1, r6
 800283e:	0020      	movs	r0, r4
 8002840:	f7ff ff1c 	bl	800267c <SPI_WaitFlagStateUntilTimeout.constprop.0>
 8002844:	1e05      	subs	r5, r0, #0
 8002846:	d005      	beq.n	8002854 <SPI_EndRxTransaction+0x48>
 8002848:	2320      	movs	r3, #32
 800284a:	6e22      	ldr	r2, [r4, #96]	@ 0x60
 800284c:	2503      	movs	r5, #3
 800284e:	4313      	orrs	r3, r2
 8002850:	6623      	str	r3, [r4, #96]	@ 0x60
 8002852:	e016      	b.n	8002882 <SPI_EndRxTransaction+0x76>
 8002854:	2382      	movs	r3, #130	@ 0x82
 8002856:	6862      	ldr	r2, [r4, #4]
 8002858:	005b      	lsls	r3, r3, #1
 800285a:	429a      	cmp	r2, r3
 800285c:	d111      	bne.n	8002882 <SPI_EndRxTransaction+0x76>
 800285e:	2280      	movs	r2, #128	@ 0x80
 8002860:	68a3      	ldr	r3, [r4, #8]
 8002862:	0212      	lsls	r2, r2, #8
 8002864:	4293      	cmp	r3, r2
 8002866:	d003      	beq.n	8002870 <SPI_EndRxTransaction+0x64>
 8002868:	2280      	movs	r2, #128	@ 0x80
 800286a:	00d2      	lsls	r2, r2, #3
 800286c:	4293      	cmp	r3, r2
 800286e:	d108      	bne.n	8002882 <SPI_EndRxTransaction+0x76>
 8002870:	21c0      	movs	r1, #192	@ 0xc0
 8002872:	003b      	movs	r3, r7
 8002874:	0032      	movs	r2, r6
 8002876:	0020      	movs	r0, r4
 8002878:	00c9      	lsls	r1, r1, #3
 800287a:	f7ff ff5b 	bl	8002734 <SPI_WaitFifoStateUntilTimeout.constprop.0>
 800287e:	2800      	cmp	r0, #0
 8002880:	d1e2      	bne.n	8002848 <SPI_EndRxTransaction+0x3c>
 8002882:	0028      	movs	r0, r5
 8002884:	bdf8      	pop	{r3, r4, r5, r6, r7, pc}

08002886 <SPI_EndRxTxTransaction>:
 8002886:	b570      	push	{r4, r5, r6, lr}
 8002888:	0013      	movs	r3, r2
 800288a:	000d      	movs	r5, r1
 800288c:	0016      	movs	r6, r2
 800288e:	000a      	movs	r2, r1
 8002890:	21c0      	movs	r1, #192	@ 0xc0
 8002892:	0149      	lsls	r1, r1, #5
 8002894:	0004      	movs	r4, r0
 8002896:	f7ff ff4d 	bl	8002734 <SPI_WaitFifoStateUntilTimeout.constprop.0>
 800289a:	2800      	cmp	r0, #0
 800289c:	d005      	beq.n	80028aa <SPI_EndRxTxTransaction+0x24>
 800289e:	2320      	movs	r3, #32
 80028a0:	2003      	movs	r0, #3
 80028a2:	6e22      	ldr	r2, [r4, #96]	@ 0x60
 80028a4:	4313      	orrs	r3, r2
 80028a6:	6623      	str	r3, [r4, #96]	@ 0x60
 80028a8:	bd70      	pop	{r4, r5, r6, pc}
 80028aa:	0032      	movs	r2, r6
 80028ac:	0029      	movs	r1, r5
 80028ae:	0020      	movs	r0, r4
 80028b0:	f7ff fee4 	bl	800267c <SPI_WaitFlagStateUntilTimeout.constprop.0>
 80028b4:	2800      	cmp	r0, #0
 80028b6:	d1f2      	bne.n	800289e <SPI_EndRxTxTransaction+0x18>
 80028b8:	21c0      	movs	r1, #192	@ 0xc0
 80028ba:	0033      	movs	r3, r6
 80028bc:	002a      	movs	r2, r5
 80028be:	0020      	movs	r0, r4
 80028c0:	00c9      	lsls	r1, r1, #3
 80028c2:	f7ff ff37 	bl	8002734 <SPI_WaitFifoStateUntilTimeout.constprop.0>
 80028c6:	2800      	cmp	r0, #0
 80028c8:	d0ee      	beq.n	80028a8 <SPI_EndRxTxTransaction+0x22>
 80028ca:	e7e8      	b.n	800289e <SPI_EndRxTxTransaction+0x18>

080028cc <HAL_SPI_Init>:
 80028cc:	b5f8      	push	{r3, r4, r5, r6, r7, lr}
 80028ce:	0004      	movs	r4, r0
 80028d0:	2001      	movs	r0, #1
 80028d2:	2c00      	cmp	r4, #0
 80028d4:	d067      	beq.n	80029a6 <HAL_SPI_Init+0xda>
 80028d6:	6a63      	ldr	r3, [r4, #36]	@ 0x24
 80028d8:	2b00      	cmp	r3, #0
 80028da:	d165      	bne.n	80029a8 <HAL_SPI_Init+0xdc>
 80028dc:	2282      	movs	r2, #130	@ 0x82
 80028de:	6861      	ldr	r1, [r4, #4]
 80028e0:	0052      	lsls	r2, r2, #1
 80028e2:	4291      	cmp	r1, r2
 80028e4:	d000      	beq.n	80028e8 <HAL_SPI_Init+0x1c>
 80028e6:	61e3      	str	r3, [r4, #28]
 80028e8:	2300      	movs	r3, #0
 80028ea:	0025      	movs	r5, r4
 80028ec:	62a3      	str	r3, [r4, #40]	@ 0x28
 80028ee:	355d      	adds	r5, #93	@ 0x5d
 80028f0:	782b      	ldrb	r3, [r5, #0]
 80028f2:	b2da      	uxtb	r2, r3
 80028f4:	2b00      	cmp	r3, #0
 80028f6:	d105      	bne.n	8002904 <HAL_SPI_Init+0x38>
 80028f8:	0023      	movs	r3, r4
 80028fa:	335c      	adds	r3, #92	@ 0x5c
 80028fc:	0020      	movs	r0, r4
 80028fe:	701a      	strb	r2, [r3, #0]
 8002900:	f7fe fc14 	bl	800112c <HAL_SPI_MspInit>
 8002904:	2302      	movs	r3, #2
 8002906:	2240      	movs	r2, #64	@ 0x40
 8002908:	702b      	strb	r3, [r5, #0]
 800290a:	6821      	ldr	r1, [r4, #0]
 800290c:	68e6      	ldr	r6, [r4, #12]
 800290e:	680b      	ldr	r3, [r1, #0]
 8002910:	4393      	bics	r3, r2
 8002912:	22e0      	movs	r2, #224	@ 0xe0
 8002914:	600b      	str	r3, [r1, #0]
 8002916:	00d2      	lsls	r2, r2, #3
 8002918:	2300      	movs	r3, #0
 800291a:	4296      	cmp	r6, r2
 800291c:	d948      	bls.n	80029b0 <HAL_SPI_Init+0xe4>
 800291e:	22f0      	movs	r2, #240	@ 0xf0
 8002920:	0018      	movs	r0, r3
 8002922:	0112      	lsls	r2, r2, #4
 8002924:	4296      	cmp	r6, r2
 8002926:	d000      	beq.n	800292a <HAL_SPI_Init+0x5e>
 8002928:	62a3      	str	r3, [r4, #40]	@ 0x28
 800292a:	2282      	movs	r2, #130	@ 0x82
 800292c:	2784      	movs	r7, #132	@ 0x84
 800292e:	6863      	ldr	r3, [r4, #4]
 8002930:	0052      	lsls	r2, r2, #1
 8002932:	4013      	ands	r3, r2
 8002934:	68a2      	ldr	r2, [r4, #8]
 8002936:	023f      	lsls	r7, r7, #8
 8002938:	403a      	ands	r2, r7
 800293a:	2702      	movs	r7, #2
 800293c:	4313      	orrs	r3, r2
 800293e:	6922      	ldr	r2, [r4, #16]
 8002940:	69a5      	ldr	r5, [r4, #24]
 8002942:	403a      	ands	r2, r7
 8002944:	4313      	orrs	r3, r2
 8002946:	2201      	movs	r2, #1
 8002948:	6967      	ldr	r7, [r4, #20]
 800294a:	4017      	ands	r7, r2
 800294c:	433b      	orrs	r3, r7
 800294e:	2780      	movs	r7, #128	@ 0x80
 8002950:	00bf      	lsls	r7, r7, #2
 8002952:	402f      	ands	r7, r5
 8002954:	433b      	orrs	r3, r7
 8002956:	69e7      	ldr	r7, [r4, #28]
 8002958:	3237      	adds	r2, #55	@ 0x37
 800295a:	4017      	ands	r7, r2
 800295c:	433b      	orrs	r3, r7
 800295e:	6a27      	ldr	r7, [r4, #32]
 8002960:	3248      	adds	r2, #72	@ 0x48
 8002962:	4017      	ands	r7, r2
 8002964:	2280      	movs	r2, #128	@ 0x80
 8002966:	433b      	orrs	r3, r7
 8002968:	6aa7      	ldr	r7, [r4, #40]	@ 0x28
 800296a:	0192      	lsls	r2, r2, #6
 800296c:	4017      	ands	r7, r2
 800296e:	433b      	orrs	r3, r7
 8002970:	2710      	movs	r7, #16
 8002972:	2208      	movs	r2, #8
 8002974:	600b      	str	r3, [r1, #0]
 8002976:	6a63      	ldr	r3, [r4, #36]	@ 0x24
 8002978:	0c2d      	lsrs	r5, r5, #16
 800297a:	403b      	ands	r3, r7
 800297c:	6b67      	ldr	r7, [r4, #52]	@ 0x34
 800297e:	4017      	ands	r7, r2
 8002980:	433b      	orrs	r3, r7
 8002982:	27f0      	movs	r7, #240	@ 0xf0
 8002984:	013f      	lsls	r7, r7, #4
 8002986:	403e      	ands	r6, r7
 8002988:	4333      	orrs	r3, r6
 800298a:	2604      	movs	r6, #4
 800298c:	4035      	ands	r5, r6
 800298e:	432b      	orrs	r3, r5
 8002990:	4303      	orrs	r3, r0
 8002992:	604b      	str	r3, [r1, #4]
 8002994:	69cb      	ldr	r3, [r1, #28]
 8002996:	4808      	ldr	r0, [pc, #32]	@ (80029b8 <HAL_SPI_Init+0xec>)
 8002998:	4003      	ands	r3, r0
 800299a:	2000      	movs	r0, #0
 800299c:	61cb      	str	r3, [r1, #28]
 800299e:	2301      	movs	r3, #1
 80029a0:	6620      	str	r0, [r4, #96]	@ 0x60
 80029a2:	345d      	adds	r4, #93	@ 0x5d
 80029a4:	7023      	strb	r3, [r4, #0]
 80029a6:	bdf8      	pop	{r3, r4, r5, r6, r7, pc}
 80029a8:	2300      	movs	r3, #0
 80029aa:	6123      	str	r3, [r4, #16]
 80029ac:	6163      	str	r3, [r4, #20]
 80029ae:	e79b      	b.n	80028e8 <HAL_SPI_Init+0x1c>
 80029b0:	2080      	movs	r0, #128	@ 0x80
 80029b2:	0140      	lsls	r0, r0, #5
 80029b4:	e7b6      	b.n	8002924 <HAL_SPI_Init+0x58>
 80029b6:	46c0      	nop			@ (mov r8, r8)
 80029b8:	fffff7ff 	.word	0xfffff7ff

080029bc <HAL_SPI_Transmit>:
 80029bc:	b5f0      	push	{r4, r5, r6, r7, lr}
 80029be:	0004      	movs	r4, r0
 80029c0:	b085      	sub	sp, #20
 80029c2:	001e      	movs	r6, r3
 80029c4:	000d      	movs	r5, r1
 80029c6:	0017      	movs	r7, r2
 80029c8:	f7fe fda4 	bl	8001514 <HAL_GetTick>
 80029cc:	0023      	movs	r3, r4
 80029ce:	335d      	adds	r3, #93	@ 0x5d
 80029d0:	9000      	str	r0, [sp, #0]
 80029d2:	9301      	str	r3, [sp, #4]
 80029d4:	781b      	ldrb	r3, [r3, #0]
 80029d6:	b2d8      	uxtb	r0, r3
 80029d8:	2b01      	cmp	r3, #1
 80029da:	d000      	beq.n	80029de <HAL_SPI_Transmit+0x22>
 80029dc:	e0c6      	b.n	8002b6c <HAL_SPI_Transmit+0x1b0>
 80029de:	2d00      	cmp	r5, #0
 80029e0:	d100      	bne.n	80029e4 <HAL_SPI_Transmit+0x28>
 80029e2:	e080      	b.n	8002ae6 <HAL_SPI_Transmit+0x12a>
 80029e4:	2f00      	cmp	r7, #0
 80029e6:	d100      	bne.n	80029ea <HAL_SPI_Transmit+0x2e>
 80029e8:	e07d      	b.n	8002ae6 <HAL_SPI_Transmit+0x12a>
 80029ea:	0023      	movs	r3, r4
 80029ec:	335c      	adds	r3, #92	@ 0x5c
 80029ee:	781a      	ldrb	r2, [r3, #0]
 80029f0:	2a01      	cmp	r2, #1
 80029f2:	d100      	bne.n	80029f6 <HAL_SPI_Transmit+0x3a>
 80029f4:	e0ba      	b.n	8002b6c <HAL_SPI_Transmit+0x1b0>
 80029f6:	7018      	strb	r0, [r3, #0]
 80029f8:	2303      	movs	r3, #3
 80029fa:	9a01      	ldr	r2, [sp, #4]
 80029fc:	7013      	strb	r3, [r2, #0]
 80029fe:	2300      	movs	r3, #0
 8002a00:	1da2      	adds	r2, r4, #6
 8002a02:	6623      	str	r3, [r4, #96]	@ 0x60
 8002a04:	6423      	str	r3, [r4, #64]	@ 0x40
 8002a06:	63a5      	str	r5, [r4, #56]	@ 0x38
 8002a08:	87a7      	strh	r7, [r4, #60]	@ 0x3c
 8002a0a:	87e7      	strh	r7, [r4, #62]	@ 0x3e
 8002a0c:	3202      	adds	r2, #2
 8002a0e:	8793      	strh	r3, [r2, #60]	@ 0x3c
 8002a10:	87d3      	strh	r3, [r2, #62]	@ 0x3e
 8002a12:	2280      	movs	r2, #128	@ 0x80
 8002a14:	68a1      	ldr	r1, [r4, #8]
 8002a16:	6523      	str	r3, [r4, #80]	@ 0x50
 8002a18:	64e3      	str	r3, [r4, #76]	@ 0x4c
 8002a1a:	0212      	lsls	r2, r2, #8
 8002a1c:	6823      	ldr	r3, [r4, #0]
 8002a1e:	4291      	cmp	r1, r2
 8002a20:	d108      	bne.n	8002a34 <HAL_SPI_Transmit+0x78>
 8002a22:	2140      	movs	r1, #64	@ 0x40
 8002a24:	681a      	ldr	r2, [r3, #0]
 8002a26:	438a      	bics	r2, r1
 8002a28:	601a      	str	r2, [r3, #0]
 8002a2a:	2280      	movs	r2, #128	@ 0x80
 8002a2c:	6819      	ldr	r1, [r3, #0]
 8002a2e:	01d2      	lsls	r2, r2, #7
 8002a30:	430a      	orrs	r2, r1
 8002a32:	601a      	str	r2, [r3, #0]
 8002a34:	2240      	movs	r2, #64	@ 0x40
 8002a36:	6819      	ldr	r1, [r3, #0]
 8002a38:	4211      	tst	r1, r2
 8002a3a:	d102      	bne.n	8002a42 <HAL_SPI_Transmit+0x86>
 8002a3c:	6819      	ldr	r1, [r3, #0]
 8002a3e:	430a      	orrs	r2, r1
 8002a40:	601a      	str	r2, [r3, #0]
 8002a42:	21e0      	movs	r1, #224	@ 0xe0
 8002a44:	68e0      	ldr	r0, [r4, #12]
 8002a46:	6862      	ldr	r2, [r4, #4]
 8002a48:	00c9      	lsls	r1, r1, #3
 8002a4a:	4288      	cmp	r0, r1
 8002a4c:	d94d      	bls.n	8002aea <HAL_SPI_Transmit+0x12e>
 8002a4e:	2a00      	cmp	r2, #0
 8002a50:	d001      	beq.n	8002a56 <HAL_SPI_Transmit+0x9a>
 8002a52:	2f01      	cmp	r7, #1
 8002a54:	d107      	bne.n	8002a66 <HAL_SPI_Transmit+0xaa>
 8002a56:	882a      	ldrh	r2, [r5, #0]
 8002a58:	3502      	adds	r5, #2
 8002a5a:	60da      	str	r2, [r3, #12]
 8002a5c:	8fe3      	ldrh	r3, [r4, #62]	@ 0x3e
 8002a5e:	63a5      	str	r5, [r4, #56]	@ 0x38
 8002a60:	3b01      	subs	r3, #1
 8002a62:	b29b      	uxth	r3, r3
 8002a64:	87e3      	strh	r3, [r4, #62]	@ 0x3e
 8002a66:	2502      	movs	r5, #2
 8002a68:	e00c      	b.n	8002a84 <HAL_SPI_Transmit+0xc8>
 8002a6a:	6822      	ldr	r2, [r4, #0]
 8002a6c:	6893      	ldr	r3, [r2, #8]
 8002a6e:	422b      	tst	r3, r5
 8002a70:	d029      	beq.n	8002ac6 <HAL_SPI_Transmit+0x10a>
 8002a72:	6ba3      	ldr	r3, [r4, #56]	@ 0x38
 8002a74:	8819      	ldrh	r1, [r3, #0]
 8002a76:	3302      	adds	r3, #2
 8002a78:	60d1      	str	r1, [r2, #12]
 8002a7a:	63a3      	str	r3, [r4, #56]	@ 0x38
 8002a7c:	8fe3      	ldrh	r3, [r4, #62]	@ 0x3e
 8002a7e:	3b01      	subs	r3, #1
 8002a80:	b29b      	uxth	r3, r3
 8002a82:	87e3      	strh	r3, [r4, #62]	@ 0x3e
 8002a84:	8fe3      	ldrh	r3, [r4, #62]	@ 0x3e
 8002a86:	2b00      	cmp	r3, #0
 8002a88:	d1ef      	bne.n	8002a6a <HAL_SPI_Transmit+0xae>
 8002a8a:	0031      	movs	r1, r6
 8002a8c:	0020      	movs	r0, r4
 8002a8e:	9a00      	ldr	r2, [sp, #0]
 8002a90:	f7ff fef9 	bl	8002886 <SPI_EndRxTxTransaction>
 8002a94:	2800      	cmp	r0, #0
 8002a96:	d000      	beq.n	8002a9a <HAL_SPI_Transmit+0xde>
 8002a98:	e065      	b.n	8002b66 <HAL_SPI_Transmit+0x1aa>
 8002a9a:	68a3      	ldr	r3, [r4, #8]
 8002a9c:	2b00      	cmp	r3, #0
 8002a9e:	d106      	bne.n	8002aae <HAL_SPI_Transmit+0xf2>
 8002aa0:	9303      	str	r3, [sp, #12]
 8002aa2:	6823      	ldr	r3, [r4, #0]
 8002aa4:	68da      	ldr	r2, [r3, #12]
 8002aa6:	9203      	str	r2, [sp, #12]
 8002aa8:	689b      	ldr	r3, [r3, #8]
 8002aaa:	9303      	str	r3, [sp, #12]
 8002aac:	9b03      	ldr	r3, [sp, #12]
 8002aae:	2301      	movs	r3, #1
 8002ab0:	9a01      	ldr	r2, [sp, #4]
 8002ab2:	7013      	strb	r3, [r2, #0]
 8002ab4:	0023      	movs	r3, r4
 8002ab6:	2200      	movs	r2, #0
 8002ab8:	335c      	adds	r3, #92	@ 0x5c
 8002aba:	701a      	strb	r2, [r3, #0]
 8002abc:	6e20      	ldr	r0, [r4, #96]	@ 0x60
 8002abe:	1e43      	subs	r3, r0, #1
 8002ac0:	4198      	sbcs	r0, r3
 8002ac2:	b2c0      	uxtb	r0, r0
 8002ac4:	e00f      	b.n	8002ae6 <HAL_SPI_Transmit+0x12a>
 8002ac6:	f7fe fd25 	bl	8001514 <HAL_GetTick>
 8002aca:	9b00      	ldr	r3, [sp, #0]
 8002acc:	1ac0      	subs	r0, r0, r3
 8002ace:	42b0      	cmp	r0, r6
 8002ad0:	d3d8      	bcc.n	8002a84 <HAL_SPI_Transmit+0xc8>
 8002ad2:	1c73      	adds	r3, r6, #1
 8002ad4:	d0d6      	beq.n	8002a84 <HAL_SPI_Transmit+0xc8>
 8002ad6:	0023      	movs	r3, r4
 8002ad8:	2201      	movs	r2, #1
 8002ada:	335d      	adds	r3, #93	@ 0x5d
 8002adc:	701a      	strb	r2, [r3, #0]
 8002ade:	2300      	movs	r3, #0
 8002ae0:	2003      	movs	r0, #3
 8002ae2:	345c      	adds	r4, #92	@ 0x5c
 8002ae4:	7023      	strb	r3, [r4, #0]
 8002ae6:	b005      	add	sp, #20
 8002ae8:	bdf0      	pop	{r4, r5, r6, r7, pc}
 8002aea:	2a00      	cmp	r2, #0
 8002aec:	d001      	beq.n	8002af2 <HAL_SPI_Transmit+0x136>
 8002aee:	2f01      	cmp	r7, #1
 8002af0:	d10a      	bne.n	8002b08 <HAL_SPI_Transmit+0x14c>
 8002af2:	8fe2      	ldrh	r2, [r4, #62]	@ 0x3e
 8002af4:	2a01      	cmp	r2, #1
 8002af6:	d909      	bls.n	8002b0c <HAL_SPI_Transmit+0x150>
 8002af8:	882a      	ldrh	r2, [r5, #0]
 8002afa:	3502      	adds	r5, #2
 8002afc:	60da      	str	r2, [r3, #12]
 8002afe:	8fe3      	ldrh	r3, [r4, #62]	@ 0x3e
 8002b00:	63a5      	str	r5, [r4, #56]	@ 0x38
 8002b02:	3b02      	subs	r3, #2
 8002b04:	b29b      	uxth	r3, r3
 8002b06:	87e3      	strh	r3, [r4, #62]	@ 0x3e
 8002b08:	2502      	movs	r5, #2
 8002b0a:	e017      	b.n	8002b3c <HAL_SPI_Transmit+0x180>
 8002b0c:	782a      	ldrb	r2, [r5, #0]
 8002b0e:	731a      	strb	r2, [r3, #12]
 8002b10:	6ba3      	ldr	r3, [r4, #56]	@ 0x38
 8002b12:	3301      	adds	r3, #1
 8002b14:	63a3      	str	r3, [r4, #56]	@ 0x38
 8002b16:	8fe3      	ldrh	r3, [r4, #62]	@ 0x3e
 8002b18:	3b01      	subs	r3, #1
 8002b1a:	e7f3      	b.n	8002b04 <HAL_SPI_Transmit+0x148>
 8002b1c:	6822      	ldr	r2, [r4, #0]
 8002b1e:	6893      	ldr	r3, [r2, #8]
 8002b20:	422b      	tst	r3, r5
 8002b22:	d017      	beq.n	8002b54 <HAL_SPI_Transmit+0x198>
 8002b24:	8fe1      	ldrh	r1, [r4, #62]	@ 0x3e
 8002b26:	6ba3      	ldr	r3, [r4, #56]	@ 0x38
 8002b28:	2901      	cmp	r1, #1
 8002b2a:	d90b      	bls.n	8002b44 <HAL_SPI_Transmit+0x188>
 8002b2c:	8819      	ldrh	r1, [r3, #0]
 8002b2e:	3302      	adds	r3, #2
 8002b30:	60d1      	str	r1, [r2, #12]
 8002b32:	63a3      	str	r3, [r4, #56]	@ 0x38
 8002b34:	8fe3      	ldrh	r3, [r4, #62]	@ 0x3e
 8002b36:	3b02      	subs	r3, #2
 8002b38:	b29b      	uxth	r3, r3
 8002b3a:	87e3      	strh	r3, [r4, #62]	@ 0x3e
 8002b3c:	8fe3      	ldrh	r3, [r4, #62]	@ 0x3e
 8002b3e:	2b00      	cmp	r3, #0
 8002b40:	d1ec      	bne.n	8002b1c <HAL_SPI_Transmit+0x160>
 8002b42:	e7a2      	b.n	8002a8a <HAL_SPI_Transmit+0xce>
 8002b44:	781b      	ldrb	r3, [r3, #0]
 8002b46:	7313      	strb	r3, [r2, #12]
 8002b48:	6ba3      	ldr	r3, [r4, #56]	@ 0x38
 8002b4a:	3301      	adds	r3, #1
 8002b4c:	63a3      	str	r3, [r4, #56]	@ 0x38
 8002b4e:	8fe3      	ldrh	r3, [r4, #62]	@ 0x3e
 8002b50:	3b01      	subs	r3, #1
 8002b52:	e7f1      	b.n	8002b38 <HAL_SPI_Transmit+0x17c>
 8002b54:	f7fe fcde 	bl	8001514 <HAL_GetTick>
 8002b58:	9b00      	ldr	r3, [sp, #0]
 8002b5a:	1ac0      	subs	r0, r0, r3
 8002b5c:	42b0      	cmp	r0, r6
 8002b5e:	d3ed      	bcc.n	8002b3c <HAL_SPI_Transmit+0x180>
 8002b60:	1c73      	adds	r3, r6, #1
 8002b62:	d0eb      	beq.n	8002b3c <HAL_SPI_Transmit+0x180>
 8002b64:	e7b7      	b.n	8002ad6 <HAL_SPI_Transmit+0x11a>
 8002b66:	2320      	movs	r3, #32
 8002b68:	6623      	str	r3, [r4, #96]	@ 0x60
 8002b6a:	e796      	b.n	8002a9a <HAL_SPI_Transmit+0xde>
 8002b6c:	2002      	movs	r0, #2
 8002b6e:	e7ba      	b.n	8002ae6 <HAL_SPI_Transmit+0x12a>

08002b70 <HAL_SPI_TransmitReceive>:
 8002b70:	b5f7      	push	{r0, r1, r2, r4, r5, r6, r7, lr}
 8002b72:	0004      	movs	r4, r0
 8002b74:	000d      	movs	r5, r1
 8002b76:	0017      	movs	r7, r2
 8002b78:	001e      	movs	r6, r3
 8002b7a:	f7fe fccb 	bl	8001514 <HAL_GetTick>
 8002b7e:	0023      	movs	r3, r4
 8002b80:	9001      	str	r0, [sp, #4]
 8002b82:	335d      	adds	r3, #93	@ 0x5d
 8002b84:	781b      	ldrb	r3, [r3, #0]
 8002b86:	6861      	ldr	r1, [r4, #4]
 8002b88:	b2da      	uxtb	r2, r3
 8002b8a:	2b01      	cmp	r3, #1
 8002b8c:	d00c      	beq.n	8002ba8 <HAL_SPI_TransmitReceive+0x38>
 8002b8e:	2382      	movs	r3, #130	@ 0x82
 8002b90:	2002      	movs	r0, #2
 8002b92:	005b      	lsls	r3, r3, #1
 8002b94:	4299      	cmp	r1, r3
 8002b96:	d000      	beq.n	8002b9a <HAL_SPI_TransmitReceive+0x2a>
 8002b98:	e0a4      	b.n	8002ce4 <HAL_SPI_TransmitReceive+0x174>
 8002b9a:	68a3      	ldr	r3, [r4, #8]
 8002b9c:	2b00      	cmp	r3, #0
 8002b9e:	d000      	beq.n	8002ba2 <HAL_SPI_TransmitReceive+0x32>
 8002ba0:	e0a0      	b.n	8002ce4 <HAL_SPI_TransmitReceive+0x174>
 8002ba2:	2a04      	cmp	r2, #4
 8002ba4:	d000      	beq.n	8002ba8 <HAL_SPI_TransmitReceive+0x38>
 8002ba6:	e09d      	b.n	8002ce4 <HAL_SPI_TransmitReceive+0x174>
 8002ba8:	2d00      	cmp	r5, #0
 8002baa:	d05c      	beq.n	8002c66 <HAL_SPI_TransmitReceive+0xf6>
 8002bac:	2f00      	cmp	r7, #0
 8002bae:	d05a      	beq.n	8002c66 <HAL_SPI_TransmitReceive+0xf6>
 8002bb0:	2e00      	cmp	r6, #0
 8002bb2:	d058      	beq.n	8002c66 <HAL_SPI_TransmitReceive+0xf6>
 8002bb4:	0023      	movs	r3, r4
 8002bb6:	335c      	adds	r3, #92	@ 0x5c
 8002bb8:	781a      	ldrb	r2, [r3, #0]
 8002bba:	2002      	movs	r0, #2
 8002bbc:	2a01      	cmp	r2, #1
 8002bbe:	d100      	bne.n	8002bc2 <HAL_SPI_TransmitReceive+0x52>
 8002bc0:	e090      	b.n	8002ce4 <HAL_SPI_TransmitReceive+0x174>
 8002bc2:	2201      	movs	r2, #1
 8002bc4:	701a      	strb	r2, [r3, #0]
 8002bc6:	785a      	ldrb	r2, [r3, #1]
 8002bc8:	3301      	adds	r3, #1
 8002bca:	2a04      	cmp	r2, #4
 8002bcc:	d001      	beq.n	8002bd2 <HAL_SPI_TransmitReceive+0x62>
 8002bce:	2205      	movs	r2, #5
 8002bd0:	701a      	strb	r2, [r3, #0]
 8002bd2:	0022      	movs	r2, r4
 8002bd4:	2300      	movs	r3, #0
 8002bd6:	3208      	adds	r2, #8
 8002bd8:	6623      	str	r3, [r4, #96]	@ 0x60
 8002bda:	6427      	str	r7, [r4, #64]	@ 0x40
 8002bdc:	87d6      	strh	r6, [r2, #62]	@ 0x3e
 8002bde:	1da2      	adds	r2, r4, #6
 8002be0:	87d6      	strh	r6, [r2, #62]	@ 0x3e
 8002be2:	64e3      	str	r3, [r4, #76]	@ 0x4c
 8002be4:	6523      	str	r3, [r4, #80]	@ 0x50
 8002be6:	23e0      	movs	r3, #224	@ 0xe0
 8002be8:	68e0      	ldr	r0, [r4, #12]
 8002bea:	6822      	ldr	r2, [r4, #0]
 8002bec:	63a5      	str	r5, [r4, #56]	@ 0x38
 8002bee:	87e6      	strh	r6, [r4, #62]	@ 0x3e
 8002bf0:	87a6      	strh	r6, [r4, #60]	@ 0x3c
 8002bf2:	00db      	lsls	r3, r3, #3
 8002bf4:	4298      	cmp	r0, r3
 8002bf6:	d801      	bhi.n	8002bfc <HAL_SPI_TransmitReceive+0x8c>
 8002bf8:	2e01      	cmp	r6, #1
 8002bfa:	d036      	beq.n	8002c6a <HAL_SPI_TransmitReceive+0xfa>
 8002bfc:	6853      	ldr	r3, [r2, #4]
 8002bfe:	4f7a      	ldr	r7, [pc, #488]	@ (8002de8 <HAL_SPI_TransmitReceive+0x278>)
 8002c00:	403b      	ands	r3, r7
 8002c02:	6053      	str	r3, [r2, #4]
 8002c04:	2340      	movs	r3, #64	@ 0x40
 8002c06:	6817      	ldr	r7, [r2, #0]
 8002c08:	421f      	tst	r7, r3
 8002c0a:	d102      	bne.n	8002c12 <HAL_SPI_TransmitReceive+0xa2>
 8002c0c:	6817      	ldr	r7, [r2, #0]
 8002c0e:	433b      	orrs	r3, r7
 8002c10:	6013      	str	r3, [r2, #0]
 8002c12:	23e0      	movs	r3, #224	@ 0xe0
 8002c14:	00db      	lsls	r3, r3, #3
 8002c16:	4298      	cmp	r0, r3
 8002c18:	d800      	bhi.n	8002c1c <HAL_SPI_TransmitReceive+0xac>
 8002c1a:	e064      	b.n	8002ce6 <HAL_SPI_TransmitReceive+0x176>
 8002c1c:	2900      	cmp	r1, #0
 8002c1e:	d001      	beq.n	8002c24 <HAL_SPI_TransmitReceive+0xb4>
 8002c20:	2e01      	cmp	r6, #1
 8002c22:	d107      	bne.n	8002c34 <HAL_SPI_TransmitReceive+0xc4>
 8002c24:	882b      	ldrh	r3, [r5, #0]
 8002c26:	3502      	adds	r5, #2
 8002c28:	60d3      	str	r3, [r2, #12]
 8002c2a:	8fe3      	ldrh	r3, [r4, #62]	@ 0x3e
 8002c2c:	63a5      	str	r5, [r4, #56]	@ 0x38
 8002c2e:	3b01      	subs	r3, #1
 8002c30:	b29b      	uxth	r3, r3
 8002c32:	87e3      	strh	r3, [r4, #62]	@ 0x3e
 8002c34:	2501      	movs	r5, #1
 8002c36:	2702      	movs	r7, #2
 8002c38:	002e      	movs	r6, r5
 8002c3a:	8fe3      	ldrh	r3, [r4, #62]	@ 0x3e
 8002c3c:	2b00      	cmp	r3, #0
 8002c3e:	d119      	bne.n	8002c74 <HAL_SPI_TransmitReceive+0x104>
 8002c40:	0023      	movs	r3, r4
 8002c42:	3308      	adds	r3, #8
 8002c44:	8fdb      	ldrh	r3, [r3, #62]	@ 0x3e
 8002c46:	2b00      	cmp	r3, #0
 8002c48:	d114      	bne.n	8002c74 <HAL_SPI_TransmitReceive+0x104>
 8002c4a:	0020      	movs	r0, r4
 8002c4c:	9a01      	ldr	r2, [sp, #4]
 8002c4e:	9908      	ldr	r1, [sp, #32]
 8002c50:	f7ff fe19 	bl	8002886 <SPI_EndRxTxTransaction>
 8002c54:	0023      	movs	r3, r4
 8002c56:	335c      	adds	r3, #92	@ 0x5c
 8002c58:	2800      	cmp	r0, #0
 8002c5a:	d100      	bne.n	8002c5e <HAL_SPI_TransmitReceive+0xee>
 8002c5c:	e0b9      	b.n	8002dd2 <HAL_SPI_TransmitReceive+0x262>
 8002c5e:	2220      	movs	r2, #32
 8002c60:	6622      	str	r2, [r4, #96]	@ 0x60
 8002c62:	2200      	movs	r2, #0
 8002c64:	701a      	strb	r2, [r3, #0]
 8002c66:	2001      	movs	r0, #1
 8002c68:	e03c      	b.n	8002ce4 <HAL_SPI_TransmitReceive+0x174>
 8002c6a:	2380      	movs	r3, #128	@ 0x80
 8002c6c:	6857      	ldr	r7, [r2, #4]
 8002c6e:	015b      	lsls	r3, r3, #5
 8002c70:	433b      	orrs	r3, r7
 8002c72:	e7c6      	b.n	8002c02 <HAL_SPI_TransmitReceive+0x92>
 8002c74:	6820      	ldr	r0, [r4, #0]
 8002c76:	6883      	ldr	r3, [r0, #8]
 8002c78:	423b      	tst	r3, r7
 8002c7a:	d00e      	beq.n	8002c9a <HAL_SPI_TransmitReceive+0x12a>
 8002c7c:	8fe3      	ldrh	r3, [r4, #62]	@ 0x3e
 8002c7e:	2b00      	cmp	r3, #0
 8002c80:	d00b      	beq.n	8002c9a <HAL_SPI_TransmitReceive+0x12a>
 8002c82:	2d01      	cmp	r5, #1
 8002c84:	d108      	bne.n	8002c98 <HAL_SPI_TransmitReceive+0x128>
 8002c86:	6ba3      	ldr	r3, [r4, #56]	@ 0x38
 8002c88:	881a      	ldrh	r2, [r3, #0]
 8002c8a:	3302      	adds	r3, #2
 8002c8c:	60c2      	str	r2, [r0, #12]
 8002c8e:	63a3      	str	r3, [r4, #56]	@ 0x38
 8002c90:	8fe3      	ldrh	r3, [r4, #62]	@ 0x3e
 8002c92:	3b01      	subs	r3, #1
 8002c94:	b29b      	uxth	r3, r3
 8002c96:	87e3      	strh	r3, [r4, #62]	@ 0x3e
 8002c98:	2500      	movs	r5, #0
 8002c9a:	6883      	ldr	r3, [r0, #8]
 8002c9c:	0019      	movs	r1, r3
 8002c9e:	4031      	ands	r1, r6
 8002ca0:	4233      	tst	r3, r6
 8002ca2:	d00e      	beq.n	8002cc2 <HAL_SPI_TransmitReceive+0x152>
 8002ca4:	0022      	movs	r2, r4
 8002ca6:	3208      	adds	r2, #8
 8002ca8:	8fd3      	ldrh	r3, [r2, #62]	@ 0x3e
 8002caa:	2b00      	cmp	r3, #0
 8002cac:	d009      	beq.n	8002cc2 <HAL_SPI_TransmitReceive+0x152>
 8002cae:	000d      	movs	r5, r1
 8002cb0:	68c0      	ldr	r0, [r0, #12]
 8002cb2:	6c23      	ldr	r3, [r4, #64]	@ 0x40
 8002cb4:	8018      	strh	r0, [r3, #0]
 8002cb6:	3302      	adds	r3, #2
 8002cb8:	6423      	str	r3, [r4, #64]	@ 0x40
 8002cba:	8fd3      	ldrh	r3, [r2, #62]	@ 0x3e
 8002cbc:	3b01      	subs	r3, #1
 8002cbe:	b29b      	uxth	r3, r3
 8002cc0:	87d3      	strh	r3, [r2, #62]	@ 0x3e
 8002cc2:	f7fe fc27 	bl	8001514 <HAL_GetTick>
 8002cc6:	9b01      	ldr	r3, [sp, #4]
 8002cc8:	1ac0      	subs	r0, r0, r3
 8002cca:	9b08      	ldr	r3, [sp, #32]
 8002ccc:	4298      	cmp	r0, r3
 8002cce:	d3b4      	bcc.n	8002c3a <HAL_SPI_TransmitReceive+0xca>
 8002cd0:	3301      	adds	r3, #1
 8002cd2:	d0b2      	beq.n	8002c3a <HAL_SPI_TransmitReceive+0xca>
 8002cd4:	0023      	movs	r3, r4
 8002cd6:	2201      	movs	r2, #1
 8002cd8:	335d      	adds	r3, #93	@ 0x5d
 8002cda:	701a      	strb	r2, [r3, #0]
 8002cdc:	2300      	movs	r3, #0
 8002cde:	2003      	movs	r0, #3
 8002ce0:	345c      	adds	r4, #92	@ 0x5c
 8002ce2:	7023      	strb	r3, [r4, #0]
 8002ce4:	bdfe      	pop	{r1, r2, r3, r4, r5, r6, r7, pc}
 8002ce6:	2900      	cmp	r1, #0
 8002ce8:	d001      	beq.n	8002cee <HAL_SPI_TransmitReceive+0x17e>
 8002cea:	2e01      	cmp	r6, #1
 8002cec:	d10a      	bne.n	8002d04 <HAL_SPI_TransmitReceive+0x194>
 8002cee:	8fe3      	ldrh	r3, [r4, #62]	@ 0x3e
 8002cf0:	2b01      	cmp	r3, #1
 8002cf2:	d90b      	bls.n	8002d0c <HAL_SPI_TransmitReceive+0x19c>
 8002cf4:	882b      	ldrh	r3, [r5, #0]
 8002cf6:	3502      	adds	r5, #2
 8002cf8:	60d3      	str	r3, [r2, #12]
 8002cfa:	8fe3      	ldrh	r3, [r4, #62]	@ 0x3e
 8002cfc:	63a5      	str	r5, [r4, #56]	@ 0x38
 8002cfe:	3b02      	subs	r3, #2
 8002d00:	b29b      	uxth	r3, r3
 8002d02:	87e3      	strh	r3, [r4, #62]	@ 0x3e
 8002d04:	2501      	movs	r5, #1
 8002d06:	2702      	movs	r7, #2
 8002d08:	002e      	movs	r6, r5
 8002d0a:	e047      	b.n	8002d9c <HAL_SPI_TransmitReceive+0x22c>
 8002d0c:	782b      	ldrb	r3, [r5, #0]
 8002d0e:	7313      	strb	r3, [r2, #12]
 8002d10:	6ba3      	ldr	r3, [r4, #56]	@ 0x38
 8002d12:	3301      	adds	r3, #1
 8002d14:	63a3      	str	r3, [r4, #56]	@ 0x38
 8002d16:	8fe3      	ldrh	r3, [r4, #62]	@ 0x3e
 8002d18:	3b01      	subs	r3, #1
 8002d1a:	e7f1      	b.n	8002d00 <HAL_SPI_TransmitReceive+0x190>
 8002d1c:	6822      	ldr	r2, [r4, #0]
 8002d1e:	6893      	ldr	r3, [r2, #8]
 8002d20:	423b      	tst	r3, r7
 8002d22:	d011      	beq.n	8002d48 <HAL_SPI_TransmitReceive+0x1d8>
 8002d24:	8fe3      	ldrh	r3, [r4, #62]	@ 0x3e
 8002d26:	2b00      	cmp	r3, #0
 8002d28:	d00e      	beq.n	8002d48 <HAL_SPI_TransmitReceive+0x1d8>
 8002d2a:	2d01      	cmp	r5, #1
 8002d2c:	d10b      	bne.n	8002d46 <HAL_SPI_TransmitReceive+0x1d6>
 8002d2e:	8fe1      	ldrh	r1, [r4, #62]	@ 0x3e
 8002d30:	6ba3      	ldr	r3, [r4, #56]	@ 0x38
 8002d32:	2901      	cmp	r1, #1
 8002d34:	d93b      	bls.n	8002dae <HAL_SPI_TransmitReceive+0x23e>
 8002d36:	8819      	ldrh	r1, [r3, #0]
 8002d38:	3302      	adds	r3, #2
 8002d3a:	60d1      	str	r1, [r2, #12]
 8002d3c:	63a3      	str	r3, [r4, #56]	@ 0x38
 8002d3e:	8fe3      	ldrh	r3, [r4, #62]	@ 0x3e
 8002d40:	3b02      	subs	r3, #2
 8002d42:	b29b      	uxth	r3, r3
 8002d44:	87e3      	strh	r3, [r4, #62]	@ 0x3e
 8002d46:	2500      	movs	r5, #0
 8002d48:	6822      	ldr	r2, [r4, #0]
 8002d4a:	6893      	ldr	r3, [r2, #8]
 8002d4c:	0019      	movs	r1, r3
 8002d4e:	4031      	ands	r1, r6
 8002d50:	4233      	tst	r3, r6
 8002d52:	d019      	beq.n	8002d88 <HAL_SPI_TransmitReceive+0x218>
 8002d54:	0023      	movs	r3, r4
 8002d56:	3308      	adds	r3, #8
 8002d58:	8fd8      	ldrh	r0, [r3, #62]	@ 0x3e
 8002d5a:	2800      	cmp	r0, #0
 8002d5c:	d014      	beq.n	8002d88 <HAL_SPI_TransmitReceive+0x218>
 8002d5e:	8fdd      	ldrh	r5, [r3, #62]	@ 0x3e
 8002d60:	6c20      	ldr	r0, [r4, #64]	@ 0x40
 8002d62:	2d01      	cmp	r5, #1
 8002d64:	d92b      	bls.n	8002dbe <HAL_SPI_TransmitReceive+0x24e>
 8002d66:	68d5      	ldr	r5, [r2, #12]
 8002d68:	8005      	strh	r5, [r0, #0]
 8002d6a:	3002      	adds	r0, #2
 8002d6c:	6420      	str	r0, [r4, #64]	@ 0x40
 8002d6e:	8fd8      	ldrh	r0, [r3, #62]	@ 0x3e
 8002d70:	3802      	subs	r0, #2
 8002d72:	b280      	uxth	r0, r0
 8002d74:	87d8      	strh	r0, [r3, #62]	@ 0x3e
 8002d76:	8fdb      	ldrh	r3, [r3, #62]	@ 0x3e
 8002d78:	2b01      	cmp	r3, #1
 8002d7a:	d804      	bhi.n	8002d86 <HAL_SPI_TransmitReceive+0x216>
 8002d7c:	2380      	movs	r3, #128	@ 0x80
 8002d7e:	6850      	ldr	r0, [r2, #4]
 8002d80:	015b      	lsls	r3, r3, #5
 8002d82:	4303      	orrs	r3, r0
 8002d84:	6053      	str	r3, [r2, #4]
 8002d86:	000d      	movs	r5, r1
 8002d88:	f7fe fbc4 	bl	8001514 <HAL_GetTick>
 8002d8c:	9b01      	ldr	r3, [sp, #4]
 8002d8e:	1ac0      	subs	r0, r0, r3
 8002d90:	9b08      	ldr	r3, [sp, #32]
 8002d92:	4298      	cmp	r0, r3
 8002d94:	d302      	bcc.n	8002d9c <HAL_SPI_TransmitReceive+0x22c>
 8002d96:	3301      	adds	r3, #1
 8002d98:	d000      	beq.n	8002d9c <HAL_SPI_TransmitReceive+0x22c>
 8002d9a:	e79b      	b.n	8002cd4 <HAL_SPI_TransmitReceive+0x164>
 8002d9c:	8fe3      	ldrh	r3, [r4, #62]	@ 0x3e
 8002d9e:	2b00      	cmp	r3, #0
 8002da0:	d1bc      	bne.n	8002d1c <HAL_SPI_TransmitReceive+0x1ac>
 8002da2:	0023      	movs	r3, r4
 8002da4:	3308      	adds	r3, #8
 8002da6:	8fdb      	ldrh	r3, [r3, #62]	@ 0x3e
 8002da8:	2b00      	cmp	r3, #0
 8002daa:	d1b7      	bne.n	8002d1c <HAL_SPI_TransmitReceive+0x1ac>
 8002dac:	e74d      	b.n	8002c4a <HAL_SPI_TransmitReceive+0xda>
 8002dae:	781b      	ldrb	r3, [r3, #0]
 8002db0:	7313      	strb	r3, [r2, #12]
 8002db2:	6ba3      	ldr	r3, [r4, #56]	@ 0x38
 8002db4:	3301      	adds	r3, #1
 8002db6:	63a3      	str	r3, [r4, #56]	@ 0x38
 8002db8:	8fe3      	ldrh	r3, [r4, #62]	@ 0x3e
 8002dba:	3b01      	subs	r3, #1
 8002dbc:	e7c1      	b.n	8002d42 <HAL_SPI_TransmitReceive+0x1d2>
 8002dbe:	7b12      	ldrb	r2, [r2, #12]
 8002dc0:	7002      	strb	r2, [r0, #0]
 8002dc2:	6c22      	ldr	r2, [r4, #64]	@ 0x40
 8002dc4:	3201      	adds	r2, #1
 8002dc6:	6422      	str	r2, [r4, #64]	@ 0x40
 8002dc8:	8fda      	ldrh	r2, [r3, #62]	@ 0x3e
 8002dca:	3a01      	subs	r2, #1
 8002dcc:	b292      	uxth	r2, r2
 8002dce:	87da      	strh	r2, [r3, #62]	@ 0x3e
 8002dd0:	e7d9      	b.n	8002d86 <HAL_SPI_TransmitReceive+0x216>
 8002dd2:	0022      	movs	r2, r4
 8002dd4:	2101      	movs	r1, #1
 8002dd6:	325d      	adds	r2, #93	@ 0x5d
 8002dd8:	7011      	strb	r1, [r2, #0]
 8002dda:	7018      	strb	r0, [r3, #0]
 8002ddc:	6e20      	ldr	r0, [r4, #96]	@ 0x60
 8002dde:	1e43      	subs	r3, r0, #1
 8002de0:	4198      	sbcs	r0, r3
 8002de2:	b2c0      	uxtb	r0, r0
 8002de4:	e77e      	b.n	8002ce4 <HAL_SPI_TransmitReceive+0x174>
 8002de6:	46c0      	nop			@ (mov r8, r8)
 8002de8:	ffffefff 	.word	0xffffefff

08002dec <HAL_SPI_Receive>:
 8002dec:	b5f0      	push	{r4, r5, r6, r7, lr}
 8002dee:	0007      	movs	r7, r0
 8002df0:	b087      	sub	sp, #28
 8002df2:	9102      	str	r1, [sp, #8]
 8002df4:	9203      	str	r2, [sp, #12]
 8002df6:	375d      	adds	r7, #93	@ 0x5d
 8002df8:	001e      	movs	r6, r3
 8002dfa:	783b      	ldrb	r3, [r7, #0]
 8002dfc:	0004      	movs	r4, r0
 8002dfe:	b2dd      	uxtb	r5, r3
 8002e00:	2b01      	cmp	r3, #1
 8002e02:	d003      	beq.n	8002e0c <HAL_SPI_Receive+0x20>
 8002e04:	2502      	movs	r5, #2
 8002e06:	0028      	movs	r0, r5
 8002e08:	b007      	add	sp, #28
 8002e0a:	bdf0      	pop	{r4, r5, r6, r7, pc}
 8002e0c:	2382      	movs	r3, #130	@ 0x82
 8002e0e:	6842      	ldr	r2, [r0, #4]
 8002e10:	005b      	lsls	r3, r3, #1
 8002e12:	429a      	cmp	r2, r3
 8002e14:	d10c      	bne.n	8002e30 <HAL_SPI_Receive+0x44>
 8002e16:	6883      	ldr	r3, [r0, #8]
 8002e18:	2b00      	cmp	r3, #0
 8002e1a:	d109      	bne.n	8002e30 <HAL_SPI_Receive+0x44>
 8002e1c:	9a02      	ldr	r2, [sp, #8]
 8002e1e:	3304      	adds	r3, #4
 8002e20:	703b      	strb	r3, [r7, #0]
 8002e22:	0011      	movs	r1, r2
 8002e24:	9b03      	ldr	r3, [sp, #12]
 8002e26:	9600      	str	r6, [sp, #0]
 8002e28:	f7ff fea2 	bl	8002b70 <HAL_SPI_TransmitReceive>
 8002e2c:	0005      	movs	r5, r0
 8002e2e:	e7ea      	b.n	8002e06 <HAL_SPI_Receive+0x1a>
 8002e30:	f7fe fb70 	bl	8001514 <HAL_GetTick>
 8002e34:	9b02      	ldr	r3, [sp, #8]
 8002e36:	9005      	str	r0, [sp, #20]
 8002e38:	2b00      	cmp	r3, #0
 8002e3a:	d0e4      	beq.n	8002e06 <HAL_SPI_Receive+0x1a>
 8002e3c:	9b03      	ldr	r3, [sp, #12]
 8002e3e:	2b00      	cmp	r3, #0
 8002e40:	d0e1      	beq.n	8002e06 <HAL_SPI_Receive+0x1a>
 8002e42:	0023      	movs	r3, r4
 8002e44:	335c      	adds	r3, #92	@ 0x5c
 8002e46:	9304      	str	r3, [sp, #16]
 8002e48:	781b      	ldrb	r3, [r3, #0]
 8002e4a:	2b01      	cmp	r3, #1
 8002e4c:	d0da      	beq.n	8002e04 <HAL_SPI_Receive+0x18>
 8002e4e:	2301      	movs	r3, #1
 8002e50:	9a04      	ldr	r2, [sp, #16]
 8002e52:	9903      	ldr	r1, [sp, #12]
 8002e54:	7013      	strb	r3, [r2, #0]
 8002e56:	3303      	adds	r3, #3
 8002e58:	703b      	strb	r3, [r7, #0]
 8002e5a:	2300      	movs	r3, #0
 8002e5c:	9a02      	ldr	r2, [sp, #8]
 8002e5e:	6623      	str	r3, [r4, #96]	@ 0x60
 8002e60:	6422      	str	r2, [r4, #64]	@ 0x40
 8002e62:	1da2      	adds	r2, r4, #6
 8002e64:	87d1      	strh	r1, [r2, #62]	@ 0x3e
 8002e66:	3202      	adds	r2, #2
 8002e68:	87d1      	strh	r1, [r2, #62]	@ 0x3e
 8002e6a:	22e0      	movs	r2, #224	@ 0xe0
 8002e6c:	68e1      	ldr	r1, [r4, #12]
 8002e6e:	63a3      	str	r3, [r4, #56]	@ 0x38
 8002e70:	87a3      	strh	r3, [r4, #60]	@ 0x3c
 8002e72:	87e3      	strh	r3, [r4, #62]	@ 0x3e
 8002e74:	64e3      	str	r3, [r4, #76]	@ 0x4c
 8002e76:	6523      	str	r3, [r4, #80]	@ 0x50
 8002e78:	00d2      	lsls	r2, r2, #3
 8002e7a:	6823      	ldr	r3, [r4, #0]
 8002e7c:	4291      	cmp	r1, r2
 8002e7e:	d92f      	bls.n	8002ee0 <HAL_SPI_Receive+0xf4>
 8002e80:	685a      	ldr	r2, [r3, #4]
 8002e82:	4839      	ldr	r0, [pc, #228]	@ (8002f68 <HAL_SPI_Receive+0x17c>)
 8002e84:	4002      	ands	r2, r0
 8002e86:	605a      	str	r2, [r3, #4]
 8002e88:	2280      	movs	r2, #128	@ 0x80
 8002e8a:	68a0      	ldr	r0, [r4, #8]
 8002e8c:	0212      	lsls	r2, r2, #8
 8002e8e:	4290      	cmp	r0, r2
 8002e90:	d107      	bne.n	8002ea2 <HAL_SPI_Receive+0xb6>
 8002e92:	2040      	movs	r0, #64	@ 0x40
 8002e94:	681a      	ldr	r2, [r3, #0]
 8002e96:	4382      	bics	r2, r0
 8002e98:	601a      	str	r2, [r3, #0]
 8002e9a:	681a      	ldr	r2, [r3, #0]
 8002e9c:	4833      	ldr	r0, [pc, #204]	@ (8002f6c <HAL_SPI_Receive+0x180>)
 8002e9e:	4002      	ands	r2, r0
 8002ea0:	601a      	str	r2, [r3, #0]
 8002ea2:	2240      	movs	r2, #64	@ 0x40
 8002ea4:	6818      	ldr	r0, [r3, #0]
 8002ea6:	4210      	tst	r0, r2
 8002ea8:	d102      	bne.n	8002eb0 <HAL_SPI_Receive+0xc4>
 8002eaa:	6818      	ldr	r0, [r3, #0]
 8002eac:	4302      	orrs	r2, r0
 8002eae:	601a      	str	r2, [r3, #0]
 8002eb0:	23e0      	movs	r3, #224	@ 0xe0
 8002eb2:	0025      	movs	r5, r4
 8002eb4:	00db      	lsls	r3, r3, #3
 8002eb6:	3508      	adds	r5, #8
 8002eb8:	4299      	cmp	r1, r3
 8002eba:	d925      	bls.n	8002f08 <HAL_SPI_Receive+0x11c>
 8002ebc:	8feb      	ldrh	r3, [r5, #62]	@ 0x3e
 8002ebe:	2b00      	cmp	r3, #0
 8002ec0:	d025      	beq.n	8002f0e <HAL_SPI_Receive+0x122>
 8002ec2:	2101      	movs	r1, #1
 8002ec4:	6823      	ldr	r3, [r4, #0]
 8002ec6:	689a      	ldr	r2, [r3, #8]
 8002ec8:	420a      	tst	r2, r1
 8002eca:	d040      	beq.n	8002f4e <HAL_SPI_Receive+0x162>
 8002ecc:	68da      	ldr	r2, [r3, #12]
 8002ece:	6c23      	ldr	r3, [r4, #64]	@ 0x40
 8002ed0:	801a      	strh	r2, [r3, #0]
 8002ed2:	3302      	adds	r3, #2
 8002ed4:	6423      	str	r3, [r4, #64]	@ 0x40
 8002ed6:	8feb      	ldrh	r3, [r5, #62]	@ 0x3e
 8002ed8:	3b01      	subs	r3, #1
 8002eda:	b29b      	uxth	r3, r3
 8002edc:	87eb      	strh	r3, [r5, #62]	@ 0x3e
 8002ede:	e7ed      	b.n	8002ebc <HAL_SPI_Receive+0xd0>
 8002ee0:	2280      	movs	r2, #128	@ 0x80
 8002ee2:	6858      	ldr	r0, [r3, #4]
 8002ee4:	0152      	lsls	r2, r2, #5
 8002ee6:	4302      	orrs	r2, r0
 8002ee8:	e7cd      	b.n	8002e86 <HAL_SPI_Receive+0x9a>
 8002eea:	2101      	movs	r1, #1
 8002eec:	6823      	ldr	r3, [r4, #0]
 8002eee:	689a      	ldr	r2, [r3, #8]
 8002ef0:	420a      	tst	r2, r1
 8002ef2:	d01d      	beq.n	8002f30 <HAL_SPI_Receive+0x144>
 8002ef4:	7b1b      	ldrb	r3, [r3, #12]
 8002ef6:	6c22      	ldr	r2, [r4, #64]	@ 0x40
 8002ef8:	7013      	strb	r3, [r2, #0]
 8002efa:	6c23      	ldr	r3, [r4, #64]	@ 0x40
 8002efc:	185b      	adds	r3, r3, r1
 8002efe:	6423      	str	r3, [r4, #64]	@ 0x40
 8002f00:	8feb      	ldrh	r3, [r5, #62]	@ 0x3e
 8002f02:	3b01      	subs	r3, #1
 8002f04:	b29b      	uxth	r3, r3
 8002f06:	87eb      	strh	r3, [r5, #62]	@ 0x3e
 8002f08:	8feb      	ldrh	r3, [r5, #62]	@ 0x3e
 8002f0a:	2b00      	cmp	r3, #0
 8002f0c:	d1ed      	bne.n	8002eea <HAL_SPI_Receive+0xfe>
 8002f0e:	0031      	movs	r1, r6
 8002f10:	0020      	movs	r0, r4
 8002f12:	9a05      	ldr	r2, [sp, #20]
 8002f14:	f7ff fc7a 	bl	800280c <SPI_EndRxTransaction>
 8002f18:	2800      	cmp	r0, #0
 8002f1a:	d121      	bne.n	8002f60 <HAL_SPI_Receive+0x174>
 8002f1c:	2301      	movs	r3, #1
 8002f1e:	703b      	strb	r3, [r7, #0]
 8002f20:	2300      	movs	r3, #0
 8002f22:	9a04      	ldr	r2, [sp, #16]
 8002f24:	7013      	strb	r3, [r2, #0]
 8002f26:	6e25      	ldr	r5, [r4, #96]	@ 0x60
 8002f28:	1e6b      	subs	r3, r5, #1
 8002f2a:	419d      	sbcs	r5, r3
 8002f2c:	b2ed      	uxtb	r5, r5
 8002f2e:	e76a      	b.n	8002e06 <HAL_SPI_Receive+0x1a>
 8002f30:	f7fe faf0 	bl	8001514 <HAL_GetTick>
 8002f34:	9b05      	ldr	r3, [sp, #20]
 8002f36:	1ac0      	subs	r0, r0, r3
 8002f38:	42b0      	cmp	r0, r6
 8002f3a:	d3e5      	bcc.n	8002f08 <HAL_SPI_Receive+0x11c>
 8002f3c:	1c73      	adds	r3, r6, #1
 8002f3e:	d0e3      	beq.n	8002f08 <HAL_SPI_Receive+0x11c>
 8002f40:	2301      	movs	r3, #1
 8002f42:	703b      	strb	r3, [r7, #0]
 8002f44:	2300      	movs	r3, #0
 8002f46:	9a04      	ldr	r2, [sp, #16]
 8002f48:	2503      	movs	r5, #3
 8002f4a:	7013      	strb	r3, [r2, #0]
 8002f4c:	e75b      	b.n	8002e06 <HAL_SPI_Receive+0x1a>
 8002f4e:	f7fe fae1 	bl	8001514 <HAL_GetTick>
 8002f52:	9b05      	ldr	r3, [sp, #20]
 8002f54:	1ac0      	subs	r0, r0, r3
 8002f56:	42b0      	cmp	r0, r6
 8002f58:	d3b0      	bcc.n	8002ebc <HAL_SPI_Receive+0xd0>
 8002f5a:	1c73      	adds	r3, r6, #1
 8002f5c:	d0ae      	beq.n	8002ebc <HAL_SPI_Receive+0xd0>
 8002f5e:	e7ef      	b.n	8002f40 <HAL_SPI_Receive+0x154>
 8002f60:	2320      	movs	r3, #32
 8002f62:	6623      	str	r3, [r4, #96]	@ 0x60
 8002f64:	e7da      	b.n	8002f1c <HAL_SPI_Receive+0x130>
 8002f66:	46c0      	nop			@ (mov r8, r8)
 8002f68:	ffffefff 	.word	0xffffefff
 8002f6c:	ffffbfff 	.word	0xffffbfff

08002f70 <HAL_TIM_Base_Start>:
 8002f70:	0001      	movs	r1, r0
 8002f72:	0003      	movs	r3, r0
 8002f74:	2001      	movs	r0, #1
 8002f76:	b510      	push	{r4, lr}
 8002f78:	313d      	adds	r1, #61	@ 0x3d
 8002f7a:	780c      	ldrb	r4, [r1, #0]
 8002f7c:	b2e2      	uxtb	r2, r4
 8002f7e:	4284      	cmp	r4, r0
 8002f80:	d115      	bne.n	8002fae <HAL_TIM_Base_Start+0x3e>
 8002f82:	1800      	adds	r0, r0, r0
 8002f84:	7008      	strb	r0, [r1, #0]
 8002f86:	681b      	ldr	r3, [r3, #0]
 8002f88:	490a      	ldr	r1, [pc, #40]	@ (8002fb4 <HAL_TIM_Base_Start+0x44>)
 8002f8a:	428b      	cmp	r3, r1
 8002f8c:	d002      	beq.n	8002f94 <HAL_TIM_Base_Start+0x24>
 8002f8e:	490a      	ldr	r1, [pc, #40]	@ (8002fb8 <HAL_TIM_Base_Start+0x48>)
 8002f90:	428b      	cmp	r3, r1
 8002f92:	d10d      	bne.n	8002fb0 <HAL_TIM_Base_Start+0x40>
 8002f94:	689a      	ldr	r2, [r3, #8]
 8002f96:	4909      	ldr	r1, [pc, #36]	@ (8002fbc <HAL_TIM_Base_Start+0x4c>)
 8002f98:	400a      	ands	r2, r1
 8002f9a:	2a06      	cmp	r2, #6
 8002f9c:	d006      	beq.n	8002fac <HAL_TIM_Base_Start+0x3c>
 8002f9e:	3907      	subs	r1, #7
 8002fa0:	428a      	cmp	r2, r1
 8002fa2:	d003      	beq.n	8002fac <HAL_TIM_Base_Start+0x3c>
 8002fa4:	2201      	movs	r2, #1
 8002fa6:	6819      	ldr	r1, [r3, #0]
 8002fa8:	430a      	orrs	r2, r1
 8002faa:	601a      	str	r2, [r3, #0]
 8002fac:	2000      	movs	r0, #0
 8002fae:	bd10      	pop	{r4, pc}
 8002fb0:	6819      	ldr	r1, [r3, #0]
 8002fb2:	e7f9      	b.n	8002fa8 <HAL_TIM_Base_Start+0x38>
 8002fb4:	40012c00 	.word	0x40012c00
 8002fb8:	40000400 	.word	0x40000400
 8002fbc:	00010007 	.word	0x00010007

08002fc0 <HAL_TIM_IC_MspInit>:
 8002fc0:	4770      	bx	lr

08002fc2 <HAL_TIM_ReadCapturedValue>:
 8002fc2:	2908      	cmp	r1, #8
 8002fc4:	d011      	beq.n	8002fea <HAL_TIM_ReadCapturedValue+0x28>
 8002fc6:	d805      	bhi.n	8002fd4 <HAL_TIM_ReadCapturedValue+0x12>
 8002fc8:	2900      	cmp	r1, #0
 8002fca:	d008      	beq.n	8002fde <HAL_TIM_ReadCapturedValue+0x1c>
 8002fcc:	2904      	cmp	r1, #4
 8002fce:	d009      	beq.n	8002fe4 <HAL_TIM_ReadCapturedValue+0x22>
 8002fd0:	2000      	movs	r0, #0
 8002fd2:	4770      	bx	lr
 8002fd4:	290c      	cmp	r1, #12
 8002fd6:	d1fb      	bne.n	8002fd0 <HAL_TIM_ReadCapturedValue+0xe>
 8002fd8:	6803      	ldr	r3, [r0, #0]
 8002fda:	6c18      	ldr	r0, [r3, #64]	@ 0x40
 8002fdc:	e7f9      	b.n	8002fd2 <HAL_TIM_ReadCapturedValue+0x10>
 8002fde:	6803      	ldr	r3, [r0, #0]
 8002fe0:	6b58      	ldr	r0, [r3, #52]	@ 0x34
 8002fe2:	e7f6      	b.n	8002fd2 <HAL_TIM_ReadCapturedValue+0x10>
 8002fe4:	6803      	ldr	r3, [r0, #0]
 8002fe6:	6b98      	ldr	r0, [r3, #56]	@ 0x38
 8002fe8:	e7f3      	b.n	8002fd2 <HAL_TIM_ReadCapturedValue+0x10>
 8002fea:	6803      	ldr	r3, [r0, #0]
 8002fec:	6bd8      	ldr	r0, [r3, #60]	@ 0x3c
 8002fee:	e7f0      	b.n	8002fd2 <HAL_TIM_ReadCapturedValue+0x10>

08002ff0 <HAL_TIM_PeriodElapsedCallback>:
 8002ff0:	4770      	bx	lr

08002ff2 <HAL_TIM_OC_DelayElapsedCallback>:
 8002ff2:	4770      	bx	lr

08002ff4 <HAL_TIM_PWM_PulseFinishedCallback>:
 8002ff4:	4770      	bx	lr

08002ff6 <HAL_TIM_TriggerCallback>:
 8002ff6:	4770      	bx	lr

08002ff8 <HAL_TIM_IRQHandler>:
 8002ff8:	2202      	movs	r2, #2
 8002ffa:	6803      	ldr	r3, [r0, #0]
 8002ffc:	b570      	push	{r4, r5, r6, lr}
 8002ffe:	68dd      	ldr	r5, [r3, #12]
 8003000:	691e      	ldr	r6, [r3, #16]
 8003002:	0004      	movs	r4, r0
 8003004:	4216      	tst	r6, r2
 8003006:	d00d      	beq.n	8003024 <HAL_TIM_IRQHandler+0x2c>
 8003008:	4215      	tst	r5, r2
 800300a:	d00b      	beq.n	8003024 <HAL_TIM_IRQHandler+0x2c>
 800300c:	3a05      	subs	r2, #5
 800300e:	611a      	str	r2, [r3, #16]
 8003010:	3204      	adds	r2, #4
 8003012:	7702      	strb	r2, [r0, #28]
 8003014:	699b      	ldr	r3, [r3, #24]
 8003016:	079b      	lsls	r3, r3, #30
 8003018:	d100      	bne.n	800301c <HAL_TIM_IRQHandler+0x24>
 800301a:	e07c      	b.n	8003116 <HAL_TIM_IRQHandler+0x11e>
 800301c:	f7fd fafc 	bl	8000618 <HAL_TIM_IC_CaptureCallback>
 8003020:	2300      	movs	r3, #0
 8003022:	7723      	strb	r3, [r4, #28]
 8003024:	2304      	movs	r3, #4
 8003026:	421e      	tst	r6, r3
 8003028:	d012      	beq.n	8003050 <HAL_TIM_IRQHandler+0x58>
 800302a:	421d      	tst	r5, r3
 800302c:	d010      	beq.n	8003050 <HAL_TIM_IRQHandler+0x58>
 800302e:	2205      	movs	r2, #5
 8003030:	6823      	ldr	r3, [r4, #0]
 8003032:	4252      	negs	r2, r2
 8003034:	611a      	str	r2, [r3, #16]
 8003036:	3207      	adds	r2, #7
 8003038:	7722      	strb	r2, [r4, #28]
 800303a:	699a      	ldr	r2, [r3, #24]
 800303c:	23c0      	movs	r3, #192	@ 0xc0
 800303e:	009b      	lsls	r3, r3, #2
 8003040:	0020      	movs	r0, r4
 8003042:	421a      	tst	r2, r3
 8003044:	d100      	bne.n	8003048 <HAL_TIM_IRQHandler+0x50>
 8003046:	e06c      	b.n	8003122 <HAL_TIM_IRQHandler+0x12a>
 8003048:	f7fd fae6 	bl	8000618 <HAL_TIM_IC_CaptureCallback>
 800304c:	2300      	movs	r3, #0
 800304e:	7723      	strb	r3, [r4, #28]
 8003050:	2308      	movs	r3, #8
 8003052:	421e      	tst	r6, r3
 8003054:	d00f      	beq.n	8003076 <HAL_TIM_IRQHandler+0x7e>
 8003056:	421d      	tst	r5, r3
 8003058:	d00d      	beq.n	8003076 <HAL_TIM_IRQHandler+0x7e>
 800305a:	2209      	movs	r2, #9
 800305c:	6823      	ldr	r3, [r4, #0]
 800305e:	4252      	negs	r2, r2
 8003060:	611a      	str	r2, [r3, #16]
 8003062:	320d      	adds	r2, #13
 8003064:	7722      	strb	r2, [r4, #28]
 8003066:	69db      	ldr	r3, [r3, #28]
 8003068:	0020      	movs	r0, r4
 800306a:	079b      	lsls	r3, r3, #30
 800306c:	d05f      	beq.n	800312e <HAL_TIM_IRQHandler+0x136>
 800306e:	f7fd fad3 	bl	8000618 <HAL_TIM_IC_CaptureCallback>
 8003072:	2300      	movs	r3, #0
 8003074:	7723      	strb	r3, [r4, #28]
 8003076:	2310      	movs	r3, #16
 8003078:	421e      	tst	r6, r3
 800307a:	d011      	beq.n	80030a0 <HAL_TIM_IRQHandler+0xa8>
 800307c:	421d      	tst	r5, r3
 800307e:	d00f      	beq.n	80030a0 <HAL_TIM_IRQHandler+0xa8>
 8003080:	2211      	movs	r2, #17
 8003082:	6823      	ldr	r3, [r4, #0]
 8003084:	4252      	negs	r2, r2
 8003086:	611a      	str	r2, [r3, #16]
 8003088:	3219      	adds	r2, #25
 800308a:	7722      	strb	r2, [r4, #28]
 800308c:	69da      	ldr	r2, [r3, #28]
 800308e:	23c0      	movs	r3, #192	@ 0xc0
 8003090:	009b      	lsls	r3, r3, #2
 8003092:	0020      	movs	r0, r4
 8003094:	421a      	tst	r2, r3
 8003096:	d050      	beq.n	800313a <HAL_TIM_IRQHandler+0x142>
 8003098:	f7fd fabe 	bl	8000618 <HAL_TIM_IC_CaptureCallback>
 800309c:	2300      	movs	r3, #0
 800309e:	7723      	strb	r3, [r4, #28]
 80030a0:	2301      	movs	r3, #1
 80030a2:	421e      	tst	r6, r3
 80030a4:	d008      	beq.n	80030b8 <HAL_TIM_IRQHandler+0xc0>
 80030a6:	421d      	tst	r5, r3
 80030a8:	d006      	beq.n	80030b8 <HAL_TIM_IRQHandler+0xc0>
 80030aa:	2202      	movs	r2, #2
 80030ac:	6823      	ldr	r3, [r4, #0]
 80030ae:	4252      	negs	r2, r2
 80030b0:	0020      	movs	r0, r4
 80030b2:	611a      	str	r2, [r3, #16]
 80030b4:	f7ff ff9c 	bl	8002ff0 <HAL_TIM_PeriodElapsedCallback>
 80030b8:	2382      	movs	r3, #130	@ 0x82
 80030ba:	019b      	lsls	r3, r3, #6
 80030bc:	421e      	tst	r6, r3
 80030be:	d007      	beq.n	80030d0 <HAL_TIM_IRQHandler+0xd8>
 80030c0:	062b      	lsls	r3, r5, #24
 80030c2:	d505      	bpl.n	80030d0 <HAL_TIM_IRQHandler+0xd8>
 80030c4:	6823      	ldr	r3, [r4, #0]
 80030c6:	4a20      	ldr	r2, [pc, #128]	@ (8003148 <HAL_TIM_IRQHandler+0x150>)
 80030c8:	0020      	movs	r0, r4
 80030ca:	611a      	str	r2, [r3, #16]
 80030cc:	f000 fbeb 	bl	80038a6 <HAL_TIMEx_BreakCallback>
 80030d0:	05f3      	lsls	r3, r6, #23
 80030d2:	d507      	bpl.n	80030e4 <HAL_TIM_IRQHandler+0xec>
 80030d4:	062b      	lsls	r3, r5, #24
 80030d6:	d505      	bpl.n	80030e4 <HAL_TIM_IRQHandler+0xec>
 80030d8:	6823      	ldr	r3, [r4, #0]
 80030da:	4a1c      	ldr	r2, [pc, #112]	@ (800314c <HAL_TIM_IRQHandler+0x154>)
 80030dc:	0020      	movs	r0, r4
 80030de:	611a      	str	r2, [r3, #16]
 80030e0:	f000 fbe2 	bl	80038a8 <HAL_TIMEx_Break2Callback>
 80030e4:	2340      	movs	r3, #64	@ 0x40
 80030e6:	421e      	tst	r6, r3
 80030e8:	d008      	beq.n	80030fc <HAL_TIM_IRQHandler+0x104>
 80030ea:	421d      	tst	r5, r3
 80030ec:	d006      	beq.n	80030fc <HAL_TIM_IRQHandler+0x104>
 80030ee:	2241      	movs	r2, #65	@ 0x41
 80030f0:	6823      	ldr	r3, [r4, #0]
 80030f2:	4252      	negs	r2, r2
 80030f4:	0020      	movs	r0, r4
 80030f6:	611a      	str	r2, [r3, #16]
 80030f8:	f7ff ff7d 	bl	8002ff6 <HAL_TIM_TriggerCallback>
 80030fc:	2320      	movs	r3, #32
 80030fe:	421e      	tst	r6, r3
 8003100:	d008      	beq.n	8003114 <HAL_TIM_IRQHandler+0x11c>
 8003102:	421d      	tst	r5, r3
 8003104:	d006      	beq.n	8003114 <HAL_TIM_IRQHandler+0x11c>
 8003106:	2221      	movs	r2, #33	@ 0x21
 8003108:	6823      	ldr	r3, [r4, #0]
 800310a:	4252      	negs	r2, r2
 800310c:	0020      	movs	r0, r4
 800310e:	611a      	str	r2, [r3, #16]
 8003110:	f000 fbc8 	bl	80038a4 <HAL_TIMEx_CommutCallback>
 8003114:	bd70      	pop	{r4, r5, r6, pc}
 8003116:	f7ff ff6c 	bl	8002ff2 <HAL_TIM_OC_DelayElapsedCallback>
 800311a:	0020      	movs	r0, r4
 800311c:	f7ff ff6a 	bl	8002ff4 <HAL_TIM_PWM_PulseFinishedCallback>
 8003120:	e77e      	b.n	8003020 <HAL_TIM_IRQHandler+0x28>
 8003122:	f7ff ff66 	bl	8002ff2 <HAL_TIM_OC_DelayElapsedCallback>
 8003126:	0020      	movs	r0, r4
 8003128:	f7ff ff64 	bl	8002ff4 <HAL_TIM_PWM_PulseFinishedCallback>
 800312c:	e78e      	b.n	800304c <HAL_TIM_IRQHandler+0x54>
 800312e:	f7ff ff60 	bl	8002ff2 <HAL_TIM_OC_DelayElapsedCallback>
 8003132:	0020      	movs	r0, r4
 8003134:	f7ff ff5e 	bl	8002ff4 <HAL_TIM_PWM_PulseFinishedCallback>
 8003138:	e79b      	b.n	8003072 <HAL_TIM_IRQHandler+0x7a>
 800313a:	f7ff ff5a 	bl	8002ff2 <HAL_TIM_OC_DelayElapsedCallback>
 800313e:	0020      	movs	r0, r4
 8003140:	f7ff ff58 	bl	8002ff4 <HAL_TIM_PWM_PulseFinishedCallback>
 8003144:	e7aa      	b.n	800309c <HAL_TIM_IRQHandler+0xa4>
 8003146:	46c0      	nop			@ (mov r8, r8)
 8003148:	ffffdf7f 	.word	0xffffdf7f
 800314c:	fffffeff 	.word	0xfffffeff

08003150 <TIM_Base_SetConfig>:
 8003150:	b510      	push	{r4, lr}
 8003152:	4c1a      	ldr	r4, [pc, #104]	@ (80031bc <TIM_Base_SetConfig+0x6c>)
 8003154:	6803      	ldr	r3, [r0, #0]
 8003156:	42a0      	cmp	r0, r4
 8003158:	d00a      	beq.n	8003170 <TIM_Base_SetConfig+0x20>
 800315a:	4a19      	ldr	r2, [pc, #100]	@ (80031c0 <TIM_Base_SetConfig+0x70>)
 800315c:	4290      	cmp	r0, r2
 800315e:	d007      	beq.n	8003170 <TIM_Base_SetConfig+0x20>
 8003160:	4a18      	ldr	r2, [pc, #96]	@ (80031c4 <TIM_Base_SetConfig+0x74>)
 8003162:	4290      	cmp	r0, r2
 8003164:	d109      	bne.n	800317a <TIM_Base_SetConfig+0x2a>
 8003166:	4a18      	ldr	r2, [pc, #96]	@ (80031c8 <TIM_Base_SetConfig+0x78>)
 8003168:	401a      	ands	r2, r3
 800316a:	68cb      	ldr	r3, [r1, #12]
 800316c:	4313      	orrs	r3, r2
 800316e:	e00a      	b.n	8003186 <TIM_Base_SetConfig+0x36>
 8003170:	2270      	movs	r2, #112	@ 0x70
 8003172:	4393      	bics	r3, r2
 8003174:	684a      	ldr	r2, [r1, #4]
 8003176:	4313      	orrs	r3, r2
 8003178:	e7f5      	b.n	8003166 <TIM_Base_SetConfig+0x16>
 800317a:	4a14      	ldr	r2, [pc, #80]	@ (80031cc <TIM_Base_SetConfig+0x7c>)
 800317c:	4290      	cmp	r0, r2
 800317e:	d0f2      	beq.n	8003166 <TIM_Base_SetConfig+0x16>
 8003180:	4a13      	ldr	r2, [pc, #76]	@ (80031d0 <TIM_Base_SetConfig+0x80>)
 8003182:	4290      	cmp	r0, r2
 8003184:	d0ef      	beq.n	8003166 <TIM_Base_SetConfig+0x16>
 8003186:	2280      	movs	r2, #128	@ 0x80
 8003188:	4393      	bics	r3, r2
 800318a:	694a      	ldr	r2, [r1, #20]
 800318c:	4313      	orrs	r3, r2
 800318e:	688a      	ldr	r2, [r1, #8]
 8003190:	62c2      	str	r2, [r0, #44]	@ 0x2c
 8003192:	680a      	ldr	r2, [r1, #0]
 8003194:	6282      	str	r2, [r0, #40]	@ 0x28
 8003196:	42a0      	cmp	r0, r4
 8003198:	d005      	beq.n	80031a6 <TIM_Base_SetConfig+0x56>
 800319a:	4a0c      	ldr	r2, [pc, #48]	@ (80031cc <TIM_Base_SetConfig+0x7c>)
 800319c:	4290      	cmp	r0, r2
 800319e:	d002      	beq.n	80031a6 <TIM_Base_SetConfig+0x56>
 80031a0:	4a0b      	ldr	r2, [pc, #44]	@ (80031d0 <TIM_Base_SetConfig+0x80>)
 80031a2:	4290      	cmp	r0, r2
 80031a4:	d101      	bne.n	80031aa <TIM_Base_SetConfig+0x5a>
 80031a6:	690a      	ldr	r2, [r1, #16]
 80031a8:	6302      	str	r2, [r0, #48]	@ 0x30
 80031aa:	2204      	movs	r2, #4
 80031ac:	6801      	ldr	r1, [r0, #0]
 80031ae:	430a      	orrs	r2, r1
 80031b0:	6002      	str	r2, [r0, #0]
 80031b2:	2201      	movs	r2, #1
 80031b4:	6142      	str	r2, [r0, #20]
 80031b6:	6003      	str	r3, [r0, #0]
 80031b8:	bd10      	pop	{r4, pc}
 80031ba:	46c0      	nop			@ (mov r8, r8)
 80031bc:	40012c00 	.word	0x40012c00
 80031c0:	40000400 	.word	0x40000400
 80031c4:	40002000 	.word	0x40002000
 80031c8:	fffffcff 	.word	0xfffffcff
 80031cc:	40014400 	.word	0x40014400
 80031d0:	40014800 	.word	0x40014800

080031d4 <HAL_TIM_Base_Init>:
 80031d4:	b570      	push	{r4, r5, r6, lr}
 80031d6:	0004      	movs	r4, r0
 80031d8:	2001      	movs	r0, #1
 80031da:	2c00      	cmp	r4, #0
 80031dc:	d023      	beq.n	8003226 <HAL_TIM_Base_Init+0x52>
 80031de:	0025      	movs	r5, r4
 80031e0:	353d      	adds	r5, #61	@ 0x3d
 80031e2:	782b      	ldrb	r3, [r5, #0]
 80031e4:	b2da      	uxtb	r2, r3
 80031e6:	2b00      	cmp	r3, #0
 80031e8:	d105      	bne.n	80031f6 <HAL_TIM_Base_Init+0x22>
 80031ea:	0023      	movs	r3, r4
 80031ec:	333c      	adds	r3, #60	@ 0x3c
 80031ee:	0020      	movs	r0, r4
 80031f0:	701a      	strb	r2, [r3, #0]
 80031f2:	f7fd fff3 	bl	80011dc <HAL_TIM_Base_MspInit>
 80031f6:	2302      	movs	r3, #2
 80031f8:	702b      	strb	r3, [r5, #0]
 80031fa:	6820      	ldr	r0, [r4, #0]
 80031fc:	1d21      	adds	r1, r4, #4
 80031fe:	f7ff ffa7 	bl	8003150 <TIM_Base_SetConfig>
 8003202:	0022      	movs	r2, r4
 8003204:	2301      	movs	r3, #1
 8003206:	2000      	movs	r0, #0
 8003208:	3248      	adds	r2, #72	@ 0x48
 800320a:	7013      	strb	r3, [r2, #0]
 800320c:	3447      	adds	r4, #71	@ 0x47
 800320e:	3a0a      	subs	r2, #10
 8003210:	7013      	strb	r3, [r2, #0]
 8003212:	7053      	strb	r3, [r2, #1]
 8003214:	7093      	strb	r3, [r2, #2]
 8003216:	70d3      	strb	r3, [r2, #3]
 8003218:	7113      	strb	r3, [r2, #4]
 800321a:	7153      	strb	r3, [r2, #5]
 800321c:	7193      	strb	r3, [r2, #6]
 800321e:	71d3      	strb	r3, [r2, #7]
 8003220:	7213      	strb	r3, [r2, #8]
 8003222:	7023      	strb	r3, [r4, #0]
 8003224:	702b      	strb	r3, [r5, #0]
 8003226:	bd70      	pop	{r4, r5, r6, pc}

08003228 <HAL_TIM_IC_Init>:
 8003228:	b570      	push	{r4, r5, r6, lr}
 800322a:	0004      	movs	r4, r0
 800322c:	2001      	movs	r0, #1
 800322e:	2c00      	cmp	r4, #0
 8003230:	d023      	beq.n	800327a <HAL_TIM_IC_Init+0x52>
 8003232:	0025      	movs	r5, r4
 8003234:	353d      	adds	r5, #61	@ 0x3d
 8003236:	782b      	ldrb	r3, [r5, #0]
 8003238:	b2da      	uxtb	r2, r3
 800323a:	2b00      	cmp	r3, #0
 800323c:	d105      	bne.n	800324a <HAL_TIM_IC_Init+0x22>
 800323e:	0023      	movs	r3, r4
 8003240:	333c      	adds	r3, #60	@ 0x3c
 8003242:	0020      	movs	r0, r4
 8003244:	701a      	strb	r2, [r3, #0]
 8003246:	f7ff febb 	bl	8002fc0 <HAL_TIM_IC_MspInit>
 800324a:	2302      	movs	r3, #2
 800324c:	702b      	strb	r3, [r5, #0]
 800324e:	6820      	ldr	r0, [r4, #0]
 8003250:	1d21      	adds	r1, r4, #4
 8003252:	f7ff ff7d 	bl	8003150 <TIM_Base_SetConfig>
 8003256:	0022      	movs	r2, r4
 8003258:	2301      	movs	r3, #1
 800325a:	2000      	movs	r0, #0
 800325c:	3248      	adds	r2, #72	@ 0x48
 800325e:	7013      	strb	r3, [r2, #0]
 8003260:	3447      	adds	r4, #71	@ 0x47
 8003262:	3a0a      	subs	r2, #10
 8003264:	7013      	strb	r3, [r2, #0]
 8003266:	7053      	strb	r3, [r2, #1]
 8003268:	7093      	strb	r3, [r2, #2]
 800326a:	70d3      	strb	r3, [r2, #3]
 800326c:	7113      	strb	r3, [r2, #4]
 800326e:	7153      	strb	r3, [r2, #5]
 8003270:	7193      	strb	r3, [r2, #6]
 8003272:	71d3      	strb	r3, [r2, #7]
 8003274:	7213      	strb	r3, [r2, #8]
 8003276:	7023      	strb	r3, [r4, #0]
 8003278:	702b      	strb	r3, [r5, #0]
 800327a:	bd70      	pop	{r4, r5, r6, pc}

0800327c <TIM_TI1_SetConfig>:
 800327c:	b5f0      	push	{r4, r5, r6, r7, lr}
 800327e:	2601      	movs	r6, #1
 8003280:	6a04      	ldr	r4, [r0, #32]
 8003282:	0015      	movs	r5, r2
 8003284:	6a02      	ldr	r2, [r0, #32]
 8003286:	4f0d      	ldr	r7, [pc, #52]	@ (80032bc <TIM_TI1_SetConfig+0x40>)
 8003288:	43b2      	bics	r2, r6
 800328a:	6202      	str	r2, [r0, #32]
 800328c:	6982      	ldr	r2, [r0, #24]
 800328e:	42b8      	cmp	r0, r7
 8003290:	d010      	beq.n	80032b4 <TIM_TI1_SetConfig+0x38>
 8003292:	4f0b      	ldr	r7, [pc, #44]	@ (80032c0 <TIM_TI1_SetConfig+0x44>)
 8003294:	42b8      	cmp	r0, r7
 8003296:	d00d      	beq.n	80032b4 <TIM_TI1_SetConfig+0x38>
 8003298:	4332      	orrs	r2, r6
 800329a:	25f0      	movs	r5, #240	@ 0xf0
 800329c:	43aa      	bics	r2, r5
 800329e:	011b      	lsls	r3, r3, #4
 80032a0:	350f      	adds	r5, #15
 80032a2:	402b      	ands	r3, r5
 80032a4:	4313      	orrs	r3, r2
 80032a6:	220a      	movs	r2, #10
 80032a8:	4394      	bics	r4, r2
 80032aa:	4011      	ands	r1, r2
 80032ac:	4321      	orrs	r1, r4
 80032ae:	6183      	str	r3, [r0, #24]
 80032b0:	6201      	str	r1, [r0, #32]
 80032b2:	bdf0      	pop	{r4, r5, r6, r7, pc}
 80032b4:	2603      	movs	r6, #3
 80032b6:	43b2      	bics	r2, r6
 80032b8:	432a      	orrs	r2, r5
 80032ba:	e7ee      	b.n	800329a <TIM_TI1_SetConfig+0x1e>
 80032bc:	40012c00 	.word	0x40012c00
 80032c0:	40000400 	.word	0x40000400

080032c4 <HAL_TIM_IC_ConfigChannel>:
 80032c4:	0003      	movs	r3, r0
 80032c6:	b5f7      	push	{r0, r1, r2, r4, r5, r6, r7, lr}
 80032c8:	333c      	adds	r3, #60	@ 0x3c
 80032ca:	9001      	str	r0, [sp, #4]
 80032cc:	000c      	movs	r4, r1
 80032ce:	7819      	ldrb	r1, [r3, #0]
 80032d0:	2002      	movs	r0, #2
 80032d2:	2901      	cmp	r1, #1
 80032d4:	d00c      	beq.n	80032f0 <HAL_TIM_IC_ConfigChannel+0x2c>
 80032d6:	3801      	subs	r0, #1
 80032d8:	7018      	strb	r0, [r3, #0]
 80032da:	2a08      	cmp	r2, #8
 80032dc:	d067      	beq.n	80033ae <HAL_TIM_IC_ConfigChannel+0xea>
 80032de:	d808      	bhi.n	80032f2 <HAL_TIM_IC_ConfigChannel+0x2e>
 80032e0:	2a00      	cmp	r2, #0
 80032e2:	d02d      	beq.n	8003340 <HAL_TIM_IC_ConfigChannel+0x7c>
 80032e4:	2a04      	cmp	r2, #4
 80032e6:	d03d      	beq.n	8003364 <HAL_TIM_IC_ConfigChannel+0xa0>
 80032e8:	2300      	movs	r3, #0
 80032ea:	9d01      	ldr	r5, [sp, #4]
 80032ec:	353c      	adds	r5, #60	@ 0x3c
 80032ee:	702b      	strb	r3, [r5, #0]
 80032f0:	bdfe      	pop	{r1, r2, r3, r4, r5, r6, r7, pc}
 80032f2:	2a0c      	cmp	r2, #12
 80032f4:	d1f8      	bne.n	80032e8 <HAL_TIM_IC_ConfigChannel+0x24>
 80032f6:	9b01      	ldr	r3, [sp, #4]
 80032f8:	4d40      	ldr	r5, [pc, #256]	@ (80033fc <HAL_TIM_IC_ConfigChannel+0x138>)
 80032fa:	681b      	ldr	r3, [r3, #0]
 80032fc:	6822      	ldr	r2, [r4, #0]
 80032fe:	6a1e      	ldr	r6, [r3, #32]
 8003300:	6a1f      	ldr	r7, [r3, #32]
 8003302:	6860      	ldr	r0, [r4, #4]
 8003304:	402f      	ands	r7, r5
 8003306:	68e1      	ldr	r1, [r4, #12]
 8003308:	621f      	str	r7, [r3, #32]
 800330a:	69df      	ldr	r7, [r3, #28]
 800330c:	4d3c      	ldr	r5, [pc, #240]	@ (8003400 <HAL_TIM_IC_ConfigChannel+0x13c>)
 800330e:	0200      	lsls	r0, r0, #8
 8003310:	402f      	ands	r7, r5
 8003312:	4338      	orrs	r0, r7
 8003314:	4f3b      	ldr	r7, [pc, #236]	@ (8003404 <HAL_TIM_IC_ConfigChannel+0x140>)
 8003316:	0709      	lsls	r1, r1, #28
 8003318:	4038      	ands	r0, r7
 800331a:	0c09      	lsrs	r1, r1, #16
 800331c:	4301      	orrs	r1, r0
 800331e:	483a      	ldr	r0, [pc, #232]	@ (8003408 <HAL_TIM_IC_ConfigChannel+0x144>)
 8003320:	0312      	lsls	r2, r2, #12
 8003322:	4006      	ands	r6, r0
 8003324:	20a0      	movs	r0, #160	@ 0xa0
 8003326:	0200      	lsls	r0, r0, #8
 8003328:	4002      	ands	r2, r0
 800332a:	4332      	orrs	r2, r6
 800332c:	61d9      	str	r1, [r3, #28]
 800332e:	621a      	str	r2, [r3, #32]
 8003330:	69da      	ldr	r2, [r3, #28]
 8003332:	4936      	ldr	r1, [pc, #216]	@ (800340c <HAL_TIM_IC_ConfigChannel+0x148>)
 8003334:	400a      	ands	r2, r1
 8003336:	61da      	str	r2, [r3, #28]
 8003338:	68a2      	ldr	r2, [r4, #8]
 800333a:	69d9      	ldr	r1, [r3, #28]
 800333c:	0212      	lsls	r2, r2, #8
 800333e:	e05a      	b.n	80033f6 <HAL_TIM_IC_ConfigChannel+0x132>
 8003340:	9b01      	ldr	r3, [sp, #4]
 8003342:	6862      	ldr	r2, [r4, #4]
 8003344:	681e      	ldr	r6, [r3, #0]
 8003346:	6821      	ldr	r1, [r4, #0]
 8003348:	68e3      	ldr	r3, [r4, #12]
 800334a:	0030      	movs	r0, r6
 800334c:	f7ff ff96 	bl	800327c <TIM_TI1_SetConfig>
 8003350:	220c      	movs	r2, #12
 8003352:	69b3      	ldr	r3, [r6, #24]
 8003354:	4393      	bics	r3, r2
 8003356:	61b3      	str	r3, [r6, #24]
 8003358:	69b3      	ldr	r3, [r6, #24]
 800335a:	68a2      	ldr	r2, [r4, #8]
 800335c:	4313      	orrs	r3, r2
 800335e:	61b3      	str	r3, [r6, #24]
 8003360:	2000      	movs	r0, #0
 8003362:	e7c1      	b.n	80032e8 <HAL_TIM_IC_ConfigChannel+0x24>
 8003364:	2510      	movs	r5, #16
 8003366:	9b01      	ldr	r3, [sp, #4]
 8003368:	6822      	ldr	r2, [r4, #0]
 800336a:	681b      	ldr	r3, [r3, #0]
 800336c:	6860      	ldr	r0, [r4, #4]
 800336e:	6a1e      	ldr	r6, [r3, #32]
 8003370:	6a1f      	ldr	r7, [r3, #32]
 8003372:	68e1      	ldr	r1, [r4, #12]
 8003374:	43af      	bics	r7, r5
 8003376:	621f      	str	r7, [r3, #32]
 8003378:	699f      	ldr	r7, [r3, #24]
 800337a:	4d21      	ldr	r5, [pc, #132]	@ (8003400 <HAL_TIM_IC_ConfigChannel+0x13c>)
 800337c:	0200      	lsls	r0, r0, #8
 800337e:	402f      	ands	r7, r5
 8003380:	4338      	orrs	r0, r7
 8003382:	4f20      	ldr	r7, [pc, #128]	@ (8003404 <HAL_TIM_IC_ConfigChannel+0x140>)
 8003384:	0709      	lsls	r1, r1, #28
 8003386:	4038      	ands	r0, r7
 8003388:	0c09      	lsrs	r1, r1, #16
 800338a:	4301      	orrs	r1, r0
 800338c:	20a0      	movs	r0, #160	@ 0xa0
 800338e:	0112      	lsls	r2, r2, #4
 8003390:	4386      	bics	r6, r0
 8003392:	4002      	ands	r2, r0
 8003394:	4332      	orrs	r2, r6
 8003396:	6199      	str	r1, [r3, #24]
 8003398:	621a      	str	r2, [r3, #32]
 800339a:	699a      	ldr	r2, [r3, #24]
 800339c:	491b      	ldr	r1, [pc, #108]	@ (800340c <HAL_TIM_IC_ConfigChannel+0x148>)
 800339e:	400a      	ands	r2, r1
 80033a0:	619a      	str	r2, [r3, #24]
 80033a2:	68a2      	ldr	r2, [r4, #8]
 80033a4:	6999      	ldr	r1, [r3, #24]
 80033a6:	0212      	lsls	r2, r2, #8
 80033a8:	430a      	orrs	r2, r1
 80033aa:	619a      	str	r2, [r3, #24]
 80033ac:	e7d8      	b.n	8003360 <HAL_TIM_IC_ConfigChannel+0x9c>
 80033ae:	9b01      	ldr	r3, [sp, #4]
 80033b0:	4d17      	ldr	r5, [pc, #92]	@ (8003410 <HAL_TIM_IC_ConfigChannel+0x14c>)
 80033b2:	681b      	ldr	r3, [r3, #0]
 80033b4:	6822      	ldr	r2, [r4, #0]
 80033b6:	6a1e      	ldr	r6, [r3, #32]
 80033b8:	6a1f      	ldr	r7, [r3, #32]
 80033ba:	6860      	ldr	r0, [r4, #4]
 80033bc:	402f      	ands	r7, r5
 80033be:	68e1      	ldr	r1, [r4, #12]
 80033c0:	621f      	str	r7, [r3, #32]
 80033c2:	69df      	ldr	r7, [r3, #28]
 80033c4:	3505      	adds	r5, #5
 80033c6:	35ff      	adds	r5, #255	@ 0xff
 80033c8:	43af      	bics	r7, r5
 80033ca:	4338      	orrs	r0, r7
 80033cc:	27f0      	movs	r7, #240	@ 0xf0
 80033ce:	0109      	lsls	r1, r1, #4
 80033d0:	43b8      	bics	r0, r7
 80033d2:	370f      	adds	r7, #15
 80033d4:	4039      	ands	r1, r7
 80033d6:	4301      	orrs	r1, r0
 80033d8:	480e      	ldr	r0, [pc, #56]	@ (8003414 <HAL_TIM_IC_ConfigChannel+0x150>)
 80033da:	61d9      	str	r1, [r3, #28]
 80033dc:	4030      	ands	r0, r6
 80033de:	26a0      	movs	r6, #160	@ 0xa0
 80033e0:	210c      	movs	r1, #12
 80033e2:	0212      	lsls	r2, r2, #8
 80033e4:	0136      	lsls	r6, r6, #4
 80033e6:	4032      	ands	r2, r6
 80033e8:	4302      	orrs	r2, r0
 80033ea:	621a      	str	r2, [r3, #32]
 80033ec:	69da      	ldr	r2, [r3, #28]
 80033ee:	438a      	bics	r2, r1
 80033f0:	61da      	str	r2, [r3, #28]
 80033f2:	69da      	ldr	r2, [r3, #28]
 80033f4:	68a1      	ldr	r1, [r4, #8]
 80033f6:	430a      	orrs	r2, r1
 80033f8:	61da      	str	r2, [r3, #28]
 80033fa:	e7b1      	b.n	8003360 <HAL_TIM_IC_ConfigChannel+0x9c>
 80033fc:	ffffefff 	.word	0xffffefff
 8003400:	fffffcff 	.word	0xfffffcff
 8003404:	ffff0fff 	.word	0xffff0fff
 8003408:	ffff5fff 	.word	0xffff5fff
 800340c:	fffff3ff 	.word	0xfffff3ff
 8003410:	fffffeff 	.word	0xfffffeff
 8003414:	fffff5ff 	.word	0xfffff5ff

08003418 <TIM_ETR_SetConfig>:
 8003418:	b530      	push	{r4, r5, lr}
 800341a:	6884      	ldr	r4, [r0, #8]
 800341c:	4d03      	ldr	r5, [pc, #12]	@ (800342c <TIM_ETR_SetConfig+0x14>)
 800341e:	430a      	orrs	r2, r1
 8003420:	021b      	lsls	r3, r3, #8
 8003422:	402c      	ands	r4, r5
 8003424:	4313      	orrs	r3, r2
 8003426:	4323      	orrs	r3, r4
 8003428:	6083      	str	r3, [r0, #8]
 800342a:	bd30      	pop	{r4, r5, pc}
 800342c:	ffff00ff 	.word	0xffff00ff

08003430 <HAL_TIM_ConfigClockSource>:
 8003430:	b5f8      	push	{r3, r4, r5, r6, r7, lr}
 8003432:	0005      	movs	r5, r0
 8003434:	2202      	movs	r2, #2
 8003436:	353c      	adds	r5, #60	@ 0x3c
 8003438:	782c      	ldrb	r4, [r5, #0]
 800343a:	0003      	movs	r3, r0
 800343c:	0010      	movs	r0, r2
 800343e:	2c01      	cmp	r4, #1
 8003440:	d01b      	beq.n	800347a <HAL_TIM_ConfigClockSource+0x4a>
 8003442:	001e      	movs	r6, r3
 8003444:	3801      	subs	r0, #1
 8003446:	363d      	adds	r6, #61	@ 0x3d
 8003448:	7028      	strb	r0, [r5, #0]
 800344a:	7032      	strb	r2, [r6, #0]
 800344c:	681c      	ldr	r4, [r3, #0]
 800344e:	4a41      	ldr	r2, [pc, #260]	@ (8003554 <HAL_TIM_ConfigClockSource+0x124>)
 8003450:	68a3      	ldr	r3, [r4, #8]
 8003452:	4013      	ands	r3, r2
 8003454:	60a3      	str	r3, [r4, #8]
 8003456:	680b      	ldr	r3, [r1, #0]
 8003458:	2b60      	cmp	r3, #96	@ 0x60
 800345a:	d04e      	beq.n	80034fa <HAL_TIM_ConfigClockSource+0xca>
 800345c:	d82d      	bhi.n	80034ba <HAL_TIM_ConfigClockSource+0x8a>
 800345e:	2b40      	cmp	r3, #64	@ 0x40
 8003460:	d062      	beq.n	8003528 <HAL_TIM_ConfigClockSource+0xf8>
 8003462:	d813      	bhi.n	800348c <HAL_TIM_ConfigClockSource+0x5c>
 8003464:	2b20      	cmp	r3, #32
 8003466:	d00b      	beq.n	8003480 <HAL_TIM_ConfigClockSource+0x50>
 8003468:	d808      	bhi.n	800347c <HAL_TIM_ConfigClockSource+0x4c>
 800346a:	2210      	movs	r2, #16
 800346c:	0019      	movs	r1, r3
 800346e:	4391      	bics	r1, r2
 8003470:	d006      	beq.n	8003480 <HAL_TIM_ConfigClockSource+0x50>
 8003472:	2301      	movs	r3, #1
 8003474:	7033      	strb	r3, [r6, #0]
 8003476:	2300      	movs	r3, #0
 8003478:	702b      	strb	r3, [r5, #0]
 800347a:	bdf8      	pop	{r3, r4, r5, r6, r7, pc}
 800347c:	2b30      	cmp	r3, #48	@ 0x30
 800347e:	d1f8      	bne.n	8003472 <HAL_TIM_ConfigClockSource+0x42>
 8003480:	68a2      	ldr	r2, [r4, #8]
 8003482:	4935      	ldr	r1, [pc, #212]	@ (8003558 <HAL_TIM_ConfigClockSource+0x128>)
 8003484:	400a      	ands	r2, r1
 8003486:	4313      	orrs	r3, r2
 8003488:	2207      	movs	r2, #7
 800348a:	e028      	b.n	80034de <HAL_TIM_ConfigClockSource+0xae>
 800348c:	2b50      	cmp	r3, #80	@ 0x50
 800348e:	d1f0      	bne.n	8003472 <HAL_TIM_ConfigClockSource+0x42>
 8003490:	684a      	ldr	r2, [r1, #4]
 8003492:	68cb      	ldr	r3, [r1, #12]
 8003494:	6a21      	ldr	r1, [r4, #32]
 8003496:	6a27      	ldr	r7, [r4, #32]
 8003498:	011b      	lsls	r3, r3, #4
 800349a:	4387      	bics	r7, r0
 800349c:	6227      	str	r7, [r4, #32]
 800349e:	27f0      	movs	r7, #240	@ 0xf0
 80034a0:	69a0      	ldr	r0, [r4, #24]
 80034a2:	43b8      	bics	r0, r7
 80034a4:	4303      	orrs	r3, r0
 80034a6:	200a      	movs	r0, #10
 80034a8:	4381      	bics	r1, r0
 80034aa:	430a      	orrs	r2, r1
 80034ac:	61a3      	str	r3, [r4, #24]
 80034ae:	6222      	str	r2, [r4, #32]
 80034b0:	4b29      	ldr	r3, [pc, #164]	@ (8003558 <HAL_TIM_ConfigClockSource+0x128>)
 80034b2:	68a2      	ldr	r2, [r4, #8]
 80034b4:	401a      	ands	r2, r3
 80034b6:	2357      	movs	r3, #87	@ 0x57
 80034b8:	e011      	b.n	80034de <HAL_TIM_ConfigClockSource+0xae>
 80034ba:	2280      	movs	r2, #128	@ 0x80
 80034bc:	0152      	lsls	r2, r2, #5
 80034be:	4293      	cmp	r3, r2
 80034c0:	d00f      	beq.n	80034e2 <HAL_TIM_ConfigClockSource+0xb2>
 80034c2:	2280      	movs	r2, #128	@ 0x80
 80034c4:	0192      	lsls	r2, r2, #6
 80034c6:	4293      	cmp	r3, r2
 80034c8:	d00d      	beq.n	80034e6 <HAL_TIM_ConfigClockSource+0xb6>
 80034ca:	2b70      	cmp	r3, #112	@ 0x70
 80034cc:	d1d1      	bne.n	8003472 <HAL_TIM_ConfigClockSource+0x42>
 80034ce:	68cb      	ldr	r3, [r1, #12]
 80034d0:	684a      	ldr	r2, [r1, #4]
 80034d2:	0020      	movs	r0, r4
 80034d4:	6889      	ldr	r1, [r1, #8]
 80034d6:	f7ff ff9f 	bl	8003418 <TIM_ETR_SetConfig>
 80034da:	2377      	movs	r3, #119	@ 0x77
 80034dc:	68a2      	ldr	r2, [r4, #8]
 80034de:	4313      	orrs	r3, r2
 80034e0:	60a3      	str	r3, [r4, #8]
 80034e2:	2000      	movs	r0, #0
 80034e4:	e7c5      	b.n	8003472 <HAL_TIM_ConfigClockSource+0x42>
 80034e6:	68cb      	ldr	r3, [r1, #12]
 80034e8:	684a      	ldr	r2, [r1, #4]
 80034ea:	0020      	movs	r0, r4
 80034ec:	6889      	ldr	r1, [r1, #8]
 80034ee:	f7ff ff93 	bl	8003418 <TIM_ETR_SetConfig>
 80034f2:	2380      	movs	r3, #128	@ 0x80
 80034f4:	68a2      	ldr	r2, [r4, #8]
 80034f6:	01db      	lsls	r3, r3, #7
 80034f8:	e7f1      	b.n	80034de <HAL_TIM_ConfigClockSource+0xae>
 80034fa:	2710      	movs	r7, #16
 80034fc:	684b      	ldr	r3, [r1, #4]
 80034fe:	68ca      	ldr	r2, [r1, #12]
 8003500:	6a21      	ldr	r1, [r4, #32]
 8003502:	6a20      	ldr	r0, [r4, #32]
 8003504:	0312      	lsls	r2, r2, #12
 8003506:	43b8      	bics	r0, r7
 8003508:	6220      	str	r0, [r4, #32]
 800350a:	69a0      	ldr	r0, [r4, #24]
 800350c:	4f13      	ldr	r7, [pc, #76]	@ (800355c <HAL_TIM_ConfigClockSource+0x12c>)
 800350e:	011b      	lsls	r3, r3, #4
 8003510:	4038      	ands	r0, r7
 8003512:	4302      	orrs	r2, r0
 8003514:	20a0      	movs	r0, #160	@ 0xa0
 8003516:	4381      	bics	r1, r0
 8003518:	430b      	orrs	r3, r1
 800351a:	61a2      	str	r2, [r4, #24]
 800351c:	6223      	str	r3, [r4, #32]
 800351e:	68a2      	ldr	r2, [r4, #8]
 8003520:	4b0d      	ldr	r3, [pc, #52]	@ (8003558 <HAL_TIM_ConfigClockSource+0x128>)
 8003522:	401a      	ands	r2, r3
 8003524:	2367      	movs	r3, #103	@ 0x67
 8003526:	e7da      	b.n	80034de <HAL_TIM_ConfigClockSource+0xae>
 8003528:	684a      	ldr	r2, [r1, #4]
 800352a:	68cb      	ldr	r3, [r1, #12]
 800352c:	6a21      	ldr	r1, [r4, #32]
 800352e:	6a27      	ldr	r7, [r4, #32]
 8003530:	011b      	lsls	r3, r3, #4
 8003532:	4387      	bics	r7, r0
 8003534:	6227      	str	r7, [r4, #32]
 8003536:	27f0      	movs	r7, #240	@ 0xf0
 8003538:	69a0      	ldr	r0, [r4, #24]
 800353a:	43b8      	bics	r0, r7
 800353c:	4303      	orrs	r3, r0
 800353e:	200a      	movs	r0, #10
 8003540:	4381      	bics	r1, r0
 8003542:	430a      	orrs	r2, r1
 8003544:	61a3      	str	r3, [r4, #24]
 8003546:	6222      	str	r2, [r4, #32]
 8003548:	4b03      	ldr	r3, [pc, #12]	@ (8003558 <HAL_TIM_ConfigClockSource+0x128>)
 800354a:	68a2      	ldr	r2, [r4, #8]
 800354c:	401a      	ands	r2, r3
 800354e:	2347      	movs	r3, #71	@ 0x47
 8003550:	e7c5      	b.n	80034de <HAL_TIM_ConfigClockSource+0xae>
 8003552:	46c0      	nop			@ (mov r8, r8)
 8003554:	ffce0088 	.word	0xffce0088
 8003558:	ffcfff8f 	.word	0xffcfff8f
 800355c:	ffff0fff 	.word	0xffff0fff

08003560 <TIM_SlaveTimer_SetConfig.constprop.0>:
 8003560:	b570      	push	{r4, r5, r6, lr}
 8003562:	6804      	ldr	r4, [r0, #0]
 8003564:	4b30      	ldr	r3, [pc, #192]	@ (8003628 <TIM_SlaveTimer_SetConfig.constprop.0+0xc8>)
 8003566:	68a2      	ldr	r2, [r4, #8]
 8003568:	4830      	ldr	r0, [pc, #192]	@ (800362c <TIM_SlaveTimer_SetConfig.constprop.0+0xcc>)
 800356a:	401a      	ands	r2, r3
 800356c:	684b      	ldr	r3, [r1, #4]
 800356e:	680d      	ldr	r5, [r1, #0]
 8003570:	431a      	orrs	r2, r3
 8003572:	4002      	ands	r2, r0
 8003574:	432a      	orrs	r2, r5
 8003576:	60a2      	str	r2, [r4, #8]
 8003578:	2b50      	cmp	r3, #80	@ 0x50
 800357a:	d02f      	beq.n	80035dc <TIM_SlaveTimer_SetConfig.constprop.0+0x7c>
 800357c:	d810      	bhi.n	80035a0 <TIM_SlaveTimer_SetConfig.constprop.0+0x40>
 800357e:	2b40      	cmp	r3, #64	@ 0x40
 8003580:	d01b      	beq.n	80035ba <TIM_SlaveTimer_SetConfig.constprop.0+0x5a>
 8003582:	2001      	movs	r0, #1
 8003584:	2b40      	cmp	r3, #64	@ 0x40
 8003586:	d808      	bhi.n	800359a <TIM_SlaveTimer_SetConfig.constprop.0+0x3a>
 8003588:	2b20      	cmp	r3, #32
 800358a:	d014      	beq.n	80035b6 <TIM_SlaveTimer_SetConfig.constprop.0+0x56>
 800358c:	d806      	bhi.n	800359c <TIM_SlaveTimer_SetConfig.constprop.0+0x3c>
 800358e:	2210      	movs	r2, #16
 8003590:	4393      	bics	r3, r2
 8003592:	0018      	movs	r0, r3
 8003594:	1e43      	subs	r3, r0, #1
 8003596:	4198      	sbcs	r0, r3
 8003598:	b2c0      	uxtb	r0, r0
 800359a:	bd70      	pop	{r4, r5, r6, pc}
 800359c:	3b30      	subs	r3, #48	@ 0x30
 800359e:	e7f8      	b.n	8003592 <TIM_SlaveTimer_SetConfig.constprop.0+0x32>
 80035a0:	2b60      	cmp	r3, #96	@ 0x60
 80035a2:	d02d      	beq.n	8003600 <TIM_SlaveTimer_SetConfig.constprop.0+0xa0>
 80035a4:	2001      	movs	r0, #1
 80035a6:	2b70      	cmp	r3, #112	@ 0x70
 80035a8:	d1f7      	bne.n	800359a <TIM_SlaveTimer_SetConfig.constprop.0+0x3a>
 80035aa:	690b      	ldr	r3, [r1, #16]
 80035ac:	688a      	ldr	r2, [r1, #8]
 80035ae:	0020      	movs	r0, r4
 80035b0:	68c9      	ldr	r1, [r1, #12]
 80035b2:	f7ff ff31 	bl	8003418 <TIM_ETR_SetConfig>
 80035b6:	2000      	movs	r0, #0
 80035b8:	e7ef      	b.n	800359a <TIM_SlaveTimer_SetConfig.constprop.0+0x3a>
 80035ba:	2201      	movs	r2, #1
 80035bc:	0010      	movs	r0, r2
 80035be:	2d05      	cmp	r5, #5
 80035c0:	d0eb      	beq.n	800359a <TIM_SlaveTimer_SetConfig.constprop.0+0x3a>
 80035c2:	6a20      	ldr	r0, [r4, #32]
 80035c4:	6a23      	ldr	r3, [r4, #32]
 80035c6:	4393      	bics	r3, r2
 80035c8:	6223      	str	r3, [r4, #32]
 80035ca:	23f0      	movs	r3, #240	@ 0xf0
 80035cc:	69a2      	ldr	r2, [r4, #24]
 80035ce:	439a      	bics	r2, r3
 80035d0:	690b      	ldr	r3, [r1, #16]
 80035d2:	011b      	lsls	r3, r3, #4
 80035d4:	4313      	orrs	r3, r2
 80035d6:	61a3      	str	r3, [r4, #24]
 80035d8:	6220      	str	r0, [r4, #32]
 80035da:	e7ec      	b.n	80035b6 <TIM_SlaveTimer_SetConfig.constprop.0+0x56>
 80035dc:	2501      	movs	r5, #1
 80035de:	688a      	ldr	r2, [r1, #8]
 80035e0:	690b      	ldr	r3, [r1, #16]
 80035e2:	6a21      	ldr	r1, [r4, #32]
 80035e4:	6a20      	ldr	r0, [r4, #32]
 80035e6:	011b      	lsls	r3, r3, #4
 80035e8:	43a8      	bics	r0, r5
 80035ea:	6220      	str	r0, [r4, #32]
 80035ec:	69a0      	ldr	r0, [r4, #24]
 80035ee:	35ef      	adds	r5, #239	@ 0xef
 80035f0:	43a8      	bics	r0, r5
 80035f2:	4303      	orrs	r3, r0
 80035f4:	200a      	movs	r0, #10
 80035f6:	4381      	bics	r1, r0
 80035f8:	430a      	orrs	r2, r1
 80035fa:	61a3      	str	r3, [r4, #24]
 80035fc:	6222      	str	r2, [r4, #32]
 80035fe:	e7da      	b.n	80035b6 <TIM_SlaveTimer_SetConfig.constprop.0+0x56>
 8003600:	2510      	movs	r5, #16
 8003602:	688b      	ldr	r3, [r1, #8]
 8003604:	690a      	ldr	r2, [r1, #16]
 8003606:	6a21      	ldr	r1, [r4, #32]
 8003608:	6a20      	ldr	r0, [r4, #32]
 800360a:	0312      	lsls	r2, r2, #12
 800360c:	43a8      	bics	r0, r5
 800360e:	6220      	str	r0, [r4, #32]
 8003610:	69a0      	ldr	r0, [r4, #24]
 8003612:	4d07      	ldr	r5, [pc, #28]	@ (8003630 <TIM_SlaveTimer_SetConfig.constprop.0+0xd0>)
 8003614:	011b      	lsls	r3, r3, #4
 8003616:	4028      	ands	r0, r5
 8003618:	4302      	orrs	r2, r0
 800361a:	20a0      	movs	r0, #160	@ 0xa0
 800361c:	4381      	bics	r1, r0
 800361e:	430b      	orrs	r3, r1
 8003620:	61a2      	str	r2, [r4, #24]
 8003622:	6223      	str	r3, [r4, #32]
 8003624:	e7c7      	b.n	80035b6 <TIM_SlaveTimer_SetConfig.constprop.0+0x56>
 8003626:	46c0      	nop			@ (mov r8, r8)
 8003628:	ffcfff8f 	.word	0xffcfff8f
 800362c:	fffefff8 	.word	0xfffefff8
 8003630:	ffff0fff 	.word	0xffff0fff

08003634 <HAL_TIM_SlaveConfigSynchro>:
 8003634:	b5f8      	push	{r3, r4, r5, r6, r7, lr}
 8003636:	0005      	movs	r5, r0
 8003638:	2302      	movs	r3, #2
 800363a:	353c      	adds	r5, #60	@ 0x3c
 800363c:	782a      	ldrb	r2, [r5, #0]
 800363e:	0004      	movs	r4, r0
 8003640:	0018      	movs	r0, r3
 8003642:	2a01      	cmp	r2, #1
 8003644:	d00d      	beq.n	8003662 <HAL_TIM_SlaveConfigSynchro+0x2e>
 8003646:	0027      	movs	r7, r4
 8003648:	2601      	movs	r6, #1
 800364a:	373d      	adds	r7, #61	@ 0x3d
 800364c:	702e      	strb	r6, [r5, #0]
 800364e:	0020      	movs	r0, r4
 8003650:	703b      	strb	r3, [r7, #0]
 8003652:	f7ff ff85 	bl	8003560 <TIM_SlaveTimer_SetConfig.constprop.0>
 8003656:	2800      	cmp	r0, #0
 8003658:	d004      	beq.n	8003664 <HAL_TIM_SlaveConfigSynchro+0x30>
 800365a:	2300      	movs	r3, #0
 800365c:	0030      	movs	r0, r6
 800365e:	703e      	strb	r6, [r7, #0]
 8003660:	702b      	strb	r3, [r5, #0]
 8003662:	bdf8      	pop	{r3, r4, r5, r6, r7, pc}
 8003664:	2140      	movs	r1, #64	@ 0x40
 8003666:	6823      	ldr	r3, [r4, #0]
 8003668:	68da      	ldr	r2, [r3, #12]
 800366a:	438a      	bics	r2, r1
 800366c:	60da      	str	r2, [r3, #12]
 800366e:	68da      	ldr	r2, [r3, #12]
 8003670:	4902      	ldr	r1, [pc, #8]	@ (800367c <HAL_TIM_SlaveConfigSynchro+0x48>)
 8003672:	400a      	ands	r2, r1
 8003674:	60da      	str	r2, [r3, #12]
 8003676:	703e      	strb	r6, [r7, #0]
 8003678:	7028      	strb	r0, [r5, #0]
 800367a:	e7f2      	b.n	8003662 <HAL_TIM_SlaveConfigSynchro+0x2e>
 800367c:	ffffbfff 	.word	0xffffbfff

08003680 <TIM_CCxChannelCmd>:
 8003680:	231f      	movs	r3, #31
 8003682:	b510      	push	{r4, lr}
 8003684:	2401      	movs	r4, #1
 8003686:	4019      	ands	r1, r3
 8003688:	408c      	lsls	r4, r1
 800368a:	408a      	lsls	r2, r1
 800368c:	6a03      	ldr	r3, [r0, #32]
 800368e:	43a3      	bics	r3, r4
 8003690:	6203      	str	r3, [r0, #32]
 8003692:	6a03      	ldr	r3, [r0, #32]
 8003694:	431a      	orrs	r2, r3
 8003696:	6202      	str	r2, [r0, #32]
 8003698:	bd10      	pop	{r4, pc}
	...

0800369c <HAL_TIM_IC_Start_IT>:
 800369c:	b510      	push	{r4, lr}
 800369e:	2908      	cmp	r1, #8
 80036a0:	d02f      	beq.n	8003702 <HAL_TIM_IC_Start_IT+0x66>
 80036a2:	d806      	bhi.n	80036b2 <HAL_TIM_IC_Start_IT+0x16>
 80036a4:	2900      	cmp	r1, #0
 80036a6:	d00b      	beq.n	80036c0 <HAL_TIM_IC_Start_IT+0x24>
 80036a8:	2904      	cmp	r1, #4
 80036aa:	d023      	beq.n	80036f4 <HAL_TIM_IC_Start_IT+0x58>
 80036ac:	0003      	movs	r3, r0
 80036ae:	3343      	adds	r3, #67	@ 0x43
 80036b0:	e030      	b.n	8003714 <HAL_TIM_IC_Start_IT+0x78>
 80036b2:	290c      	cmp	r1, #12
 80036b4:	d02c      	beq.n	8003710 <HAL_TIM_IC_Start_IT+0x74>
 80036b6:	2910      	cmp	r1, #16
 80036b8:	d1f8      	bne.n	80036ac <HAL_TIM_IC_Start_IT+0x10>
 80036ba:	0003      	movs	r3, r0
 80036bc:	3342      	adds	r3, #66	@ 0x42
 80036be:	e029      	b.n	8003714 <HAL_TIM_IC_Start_IT+0x78>
 80036c0:	0003      	movs	r3, r0
 80036c2:	0002      	movs	r2, r0
 80036c4:	333e      	adds	r3, #62	@ 0x3e
 80036c6:	781b      	ldrb	r3, [r3, #0]
 80036c8:	3244      	adds	r2, #68	@ 0x44
 80036ca:	b2db      	uxtb	r3, r3
 80036cc:	7812      	ldrb	r2, [r2, #0]
 80036ce:	b2d2      	uxtb	r2, r2
 80036d0:	2b01      	cmp	r3, #1
 80036d2:	d12d      	bne.n	8003730 <HAL_TIM_IC_Start_IT+0x94>
 80036d4:	2a01      	cmp	r2, #1
 80036d6:	d12b      	bne.n	8003730 <HAL_TIM_IC_Start_IT+0x94>
 80036d8:	3301      	adds	r3, #1
 80036da:	2908      	cmp	r1, #8
 80036dc:	d054      	beq.n	8003788 <HAL_TIM_IC_Start_IT+0xec>
 80036de:	d81e      	bhi.n	800371e <HAL_TIM_IC_Start_IT+0x82>
 80036e0:	2900      	cmp	r1, #0
 80036e2:	d027      	beq.n	8003734 <HAL_TIM_IC_Start_IT+0x98>
 80036e4:	2904      	cmp	r1, #4
 80036e6:	d046      	beq.n	8003776 <HAL_TIM_IC_Start_IT+0xda>
 80036e8:	0002      	movs	r2, r0
 80036ea:	3047      	adds	r0, #71	@ 0x47
 80036ec:	3243      	adds	r2, #67	@ 0x43
 80036ee:	7013      	strb	r3, [r2, #0]
 80036f0:	7003      	strb	r3, [r0, #0]
 80036f2:	e01d      	b.n	8003730 <HAL_TIM_IC_Start_IT+0x94>
 80036f4:	0003      	movs	r3, r0
 80036f6:	0002      	movs	r2, r0
 80036f8:	333f      	adds	r3, #63	@ 0x3f
 80036fa:	781b      	ldrb	r3, [r3, #0]
 80036fc:	3245      	adds	r2, #69	@ 0x45
 80036fe:	b2db      	uxtb	r3, r3
 8003700:	e7e4      	b.n	80036cc <HAL_TIM_IC_Start_IT+0x30>
 8003702:	0003      	movs	r3, r0
 8003704:	0002      	movs	r2, r0
 8003706:	3340      	adds	r3, #64	@ 0x40
 8003708:	781b      	ldrb	r3, [r3, #0]
 800370a:	3246      	adds	r2, #70	@ 0x46
 800370c:	b2db      	uxtb	r3, r3
 800370e:	e7dd      	b.n	80036cc <HAL_TIM_IC_Start_IT+0x30>
 8003710:	0003      	movs	r3, r0
 8003712:	3341      	adds	r3, #65	@ 0x41
 8003714:	0002      	movs	r2, r0
 8003716:	781b      	ldrb	r3, [r3, #0]
 8003718:	3247      	adds	r2, #71	@ 0x47
 800371a:	b2db      	uxtb	r3, r3
 800371c:	e7d6      	b.n	80036cc <HAL_TIM_IC_Start_IT+0x30>
 800371e:	0002      	movs	r2, r0
 8003720:	3247      	adds	r2, #71	@ 0x47
 8003722:	290c      	cmp	r1, #12
 8003724:	d033      	beq.n	800378e <HAL_TIM_IC_Start_IT+0xf2>
 8003726:	2910      	cmp	r1, #16
 8003728:	d1de      	bne.n	80036e8 <HAL_TIM_IC_Start_IT+0x4c>
 800372a:	3042      	adds	r0, #66	@ 0x42
 800372c:	7003      	strb	r3, [r0, #0]
 800372e:	7013      	strb	r3, [r2, #0]
 8003730:	2001      	movs	r0, #1
 8003732:	e01f      	b.n	8003774 <HAL_TIM_IC_Start_IT+0xd8>
 8003734:	0002      	movs	r2, r0
 8003736:	323e      	adds	r2, #62	@ 0x3e
 8003738:	7013      	strb	r3, [r2, #0]
 800373a:	7193      	strb	r3, [r2, #6]
 800373c:	6804      	ldr	r4, [r0, #0]
 800373e:	68e2      	ldr	r2, [r4, #12]
 8003740:	4313      	orrs	r3, r2
 8003742:	60e3      	str	r3, [r4, #12]
 8003744:	6804      	ldr	r4, [r0, #0]
 8003746:	2201      	movs	r2, #1
 8003748:	0020      	movs	r0, r4
 800374a:	f7ff ff99 	bl	8003680 <TIM_CCxChannelCmd>
 800374e:	4b14      	ldr	r3, [pc, #80]	@ (80037a0 <HAL_TIM_IC_Start_IT+0x104>)
 8003750:	429c      	cmp	r4, r3
 8003752:	d002      	beq.n	800375a <HAL_TIM_IC_Start_IT+0xbe>
 8003754:	4b13      	ldr	r3, [pc, #76]	@ (80037a4 <HAL_TIM_IC_Start_IT+0x108>)
 8003756:	429c      	cmp	r4, r3
 8003758:	d107      	bne.n	800376a <HAL_TIM_IC_Start_IT+0xce>
 800375a:	68a3      	ldr	r3, [r4, #8]
 800375c:	4a12      	ldr	r2, [pc, #72]	@ (80037a8 <HAL_TIM_IC_Start_IT+0x10c>)
 800375e:	4013      	ands	r3, r2
 8003760:	2b06      	cmp	r3, #6
 8003762:	d006      	beq.n	8003772 <HAL_TIM_IC_Start_IT+0xd6>
 8003764:	3a07      	subs	r2, #7
 8003766:	4293      	cmp	r3, r2
 8003768:	d003      	beq.n	8003772 <HAL_TIM_IC_Start_IT+0xd6>
 800376a:	2301      	movs	r3, #1
 800376c:	6822      	ldr	r2, [r4, #0]
 800376e:	4313      	orrs	r3, r2
 8003770:	6023      	str	r3, [r4, #0]
 8003772:	2000      	movs	r0, #0
 8003774:	bd10      	pop	{r4, pc}
 8003776:	0002      	movs	r2, r0
 8003778:	323f      	adds	r2, #63	@ 0x3f
 800377a:	7013      	strb	r3, [r2, #0]
 800377c:	7193      	strb	r3, [r2, #6]
 800377e:	6802      	ldr	r2, [r0, #0]
 8003780:	68d3      	ldr	r3, [r2, #12]
 8003782:	430b      	orrs	r3, r1
 8003784:	60d3      	str	r3, [r2, #12]
 8003786:	e7dd      	b.n	8003744 <HAL_TIM_IC_Start_IT+0xa8>
 8003788:	0002      	movs	r2, r0
 800378a:	3240      	adds	r2, #64	@ 0x40
 800378c:	e7f5      	b.n	800377a <HAL_TIM_IC_Start_IT+0xde>
 800378e:	0004      	movs	r4, r0
 8003790:	3441      	adds	r4, #65	@ 0x41
 8003792:	7023      	strb	r3, [r4, #0]
 8003794:	7013      	strb	r3, [r2, #0]
 8003796:	2310      	movs	r3, #16
 8003798:	6802      	ldr	r2, [r0, #0]
 800379a:	68d4      	ldr	r4, [r2, #12]
 800379c:	4323      	orrs	r3, r4
 800379e:	e7f1      	b.n	8003784 <HAL_TIM_IC_Start_IT+0xe8>
 80037a0:	40012c00 	.word	0x40012c00
 80037a4:	40000400 	.word	0x40000400
 80037a8:	00010007 	.word	0x00010007

080037ac <HAL_TIM_IC_Stop_IT>:
 80037ac:	b570      	push	{r4, r5, r6, lr}
 80037ae:	0004      	movs	r4, r0
 80037b0:	000d      	movs	r5, r1
 80037b2:	2908      	cmp	r1, #8
 80037b4:	d011      	beq.n	80037da <HAL_TIM_IC_Stop_IT+0x2e>
 80037b6:	d805      	bhi.n	80037c4 <HAL_TIM_IC_Stop_IT+0x18>
 80037b8:	2900      	cmp	r1, #0
 80037ba:	d009      	beq.n	80037d0 <HAL_TIM_IC_Stop_IT+0x24>
 80037bc:	2904      	cmp	r1, #4
 80037be:	d00c      	beq.n	80037da <HAL_TIM_IC_Stop_IT+0x2e>
 80037c0:	2001      	movs	r0, #1
 80037c2:	bd70      	pop	{r4, r5, r6, pc}
 80037c4:	290c      	cmp	r1, #12
 80037c6:	d1fb      	bne.n	80037c0 <HAL_TIM_IC_Stop_IT+0x14>
 80037c8:	6802      	ldr	r2, [r0, #0]
 80037ca:	2110      	movs	r1, #16
 80037cc:	68d3      	ldr	r3, [r2, #12]
 80037ce:	e002      	b.n	80037d6 <HAL_TIM_IC_Stop_IT+0x2a>
 80037d0:	2102      	movs	r1, #2
 80037d2:	6802      	ldr	r2, [r0, #0]
 80037d4:	68d3      	ldr	r3, [r2, #12]
 80037d6:	438b      	bics	r3, r1
 80037d8:	e002      	b.n	80037e0 <HAL_TIM_IC_Stop_IT+0x34>
 80037da:	6822      	ldr	r2, [r4, #0]
 80037dc:	68d3      	ldr	r3, [r2, #12]
 80037de:	43ab      	bics	r3, r5
 80037e0:	6826      	ldr	r6, [r4, #0]
 80037e2:	60d3      	str	r3, [r2, #12]
 80037e4:	0029      	movs	r1, r5
 80037e6:	2200      	movs	r2, #0
 80037e8:	0030      	movs	r0, r6
 80037ea:	f7ff ff49 	bl	8003680 <TIM_CCxChannelCmd>
 80037ee:	6a32      	ldr	r2, [r6, #32]
 80037f0:	4b12      	ldr	r3, [pc, #72]	@ (800383c <HAL_TIM_IC_Stop_IT+0x90>)
 80037f2:	421a      	tst	r2, r3
 80037f4:	d107      	bne.n	8003806 <HAL_TIM_IC_Stop_IT+0x5a>
 80037f6:	6a32      	ldr	r2, [r6, #32]
 80037f8:	4b11      	ldr	r3, [pc, #68]	@ (8003840 <HAL_TIM_IC_Stop_IT+0x94>)
 80037fa:	421a      	tst	r2, r3
 80037fc:	d103      	bne.n	8003806 <HAL_TIM_IC_Stop_IT+0x5a>
 80037fe:	2201      	movs	r2, #1
 8003800:	6833      	ldr	r3, [r6, #0]
 8003802:	4393      	bics	r3, r2
 8003804:	6033      	str	r3, [r6, #0]
 8003806:	2301      	movs	r3, #1
 8003808:	0022      	movs	r2, r4
 800380a:	2d00      	cmp	r5, #0
 800380c:	d105      	bne.n	800381a <HAL_TIM_IC_Stop_IT+0x6e>
 800380e:	323e      	adds	r2, #62	@ 0x3e
 8003810:	7013      	strb	r3, [r2, #0]
 8003812:	3444      	adds	r4, #68	@ 0x44
 8003814:	2000      	movs	r0, #0
 8003816:	7023      	strb	r3, [r4, #0]
 8003818:	e7d3      	b.n	80037c2 <HAL_TIM_IC_Stop_IT+0x16>
 800381a:	2d04      	cmp	r5, #4
 800381c:	d103      	bne.n	8003826 <HAL_TIM_IC_Stop_IT+0x7a>
 800381e:	323f      	adds	r2, #63	@ 0x3f
 8003820:	7013      	strb	r3, [r2, #0]
 8003822:	3445      	adds	r4, #69	@ 0x45
 8003824:	e7f6      	b.n	8003814 <HAL_TIM_IC_Stop_IT+0x68>
 8003826:	2d08      	cmp	r5, #8
 8003828:	d103      	bne.n	8003832 <HAL_TIM_IC_Stop_IT+0x86>
 800382a:	3240      	adds	r2, #64	@ 0x40
 800382c:	7013      	strb	r3, [r2, #0]
 800382e:	3446      	adds	r4, #70	@ 0x46
 8003830:	e7f0      	b.n	8003814 <HAL_TIM_IC_Stop_IT+0x68>
 8003832:	3241      	adds	r2, #65	@ 0x41
 8003834:	7013      	strb	r3, [r2, #0]
 8003836:	3447      	adds	r4, #71	@ 0x47
 8003838:	e7ec      	b.n	8003814 <HAL_TIM_IC_Stop_IT+0x68>
 800383a:	46c0      	nop			@ (mov r8, r8)
 800383c:	00001111 	.word	0x00001111
 8003840:	00000444 	.word	0x00000444

08003844 <HAL_TIMEx_MasterConfigSynchronization>:
 8003844:	b5f0      	push	{r4, r5, r6, r7, lr}
 8003846:	0004      	movs	r4, r0
 8003848:	2202      	movs	r2, #2
 800384a:	343c      	adds	r4, #60	@ 0x3c
 800384c:	7825      	ldrb	r5, [r4, #0]
 800384e:	0003      	movs	r3, r0
 8003850:	0010      	movs	r0, r2
 8003852:	2d01      	cmp	r5, #1
 8003854:	d01f      	beq.n	8003896 <HAL_TIMEx_MasterConfigSynchronization+0x52>
 8003856:	001d      	movs	r5, r3
 8003858:	353d      	adds	r5, #61	@ 0x3d
 800385a:	702a      	strb	r2, [r5, #0]
 800385c:	681a      	ldr	r2, [r3, #0]
 800385e:	4e0e      	ldr	r6, [pc, #56]	@ (8003898 <HAL_TIMEx_MasterConfigSynchronization+0x54>)
 8003860:	6853      	ldr	r3, [r2, #4]
 8003862:	6890      	ldr	r0, [r2, #8]
 8003864:	42b2      	cmp	r2, r6
 8003866:	d103      	bne.n	8003870 <HAL_TIMEx_MasterConfigSynchronization+0x2c>
 8003868:	4f0c      	ldr	r7, [pc, #48]	@ (800389c <HAL_TIMEx_MasterConfigSynchronization+0x58>)
 800386a:	403b      	ands	r3, r7
 800386c:	684f      	ldr	r7, [r1, #4]
 800386e:	433b      	orrs	r3, r7
 8003870:	2770      	movs	r7, #112	@ 0x70
 8003872:	43bb      	bics	r3, r7
 8003874:	680f      	ldr	r7, [r1, #0]
 8003876:	433b      	orrs	r3, r7
 8003878:	6053      	str	r3, [r2, #4]
 800387a:	42b2      	cmp	r2, r6
 800387c:	d002      	beq.n	8003884 <HAL_TIMEx_MasterConfigSynchronization+0x40>
 800387e:	4b08      	ldr	r3, [pc, #32]	@ (80038a0 <HAL_TIMEx_MasterConfigSynchronization+0x5c>)
 8003880:	429a      	cmp	r2, r3
 8003882:	d104      	bne.n	800388e <HAL_TIMEx_MasterConfigSynchronization+0x4a>
 8003884:	2380      	movs	r3, #128	@ 0x80
 8003886:	4398      	bics	r0, r3
 8003888:	688b      	ldr	r3, [r1, #8]
 800388a:	4318      	orrs	r0, r3
 800388c:	6090      	str	r0, [r2, #8]
 800388e:	2301      	movs	r3, #1
 8003890:	2000      	movs	r0, #0
 8003892:	702b      	strb	r3, [r5, #0]
 8003894:	7020      	strb	r0, [r4, #0]
 8003896:	bdf0      	pop	{r4, r5, r6, r7, pc}
 8003898:	40012c00 	.word	0x40012c00
 800389c:	ff0fffff 	.word	0xff0fffff
 80038a0:	40000400 	.word	0x40000400

080038a4 <HAL_TIMEx_CommutCallback>:
 80038a4:	4770      	bx	lr

080038a6 <HAL_TIMEx_BreakCallback>:
 80038a6:	4770      	bx	lr

080038a8 <HAL_TIMEx_Break2Callback>:
 80038a8:	4770      	bx	lr
	...

080038ac <UART_EndRxTransfer>:
 80038ac:	b530      	push	{r4, r5, lr}
 80038ae:	f3ef 8410 	mrs	r4, PRIMASK
 80038b2:	2201      	movs	r2, #1
 80038b4:	f382 8810 	msr	PRIMASK, r2
 80038b8:	6801      	ldr	r1, [r0, #0]
 80038ba:	4d13      	ldr	r5, [pc, #76]	@ (8003908 <UART_EndRxTransfer+0x5c>)
 80038bc:	680b      	ldr	r3, [r1, #0]
 80038be:	402b      	ands	r3, r5
 80038c0:	600b      	str	r3, [r1, #0]
 80038c2:	f384 8810 	msr	PRIMASK, r4
 80038c6:	f3ef 8110 	mrs	r1, PRIMASK
 80038ca:	f382 8810 	msr	PRIMASK, r2
 80038ce:	6802      	ldr	r2, [r0, #0]
 80038d0:	4c0e      	ldr	r4, [pc, #56]	@ (800390c <UART_EndRxTransfer+0x60>)
 80038d2:	6893      	ldr	r3, [r2, #8]
 80038d4:	4023      	ands	r3, r4
 80038d6:	6093      	str	r3, [r2, #8]
 80038d8:	f381 8810 	msr	PRIMASK, r1
 80038dc:	6ec3      	ldr	r3, [r0, #108]	@ 0x6c
 80038de:	2b01      	cmp	r3, #1
 80038e0:	d10a      	bne.n	80038f8 <UART_EndRxTransfer+0x4c>
 80038e2:	f3ef 8110 	mrs	r1, PRIMASK
 80038e6:	f383 8810 	msr	PRIMASK, r3
 80038ea:	2410      	movs	r4, #16
 80038ec:	6802      	ldr	r2, [r0, #0]
 80038ee:	6813      	ldr	r3, [r2, #0]
 80038f0:	43a3      	bics	r3, r4
 80038f2:	6013      	str	r3, [r2, #0]
 80038f4:	f381 8810 	msr	PRIMASK, r1
 80038f8:	0003      	movs	r3, r0
 80038fa:	2220      	movs	r2, #32
 80038fc:	338c      	adds	r3, #140	@ 0x8c
 80038fe:	601a      	str	r2, [r3, #0]
 8003900:	2300      	movs	r3, #0
 8003902:	66c3      	str	r3, [r0, #108]	@ 0x6c
 8003904:	6743      	str	r3, [r0, #116]	@ 0x74
 8003906:	bd30      	pop	{r4, r5, pc}
 8003908:	fffffedf 	.word	0xfffffedf
 800390c:	effffffe 	.word	0xeffffffe

08003910 <UART_SetConfig>:
 8003910:	b570      	push	{r4, r5, r6, lr}
 8003912:	0004      	movs	r4, r0
 8003914:	6925      	ldr	r5, [r4, #16]
 8003916:	68a1      	ldr	r1, [r4, #8]
 8003918:	6803      	ldr	r3, [r0, #0]
 800391a:	4329      	orrs	r1, r5
 800391c:	6965      	ldr	r5, [r4, #20]
 800391e:	69c2      	ldr	r2, [r0, #28]
 8003920:	4329      	orrs	r1, r5
 8003922:	6818      	ldr	r0, [r3, #0]
 8003924:	4d50      	ldr	r5, [pc, #320]	@ (8003a68 <UART_SetConfig+0x158>)
 8003926:	4311      	orrs	r1, r2
 8003928:	4028      	ands	r0, r5
 800392a:	4301      	orrs	r1, r0
 800392c:	6019      	str	r1, [r3, #0]
 800392e:	6859      	ldr	r1, [r3, #4]
 8003930:	484e      	ldr	r0, [pc, #312]	@ (8003a6c <UART_SetConfig+0x15c>)
 8003932:	6a25      	ldr	r5, [r4, #32]
 8003934:	4001      	ands	r1, r0
 8003936:	68e0      	ldr	r0, [r4, #12]
 8003938:	4301      	orrs	r1, r0
 800393a:	6059      	str	r1, [r3, #4]
 800393c:	69a1      	ldr	r1, [r4, #24]
 800393e:	6898      	ldr	r0, [r3, #8]
 8003940:	4329      	orrs	r1, r5
 8003942:	4d4b      	ldr	r5, [pc, #300]	@ (8003a70 <UART_SetConfig+0x160>)
 8003944:	4028      	ands	r0, r5
 8003946:	4301      	orrs	r1, r0
 8003948:	200f      	movs	r0, #15
 800394a:	6099      	str	r1, [r3, #8]
 800394c:	6ad9      	ldr	r1, [r3, #44]	@ 0x2c
 800394e:	4381      	bics	r1, r0
 8003950:	6a60      	ldr	r0, [r4, #36]	@ 0x24
 8003952:	4301      	orrs	r1, r0
 8003954:	62d9      	str	r1, [r3, #44]	@ 0x2c
 8003956:	4947      	ldr	r1, [pc, #284]	@ (8003a74 <UART_SetConfig+0x164>)
 8003958:	428b      	cmp	r3, r1
 800395a:	d115      	bne.n	8003988 <UART_SetConfig+0x78>
 800395c:	2103      	movs	r1, #3
 800395e:	4b46      	ldr	r3, [pc, #280]	@ (8003a78 <UART_SetConfig+0x168>)
 8003960:	6d5b      	ldr	r3, [r3, #84]	@ 0x54
 8003962:	400b      	ands	r3, r1
 8003964:	3b01      	subs	r3, #1
 8003966:	2b02      	cmp	r3, #2
 8003968:	d86f      	bhi.n	8003a4a <UART_SetConfig+0x13a>
 800396a:	4944      	ldr	r1, [pc, #272]	@ (8003a7c <UART_SetConfig+0x16c>)
 800396c:	5cc8      	ldrb	r0, [r1, r3]
 800396e:	2380      	movs	r3, #128	@ 0x80
 8003970:	021b      	lsls	r3, r3, #8
 8003972:	429a      	cmp	r2, r3
 8003974:	d137      	bne.n	80039e6 <UART_SetConfig+0xd6>
 8003976:	2808      	cmp	r0, #8
 8003978:	d865      	bhi.n	8003a46 <UART_SetConfig+0x136>
 800397a:	f7fc fbc5 	bl	8000108 <__gnu_thumb1_case_uqi>
 800397e:	646a      	.short	0x646a
 8003980:	6431640b 	.word	0x6431640b
 8003984:	6464      	.short	0x6464
 8003986:	14          	.byte	0x14
 8003987:	00          	.byte	0x00
 8003988:	493d      	ldr	r1, [pc, #244]	@ (8003a80 <UART_SetConfig+0x170>)
 800398a:	185b      	adds	r3, r3, r1
 800398c:	1e59      	subs	r1, r3, #1
 800398e:	418b      	sbcs	r3, r1
 8003990:	0118      	lsls	r0, r3, #4
 8003992:	e7ec      	b.n	800396e <UART_SetConfig+0x5e>
 8003994:	4b38      	ldr	r3, [pc, #224]	@ (8003a78 <UART_SetConfig+0x168>)
 8003996:	483b      	ldr	r0, [pc, #236]	@ (8003a84 <UART_SetConfig+0x174>)
 8003998:	6819      	ldr	r1, [r3, #0]
 800399a:	0609      	lsls	r1, r1, #24
 800399c:	0f49      	lsrs	r1, r1, #29
 800399e:	3101      	adds	r1, #1
 80039a0:	f7fc fbc6 	bl	8000130 <__udivsi3>
 80039a4:	0002      	movs	r2, r0
 80039a6:	6a61      	ldr	r1, [r4, #36]	@ 0x24
 80039a8:	4b37      	ldr	r3, [pc, #220]	@ (8003a88 <UART_SetConfig+0x178>)
 80039aa:	0049      	lsls	r1, r1, #1
 80039ac:	0010      	movs	r0, r2
 80039ae:	5ac9      	ldrh	r1, [r1, r3]
 80039b0:	f7fc fbbe 	bl	8000130 <__udivsi3>
 80039b4:	6865      	ldr	r5, [r4, #4]
 80039b6:	0040      	lsls	r0, r0, #1
 80039b8:	086b      	lsrs	r3, r5, #1
 80039ba:	18c0      	adds	r0, r0, r3
 80039bc:	0029      	movs	r1, r5
 80039be:	f7fc fbb7 	bl	8000130 <__udivsi3>
 80039c2:	0002      	movs	r2, r0
 80039c4:	4b31      	ldr	r3, [pc, #196]	@ (8003a8c <UART_SetConfig+0x17c>)
 80039c6:	3a10      	subs	r2, #16
 80039c8:	429a      	cmp	r2, r3
 80039ca:	d83c      	bhi.n	8003a46 <UART_SetConfig+0x136>
 80039cc:	230f      	movs	r3, #15
 80039ce:	0002      	movs	r2, r0
 80039d0:	0700      	lsls	r0, r0, #28
 80039d2:	439a      	bics	r2, r3
 80039d4:	b293      	uxth	r3, r2
 80039d6:	0f40      	lsrs	r0, r0, #29
 80039d8:	6822      	ldr	r2, [r4, #0]
 80039da:	4303      	orrs	r3, r0
 80039dc:	60d3      	str	r3, [r2, #12]
 80039de:	e03c      	b.n	8003a5a <UART_SetConfig+0x14a>
 80039e0:	f7fe fcca 	bl	8002378 <HAL_RCC_GetSysClockFreq>
 80039e4:	e037      	b.n	8003a56 <UART_SetConfig+0x146>
 80039e6:	2808      	cmp	r0, #8
 80039e8:	d82d      	bhi.n	8003a46 <UART_SetConfig+0x136>
 80039ea:	f7fc fb8d 	bl	8000108 <__gnu_thumb1_case_uqi>
 80039ee:	2c05      	.short	0x2c05
 80039f0:	2c262c0a 	.word	0x2c262c0a
 80039f4:	2c2c      	.short	0x2c2c
 80039f6:	29          	.byte	0x29
 80039f7:	00          	.byte	0x00
 80039f8:	f7fe fda4 	bl	8002544 <HAL_RCC_GetPCLK1Freq>
 80039fc:	2800      	cmp	r0, #0
 80039fe:	d02c      	beq.n	8003a5a <UART_SetConfig+0x14a>
 8003a00:	e007      	b.n	8003a12 <UART_SetConfig+0x102>
 8003a02:	4b1d      	ldr	r3, [pc, #116]	@ (8003a78 <UART_SetConfig+0x168>)
 8003a04:	481f      	ldr	r0, [pc, #124]	@ (8003a84 <UART_SetConfig+0x174>)
 8003a06:	6819      	ldr	r1, [r3, #0]
 8003a08:	0609      	lsls	r1, r1, #24
 8003a0a:	0f49      	lsrs	r1, r1, #29
 8003a0c:	3101      	adds	r1, #1
 8003a0e:	f7fc fb8f 	bl	8000130 <__udivsi3>
 8003a12:	6a62      	ldr	r2, [r4, #36]	@ 0x24
 8003a14:	4b1c      	ldr	r3, [pc, #112]	@ (8003a88 <UART_SetConfig+0x178>)
 8003a16:	0052      	lsls	r2, r2, #1
 8003a18:	5ad1      	ldrh	r1, [r2, r3]
 8003a1a:	f7fc fb89 	bl	8000130 <__udivsi3>
 8003a1e:	6865      	ldr	r5, [r4, #4]
 8003a20:	086b      	lsrs	r3, r5, #1
 8003a22:	18c0      	adds	r0, r0, r3
 8003a24:	0029      	movs	r1, r5
 8003a26:	f7fc fb83 	bl	8000130 <__udivsi3>
 8003a2a:	0002      	movs	r2, r0
 8003a2c:	4b17      	ldr	r3, [pc, #92]	@ (8003a8c <UART_SetConfig+0x17c>)
 8003a2e:	3a10      	subs	r2, #16
 8003a30:	429a      	cmp	r2, r3
 8003a32:	d808      	bhi.n	8003a46 <UART_SetConfig+0x136>
 8003a34:	6823      	ldr	r3, [r4, #0]
 8003a36:	60d8      	str	r0, [r3, #12]
 8003a38:	e00f      	b.n	8003a5a <UART_SetConfig+0x14a>
 8003a3a:	f7fe fc9d 	bl	8002378 <HAL_RCC_GetSysClockFreq>
 8003a3e:	e7dd      	b.n	80039fc <UART_SetConfig+0xec>
 8003a40:	2080      	movs	r0, #128	@ 0x80
 8003a42:	0200      	lsls	r0, r0, #8
 8003a44:	e7e5      	b.n	8003a12 <UART_SetConfig+0x102>
 8003a46:	2001      	movs	r0, #1
 8003a48:	e008      	b.n	8003a5c <UART_SetConfig+0x14c>
 8003a4a:	2380      	movs	r3, #128	@ 0x80
 8003a4c:	021b      	lsls	r3, r3, #8
 8003a4e:	429a      	cmp	r2, r3
 8003a50:	d1d2      	bne.n	80039f8 <UART_SetConfig+0xe8>
 8003a52:	f7fe fd77 	bl	8002544 <HAL_RCC_GetPCLK1Freq>
 8003a56:	1e02      	subs	r2, r0, #0
 8003a58:	d1a5      	bne.n	80039a6 <UART_SetConfig+0x96>
 8003a5a:	2000      	movs	r0, #0
 8003a5c:	4b0c      	ldr	r3, [pc, #48]	@ (8003a90 <UART_SetConfig+0x180>)
 8003a5e:	66a3      	str	r3, [r4, #104]	@ 0x68
 8003a60:	2300      	movs	r3, #0
 8003a62:	6763      	str	r3, [r4, #116]	@ 0x74
 8003a64:	67a3      	str	r3, [r4, #120]	@ 0x78
 8003a66:	bd70      	pop	{r4, r5, r6, pc}
 8003a68:	cfff69f3 	.word	0xcfff69f3
 8003a6c:	ffffcfff 	.word	0xffffcfff
 8003a70:	11fff4ff 	.word	0x11fff4ff
 8003a74:	40013800 	.word	0x40013800
 8003a78:	40021000 	.word	0x40021000
 8003a7c:	08006698 	.word	0x08006698
 8003a80:	bfffbc00 	.word	0xbfffbc00
 8003a84:	02dc6c00 	.word	0x02dc6c00
 8003a88:	0800669c 	.word	0x0800669c
 8003a8c:	0000ffef 	.word	0x0000ffef
 8003a90:	00010001 	.word	0x00010001

08003a94 <UART_AdvFeatureConfig>:
 8003a94:	6a83      	ldr	r3, [r0, #40]	@ 0x28
 8003a96:	b530      	push	{r4, r5, lr}
 8003a98:	071a      	lsls	r2, r3, #28
 8003a9a:	d506      	bpl.n	8003aaa <UART_AdvFeatureConfig+0x16>
 8003a9c:	6801      	ldr	r1, [r0, #0]
 8003a9e:	4c28      	ldr	r4, [pc, #160]	@ (8003b40 <UART_AdvFeatureConfig+0xac>)
 8003aa0:	684a      	ldr	r2, [r1, #4]
 8003aa2:	4022      	ands	r2, r4
 8003aa4:	6b84      	ldr	r4, [r0, #56]	@ 0x38
 8003aa6:	4322      	orrs	r2, r4
 8003aa8:	604a      	str	r2, [r1, #4]
 8003aaa:	07da      	lsls	r2, r3, #31
 8003aac:	d506      	bpl.n	8003abc <UART_AdvFeatureConfig+0x28>
 8003aae:	6801      	ldr	r1, [r0, #0]
 8003ab0:	4c24      	ldr	r4, [pc, #144]	@ (8003b44 <UART_AdvFeatureConfig+0xb0>)
 8003ab2:	684a      	ldr	r2, [r1, #4]
 8003ab4:	4022      	ands	r2, r4
 8003ab6:	6ac4      	ldr	r4, [r0, #44]	@ 0x2c
 8003ab8:	4322      	orrs	r2, r4
 8003aba:	604a      	str	r2, [r1, #4]
 8003abc:	079a      	lsls	r2, r3, #30
 8003abe:	d506      	bpl.n	8003ace <UART_AdvFeatureConfig+0x3a>
 8003ac0:	6801      	ldr	r1, [r0, #0]
 8003ac2:	4c21      	ldr	r4, [pc, #132]	@ (8003b48 <UART_AdvFeatureConfig+0xb4>)
 8003ac4:	684a      	ldr	r2, [r1, #4]
 8003ac6:	4022      	ands	r2, r4
 8003ac8:	6b04      	ldr	r4, [r0, #48]	@ 0x30
 8003aca:	4322      	orrs	r2, r4
 8003acc:	604a      	str	r2, [r1, #4]
 8003ace:	075a      	lsls	r2, r3, #29
 8003ad0:	d506      	bpl.n	8003ae0 <UART_AdvFeatureConfig+0x4c>
 8003ad2:	6801      	ldr	r1, [r0, #0]
 8003ad4:	4c1d      	ldr	r4, [pc, #116]	@ (8003b4c <UART_AdvFeatureConfig+0xb8>)
 8003ad6:	684a      	ldr	r2, [r1, #4]
 8003ad8:	4022      	ands	r2, r4
 8003ada:	6b44      	ldr	r4, [r0, #52]	@ 0x34
 8003adc:	4322      	orrs	r2, r4
 8003ade:	604a      	str	r2, [r1, #4]
 8003ae0:	06da      	lsls	r2, r3, #27
 8003ae2:	d506      	bpl.n	8003af2 <UART_AdvFeatureConfig+0x5e>
 8003ae4:	6801      	ldr	r1, [r0, #0]
 8003ae6:	4c1a      	ldr	r4, [pc, #104]	@ (8003b50 <UART_AdvFeatureConfig+0xbc>)
 8003ae8:	688a      	ldr	r2, [r1, #8]
 8003aea:	4022      	ands	r2, r4
 8003aec:	6bc4      	ldr	r4, [r0, #60]	@ 0x3c
 8003aee:	4322      	orrs	r2, r4
 8003af0:	608a      	str	r2, [r1, #8]
 8003af2:	069a      	lsls	r2, r3, #26
 8003af4:	d506      	bpl.n	8003b04 <UART_AdvFeatureConfig+0x70>
 8003af6:	6801      	ldr	r1, [r0, #0]
 8003af8:	4c16      	ldr	r4, [pc, #88]	@ (8003b54 <UART_AdvFeatureConfig+0xc0>)
 8003afa:	688a      	ldr	r2, [r1, #8]
 8003afc:	4022      	ands	r2, r4
 8003afe:	6c04      	ldr	r4, [r0, #64]	@ 0x40
 8003b00:	4322      	orrs	r2, r4
 8003b02:	608a      	str	r2, [r1, #8]
 8003b04:	065a      	lsls	r2, r3, #25
 8003b06:	d510      	bpl.n	8003b2a <UART_AdvFeatureConfig+0x96>
 8003b08:	6801      	ldr	r1, [r0, #0]
 8003b0a:	4d13      	ldr	r5, [pc, #76]	@ (8003b58 <UART_AdvFeatureConfig+0xc4>)
 8003b0c:	684a      	ldr	r2, [r1, #4]
 8003b0e:	6c44      	ldr	r4, [r0, #68]	@ 0x44
 8003b10:	402a      	ands	r2, r5
 8003b12:	4322      	orrs	r2, r4
 8003b14:	604a      	str	r2, [r1, #4]
 8003b16:	2280      	movs	r2, #128	@ 0x80
 8003b18:	0352      	lsls	r2, r2, #13
 8003b1a:	4294      	cmp	r4, r2
 8003b1c:	d105      	bne.n	8003b2a <UART_AdvFeatureConfig+0x96>
 8003b1e:	684a      	ldr	r2, [r1, #4]
 8003b20:	4c0e      	ldr	r4, [pc, #56]	@ (8003b5c <UART_AdvFeatureConfig+0xc8>)
 8003b22:	4022      	ands	r2, r4
 8003b24:	6c84      	ldr	r4, [r0, #72]	@ 0x48
 8003b26:	4322      	orrs	r2, r4
 8003b28:	604a      	str	r2, [r1, #4]
 8003b2a:	061b      	lsls	r3, r3, #24
 8003b2c:	d506      	bpl.n	8003b3c <UART_AdvFeatureConfig+0xa8>
 8003b2e:	6802      	ldr	r2, [r0, #0]
 8003b30:	490b      	ldr	r1, [pc, #44]	@ (8003b60 <UART_AdvFeatureConfig+0xcc>)
 8003b32:	6853      	ldr	r3, [r2, #4]
 8003b34:	400b      	ands	r3, r1
 8003b36:	6cc1      	ldr	r1, [r0, #76]	@ 0x4c
 8003b38:	430b      	orrs	r3, r1
 8003b3a:	6053      	str	r3, [r2, #4]
 8003b3c:	bd30      	pop	{r4, r5, pc}
 8003b3e:	46c0      	nop			@ (mov r8, r8)
 8003b40:	ffff7fff 	.word	0xffff7fff
 8003b44:	fffdffff 	.word	0xfffdffff
 8003b48:	fffeffff 	.word	0xfffeffff
 8003b4c:	fffbffff 	.word	0xfffbffff
 8003b50:	ffffefff 	.word	0xffffefff
 8003b54:	ffffdfff 	.word	0xffffdfff
 8003b58:	ffefffff 	.word	0xffefffff
 8003b5c:	ff9fffff 	.word	0xff9fffff
 8003b60:	fff7ffff 	.word	0xfff7ffff

08003b64 <UART_WaitOnFlagUntilTimeout>:
 8003b64:	b5f7      	push	{r0, r1, r2, r4, r5, r6, r7, lr}
 8003b66:	0004      	movs	r4, r0
 8003b68:	000d      	movs	r5, r1
 8003b6a:	0017      	movs	r7, r2
 8003b6c:	9300      	str	r3, [sp, #0]
 8003b6e:	6822      	ldr	r2, [r4, #0]
 8003b70:	69d3      	ldr	r3, [r2, #28]
 8003b72:	402b      	ands	r3, r5
 8003b74:	1b5b      	subs	r3, r3, r5
 8003b76:	4259      	negs	r1, r3
 8003b78:	414b      	adcs	r3, r1
 8003b7a:	42bb      	cmp	r3, r7
 8003b7c:	d001      	beq.n	8003b82 <UART_WaitOnFlagUntilTimeout+0x1e>
 8003b7e:	2000      	movs	r0, #0
 8003b80:	e026      	b.n	8003bd0 <UART_WaitOnFlagUntilTimeout+0x6c>
 8003b82:	9b08      	ldr	r3, [sp, #32]
 8003b84:	3301      	adds	r3, #1
 8003b86:	d0f3      	beq.n	8003b70 <UART_WaitOnFlagUntilTimeout+0xc>
 8003b88:	f7fd fcc4 	bl	8001514 <HAL_GetTick>
 8003b8c:	9b00      	ldr	r3, [sp, #0]
 8003b8e:	1ac0      	subs	r0, r0, r3
 8003b90:	9b08      	ldr	r3, [sp, #32]
 8003b92:	4298      	cmp	r0, r3
 8003b94:	d82d      	bhi.n	8003bf2 <UART_WaitOnFlagUntilTimeout+0x8e>
 8003b96:	2b00      	cmp	r3, #0
 8003b98:	d02b      	beq.n	8003bf2 <UART_WaitOnFlagUntilTimeout+0x8e>
 8003b9a:	6823      	ldr	r3, [r4, #0]
 8003b9c:	681a      	ldr	r2, [r3, #0]
 8003b9e:	0752      	lsls	r2, r2, #29
 8003ba0:	d5e5      	bpl.n	8003b6e <UART_WaitOnFlagUntilTimeout+0xa>
 8003ba2:	002a      	movs	r2, r5
 8003ba4:	2140      	movs	r1, #64	@ 0x40
 8003ba6:	3a40      	subs	r2, #64	@ 0x40
 8003ba8:	438a      	bics	r2, r1
 8003baa:	d0e0      	beq.n	8003b6e <UART_WaitOnFlagUntilTimeout+0xa>
 8003bac:	69da      	ldr	r2, [r3, #28]
 8003bae:	2608      	movs	r6, #8
 8003bb0:	0011      	movs	r1, r2
 8003bb2:	4031      	ands	r1, r6
 8003bb4:	9101      	str	r1, [sp, #4]
 8003bb6:	4232      	tst	r2, r6
 8003bb8:	d00b      	beq.n	8003bd2 <UART_WaitOnFlagUntilTimeout+0x6e>
 8003bba:	0020      	movs	r0, r4
 8003bbc:	621e      	str	r6, [r3, #32]
 8003bbe:	f7ff fe75 	bl	80038ac <UART_EndRxTransfer>
 8003bc2:	0023      	movs	r3, r4
 8003bc4:	3390      	adds	r3, #144	@ 0x90
 8003bc6:	601e      	str	r6, [r3, #0]
 8003bc8:	2300      	movs	r3, #0
 8003bca:	2001      	movs	r0, #1
 8003bcc:	3484      	adds	r4, #132	@ 0x84
 8003bce:	7023      	strb	r3, [r4, #0]
 8003bd0:	bdfe      	pop	{r1, r2, r3, r4, r5, r6, r7, pc}
 8003bd2:	2280      	movs	r2, #128	@ 0x80
 8003bd4:	69d9      	ldr	r1, [r3, #28]
 8003bd6:	0112      	lsls	r2, r2, #4
 8003bd8:	4211      	tst	r1, r2
 8003bda:	d0c8      	beq.n	8003b6e <UART_WaitOnFlagUntilTimeout+0xa>
 8003bdc:	621a      	str	r2, [r3, #32]
 8003bde:	0020      	movs	r0, r4
 8003be0:	f7ff fe64 	bl	80038ac <UART_EndRxTransfer>
 8003be4:	0023      	movs	r3, r4
 8003be6:	2220      	movs	r2, #32
 8003be8:	3390      	adds	r3, #144	@ 0x90
 8003bea:	601a      	str	r2, [r3, #0]
 8003bec:	9b01      	ldr	r3, [sp, #4]
 8003bee:	3484      	adds	r4, #132	@ 0x84
 8003bf0:	7023      	strb	r3, [r4, #0]
 8003bf2:	2003      	movs	r0, #3
 8003bf4:	e7ec      	b.n	8003bd0 <UART_WaitOnFlagUntilTimeout+0x6c>

08003bf6 <HAL_UART_Transmit>:
 8003bf6:	b5f0      	push	{r4, r5, r6, r7, lr}
 8003bf8:	0017      	movs	r7, r2
 8003bfa:	0002      	movs	r2, r0
 8003bfc:	b087      	sub	sp, #28
 8003bfe:	3288      	adds	r2, #136	@ 0x88
 8003c00:	9305      	str	r3, [sp, #20]
 8003c02:	6813      	ldr	r3, [r2, #0]
 8003c04:	0004      	movs	r4, r0
 8003c06:	000d      	movs	r5, r1
 8003c08:	2002      	movs	r0, #2
 8003c0a:	2b20      	cmp	r3, #32
 8003c0c:	d139      	bne.n	8003c82 <HAL_UART_Transmit+0x8c>
 8003c0e:	3801      	subs	r0, #1
 8003c10:	2900      	cmp	r1, #0
 8003c12:	d036      	beq.n	8003c82 <HAL_UART_Transmit+0x8c>
 8003c14:	2f00      	cmp	r7, #0
 8003c16:	d034      	beq.n	8003c82 <HAL_UART_Transmit+0x8c>
 8003c18:	2380      	movs	r3, #128	@ 0x80
 8003c1a:	68a1      	ldr	r1, [r4, #8]
 8003c1c:	015b      	lsls	r3, r3, #5
 8003c1e:	4299      	cmp	r1, r3
 8003c20:	d104      	bne.n	8003c2c <HAL_UART_Transmit+0x36>
 8003c22:	6923      	ldr	r3, [r4, #16]
 8003c24:	2b00      	cmp	r3, #0
 8003c26:	d101      	bne.n	8003c2c <HAL_UART_Transmit+0x36>
 8003c28:	4205      	tst	r5, r0
 8003c2a:	d12a      	bne.n	8003c82 <HAL_UART_Transmit+0x8c>
 8003c2c:	0023      	movs	r3, r4
 8003c2e:	2600      	movs	r6, #0
 8003c30:	3390      	adds	r3, #144	@ 0x90
 8003c32:	601e      	str	r6, [r3, #0]
 8003c34:	2321      	movs	r3, #33	@ 0x21
 8003c36:	6013      	str	r3, [r2, #0]
 8003c38:	f7fd fc6c 	bl	8001514 <HAL_GetTick>
 8003c3c:	0023      	movs	r3, r4
 8003c3e:	3354      	adds	r3, #84	@ 0x54
 8003c40:	801f      	strh	r7, [r3, #0]
 8003c42:	3302      	adds	r3, #2
 8003c44:	9303      	str	r3, [sp, #12]
 8003c46:	801f      	strh	r7, [r3, #0]
 8003c48:	2380      	movs	r3, #128	@ 0x80
 8003c4a:	68a2      	ldr	r2, [r4, #8]
 8003c4c:	9004      	str	r0, [sp, #16]
 8003c4e:	015b      	lsls	r3, r3, #5
 8003c50:	429a      	cmp	r2, r3
 8003c52:	d104      	bne.n	8003c5e <HAL_UART_Transmit+0x68>
 8003c54:	6923      	ldr	r3, [r4, #16]
 8003c56:	42b3      	cmp	r3, r6
 8003c58:	d101      	bne.n	8003c5e <HAL_UART_Transmit+0x68>
 8003c5a:	002e      	movs	r6, r5
 8003c5c:	001d      	movs	r5, r3
 8003c5e:	0023      	movs	r3, r4
 8003c60:	3356      	adds	r3, #86	@ 0x56
 8003c62:	881b      	ldrh	r3, [r3, #0]
 8003c64:	b29a      	uxth	r2, r3
 8003c66:	2b00      	cmp	r3, #0
 8003c68:	d10d      	bne.n	8003c86 <HAL_UART_Transmit+0x90>
 8003c6a:	9b05      	ldr	r3, [sp, #20]
 8003c6c:	0020      	movs	r0, r4
 8003c6e:	9300      	str	r3, [sp, #0]
 8003c70:	2140      	movs	r1, #64	@ 0x40
 8003c72:	9b04      	ldr	r3, [sp, #16]
 8003c74:	f7ff ff76 	bl	8003b64 <UART_WaitOnFlagUntilTimeout>
 8003c78:	2320      	movs	r3, #32
 8003c7a:	3488      	adds	r4, #136	@ 0x88
 8003c7c:	6023      	str	r3, [r4, #0]
 8003c7e:	2800      	cmp	r0, #0
 8003c80:	d10e      	bne.n	8003ca0 <HAL_UART_Transmit+0xaa>
 8003c82:	b007      	add	sp, #28
 8003c84:	bdf0      	pop	{r4, r5, r6, r7, pc}
 8003c86:	9b05      	ldr	r3, [sp, #20]
 8003c88:	2200      	movs	r2, #0
 8003c8a:	9300      	str	r3, [sp, #0]
 8003c8c:	2180      	movs	r1, #128	@ 0x80
 8003c8e:	0020      	movs	r0, r4
 8003c90:	9b04      	ldr	r3, [sp, #16]
 8003c92:	f7ff ff67 	bl	8003b64 <UART_WaitOnFlagUntilTimeout>
 8003c96:	2800      	cmp	r0, #0
 8003c98:	d004      	beq.n	8003ca4 <HAL_UART_Transmit+0xae>
 8003c9a:	2320      	movs	r3, #32
 8003c9c:	3488      	adds	r4, #136	@ 0x88
 8003c9e:	6023      	str	r3, [r4, #0]
 8003ca0:	2003      	movs	r0, #3
 8003ca2:	e7ee      	b.n	8003c82 <HAL_UART_Transmit+0x8c>
 8003ca4:	6822      	ldr	r2, [r4, #0]
 8003ca6:	2d00      	cmp	r5, #0
 8003ca8:	d10b      	bne.n	8003cc2 <HAL_UART_Transmit+0xcc>
 8003caa:	8833      	ldrh	r3, [r6, #0]
 8003cac:	3602      	adds	r6, #2
 8003cae:	05db      	lsls	r3, r3, #23
 8003cb0:	0ddb      	lsrs	r3, r3, #23
 8003cb2:	6293      	str	r3, [r2, #40]	@ 0x28
 8003cb4:	9b03      	ldr	r3, [sp, #12]
 8003cb6:	9a03      	ldr	r2, [sp, #12]
 8003cb8:	881b      	ldrh	r3, [r3, #0]
 8003cba:	3b01      	subs	r3, #1
 8003cbc:	b29b      	uxth	r3, r3
 8003cbe:	8013      	strh	r3, [r2, #0]
 8003cc0:	e7cd      	b.n	8003c5e <HAL_UART_Transmit+0x68>
 8003cc2:	782b      	ldrb	r3, [r5, #0]
 8003cc4:	3501      	adds	r5, #1
 8003cc6:	6293      	str	r3, [r2, #40]	@ 0x28
 8003cc8:	e7f4      	b.n	8003cb4 <HAL_UART_Transmit+0xbe>
	...

08003ccc <UART_CheckIdleState>:
 8003ccc:	0003      	movs	r3, r0
 8003cce:	b573      	push	{r0, r1, r4, r5, r6, lr}
 8003cd0:	2600      	movs	r6, #0
 8003cd2:	0004      	movs	r4, r0
 8003cd4:	3390      	adds	r3, #144	@ 0x90
 8003cd6:	601e      	str	r6, [r3, #0]
 8003cd8:	f7fd fc1c 	bl	8001514 <HAL_GetTick>
 8003cdc:	6823      	ldr	r3, [r4, #0]
 8003cde:	0005      	movs	r5, r0
 8003ce0:	681b      	ldr	r3, [r3, #0]
 8003ce2:	071b      	lsls	r3, r3, #28
 8003ce4:	d51f      	bpl.n	8003d26 <UART_CheckIdleState+0x5a>
 8003ce6:	2180      	movs	r1, #128	@ 0x80
 8003ce8:	4b28      	ldr	r3, [pc, #160]	@ (8003d8c <UART_CheckIdleState+0xc0>)
 8003cea:	0032      	movs	r2, r6
 8003cec:	9300      	str	r3, [sp, #0]
 8003cee:	0389      	lsls	r1, r1, #14
 8003cf0:	0003      	movs	r3, r0
 8003cf2:	0020      	movs	r0, r4
 8003cf4:	f7ff ff36 	bl	8003b64 <UART_WaitOnFlagUntilTimeout>
 8003cf8:	42b0      	cmp	r0, r6
 8003cfa:	d014      	beq.n	8003d26 <UART_CheckIdleState+0x5a>
 8003cfc:	f3ef 8110 	mrs	r1, PRIMASK
 8003d00:	2301      	movs	r3, #1
 8003d02:	f383 8810 	msr	PRIMASK, r3
 8003d06:	2080      	movs	r0, #128	@ 0x80
 8003d08:	6822      	ldr	r2, [r4, #0]
 8003d0a:	6813      	ldr	r3, [r2, #0]
 8003d0c:	4383      	bics	r3, r0
 8003d0e:	6013      	str	r3, [r2, #0]
 8003d10:	f381 8810 	msr	PRIMASK, r1
 8003d14:	0023      	movs	r3, r4
 8003d16:	2220      	movs	r2, #32
 8003d18:	3388      	adds	r3, #136	@ 0x88
 8003d1a:	601a      	str	r2, [r3, #0]
 8003d1c:	2003      	movs	r0, #3
 8003d1e:	2300      	movs	r3, #0
 8003d20:	3484      	adds	r4, #132	@ 0x84
 8003d22:	7023      	strb	r3, [r4, #0]
 8003d24:	bd76      	pop	{r1, r2, r4, r5, r6, pc}
 8003d26:	0026      	movs	r6, r4
 8003d28:	6823      	ldr	r3, [r4, #0]
 8003d2a:	368c      	adds	r6, #140	@ 0x8c
 8003d2c:	681b      	ldr	r3, [r3, #0]
 8003d2e:	075b      	lsls	r3, r3, #29
 8003d30:	d523      	bpl.n	8003d7a <UART_CheckIdleState+0xae>
 8003d32:	2180      	movs	r1, #128	@ 0x80
 8003d34:	4b15      	ldr	r3, [pc, #84]	@ (8003d8c <UART_CheckIdleState+0xc0>)
 8003d36:	2200      	movs	r2, #0
 8003d38:	9300      	str	r3, [sp, #0]
 8003d3a:	0020      	movs	r0, r4
 8003d3c:	002b      	movs	r3, r5
 8003d3e:	03c9      	lsls	r1, r1, #15
 8003d40:	f7ff ff10 	bl	8003b64 <UART_WaitOnFlagUntilTimeout>
 8003d44:	2800      	cmp	r0, #0
 8003d46:	d018      	beq.n	8003d7a <UART_CheckIdleState+0xae>
 8003d48:	f3ef 8010 	mrs	r0, PRIMASK
 8003d4c:	2201      	movs	r2, #1
 8003d4e:	f382 8810 	msr	PRIMASK, r2
 8003d52:	6821      	ldr	r1, [r4, #0]
 8003d54:	4d0e      	ldr	r5, [pc, #56]	@ (8003d90 <UART_CheckIdleState+0xc4>)
 8003d56:	680b      	ldr	r3, [r1, #0]
 8003d58:	402b      	ands	r3, r5
 8003d5a:	600b      	str	r3, [r1, #0]
 8003d5c:	f380 8810 	msr	PRIMASK, r0
 8003d60:	f3ef 8010 	mrs	r0, PRIMASK
 8003d64:	f382 8810 	msr	PRIMASK, r2
 8003d68:	6821      	ldr	r1, [r4, #0]
 8003d6a:	688b      	ldr	r3, [r1, #8]
 8003d6c:	4393      	bics	r3, r2
 8003d6e:	608b      	str	r3, [r1, #8]
 8003d70:	f380 8810 	msr	PRIMASK, r0
 8003d74:	2320      	movs	r3, #32
 8003d76:	6033      	str	r3, [r6, #0]
 8003d78:	e7d0      	b.n	8003d1c <UART_CheckIdleState+0x50>
 8003d7a:	0023      	movs	r3, r4
 8003d7c:	2220      	movs	r2, #32
 8003d7e:	2000      	movs	r0, #0
 8003d80:	3388      	adds	r3, #136	@ 0x88
 8003d82:	601a      	str	r2, [r3, #0]
 8003d84:	6032      	str	r2, [r6, #0]
 8003d86:	66e0      	str	r0, [r4, #108]	@ 0x6c
 8003d88:	6720      	str	r0, [r4, #112]	@ 0x70
 8003d8a:	e7c8      	b.n	8003d1e <UART_CheckIdleState+0x52>
 8003d8c:	01ffffff 	.word	0x01ffffff
 8003d90:	fffffedf 	.word	0xfffffedf

08003d94 <HAL_UART_Init>:
 8003d94:	b570      	push	{r4, r5, r6, lr}
 8003d96:	1e04      	subs	r4, r0, #0
 8003d98:	d101      	bne.n	8003d9e <HAL_UART_Init+0xa>
 8003d9a:	2001      	movs	r0, #1
 8003d9c:	bd70      	pop	{r4, r5, r6, pc}
 8003d9e:	0005      	movs	r5, r0
 8003da0:	3588      	adds	r5, #136	@ 0x88
 8003da2:	682b      	ldr	r3, [r5, #0]
 8003da4:	2b00      	cmp	r3, #0
 8003da6:	d104      	bne.n	8003db2 <HAL_UART_Init+0x1e>
 8003da8:	0002      	movs	r2, r0
 8003daa:	3284      	adds	r2, #132	@ 0x84
 8003dac:	7013      	strb	r3, [r2, #0]
 8003dae:	f7fd fa63 	bl	8001278 <HAL_UART_MspInit>
 8003db2:	2324      	movs	r3, #36	@ 0x24
 8003db4:	2101      	movs	r1, #1
 8003db6:	6822      	ldr	r2, [r4, #0]
 8003db8:	602b      	str	r3, [r5, #0]
 8003dba:	6813      	ldr	r3, [r2, #0]
 8003dbc:	438b      	bics	r3, r1
 8003dbe:	6013      	str	r3, [r2, #0]
 8003dc0:	6aa3      	ldr	r3, [r4, #40]	@ 0x28
 8003dc2:	2b00      	cmp	r3, #0
 8003dc4:	d002      	beq.n	8003dcc <HAL_UART_Init+0x38>
 8003dc6:	0020      	movs	r0, r4
 8003dc8:	f7ff fe64 	bl	8003a94 <UART_AdvFeatureConfig>
 8003dcc:	0020      	movs	r0, r4
 8003dce:	f7ff fd9f 	bl	8003910 <UART_SetConfig>
 8003dd2:	2801      	cmp	r0, #1
 8003dd4:	d0e1      	beq.n	8003d9a <HAL_UART_Init+0x6>
 8003dd6:	6823      	ldr	r3, [r4, #0]
 8003dd8:	4907      	ldr	r1, [pc, #28]	@ (8003df8 <HAL_UART_Init+0x64>)
 8003dda:	685a      	ldr	r2, [r3, #4]
 8003ddc:	0020      	movs	r0, r4
 8003dde:	400a      	ands	r2, r1
 8003de0:	212a      	movs	r1, #42	@ 0x2a
 8003de2:	605a      	str	r2, [r3, #4]
 8003de4:	689a      	ldr	r2, [r3, #8]
 8003de6:	438a      	bics	r2, r1
 8003de8:	609a      	str	r2, [r3, #8]
 8003dea:	2201      	movs	r2, #1
 8003dec:	6819      	ldr	r1, [r3, #0]
 8003dee:	430a      	orrs	r2, r1
 8003df0:	601a      	str	r2, [r3, #0]
 8003df2:	f7ff ff6b 	bl	8003ccc <UART_CheckIdleState>
 8003df6:	e7d1      	b.n	8003d9c <HAL_UART_Init+0x8>
 8003df8:	ffffb7ff 	.word	0xffffb7ff

08003dfc <QF_int_disable_>:
 8003dfc:	f3ef 8010 	mrs	r0, PRIMASK
 8003e00:	b672      	cpsid	i
 8003e02:	2800      	cmp	r0, #0
 8003e04:	d100      	bne.n	8003e08 <QF_int_disable_error>
 8003e06:	4770      	bx	lr

08003e08 <QF_int_disable_error>:
 8003e08:	4801      	ldr	r0, [pc, #4]	@ (8003e10 <QF_int_disable_error+0x8>)
 8003e0a:	2164      	movs	r1, #100	@ 0x64
 8003e0c:	4a01      	ldr	r2, [pc, #4]	@ (8003e14 <QF_int_disable_error+0xc>)
 8003e0e:	4710      	bx	r2
 8003e10:	080066b4 	.word	0x080066b4
 8003e14:	0800054d 	.word	0x0800054d

08003e18 <QF_int_enable_>:
 8003e18:	f3ef 8010 	mrs	r0, PRIMASK
 8003e1c:	2800      	cmp	r0, #0
 8003e1e:	d001      	beq.n	8003e24 <QF_int_enable_error>
 8003e20:	b662      	cpsie	i
 8003e22:	4770      	bx	lr

08003e24 <QF_int_enable_error>:
 8003e24:	4801      	ldr	r0, [pc, #4]	@ (8003e2c <QF_int_enable_error+0x8>)
 8003e26:	2165      	movs	r1, #101	@ 0x65
 8003e28:	4a01      	ldr	r2, [pc, #4]	@ (8003e30 <QF_int_enable_error+0xc>)
 8003e2a:	4710      	bx	r2
 8003e2c:	080066b4 	.word	0x080066b4
 8003e30:	0800054d 	.word	0x0800054d

08003e34 <QF_crit_entry_>:
 8003e34:	f3ef 8010 	mrs	r0, PRIMASK
 8003e38:	b672      	cpsid	i
 8003e3a:	2800      	cmp	r0, #0
 8003e3c:	d100      	bne.n	8003e40 <QF_crit_entry_error>
 8003e3e:	4770      	bx	lr

08003e40 <QF_crit_entry_error>:
 8003e40:	4801      	ldr	r0, [pc, #4]	@ (8003e48 <QF_crit_entry_error+0x8>)
 8003e42:	216e      	movs	r1, #110	@ 0x6e
 8003e44:	4a01      	ldr	r2, [pc, #4]	@ (8003e4c <QF_crit_entry_error+0xc>)
 8003e46:	4710      	bx	r2
 8003e48:	080066b4 	.word	0x080066b4
 8003e4c:	0800054d 	.word	0x0800054d

08003e50 <QF_crit_exit_>:
 8003e50:	f3ef 8010 	mrs	r0, PRIMASK
 8003e54:	2800      	cmp	r0, #0
 8003e56:	d001      	beq.n	8003e5c <QF_crit_exit_error>
 8003e58:	b662      	cpsie	i
 8003e5a:	4770      	bx	lr

08003e5c <QF_crit_exit_error>:
 8003e5c:	4801      	ldr	r0, [pc, #4]	@ (8003e64 <QF_crit_exit_error+0x8>)
 8003e5e:	216f      	movs	r1, #111	@ 0x6f
 8003e60:	4a01      	ldr	r2, [pc, #4]	@ (8003e68 <QF_crit_exit_error+0xc>)
 8003e62:	4710      	bx	r2
 8003e64:	080066b4 	.word	0x080066b4
 8003e68:	0800054d 	.word	0x0800054d

08003e6c <QK_init>:
 8003e6c:	23ff      	movs	r3, #255	@ 0xff
 8003e6e:	4a03      	ldr	r2, [pc, #12]	@ (8003e7c <QK_init+0x10>)
 8003e70:	041b      	lsls	r3, r3, #16
 8003e72:	6811      	ldr	r1, [r2, #0]
 8003e74:	430b      	orrs	r3, r1
 8003e76:	6013      	str	r3, [r2, #0]
 8003e78:	4770      	bx	lr
 8003e7a:	46c0      	nop			@ (mov r8, r8)
 8003e7c:	e000ed20 	.word	0xe000ed20

08003e80 <PendSV_Handler>:
 8003e80:	b501      	push	{r0, lr}
 8003e82:	4808      	ldr	r0, [pc, #32]	@ (8003ea4 <PendSV_Handler+0x24>)
 8003e84:	4780      	blx	r0
 8003e86:	4a08      	ldr	r2, [pc, #32]	@ (8003ea8 <PendSV_Handler+0x28>)
 8003e88:	2101      	movs	r1, #1
 8003e8a:	06c9      	lsls	r1, r1, #27
 8003e8c:	6011      	str	r1, [r2, #0]
 8003e8e:	08cb      	lsrs	r3, r1, #3
 8003e90:	4a06      	ldr	r2, [pc, #24]	@ (8003eac <PendSV_Handler+0x2c>)
 8003e92:	3a01      	subs	r2, #1
 8003e94:	4906      	ldr	r1, [pc, #24]	@ (8003eb0 <PendSV_Handler+0x30>)
 8003e96:	b088      	sub	sp, #32
 8003e98:	a805      	add	r0, sp, #20
 8003e9a:	c00e      	stmia	r0!, {r1, r2, r3}
 8003e9c:	2006      	movs	r0, #6
 8003e9e:	43c0      	mvns	r0, r0
 8003ea0:	4700      	bx	r0
 8003ea2:	0000      	.short	0x0000
 8003ea4:	08003dfd 	.word	0x08003dfd
 8003ea8:	e000ed04 	.word	0xe000ed04
 8003eac:	0800487d 	.word	0x0800487d
 8003eb0:	08003eb5 	.word	0x08003eb5

08003eb4 <QK_thread_ret>:
 8003eb4:	4804      	ldr	r0, [pc, #16]	@ (8003ec8 <QK_thread_ret+0x14>)
 8003eb6:	2101      	movs	r1, #1
 8003eb8:	07c9      	lsls	r1, r1, #31
 8003eba:	6001      	str	r1, [r0, #0]
 8003ebc:	4803      	ldr	r0, [pc, #12]	@ (8003ecc <QK_thread_ret+0x18>)
 8003ebe:	4780      	blx	r0
 8003ec0:	4803      	ldr	r0, [pc, #12]	@ (8003ed0 <QK_thread_ret+0x1c>)
 8003ec2:	2179      	movs	r1, #121	@ 0x79
 8003ec4:	4a03      	ldr	r2, [pc, #12]	@ (8003ed4 <QK_thread_ret+0x20>)
 8003ec6:	4710      	bx	r2
 8003ec8:	e000ed04 	.word	0xe000ed04
 8003ecc:	08003dfd 	.word	0x08003dfd
 8003ed0:	080066b4 	.word	0x080066b4
 8003ed4:	0800054d 	.word	0x0800054d

08003ed8 <NMI_Handler>:
 8003ed8:	b008      	add	sp, #32
 8003eda:	4801      	ldr	r0, [pc, #4]	@ (8003ee0 <NMI_Handler+0x8>)
 8003edc:	4780      	blx	r0
 8003ede:	bd01      	pop	{r0, pc}
 8003ee0:	08003e19 	.word	0x08003e19

08003ee4 <QF_qlog2>:
 8003ee4:	2100      	movs	r1, #0
 8003ee6:	0c02      	lsrs	r2, r0, #16
 8003ee8:	d001      	beq.n	8003eee <QF_qlog2_1>
 8003eea:	2110      	movs	r1, #16
 8003eec:	1c10      	adds	r0, r2, #0

08003eee <QF_qlog2_1>:
 8003eee:	0a02      	lsrs	r2, r0, #8
 8003ef0:	d001      	beq.n	8003ef6 <QF_qlog2_2>
 8003ef2:	3108      	adds	r1, #8
 8003ef4:	1c10      	adds	r0, r2, #0

08003ef6 <QF_qlog2_2>:
 8003ef6:	0902      	lsrs	r2, r0, #4
 8003ef8:	d001      	beq.n	8003efe <QF_qlog2_3>
 8003efa:	3104      	adds	r1, #4
 8003efc:	1c10      	adds	r0, r2, #0

08003efe <QF_qlog2_3>:
 8003efe:	4a06      	ldr	r2, [pc, #24]	@ (8003f18 <QF_qlog2_LUT+0x10>)
 8003f00:	5c10      	ldrb	r0, [r2, r0]
 8003f02:	1808      	adds	r0, r1, r0
 8003f04:	4770      	bx	lr
 8003f06:	46c0      	nop			@ (mov r8, r8)

08003f08 <QF_qlog2_LUT>:
 8003f08:	02020100 	.word	0x02020100
 8003f0c:	03030303 	.word	0x03030303
 8003f10:	04040404 	.word	0x04040404
 8003f14:	04040404 	.word	0x04040404
 8003f18:	08003f08 	.word	0x08003f08

08003f1c <QHsm_top>:
 8003f1c:	2005      	movs	r0, #5
 8003f1e:	4770      	bx	lr

08003f20 <QHsm_getStateHandler_>:
 8003f20:	6840      	ldr	r0, [r0, #4]
 8003f22:	4770      	bx	lr

08003f24 <QHsm_isIn_>:
 8003f24:	6882      	ldr	r2, [r0, #8]
 8003f26:	6843      	ldr	r3, [r0, #4]
 8003f28:	43d2      	mvns	r2, r2
 8003f2a:	b570      	push	{r4, r5, r6, lr}
 8003f2c:	0004      	movs	r4, r0
 8003f2e:	000d      	movs	r5, r1
 8003f30:	4293      	cmp	r3, r2
 8003f32:	d006      	beq.n	8003f42 <QHsm_isIn_+0x1e>
 8003f34:	f7ff ff7e 	bl	8003e34 <QF_crit_entry_>
 8003f38:	21af      	movs	r1, #175	@ 0xaf
 8003f3a:	4809      	ldr	r0, [pc, #36]	@ (8003f60 <QHsm_isIn_+0x3c>)
 8003f3c:	0089      	lsls	r1, r1, #2
 8003f3e:	f7fc fb05 	bl	800054c <Q_onError>
 8003f42:	42ab      	cmp	r3, r5
 8003f44:	d00a      	beq.n	8003f5c <QHsm_isIn_+0x38>
 8003f46:	0020      	movs	r0, r4
 8003f48:	4906      	ldr	r1, [pc, #24]	@ (8003f64 <QHsm_isIn_+0x40>)
 8003f4a:	4798      	blx	r3
 8003f4c:	68a3      	ldr	r3, [r4, #8]
 8003f4e:	2800      	cmp	r0, #0
 8003f50:	d0f7      	beq.n	8003f42 <QHsm_isIn_+0x1e>
 8003f52:	2000      	movs	r0, #0
 8003f54:	6863      	ldr	r3, [r4, #4]
 8003f56:	43db      	mvns	r3, r3
 8003f58:	60a3      	str	r3, [r4, #8]
 8003f5a:	bd70      	pop	{r4, r5, r6, pc}
 8003f5c:	2001      	movs	r0, #1
 8003f5e:	e7f9      	b.n	8003f54 <QHsm_isIn_+0x30>
 8003f60:	080066ec 	.word	0x080066ec
 8003f64:	080066cc 	.word	0x080066cc

08003f68 <QHsm_enter_target_.isra.0>:
 8003f68:	b5f8      	push	{r3, r4, r5, r6, r7, lr}
 8003f6a:	0004      	movs	r4, r0
 8003f6c:	000e      	movs	r6, r1
 8003f6e:	0015      	movs	r5, r2
 8003f70:	2d00      	cmp	r5, #0
 8003f72:	da06      	bge.n	8003f82 <QHsm_enter_target_.isra.0+0x1a>
 8003f74:	0020      	movs	r0, r4
 8003f76:	6837      	ldr	r7, [r6, #0]
 8003f78:	491b      	ldr	r1, [pc, #108]	@ (8003fe8 <QHsm_enter_target_.isra.0+0x80>)
 8003f7a:	47b8      	blx	r7
 8003f7c:	2803      	cmp	r0, #3
 8003f7e:	d007      	beq.n	8003f90 <QHsm_enter_target_.isra.0+0x28>
 8003f80:	bdf8      	pop	{r3, r4, r5, r6, r7, pc}
 8003f82:	00ab      	lsls	r3, r5, #2
 8003f84:	0020      	movs	r0, r4
 8003f86:	4919      	ldr	r1, [pc, #100]	@ (8003fec <QHsm_enter_target_.isra.0+0x84>)
 8003f88:	58f3      	ldr	r3, [r6, r3]
 8003f8a:	4798      	blx	r3
 8003f8c:	3d01      	subs	r5, #1
 8003f8e:	e7ef      	b.n	8003f70 <QHsm_enter_target_.isra.0+0x8>
 8003f90:	68a3      	ldr	r3, [r4, #8]
 8003f92:	2b00      	cmp	r3, #0
 8003f94:	d105      	bne.n	8003fa2 <QHsm_enter_target_.isra.0+0x3a>
 8003f96:	f7ff ff4d 	bl	8003e34 <QF_crit_entry_>
 8003f9a:	4815      	ldr	r0, [pc, #84]	@ (8003ff0 <QHsm_enter_target_.isra.0+0x88>)
 8003f9c:	4915      	ldr	r1, [pc, #84]	@ (8003ff4 <QHsm_enter_target_.isra.0+0x8c>)
 8003f9e:	f7fc fad5 	bl	800054c <Q_onError>
 8003fa2:	2501      	movs	r5, #1
 8003fa4:	426d      	negs	r5, r5
 8003fa6:	3501      	adds	r5, #1
 8003fa8:	2d06      	cmp	r5, #6
 8003faa:	d105      	bne.n	8003fb8 <QHsm_enter_target_.isra.0+0x50>
 8003fac:	f7ff ff42 	bl	8003e34 <QF_crit_entry_>
 8003fb0:	21a5      	movs	r1, #165	@ 0xa5
 8003fb2:	480f      	ldr	r0, [pc, #60]	@ (8003ff0 <QHsm_enter_target_.isra.0+0x88>)
 8003fb4:	0089      	lsls	r1, r1, #2
 8003fb6:	e7f2      	b.n	8003f9e <QHsm_enter_target_.isra.0+0x36>
 8003fb8:	68a3      	ldr	r3, [r4, #8]
 8003fba:	00aa      	lsls	r2, r5, #2
 8003fbc:	0020      	movs	r0, r4
 8003fbe:	490e      	ldr	r1, [pc, #56]	@ (8003ff8 <QHsm_enter_target_.isra.0+0x90>)
 8003fc0:	50b3      	str	r3, [r6, r2]
 8003fc2:	4798      	blx	r3
 8003fc4:	2800      	cmp	r0, #0
 8003fc6:	d004      	beq.n	8003fd2 <QHsm_enter_target_.isra.0+0x6a>
 8003fc8:	f7ff ff34 	bl	8003e34 <QF_crit_entry_>
 8003fcc:	21aa      	movs	r1, #170	@ 0xaa
 8003fce:	4808      	ldr	r0, [pc, #32]	@ (8003ff0 <QHsm_enter_target_.isra.0+0x88>)
 8003fd0:	e7f0      	b.n	8003fb4 <QHsm_enter_target_.isra.0+0x4c>
 8003fd2:	68a3      	ldr	r3, [r4, #8]
 8003fd4:	42bb      	cmp	r3, r7
 8003fd6:	d1e6      	bne.n	8003fa6 <QHsm_enter_target_.isra.0+0x3e>
 8003fd8:	00ab      	lsls	r3, r5, #2
 8003fda:	0020      	movs	r0, r4
 8003fdc:	4903      	ldr	r1, [pc, #12]	@ (8003fec <QHsm_enter_target_.isra.0+0x84>)
 8003fde:	58f3      	ldr	r3, [r6, r3]
 8003fe0:	4798      	blx	r3
 8003fe2:	3d01      	subs	r5, #1
 8003fe4:	d2f8      	bcs.n	8003fd8 <QHsm_enter_target_.isra.0+0x70>
 8003fe6:	e7c5      	b.n	8003f74 <QHsm_enter_target_.isra.0+0xc>
 8003fe8:	080066e4 	.word	0x080066e4
 8003fec:	080066d4 	.word	0x080066d4
 8003ff0:	080066ec 	.word	0x080066ec
 8003ff4:	0000028a 	.word	0x0000028a
 8003ff8:	080066cc 	.word	0x080066cc

08003ffc <QHsm_init_>:
 8003ffc:	b570      	push	{r4, r5, r6, lr}
 8003ffe:	6843      	ldr	r3, [r0, #4]
 8004000:	4e24      	ldr	r6, [pc, #144]	@ (8004094 <QHsm_init_+0x98>)
 8004002:	0004      	movs	r4, r0
 8004004:	b086      	sub	sp, #24
 8004006:	42b3      	cmp	r3, r6
 8004008:	d005      	beq.n	8004016 <QHsm_init_+0x1a>
 800400a:	f7ff ff13 	bl	8003e34 <QF_crit_entry_>
 800400e:	21c8      	movs	r1, #200	@ 0xc8
 8004010:	4821      	ldr	r0, [pc, #132]	@ (8004098 <QHsm_init_+0x9c>)
 8004012:	f7fc fa9b 	bl	800054c <Q_onError>
 8004016:	6883      	ldr	r3, [r0, #8]
 8004018:	2b00      	cmp	r3, #0
 800401a:	d104      	bne.n	8004026 <QHsm_init_+0x2a>
 800401c:	f7ff ff0a 	bl	8003e34 <QF_crit_entry_>
 8004020:	21d2      	movs	r1, #210	@ 0xd2
 8004022:	481d      	ldr	r0, [pc, #116]	@ (8004098 <QHsm_init_+0x9c>)
 8004024:	e7f5      	b.n	8004012 <QHsm_init_+0x16>
 8004026:	4798      	blx	r3
 8004028:	2803      	cmp	r0, #3
 800402a:	d004      	beq.n	8004036 <QHsm_init_+0x3a>
 800402c:	f7ff ff02 	bl	8003e34 <QF_crit_entry_>
 8004030:	21f0      	movs	r1, #240	@ 0xf0
 8004032:	4819      	ldr	r0, [pc, #100]	@ (8004098 <QHsm_init_+0x9c>)
 8004034:	e7ed      	b.n	8004012 <QHsm_init_+0x16>
 8004036:	2501      	movs	r5, #1
 8004038:	68a3      	ldr	r3, [r4, #8]
 800403a:	426d      	negs	r5, r5
 800403c:	2b00      	cmp	r3, #0
 800403e:	d104      	bne.n	800404a <QHsm_init_+0x4e>
 8004040:	f7ff fef8 	bl	8003e34 <QF_crit_entry_>
 8004044:	21fa      	movs	r1, #250	@ 0xfa
 8004046:	4814      	ldr	r0, [pc, #80]	@ (8004098 <QHsm_init_+0x9c>)
 8004048:	e7e3      	b.n	8004012 <QHsm_init_+0x16>
 800404a:	3501      	adds	r5, #1
 800404c:	2d06      	cmp	r5, #6
 800404e:	d105      	bne.n	800405c <QHsm_init_+0x60>
 8004050:	f7ff fef0 	bl	8003e34 <QF_crit_entry_>
 8004054:	2182      	movs	r1, #130	@ 0x82
 8004056:	4810      	ldr	r0, [pc, #64]	@ (8004098 <QHsm_init_+0x9c>)
 8004058:	0049      	lsls	r1, r1, #1
 800405a:	e7da      	b.n	8004012 <QHsm_init_+0x16>
 800405c:	68a3      	ldr	r3, [r4, #8]
 800405e:	2b00      	cmp	r3, #0
 8004060:	d104      	bne.n	800406c <QHsm_init_+0x70>
 8004062:	f7ff fee7 	bl	8003e34 <QF_crit_entry_>
 8004066:	2187      	movs	r1, #135	@ 0x87
 8004068:	480b      	ldr	r0, [pc, #44]	@ (8004098 <QHsm_init_+0x9c>)
 800406a:	e7f5      	b.n	8004058 <QHsm_init_+0x5c>
 800406c:	4669      	mov	r1, sp
 800406e:	00aa      	lsls	r2, r5, #2
 8004070:	5053      	str	r3, [r2, r1]
 8004072:	0020      	movs	r0, r4
 8004074:	4909      	ldr	r1, [pc, #36]	@ (800409c <QHsm_init_+0xa0>)
 8004076:	4798      	blx	r3
 8004078:	68a3      	ldr	r3, [r4, #8]
 800407a:	42b3      	cmp	r3, r6
 800407c:	d1e5      	bne.n	800404a <QHsm_init_+0x4e>
 800407e:	002a      	movs	r2, r5
 8004080:	4669      	mov	r1, sp
 8004082:	0020      	movs	r0, r4
 8004084:	f7ff ff70 	bl	8003f68 <QHsm_enter_target_.isra.0>
 8004088:	9b00      	ldr	r3, [sp, #0]
 800408a:	6063      	str	r3, [r4, #4]
 800408c:	43db      	mvns	r3, r3
 800408e:	60a3      	str	r3, [r4, #8]
 8004090:	b006      	add	sp, #24
 8004092:	bd70      	pop	{r4, r5, r6, pc}
 8004094:	08003f1d 	.word	0x08003f1d
 8004098:	080066ec 	.word	0x080066ec
 800409c:	080066cc 	.word	0x080066cc

080040a0 <QHsm_dispatch_>:
 80040a0:	6883      	ldr	r3, [r0, #8]
 80040a2:	b5f0      	push	{r4, r5, r6, r7, lr}
 80040a4:	43db      	mvns	r3, r3
 80040a6:	6842      	ldr	r2, [r0, #4]
 80040a8:	0004      	movs	r4, r0
 80040aa:	000f      	movs	r7, r1
 80040ac:	b08b      	sub	sp, #44	@ 0x2c
 80040ae:	429a      	cmp	r2, r3
 80040b0:	d006      	beq.n	80040c0 <QHsm_dispatch_+0x20>
 80040b2:	f7ff febf 	bl	8003e34 <QF_crit_entry_>
 80040b6:	2196      	movs	r1, #150	@ 0x96
 80040b8:	485f      	ldr	r0, [pc, #380]	@ (8004238 <QHsm_dispatch_+0x198>)
 80040ba:	0049      	lsls	r1, r1, #1
 80040bc:	f7fc fa46 	bl	800054c <Q_onError>
 80040c0:	2900      	cmp	r1, #0
 80040c2:	d104      	bne.n	80040ce <QHsm_dispatch_+0x2e>
 80040c4:	f7ff feb6 	bl	8003e34 <QF_crit_entry_>
 80040c8:	219b      	movs	r1, #155	@ 0x9b
 80040ca:	485b      	ldr	r0, [pc, #364]	@ (8004238 <QHsm_dispatch_+0x198>)
 80040cc:	e7f5      	b.n	80040ba <QHsm_dispatch_+0x1a>
 80040ce:	2506      	movs	r5, #6
 80040d0:	6082      	str	r2, [r0, #8]
 80040d2:	3d01      	subs	r5, #1
 80040d4:	d204      	bcs.n	80040e0 <QHsm_dispatch_+0x40>
 80040d6:	f7ff fead 	bl	8003e34 <QF_crit_entry_>
 80040da:	21aa      	movs	r1, #170	@ 0xaa
 80040dc:	4856      	ldr	r0, [pc, #344]	@ (8004238 <QHsm_dispatch_+0x198>)
 80040de:	e7ec      	b.n	80040ba <QHsm_dispatch_+0x1a>
 80040e0:	68a6      	ldr	r6, [r4, #8]
 80040e2:	00ab      	lsls	r3, r5, #2
 80040e4:	aa04      	add	r2, sp, #16
 80040e6:	0039      	movs	r1, r7
 80040e8:	0020      	movs	r0, r4
 80040ea:	509e      	str	r6, [r3, r2]
 80040ec:	47b0      	blx	r6
 80040ee:	2801      	cmp	r0, #1
 80040f0:	d102      	bne.n	80040f8 <QHsm_dispatch_+0x58>
 80040f2:	0020      	movs	r0, r4
 80040f4:	4951      	ldr	r1, [pc, #324]	@ (800423c <QHsm_dispatch_+0x19c>)
 80040f6:	47b0      	blx	r6
 80040f8:	2800      	cmp	r0, #0
 80040fa:	d0ea      	beq.n	80040d2 <QHsm_dispatch_+0x32>
 80040fc:	2805      	cmp	r0, #5
 80040fe:	d021      	beq.n	8004144 <QHsm_dispatch_+0xa4>
 8004100:	2802      	cmp	r0, #2
 8004102:	d01f      	beq.n	8004144 <QHsm_dispatch_+0xa4>
 8004104:	3803      	subs	r0, #3
 8004106:	2801      	cmp	r0, #1
 8004108:	d900      	bls.n	800410c <QHsm_dispatch_+0x6c>
 800410a:	e08f      	b.n	800422c <QHsm_dispatch_+0x18c>
 800410c:	68a3      	ldr	r3, [r4, #8]
 800410e:	9302      	str	r3, [sp, #8]
 8004110:	2b00      	cmp	r3, #0
 8004112:	d104      	bne.n	800411e <QHsm_dispatch_+0x7e>
 8004114:	f7ff fe8e 	bl	8003e34 <QF_crit_entry_>
 8004118:	21af      	movs	r1, #175	@ 0xaf
 800411a:	4847      	ldr	r0, [pc, #284]	@ (8004238 <QHsm_dispatch_+0x198>)
 800411c:	e7cd      	b.n	80040ba <QHsm_dispatch_+0x1a>
 800411e:	2705      	movs	r7, #5
 8004120:	9b02      	ldr	r3, [sp, #8]
 8004122:	9304      	str	r3, [sp, #16]
 8004124:	42bd      	cmp	r5, r7
 8004126:	d112      	bne.n	800414e <QHsm_dispatch_+0xae>
 8004128:	9b02      	ldr	r3, [sp, #8]
 800412a:	9606      	str	r6, [sp, #24]
 800412c:	429e      	cmp	r6, r3
 800412e:	d116      	bne.n	800415e <QHsm_dispatch_+0xbe>
 8004130:	0020      	movs	r0, r4
 8004132:	4943      	ldr	r1, [pc, #268]	@ (8004240 <QHsm_dispatch_+0x1a0>)
 8004134:	47b0      	blx	r6
 8004136:	2200      	movs	r2, #0
 8004138:	0020      	movs	r0, r4
 800413a:	a904      	add	r1, sp, #16
 800413c:	f7ff ff14 	bl	8003f68 <QHsm_enter_target_.isra.0>
 8004140:	9b04      	ldr	r3, [sp, #16]
 8004142:	6063      	str	r3, [r4, #4]
 8004144:	6863      	ldr	r3, [r4, #4]
 8004146:	43db      	mvns	r3, r3
 8004148:	60a3      	str	r3, [r4, #8]
 800414a:	b00b      	add	sp, #44	@ 0x2c
 800414c:	bdf0      	pop	{r4, r5, r6, r7, pc}
 800414e:	00bb      	lsls	r3, r7, #2
 8004150:	aa04      	add	r2, sp, #16
 8004152:	0020      	movs	r0, r4
 8004154:	493a      	ldr	r1, [pc, #232]	@ (8004240 <QHsm_dispatch_+0x1a0>)
 8004156:	58d3      	ldr	r3, [r2, r3]
 8004158:	4798      	blx	r3
 800415a:	3f01      	subs	r7, #1
 800415c:	e7e2      	b.n	8004124 <QHsm_dispatch_+0x84>
 800415e:	4b37      	ldr	r3, [pc, #220]	@ (800423c <QHsm_dispatch_+0x19c>)
 8004160:	0020      	movs	r0, r4
 8004162:	0019      	movs	r1, r3
 8004164:	9303      	str	r3, [sp, #12]
 8004166:	9b02      	ldr	r3, [sp, #8]
 8004168:	4798      	blx	r3
 800416a:	1e05      	subs	r5, r0, #0
 800416c:	d004      	beq.n	8004178 <QHsm_dispatch_+0xd8>
 800416e:	f7ff fe61 	bl	8003e34 <QF_crit_entry_>
 8004172:	21dc      	movs	r1, #220	@ 0xdc
 8004174:	4830      	ldr	r0, [pc, #192]	@ (8004238 <QHsm_dispatch_+0x198>)
 8004176:	e7a0      	b.n	80040ba <QHsm_dispatch_+0x1a>
 8004178:	68a7      	ldr	r7, [r4, #8]
 800417a:	2f00      	cmp	r7, #0
 800417c:	d104      	bne.n	8004188 <QHsm_dispatch_+0xe8>
 800417e:	f7ff fe59 	bl	8003e34 <QF_crit_entry_>
 8004182:	21e1      	movs	r1, #225	@ 0xe1
 8004184:	482c      	ldr	r0, [pc, #176]	@ (8004238 <QHsm_dispatch_+0x198>)
 8004186:	e798      	b.n	80040ba <QHsm_dispatch_+0x1a>
 8004188:	42be      	cmp	r6, r7
 800418a:	d0d4      	beq.n	8004136 <QHsm_dispatch_+0x96>
 800418c:	0020      	movs	r0, r4
 800418e:	9903      	ldr	r1, [sp, #12]
 8004190:	47b0      	blx	r6
 8004192:	68a3      	ldr	r3, [r4, #8]
 8004194:	9301      	str	r3, [sp, #4]
 8004196:	429f      	cmp	r7, r3
 8004198:	d0ca      	beq.n	8004130 <QHsm_dispatch_+0x90>
 800419a:	9b02      	ldr	r3, [sp, #8]
 800419c:	9a01      	ldr	r2, [sp, #4]
 800419e:	4293      	cmp	r3, r2
 80041a0:	d105      	bne.n	80041ae <QHsm_dispatch_+0x10e>
 80041a2:	0020      	movs	r0, r4
 80041a4:	4926      	ldr	r1, [pc, #152]	@ (8004240 <QHsm_dispatch_+0x1a0>)
 80041a6:	47b0      	blx	r6
 80041a8:	2201      	movs	r2, #1
 80041aa:	4252      	negs	r2, r2
 80041ac:	e7c4      	b.n	8004138 <QHsm_dispatch_+0x98>
 80041ae:	9705      	str	r7, [sp, #20]
 80041b0:	60a7      	str	r7, [r4, #8]
 80041b2:	3501      	adds	r5, #1
 80041b4:	2d06      	cmp	r5, #6
 80041b6:	d105      	bne.n	80041c4 <QHsm_dispatch_+0x124>
 80041b8:	f7ff fe3c 	bl	8003e34 <QF_crit_entry_>
 80041bc:	2187      	movs	r1, #135	@ 0x87
 80041be:	481e      	ldr	r0, [pc, #120]	@ (8004238 <QHsm_dispatch_+0x198>)
 80041c0:	0089      	lsls	r1, r1, #2
 80041c2:	e77b      	b.n	80040bc <QHsm_dispatch_+0x1c>
 80041c4:	68a3      	ldr	r3, [r4, #8]
 80041c6:	00aa      	lsls	r2, r5, #2
 80041c8:	a904      	add	r1, sp, #16
 80041ca:	508b      	str	r3, [r1, r2]
 80041cc:	0020      	movs	r0, r4
 80041ce:	9903      	ldr	r1, [sp, #12]
 80041d0:	4798      	blx	r3
 80041d2:	68a3      	ldr	r3, [r4, #8]
 80041d4:	429e      	cmp	r6, r3
 80041d6:	d027      	beq.n	8004228 <QHsm_dispatch_+0x188>
 80041d8:	2800      	cmp	r0, #0
 80041da:	d0ea      	beq.n	80041b2 <QHsm_dispatch_+0x112>
 80041dc:	4f18      	ldr	r7, [pc, #96]	@ (8004240 <QHsm_dispatch_+0x1a0>)
 80041de:	0020      	movs	r0, r4
 80041e0:	0039      	movs	r1, r7
 80041e2:	47b0      	blx	r6
 80041e4:	002a      	movs	r2, r5
 80041e6:	0093      	lsls	r3, r2, #2
 80041e8:	a904      	add	r1, sp, #16
 80041ea:	58cb      	ldr	r3, [r1, r3]
 80041ec:	9901      	ldr	r1, [sp, #4]
 80041ee:	3a01      	subs	r2, #1
 80041f0:	4299      	cmp	r1, r3
 80041f2:	d0a1      	beq.n	8004138 <QHsm_dispatch_+0x98>
 80041f4:	1c53      	adds	r3, r2, #1
 80041f6:	d1f6      	bne.n	80041e6 <QHsm_dispatch_+0x146>
 80041f8:	0039      	movs	r1, r7
 80041fa:	0020      	movs	r0, r4
 80041fc:	9b01      	ldr	r3, [sp, #4]
 80041fe:	4798      	blx	r3
 8004200:	2802      	cmp	r0, #2
 8004202:	d103      	bne.n	800420c <QHsm_dispatch_+0x16c>
 8004204:	0020      	movs	r0, r4
 8004206:	9903      	ldr	r1, [sp, #12]
 8004208:	9b01      	ldr	r3, [sp, #4]
 800420a:	4798      	blx	r3
 800420c:	002a      	movs	r2, r5
 800420e:	68a3      	ldr	r3, [r4, #8]
 8004210:	9301      	str	r3, [sp, #4]
 8004212:	0093      	lsls	r3, r2, #2
 8004214:	a904      	add	r1, sp, #16
 8004216:	58cb      	ldr	r3, [r1, r3]
 8004218:	9901      	ldr	r1, [sp, #4]
 800421a:	3a01      	subs	r2, #1
 800421c:	4299      	cmp	r1, r3
 800421e:	d100      	bne.n	8004222 <QHsm_dispatch_+0x182>
 8004220:	e78a      	b.n	8004138 <QHsm_dispatch_+0x98>
 8004222:	1c53      	adds	r3, r2, #1
 8004224:	d1f5      	bne.n	8004212 <QHsm_dispatch_+0x172>
 8004226:	e7e7      	b.n	80041f8 <QHsm_dispatch_+0x158>
 8004228:	002a      	movs	r2, r5
 800422a:	e785      	b.n	8004138 <QHsm_dispatch_+0x98>
 800422c:	f7ff fe02 	bl	8003e34 <QF_crit_entry_>
 8004230:	21b4      	movs	r1, #180	@ 0xb4
 8004232:	4801      	ldr	r0, [pc, #4]	@ (8004238 <QHsm_dispatch_+0x198>)
 8004234:	e741      	b.n	80040ba <QHsm_dispatch_+0x1a>
 8004236:	46c0      	nop			@ (mov r8, r8)
 8004238:	080066ec 	.word	0x080066ec
 800423c:	080066cc 	.word	0x080066cc
 8004240:	080066dc 	.word	0x080066dc

08004244 <QHsm_ctor>:
 8004244:	4b02      	ldr	r3, [pc, #8]	@ (8004250 <QHsm_ctor+0xc>)
 8004246:	6081      	str	r1, [r0, #8]
 8004248:	6003      	str	r3, [r0, #0]
 800424a:	4b02      	ldr	r3, [pc, #8]	@ (8004254 <QHsm_ctor+0x10>)
 800424c:	6043      	str	r3, [r0, #4]
 800424e:	4770      	bx	lr
 8004250:	080066bc 	.word	0x080066bc
 8004254:	08003f1d 	.word	0x08003f1d

08004258 <QEvt_ctor>:
 8004258:	4b01      	ldr	r3, [pc, #4]	@ (8004260 <QEvt_ctor+0x8>)
 800425a:	8001      	strh	r1, [r0, #0]
 800425c:	8043      	strh	r3, [r0, #2]
 800425e:	4770      	bx	lr
 8004260:	ffffe000 	.word	0xffffe000

08004264 <QEvt_refCtr_inc_>:
 8004264:	b510      	push	{r4, lr}
 8004266:	78c3      	ldrb	r3, [r0, #3]
 8004268:	2b3f      	cmp	r3, #63	@ 0x3f
 800426a:	d903      	bls.n	8004274 <QEvt_refCtr_inc_+0x10>
 800426c:	21c8      	movs	r1, #200	@ 0xc8
 800426e:	4803      	ldr	r0, [pc, #12]	@ (800427c <QEvt_refCtr_inc_+0x18>)
 8004270:	f7fc f96c 	bl	800054c <Q_onError>
 8004274:	3301      	adds	r3, #1
 8004276:	70c3      	strb	r3, [r0, #3]
 8004278:	bd10      	pop	{r4, pc}
 800427a:	46c0      	nop			@ (mov r8, r8)
 800427c:	080066f4 	.word	0x080066f4

08004280 <QEvt_refCtr_dec_>:
 8004280:	78c3      	ldrb	r3, [r0, #3]
 8004282:	3b01      	subs	r3, #1
 8004284:	70c3      	strb	r3, [r0, #3]
 8004286:	4770      	bx	lr

08004288 <QActive_post_>:
 8004288:	b570      	push	{r4, r5, r6, lr}
 800428a:	000e      	movs	r6, r1
 800428c:	0004      	movs	r4, r0
 800428e:	0015      	movs	r5, r2
 8004290:	f7ff fdd0 	bl	8003e34 <QF_crit_entry_>
 8004294:	2e00      	cmp	r6, #0
 8004296:	d103      	bne.n	80042a0 <QActive_post_+0x18>
 8004298:	2164      	movs	r1, #100	@ 0x64
 800429a:	4824      	ldr	r0, [pc, #144]	@ (800432c <QActive_post_+0xa4>)
 800429c:	f7fc f956 	bl	800054c <Q_onError>
 80042a0:	4a23      	ldr	r2, [pc, #140]	@ (8004330 <QActive_post_+0xa8>)
 80042a2:	7fe3      	ldrb	r3, [r4, #31]
 80042a4:	4295      	cmp	r5, r2
 80042a6:	d105      	bne.n	80042b4 <QActive_post_+0x2c>
 80042a8:	2501      	movs	r5, #1
 80042aa:	2b00      	cmp	r3, #0
 80042ac:	d106      	bne.n	80042bc <QActive_post_+0x34>
 80042ae:	2182      	movs	r1, #130	@ 0x82
 80042b0:	481e      	ldr	r0, [pc, #120]	@ (800432c <QActive_post_+0xa4>)
 80042b2:	e7f3      	b.n	800429c <QActive_post_+0x14>
 80042b4:	b2ed      	uxtb	r5, r5
 80042b6:	429d      	cmp	r5, r3
 80042b8:	41ad      	sbcs	r5, r5
 80042ba:	426d      	negs	r5, r5
 80042bc:	78b3      	ldrb	r3, [r6, #2]
 80042be:	2b00      	cmp	r3, #0
 80042c0:	d002      	beq.n	80042c8 <QActive_post_+0x40>
 80042c2:	0030      	movs	r0, r6
 80042c4:	f7ff ffce 	bl	8004264 <QEvt_refCtr_inc_>
 80042c8:	2d00      	cmp	r5, #0
 80042ca:	d028      	beq.n	800431e <QActive_post_+0x96>
 80042cc:	7fe3      	ldrb	r3, [r4, #31]
 80042ce:	1c62      	adds	r2, r4, #1
 80042d0:	3b01      	subs	r3, #1
 80042d2:	b2db      	uxtb	r3, r3
 80042d4:	77e3      	strb	r3, [r4, #31]
 80042d6:	7fd1      	ldrb	r1, [r2, #31]
 80042d8:	4299      	cmp	r1, r3
 80042da:	d900      	bls.n	80042de <QActive_post_+0x56>
 80042dc:	77d3      	strb	r3, [r2, #31]
 80042de:	6963      	ldr	r3, [r4, #20]
 80042e0:	2b00      	cmp	r3, #0
 80042e2:	d112      	bne.n	800430a <QActive_post_+0x82>
 80042e4:	7b21      	ldrb	r1, [r4, #12]
 80042e6:	4813      	ldr	r0, [pc, #76]	@ (8004334 <QActive_post_+0xac>)
 80042e8:	6166      	str	r6, [r4, #20]
 80042ea:	f000 f98f 	bl	800460c <QPSet_insert>
 80042ee:	f3ef 8305 	mrs	r3, IPSR
 80042f2:	2b00      	cmp	r3, #0
 80042f4:	d105      	bne.n	8004302 <QActive_post_+0x7a>
 80042f6:	f000 fa8b 	bl	8004810 <QK_sched_>
 80042fa:	2800      	cmp	r0, #0
 80042fc:	d001      	beq.n	8004302 <QActive_post_+0x7a>
 80042fe:	f000 fabd 	bl	800487c <QK_activate_>
 8004302:	f7ff fda5 	bl	8003e50 <QF_crit_exit_>
 8004306:	0028      	movs	r0, r5
 8004308:	bd70      	pop	{r4, r5, r6, pc}
 800430a:	7f63      	ldrb	r3, [r4, #29]
 800430c:	69a2      	ldr	r2, [r4, #24]
 800430e:	0099      	lsls	r1, r3, #2
 8004310:	508e      	str	r6, [r1, r2]
 8004312:	2b00      	cmp	r3, #0
 8004314:	d100      	bne.n	8004318 <QActive_post_+0x90>
 8004316:	7f23      	ldrb	r3, [r4, #28]
 8004318:	3b01      	subs	r3, #1
 800431a:	7763      	strb	r3, [r4, #29]
 800431c:	e7f1      	b.n	8004302 <QActive_post_+0x7a>
 800431e:	f7ff fd97 	bl	8003e50 <QF_crit_exit_>
 8004322:	0030      	movs	r0, r6
 8004324:	f000 f86a 	bl	80043fc <QF_gc>
 8004328:	e7ed      	b.n	8004306 <QActive_post_+0x7e>
 800432a:	46c0      	nop			@ (mov r8, r8)
 800432c:	080066fb 	.word	0x080066fb
 8004330:	0000ffff 	.word	0x0000ffff
 8004334:	200005e4 	.word	0x200005e4

08004338 <QActive_get_>:
 8004338:	b570      	push	{r4, r5, r6, lr}
 800433a:	0004      	movs	r4, r0
 800433c:	f7ff fd7a 	bl	8003e34 <QF_crit_entry_>
 8004340:	6965      	ldr	r5, [r4, #20]
 8004342:	2d00      	cmp	r5, #0
 8004344:	d104      	bne.n	8004350 <QActive_get_+0x18>
 8004346:	219b      	movs	r1, #155	@ 0x9b
 8004348:	4813      	ldr	r0, [pc, #76]	@ (8004398 <QActive_get_+0x60>)
 800434a:	0049      	lsls	r1, r1, #1
 800434c:	f7fc f8fe 	bl	800054c <Q_onError>
 8004350:	7fe2      	ldrb	r2, [r4, #31]
 8004352:	7f23      	ldrb	r3, [r4, #28]
 8004354:	3201      	adds	r2, #1
 8004356:	b2d2      	uxtb	r2, r2
 8004358:	77e2      	strb	r2, [r4, #31]
 800435a:	4293      	cmp	r3, r2
 800435c:	d313      	bcc.n	8004386 <QActive_get_+0x4e>
 800435e:	7fa2      	ldrb	r2, [r4, #30]
 8004360:	69a1      	ldr	r1, [r4, #24]
 8004362:	0090      	lsls	r0, r2, #2
 8004364:	5841      	ldr	r1, [r0, r1]
 8004366:	2900      	cmp	r1, #0
 8004368:	d103      	bne.n	8004372 <QActive_get_+0x3a>
 800436a:	480b      	ldr	r0, [pc, #44]	@ (8004398 <QActive_get_+0x60>)
 800436c:	315f      	adds	r1, #95	@ 0x5f
 800436e:	31ff      	adds	r1, #255	@ 0xff
 8004370:	e7ec      	b.n	800434c <QActive_get_+0x14>
 8004372:	6161      	str	r1, [r4, #20]
 8004374:	2a00      	cmp	r2, #0
 8004376:	d000      	beq.n	800437a <QActive_get_+0x42>
 8004378:	0013      	movs	r3, r2
 800437a:	3b01      	subs	r3, #1
 800437c:	77a3      	strb	r3, [r4, #30]
 800437e:	f7ff fd67 	bl	8003e50 <QF_crit_exit_>
 8004382:	0028      	movs	r0, r5
 8004384:	bd70      	pop	{r4, r5, r6, pc}
 8004386:	2100      	movs	r1, #0
 8004388:	3301      	adds	r3, #1
 800438a:	6161      	str	r1, [r4, #20]
 800438c:	429a      	cmp	r2, r3
 800438e:	d0f6      	beq.n	800437e <QActive_get_+0x46>
 8004390:	4801      	ldr	r0, [pc, #4]	@ (8004398 <QActive_get_+0x60>)
 8004392:	3169      	adds	r1, #105	@ 0x69
 8004394:	e7eb      	b.n	800436e <QActive_get_+0x36>
 8004396:	46c0      	nop			@ (mov r8, r8)
 8004398:	080066fb 	.word	0x080066fb

0800439c <QF_poolInit>:
 800439c:	b5f7      	push	{r0, r1, r2, r4, r5, r6, r7, lr}
 800439e:	4b14      	ldr	r3, [pc, #80]	@ (80043f0 <QF_poolInit+0x54>)
 80043a0:	9001      	str	r0, [sp, #4]
 80043a2:	781d      	ldrb	r5, [r3, #0]
 80043a4:	000f      	movs	r7, r1
 80043a6:	0016      	movs	r6, r2
 80043a8:	4c12      	ldr	r4, [pc, #72]	@ (80043f4 <QF_poolInit+0x58>)
 80043aa:	f7ff fd43 	bl	8003e34 <QF_crit_entry_>
 80043ae:	2d02      	cmp	r5, #2
 80043b0:	d903      	bls.n	80043ba <QF_poolInit+0x1e>
 80043b2:	2164      	movs	r1, #100	@ 0x64
 80043b4:	4810      	ldr	r0, [pc, #64]	@ (80043f8 <QF_poolInit+0x5c>)
 80043b6:	f7fc f8c9 	bl	800054c <Q_onError>
 80043ba:	2d00      	cmp	r5, #0
 80043bc:	d009      	beq.n	80043d2 <QF_poolInit+0x36>
 80043be:	2314      	movs	r3, #20
 80043c0:	1e6a      	subs	r2, r5, #1
 80043c2:	4353      	muls	r3, r2
 80043c4:	18e3      	adds	r3, r4, r3
 80043c6:	899b      	ldrh	r3, [r3, #12]
 80043c8:	42b3      	cmp	r3, r6
 80043ca:	d302      	bcc.n	80043d2 <QF_poolInit+0x36>
 80043cc:	216e      	movs	r1, #110	@ 0x6e
 80043ce:	480a      	ldr	r0, [pc, #40]	@ (80043f8 <QF_poolInit+0x5c>)
 80043d0:	e7f1      	b.n	80043b6 <QF_poolInit+0x1a>
 80043d2:	0023      	movs	r3, r4
 80043d4:	1c6a      	adds	r2, r5, #1
 80043d6:	333c      	adds	r3, #60	@ 0x3c
 80043d8:	701a      	strb	r2, [r3, #0]
 80043da:	f7ff fd39 	bl	8003e50 <QF_crit_exit_>
 80043de:	2314      	movs	r3, #20
 80043e0:	436b      	muls	r3, r5
 80043e2:	003a      	movs	r2, r7
 80043e4:	18e0      	adds	r0, r4, r3
 80043e6:	9901      	ldr	r1, [sp, #4]
 80043e8:	0033      	movs	r3, r6
 80043ea:	f000 f83f 	bl	800446c <QMPool_init>
 80043ee:	bdf7      	pop	{r0, r1, r2, r4, r5, r6, r7, pc}
 80043f0:	20000540 	.word	0x20000540
 80043f4:	20000504 	.word	0x20000504
 80043f8:	08006703 	.word	0x08006703

080043fc <QF_gc>:
 80043fc:	b570      	push	{r4, r5, r6, lr}
 80043fe:	0004      	movs	r4, r0
 8004400:	f7ff fd18 	bl	8003e34 <QF_crit_entry_>
 8004404:	2c00      	cmp	r4, #0
 8004406:	d104      	bne.n	8004412 <QF_gc+0x16>
 8004408:	21af      	movs	r1, #175	@ 0xaf
 800440a:	4814      	ldr	r0, [pc, #80]	@ (800445c <QF_gc+0x60>)
 800440c:	0089      	lsls	r1, r1, #2
 800440e:	f7fc f89d 	bl	800054c <Q_onError>
 8004412:	78a6      	ldrb	r6, [r4, #2]
 8004414:	2e00      	cmp	r6, #0
 8004416:	d005      	beq.n	8004424 <QF_gc+0x28>
 8004418:	78e3      	ldrb	r3, [r4, #3]
 800441a:	2b01      	cmp	r3, #1
 800441c:	d905      	bls.n	800442a <QF_gc+0x2e>
 800441e:	0020      	movs	r0, r4
 8004420:	f7ff ff2e 	bl	8004280 <QEvt_refCtr_dec_>
 8004424:	f7ff fd14 	bl	8003e50 <QF_crit_exit_>
 8004428:	e016      	b.n	8004458 <QF_gc+0x5c>
 800442a:	4b0d      	ldr	r3, [pc, #52]	@ (8004460 <QF_gc+0x64>)
 800442c:	4d0d      	ldr	r5, [pc, #52]	@ (8004464 <QF_gc+0x68>)
 800442e:	781b      	ldrb	r3, [r3, #0]
 8004430:	2b03      	cmp	r3, #3
 8004432:	d902      	bls.n	800443a <QF_gc+0x3e>
 8004434:	21b9      	movs	r1, #185	@ 0xb9
 8004436:	4809      	ldr	r0, [pc, #36]	@ (800445c <QF_gc+0x60>)
 8004438:	e7e8      	b.n	800440c <QF_gc+0x10>
 800443a:	429e      	cmp	r6, r3
 800443c:	d902      	bls.n	8004444 <QF_gc+0x48>
 800443e:	4807      	ldr	r0, [pc, #28]	@ (800445c <QF_gc+0x60>)
 8004440:	4909      	ldr	r1, [pc, #36]	@ (8004468 <QF_gc+0x6c>)
 8004442:	e7e4      	b.n	800440e <QF_gc+0x12>
 8004444:	f7ff fd04 	bl	8003e50 <QF_crit_exit_>
 8004448:	2014      	movs	r0, #20
 800444a:	3e01      	subs	r6, #1
 800444c:	4370      	muls	r0, r6
 800444e:	2200      	movs	r2, #0
 8004450:	0021      	movs	r1, r4
 8004452:	1940      	adds	r0, r0, r5
 8004454:	f000 f84a 	bl	80044ec <QMPool_put>
 8004458:	bd70      	pop	{r4, r5, r6, pc}
 800445a:	46c0      	nop			@ (mov r8, r8)
 800445c:	08006703 	.word	0x08006703
 8004460:	20000540 	.word	0x20000540
 8004464:	20000504 	.word	0x20000504
 8004468:	000002ee 	.word	0x000002ee

0800446c <QMPool_init>:
 800446c:	b5f8      	push	{r3, r4, r5, r6, r7, lr}
 800446e:	000c      	movs	r4, r1
 8004470:	0005      	movs	r5, r0
 8004472:	0016      	movs	r6, r2
 8004474:	001f      	movs	r7, r3
 8004476:	f7ff fcdd 	bl	8003e34 <QF_crit_entry_>
 800447a:	2c00      	cmp	r4, #0
 800447c:	d103      	bne.n	8004486 <QMPool_init+0x1a>
 800447e:	2164      	movs	r1, #100	@ 0x64
 8004480:	4818      	ldr	r0, [pc, #96]	@ (80044e4 <QMPool_init+0x78>)
 8004482:	f7fc f863 	bl	800054c <Q_onError>
 8004486:	2308      	movs	r3, #8
 8004488:	2102      	movs	r1, #2
 800448a:	602c      	str	r4, [r5, #0]
 800448c:	60ac      	str	r4, [r5, #8]
 800448e:	b2bf      	uxth	r7, r7
 8004490:	429f      	cmp	r7, r3
 8004492:	d805      	bhi.n	80044a0 <QMPool_init+0x34>
 8004494:	81ab      	strh	r3, [r5, #12]
 8004496:	42b3      	cmp	r3, r6
 8004498:	d906      	bls.n	80044a8 <QMPool_init+0x3c>
 800449a:	216e      	movs	r1, #110	@ 0x6e
 800449c:	4811      	ldr	r0, [pc, #68]	@ (80044e4 <QMPool_init+0x78>)
 800449e:	e7f0      	b.n	8004482 <QMPool_init+0x16>
 80044a0:	3304      	adds	r3, #4
 80044a2:	b29b      	uxth	r3, r3
 80044a4:	3101      	adds	r1, #1
 80044a6:	e7f3      	b.n	8004490 <QMPool_init+0x24>
 80044a8:	2201      	movs	r2, #1
 80044aa:	1af6      	subs	r6, r6, r3
 80044ac:	0089      	lsls	r1, r1, #2
 80044ae:	42b3      	cmp	r3, r6
 80044b0:	d907      	bls.n	80044c2 <QMPool_init+0x56>
 80044b2:	2300      	movs	r3, #0
 80044b4:	6023      	str	r3, [r4, #0]
 80044b6:	4b0c      	ldr	r3, [pc, #48]	@ (80044e8 <QMPool_init+0x7c>)
 80044b8:	429a      	cmp	r2, r3
 80044ba:	d909      	bls.n	80044d0 <QMPool_init+0x64>
 80044bc:	21a0      	movs	r1, #160	@ 0xa0
 80044be:	4809      	ldr	r0, [pc, #36]	@ (80044e4 <QMPool_init+0x78>)
 80044c0:	e7df      	b.n	8004482 <QMPool_init+0x16>
 80044c2:	1860      	adds	r0, r4, r1
 80044c4:	6020      	str	r0, [r4, #0]
 80044c6:	6060      	str	r0, [r4, #4]
 80044c8:	3201      	adds	r2, #1
 80044ca:	0004      	movs	r4, r0
 80044cc:	1af6      	subs	r6, r6, r3
 80044ce:	e7ee      	b.n	80044ae <QMPool_init+0x42>
 80044d0:	606c      	str	r4, [r5, #4]
 80044d2:	6823      	ldr	r3, [r4, #0]
 80044d4:	b292      	uxth	r2, r2
 80044d6:	81ea      	strh	r2, [r5, #14]
 80044d8:	822a      	strh	r2, [r5, #16]
 80044da:	826a      	strh	r2, [r5, #18]
 80044dc:	6063      	str	r3, [r4, #4]
 80044de:	f7ff fcb7 	bl	8003e50 <QF_crit_exit_>
 80044e2:	bdf8      	pop	{r3, r4, r5, r6, r7, pc}
 80044e4:	0800670a 	.word	0x0800670a
 80044e8:	0000fffe 	.word	0x0000fffe

080044ec <QMPool_put>:
 80044ec:	b570      	push	{r4, r5, r6, lr}
 80044ee:	000c      	movs	r4, r1
 80044f0:	0005      	movs	r5, r0
 80044f2:	f7ff fc9f 	bl	8003e34 <QF_crit_entry_>
 80044f6:	2c00      	cmp	r4, #0
 80044f8:	d104      	bne.n	8004504 <QMPool_put+0x18>
 80044fa:	21c8      	movs	r1, #200	@ 0xc8
 80044fc:	4811      	ldr	r0, [pc, #68]	@ (8004544 <QMPool_put+0x58>)
 80044fe:	0049      	lsls	r1, r1, #1
 8004500:	f7fc f824 	bl	800054c <Q_onError>
 8004504:	682b      	ldr	r3, [r5, #0]
 8004506:	42a3      	cmp	r3, r4
 8004508:	d802      	bhi.n	8004510 <QMPool_put+0x24>
 800450a:	686b      	ldr	r3, [r5, #4]
 800450c:	42a3      	cmp	r3, r4
 800450e:	d202      	bcs.n	8004516 <QMPool_put+0x2a>
 8004510:	21cd      	movs	r1, #205	@ 0xcd
 8004512:	480c      	ldr	r0, [pc, #48]	@ (8004544 <QMPool_put+0x58>)
 8004514:	e7f3      	b.n	80044fe <QMPool_put+0x12>
 8004516:	6822      	ldr	r2, [r4, #0]
 8004518:	6863      	ldr	r3, [r4, #4]
 800451a:	429a      	cmp	r2, r3
 800451c:	d102      	bne.n	8004524 <QMPool_put+0x38>
 800451e:	21d3      	movs	r1, #211	@ 0xd3
 8004520:	4808      	ldr	r0, [pc, #32]	@ (8004544 <QMPool_put+0x58>)
 8004522:	e7ec      	b.n	80044fe <QMPool_put+0x12>
 8004524:	8a2b      	ldrh	r3, [r5, #16]
 8004526:	89e9      	ldrh	r1, [r5, #14]
 8004528:	68aa      	ldr	r2, [r5, #8]
 800452a:	4299      	cmp	r1, r3
 800452c:	d802      	bhi.n	8004534 <QMPool_put+0x48>
 800452e:	21e1      	movs	r1, #225	@ 0xe1
 8004530:	4804      	ldr	r0, [pc, #16]	@ (8004544 <QMPool_put+0x58>)
 8004532:	e7e4      	b.n	80044fe <QMPool_put+0x12>
 8004534:	3301      	adds	r3, #1
 8004536:	60ac      	str	r4, [r5, #8]
 8004538:	822b      	strh	r3, [r5, #16]
 800453a:	6022      	str	r2, [r4, #0]
 800453c:	6062      	str	r2, [r4, #4]
 800453e:	f7ff fc87 	bl	8003e50 <QF_crit_exit_>
 8004542:	bd70      	pop	{r4, r5, r6, pc}
 8004544:	0800670a 	.word	0x0800670a

08004548 <QActive_ctor>:
 8004548:	b510      	push	{r4, lr}
 800454a:	0004      	movs	r4, r0
 800454c:	f7ff fe7a 	bl	8004244 <QHsm_ctor>
 8004550:	4b01      	ldr	r3, [pc, #4]	@ (8004558 <QActive_ctor+0x10>)
 8004552:	6023      	str	r3, [r4, #0]
 8004554:	bd10      	pop	{r4, pc}
 8004556:	46c0      	nop			@ (mov r8, r8)
 8004558:	08006714 	.word	0x08006714

0800455c <QActive_register_>:
 800455c:	b5f8      	push	{r3, r4, r5, r6, r7, lr}
 800455e:	0004      	movs	r4, r0
 8004560:	f7ff fc68 	bl	8003e34 <QF_crit_entry_>
 8004564:	7b62      	ldrb	r2, [r4, #13]
 8004566:	7b23      	ldrb	r3, [r4, #12]
 8004568:	2a00      	cmp	r2, #0
 800456a:	d100      	bne.n	800456e <QActive_register_+0x12>
 800456c:	7363      	strb	r3, [r4, #13]
 800456e:	1e5a      	subs	r2, r3, #1
 8004570:	b2d2      	uxtb	r2, r2
 8004572:	2a1f      	cmp	r2, #31
 8004574:	d903      	bls.n	800457e <QActive_register_+0x22>
 8004576:	2164      	movs	r1, #100	@ 0x64
 8004578:	481c      	ldr	r0, [pc, #112]	@ (80045ec <QActive_register_+0x90>)
 800457a:	f7fb ffe7 	bl	800054c <Q_onError>
 800457e:	4d1c      	ldr	r5, [pc, #112]	@ (80045f0 <QActive_register_+0x94>)
 8004580:	009e      	lsls	r6, r3, #2
 8004582:	5971      	ldr	r1, [r6, r5]
 8004584:	2900      	cmp	r1, #0
 8004586:	d002      	beq.n	800458e <QActive_register_+0x32>
 8004588:	216e      	movs	r1, #110	@ 0x6e
 800458a:	4818      	ldr	r0, [pc, #96]	@ (80045ec <QActive_register_+0x90>)
 800458c:	e7f5      	b.n	800457a <QActive_register_+0x1e>
 800458e:	7b61      	ldrb	r1, [r4, #13]
 8004590:	428b      	cmp	r3, r1
 8004592:	d805      	bhi.n	80045a0 <QActive_register_+0x44>
 8004594:	0090      	lsls	r0, r2, #2
 8004596:	1940      	adds	r0, r0, r5
 8004598:	2a00      	cmp	r2, #0
 800459a:	d104      	bne.n	80045a6 <QActive_register_+0x4a>
 800459c:	000a      	movs	r2, r1
 800459e:	e007      	b.n	80045b0 <QActive_register_+0x54>
 80045a0:	2182      	movs	r1, #130	@ 0x82
 80045a2:	4812      	ldr	r0, [pc, #72]	@ (80045ec <QActive_register_+0x90>)
 80045a4:	e7e9      	b.n	800457a <QActive_register_+0x1e>
 80045a6:	6807      	ldr	r7, [r0, #0]
 80045a8:	3804      	subs	r0, #4
 80045aa:	2f00      	cmp	r7, #0
 80045ac:	d009      	beq.n	80045c2 <QActive_register_+0x66>
 80045ae:	7b7a      	ldrb	r2, [r7, #13]
 80045b0:	3301      	adds	r3, #1
 80045b2:	4f10      	ldr	r7, [pc, #64]	@ (80045f4 <QActive_register_+0x98>)
 80045b4:	b2db      	uxtb	r3, r3
 80045b6:	b2d8      	uxtb	r0, r3
 80045b8:	2821      	cmp	r0, #33	@ 0x21
 80045ba:	d105      	bne.n	80045c8 <QActive_register_+0x6c>
 80045bc:	4291      	cmp	r1, r2
 80045be:	d210      	bcs.n	80045e2 <QActive_register_+0x86>
 80045c0:	e00a      	b.n	80045d8 <QActive_register_+0x7c>
 80045c2:	3a01      	subs	r2, #1
 80045c4:	b2d2      	uxtb	r2, r2
 80045c6:	e7e7      	b.n	8004598 <QActive_register_+0x3c>
 80045c8:	3301      	adds	r3, #1
 80045ca:	0098      	lsls	r0, r3, #2
 80045cc:	5838      	ldr	r0, [r7, r0]
 80045ce:	2800      	cmp	r0, #0
 80045d0:	d0f1      	beq.n	80045b6 <QActive_register_+0x5a>
 80045d2:	7b43      	ldrb	r3, [r0, #13]
 80045d4:	4291      	cmp	r1, r2
 80045d6:	d202      	bcs.n	80045de <QActive_register_+0x82>
 80045d8:	21a0      	movs	r1, #160	@ 0xa0
 80045da:	4804      	ldr	r0, [pc, #16]	@ (80045ec <QActive_register_+0x90>)
 80045dc:	e7cd      	b.n	800457a <QActive_register_+0x1e>
 80045de:	4299      	cmp	r1, r3
 80045e0:	d8fa      	bhi.n	80045d8 <QActive_register_+0x7c>
 80045e2:	51ac      	str	r4, [r5, r6]
 80045e4:	f7ff fc34 	bl	8003e50 <QF_crit_exit_>
 80045e8:	bdf8      	pop	{r3, r4, r5, r6, r7, pc}
 80045ea:	46c0      	nop			@ (mov r8, r8)
 80045ec:	08006724 	.word	0x08006724
 80045f0:	20000544 	.word	0x20000544
 80045f4:	20000540 	.word	0x20000540

080045f8 <QPSet_isEmpty>:
 80045f8:	6800      	ldr	r0, [r0, #0]
 80045fa:	4243      	negs	r3, r0
 80045fc:	4158      	adcs	r0, r3
 80045fe:	b2c0      	uxtb	r0, r0
 8004600:	4770      	bx	lr

08004602 <QPSet_notEmpty>:
 8004602:	6800      	ldr	r0, [r0, #0]
 8004604:	1e43      	subs	r3, r0, #1
 8004606:	4198      	sbcs	r0, r3
 8004608:	b2c0      	uxtb	r0, r0
 800460a:	4770      	bx	lr

0800460c <QPSet_insert>:
 800460c:	2201      	movs	r2, #1
 800460e:	3901      	subs	r1, #1
 8004610:	408a      	lsls	r2, r1
 8004612:	6803      	ldr	r3, [r0, #0]
 8004614:	4313      	orrs	r3, r2
 8004616:	6003      	str	r3, [r0, #0]
 8004618:	4770      	bx	lr

0800461a <QPSet_remove>:
 800461a:	2201      	movs	r2, #1
 800461c:	3901      	subs	r1, #1
 800461e:	408a      	lsls	r2, r1
 8004620:	6803      	ldr	r3, [r0, #0]
 8004622:	4393      	bics	r3, r2
 8004624:	6003      	str	r3, [r0, #0]
 8004626:	4770      	bx	lr

08004628 <QPSet_findMax>:
 8004628:	b510      	push	{r4, lr}
 800462a:	6800      	ldr	r0, [r0, #0]
 800462c:	f7ff fc5a 	bl	8003ee4 <QF_qlog2>
 8004630:	bd10      	pop	{r4, pc}
	...

08004634 <QEQueue_init>:
 8004634:	b570      	push	{r4, r5, r6, lr}
 8004636:	0015      	movs	r5, r2
 8004638:	0004      	movs	r4, r0
 800463a:	000e      	movs	r6, r1
 800463c:	f7ff fbfa 	bl	8003e34 <QF_crit_entry_>
 8004640:	2dfe      	cmp	r5, #254	@ 0xfe
 8004642:	d903      	bls.n	800464c <QEQueue_init+0x18>
 8004644:	210a      	movs	r1, #10
 8004646:	4809      	ldr	r0, [pc, #36]	@ (800466c <QEQueue_init+0x38>)
 8004648:	f7fb ff80 	bl	800054c <Q_onError>
 800464c:	2200      	movs	r2, #0
 800464e:	b2eb      	uxtb	r3, r5
 8004650:	6022      	str	r2, [r4, #0]
 8004652:	6066      	str	r6, [r4, #4]
 8004654:	7223      	strb	r3, [r4, #8]
 8004656:	4295      	cmp	r5, r2
 8004658:	d001      	beq.n	800465e <QEQueue_init+0x2a>
 800465a:	7262      	strb	r2, [r4, #9]
 800465c:	72a2      	strb	r2, [r4, #10]
 800465e:	3301      	adds	r3, #1
 8004660:	b2db      	uxtb	r3, r3
 8004662:	72e3      	strb	r3, [r4, #11]
 8004664:	7323      	strb	r3, [r4, #12]
 8004666:	f7ff fbf3 	bl	8003e50 <QF_crit_exit_>
 800466a:	bd70      	pop	{r4, r5, r6, pc}
 800466c:	0800672c 	.word	0x0800672c

08004670 <QTimeEvt_ctorX>:
 8004670:	b5f8      	push	{r3, r4, r5, r6, r7, lr}
 8004672:	0016      	movs	r6, r2
 8004674:	0004      	movs	r4, r0
 8004676:	000f      	movs	r7, r1
 8004678:	001d      	movs	r5, r3
 800467a:	f7ff fbdb 	bl	8003e34 <QF_crit_entry_>
 800467e:	2e00      	cmp	r6, #0
 8004680:	d104      	bne.n	800468c <QTimeEvt_ctorX+0x1c>
 8004682:	2196      	movs	r1, #150	@ 0x96
 8004684:	480a      	ldr	r0, [pc, #40]	@ (80046b0 <QTimeEvt_ctorX+0x40>)
 8004686:	0049      	lsls	r1, r1, #1
 8004688:	f7fb ff60 	bl	800054c <Q_onError>
 800468c:	2d00      	cmp	r5, #0
 800468e:	d002      	beq.n	8004696 <QTimeEvt_ctorX+0x26>
 8004690:	219b      	movs	r1, #155	@ 0x9b
 8004692:	4807      	ldr	r0, [pc, #28]	@ (80046b0 <QTimeEvt_ctorX+0x40>)
 8004694:	e7f7      	b.n	8004686 <QTimeEvt_ctorX+0x16>
 8004696:	f7ff fbdb 	bl	8003e50 <QF_crit_exit_>
 800469a:	0031      	movs	r1, r6
 800469c:	0020      	movs	r0, r4
 800469e:	f7ff fddb 	bl	8004258 <QEvt_ctor>
 80046a2:	70e5      	strb	r5, [r4, #3]
 80046a4:	60a5      	str	r5, [r4, #8]
 80046a6:	60e7      	str	r7, [r4, #12]
 80046a8:	6125      	str	r5, [r4, #16]
 80046aa:	6165      	str	r5, [r4, #20]
 80046ac:	8325      	strh	r5, [r4, #24]
 80046ae:	bdf8      	pop	{r3, r4, r5, r6, r7, pc}
 80046b0:	08006733 	.word	0x08006733

080046b4 <QTimeEvt_armX>:
 80046b4:	b570      	push	{r4, r5, r6, lr}
 80046b6:	0004      	movs	r4, r0
 80046b8:	0016      	movs	r6, r2
 80046ba:	000d      	movs	r5, r1
 80046bc:	f7ff fbba 	bl	8003e34 <QF_crit_entry_>
 80046c0:	6922      	ldr	r2, [r4, #16]
 80046c2:	7e23      	ldrb	r3, [r4, #24]
 80046c4:	2d00      	cmp	r5, #0
 80046c6:	d104      	bne.n	80046d2 <QTimeEvt_armX+0x1e>
 80046c8:	21dc      	movs	r1, #220	@ 0xdc
 80046ca:	4813      	ldr	r0, [pc, #76]	@ (8004718 <QTimeEvt_armX+0x64>)
 80046cc:	0049      	lsls	r1, r1, #1
 80046ce:	f7fb ff3d 	bl	800054c <Q_onError>
 80046d2:	2a00      	cmp	r2, #0
 80046d4:	d002      	beq.n	80046dc <QTimeEvt_armX+0x28>
 80046d6:	21e1      	movs	r1, #225	@ 0xe1
 80046d8:	480f      	ldr	r0, [pc, #60]	@ (8004718 <QTimeEvt_armX+0x64>)
 80046da:	e7f7      	b.n	80046cc <QTimeEvt_armX+0x18>
 80046dc:	68e2      	ldr	r2, [r4, #12]
 80046de:	2a00      	cmp	r2, #0
 80046e0:	d102      	bne.n	80046e8 <QTimeEvt_armX+0x34>
 80046e2:	21e6      	movs	r1, #230	@ 0xe6
 80046e4:	480c      	ldr	r0, [pc, #48]	@ (8004718 <QTimeEvt_armX+0x64>)
 80046e6:	e7f1      	b.n	80046cc <QTimeEvt_armX+0x18>
 80046e8:	2b00      	cmp	r3, #0
 80046ea:	d002      	beq.n	80046f2 <QTimeEvt_armX+0x3e>
 80046ec:	21eb      	movs	r1, #235	@ 0xeb
 80046ee:	480a      	ldr	r0, [pc, #40]	@ (8004718 <QTimeEvt_armX+0x64>)
 80046f0:	e7ec      	b.n	80046cc <QTimeEvt_armX+0x18>
 80046f2:	2319      	movs	r3, #25
 80046f4:	6125      	str	r5, [r4, #16]
 80046f6:	6166      	str	r6, [r4, #20]
 80046f8:	56e3      	ldrsb	r3, [r4, r3]
 80046fa:	7e62      	ldrb	r2, [r4, #25]
 80046fc:	2b00      	cmp	r3, #0
 80046fe:	db07      	blt.n	8004710 <QTimeEvt_armX+0x5c>
 8004700:	2380      	movs	r3, #128	@ 0x80
 8004702:	425b      	negs	r3, r3
 8004704:	4313      	orrs	r3, r2
 8004706:	7663      	strb	r3, [r4, #25]
 8004708:	4b04      	ldr	r3, [pc, #16]	@ (800471c <QTimeEvt_armX+0x68>)
 800470a:	68da      	ldr	r2, [r3, #12]
 800470c:	60a2      	str	r2, [r4, #8]
 800470e:	60dc      	str	r4, [r3, #12]
 8004710:	f7ff fb9e 	bl	8003e50 <QF_crit_exit_>
 8004714:	bd70      	pop	{r4, r5, r6, pc}
 8004716:	46c0      	nop			@ (mov r8, r8)
 8004718:	08006733 	.word	0x08006733
 800471c:	200005c8 	.word	0x200005c8

08004720 <QTimeEvt_disarm>:
 8004720:	b510      	push	{r4, lr}
 8004722:	0004      	movs	r4, r0
 8004724:	f7ff fb86 	bl	8003e34 <QF_crit_entry_>
 8004728:	6923      	ldr	r3, [r4, #16]
 800472a:	2140      	movs	r1, #64	@ 0x40
 800472c:	7e62      	ldrb	r2, [r4, #25]
 800472e:	2b00      	cmp	r3, #0
 8004730:	d008      	beq.n	8004744 <QTimeEvt_disarm+0x24>
 8004732:	2300      	movs	r3, #0
 8004734:	4311      	orrs	r1, r2
 8004736:	7661      	strb	r1, [r4, #25]
 8004738:	6123      	str	r3, [r4, #16]
 800473a:	2401      	movs	r4, #1
 800473c:	f7ff fb88 	bl	8003e50 <QF_crit_exit_>
 8004740:	0020      	movs	r0, r4
 8004742:	bd10      	pop	{r4, pc}
 8004744:	438a      	bics	r2, r1
 8004746:	7662      	strb	r2, [r4, #25]
 8004748:	001c      	movs	r4, r3
 800474a:	e7f7      	b.n	800473c <QTimeEvt_disarm+0x1c>

0800474c <QTimeEvt_init>:
 800474c:	2300      	movs	r3, #0
 800474e:	b510      	push	{r4, lr}
 8004750:	2204      	movs	r2, #4
 8004752:	0019      	movs	r1, r3
 8004754:	4801      	ldr	r0, [pc, #4]	@ (800475c <QTimeEvt_init+0x10>)
 8004756:	f7ff ff8b 	bl	8004670 <QTimeEvt_ctorX>
 800475a:	bd10      	pop	{r4, pc}
 800475c:	200005c8 	.word	0x200005c8

08004760 <QTimeEvt_expire_>:
 8004760:	0003      	movs	r3, r0
 8004762:	695a      	ldr	r2, [r3, #20]
 8004764:	0008      	movs	r0, r1
 8004766:	611a      	str	r2, [r3, #16]
 8004768:	2a00      	cmp	r2, #0
 800476a:	d001      	beq.n	8004770 <QTimeEvt_expire_+0x10>
 800476c:	0018      	movs	r0, r3
 800476e:	4770      	bx	lr
 8004770:	689a      	ldr	r2, [r3, #8]
 8004772:	608a      	str	r2, [r1, #8]
 8004774:	217f      	movs	r1, #127	@ 0x7f
 8004776:	7e5a      	ldrb	r2, [r3, #25]
 8004778:	400a      	ands	r2, r1
 800477a:	765a      	strb	r2, [r3, #25]
 800477c:	e7f7      	b.n	800476e <QTimeEvt_expire_+0xe>
	...

08004780 <QTimeEvt_tick_>:
 8004780:	b5f8      	push	{r3, r4, r5, r6, r7, lr}
 8004782:	0004      	movs	r4, r0
 8004784:	f7ff fb56 	bl	8003e34 <QF_crit_entry_>
 8004788:	4d1e      	ldr	r5, [pc, #120]	@ (8004804 <QTimeEvt_tick_+0x84>)
 800478a:	002e      	movs	r6, r5
 800478c:	2c00      	cmp	r4, #0
 800478e:	d004      	beq.n	800479a <QTimeEvt_tick_+0x1a>
 8004790:	21c8      	movs	r1, #200	@ 0xc8
 8004792:	481d      	ldr	r0, [pc, #116]	@ (8004808 <QTimeEvt_tick_+0x88>)
 8004794:	0089      	lsls	r1, r1, #2
 8004796:	f7fb fed9 	bl	800054c <Q_onError>
 800479a:	68ac      	ldr	r4, [r5, #8]
 800479c:	2c00      	cmp	r4, #0
 800479e:	d105      	bne.n	80047ac <QTimeEvt_tick_+0x2c>
 80047a0:	68f4      	ldr	r4, [r6, #12]
 80047a2:	2c00      	cmp	r4, #0
 80047a4:	d02a      	beq.n	80047fc <QTimeEvt_tick_+0x7c>
 80047a6:	2300      	movs	r3, #0
 80047a8:	60ac      	str	r4, [r5, #8]
 80047aa:	60f3      	str	r3, [r6, #12]
 80047ac:	6923      	ldr	r3, [r4, #16]
 80047ae:	2b00      	cmp	r3, #0
 80047b0:	d10c      	bne.n	80047cc <QTimeEvt_tick_+0x4c>
 80047b2:	227f      	movs	r2, #127	@ 0x7f
 80047b4:	68a3      	ldr	r3, [r4, #8]
 80047b6:	60ab      	str	r3, [r5, #8]
 80047b8:	7e63      	ldrb	r3, [r4, #25]
 80047ba:	4013      	ands	r3, r2
 80047bc:	7663      	strb	r3, [r4, #25]
 80047be:	f7ff fb47 	bl	8003e50 <QF_crit_exit_>
 80047c2:	002c      	movs	r4, r5
 80047c4:	f7ff fb36 	bl	8003e34 <QF_crit_entry_>
 80047c8:	0025      	movs	r5, r4
 80047ca:	e7e6      	b.n	800479a <QTimeEvt_tick_+0x1a>
 80047cc:	2b01      	cmp	r3, #1
 80047ce:	d110      	bne.n	80047f2 <QTimeEvt_tick_+0x72>
 80047d0:	68e7      	ldr	r7, [r4, #12]
 80047d2:	0029      	movs	r1, r5
 80047d4:	003a      	movs	r2, r7
 80047d6:	2300      	movs	r3, #0
 80047d8:	0020      	movs	r0, r4
 80047da:	f7ff ffc1 	bl	8004760 <QTimeEvt_expire_>
 80047de:	0005      	movs	r5, r0
 80047e0:	f7ff fb36 	bl	8003e50 <QF_crit_exit_>
 80047e4:	2300      	movs	r3, #0
 80047e6:	0021      	movs	r1, r4
 80047e8:	0038      	movs	r0, r7
 80047ea:	4a08      	ldr	r2, [pc, #32]	@ (800480c <QTimeEvt_tick_+0x8c>)
 80047ec:	f7ff fd4c 	bl	8004288 <QActive_post_>
 80047f0:	e7e7      	b.n	80047c2 <QTimeEvt_tick_+0x42>
 80047f2:	3b01      	subs	r3, #1
 80047f4:	6123      	str	r3, [r4, #16]
 80047f6:	f7ff fb2b 	bl	8003e50 <QF_crit_exit_>
 80047fa:	e7e3      	b.n	80047c4 <QTimeEvt_tick_+0x44>
 80047fc:	f7ff fb28 	bl	8003e50 <QF_crit_exit_>
 8004800:	bdf8      	pop	{r3, r4, r5, r6, r7, pc}
 8004802:	46c0      	nop			@ (mov r8, r8)
 8004804:	200005c8 	.word	0x200005c8
 8004808:	08006733 	.word	0x08006733
 800480c:	0000ffff 	.word	0x0000ffff

08004810 <QK_sched_>:
 8004810:	b510      	push	{r4, lr}
 8004812:	4c0a      	ldr	r4, [pc, #40]	@ (800483c <QK_sched_+0x2c>)
 8004814:	0020      	movs	r0, r4
 8004816:	f7ff fef4 	bl	8004602 <QPSet_notEmpty>
 800481a:	2800      	cmp	r0, #0
 800481c:	d101      	bne.n	8004822 <QK_sched_+0x12>
 800481e:	2000      	movs	r0, #0
 8004820:	bd10      	pop	{r4, pc}
 8004822:	0020      	movs	r0, r4
 8004824:	f7ff ff00 	bl	8004628 <QPSet_findMax>
 8004828:	79a3      	ldrb	r3, [r4, #6]
 800482a:	b2c0      	uxtb	r0, r0
 800482c:	4283      	cmp	r3, r0
 800482e:	d2f6      	bcs.n	800481e <QK_sched_+0xe>
 8004830:	79e3      	ldrb	r3, [r4, #7]
 8004832:	4283      	cmp	r3, r0
 8004834:	d2f3      	bcs.n	800481e <QK_sched_+0xe>
 8004836:	7160      	strb	r0, [r4, #5]
 8004838:	e7f2      	b.n	8004820 <QK_sched_+0x10>
 800483a:	46c0      	nop			@ (mov r8, r8)
 800483c:	200005e4 	.word	0x200005e4

08004840 <QK_sched_act_>:
 8004840:	6943      	ldr	r3, [r0, #20]
 8004842:	b570      	push	{r4, r5, r6, lr}
 8004844:	000d      	movs	r5, r1
 8004846:	4c0c      	ldr	r4, [pc, #48]	@ (8004878 <QK_sched_act_+0x38>)
 8004848:	2b00      	cmp	r3, #0
 800484a:	d103      	bne.n	8004854 <QK_sched_act_+0x14>
 800484c:	7b01      	ldrb	r1, [r0, #12]
 800484e:	0020      	movs	r0, r4
 8004850:	f7ff fee3 	bl	800461a <QPSet_remove>
 8004854:	0020      	movs	r0, r4
 8004856:	f7ff fecf 	bl	80045f8 <QPSet_isEmpty>
 800485a:	2800      	cmp	r0, #0
 800485c:	d001      	beq.n	8004862 <QK_sched_act_+0x22>
 800485e:	2000      	movs	r0, #0
 8004860:	bd70      	pop	{r4, r5, r6, pc}
 8004862:	0020      	movs	r0, r4
 8004864:	f7ff fee0 	bl	8004628 <QPSet_findMax>
 8004868:	b2c3      	uxtb	r3, r0
 800486a:	429d      	cmp	r5, r3
 800486c:	d2f7      	bcs.n	800485e <QK_sched_act_+0x1e>
 800486e:	79e3      	ldrb	r3, [r4, #7]
 8004870:	b2c0      	uxtb	r0, r0
 8004872:	4283      	cmp	r3, r0
 8004874:	d2f3      	bcs.n	800485e <QK_sched_act_+0x1e>
 8004876:	e7f3      	b.n	8004860 <QK_sched_act_+0x20>
 8004878:	200005e4 	.word	0x200005e4

0800487c <QK_activate_>:
 800487c:	b5f7      	push	{r0, r1, r2, r4, r5, r6, r7, lr}
 800487e:	4b24      	ldr	r3, [pc, #144]	@ (8004910 <QK_activate_+0x94>)
 8004880:	795c      	ldrb	r4, [r3, #5]
 8004882:	791e      	ldrb	r6, [r3, #4]
 8004884:	1e62      	subs	r2, r4, #1
 8004886:	2a1f      	cmp	r2, #31
 8004888:	d903      	bls.n	8004892 <QK_activate_+0x16>
 800488a:	2182      	movs	r1, #130	@ 0x82
 800488c:	4821      	ldr	r0, [pc, #132]	@ (8004914 <QK_activate_+0x98>)
 800488e:	0089      	lsls	r1, r1, #2
 8004890:	e003      	b.n	800489a <QK_activate_+0x1e>
 8004892:	42a6      	cmp	r6, r4
 8004894:	d303      	bcc.n	800489e <QK_activate_+0x22>
 8004896:	481f      	ldr	r0, [pc, #124]	@ (8004914 <QK_activate_+0x98>)
 8004898:	491f      	ldr	r1, [pc, #124]	@ (8004918 <QK_activate_+0x9c>)
 800489a:	f7fb fe57 	bl	800054c <Q_onError>
 800489e:	2200      	movs	r2, #0
 80048a0:	715a      	strb	r2, [r3, #5]
 80048a2:	4296      	cmp	r6, r2
 80048a4:	d011      	beq.n	80048ca <QK_activate_+0x4e>
 80048a6:	4b1d      	ldr	r3, [pc, #116]	@ (800491c <QK_activate_+0xa0>)
 80048a8:	00b2      	lsls	r2, r6, #2
 80048aa:	58d3      	ldr	r3, [r2, r3]
 80048ac:	2b00      	cmp	r3, #0
 80048ae:	d102      	bne.n	80048b6 <QK_activate_+0x3a>
 80048b0:	2187      	movs	r1, #135	@ 0x87
 80048b2:	4818      	ldr	r0, [pc, #96]	@ (8004914 <QK_activate_+0x98>)
 80048b4:	e7eb      	b.n	800488e <QK_activate_+0x12>
 80048b6:	7b5b      	ldrb	r3, [r3, #13]
 80048b8:	9300      	str	r3, [sp, #0]
 80048ba:	4b18      	ldr	r3, [pc, #96]	@ (800491c <QK_activate_+0xa0>)
 80048bc:	00a2      	lsls	r2, r4, #2
 80048be:	58d5      	ldr	r5, [r2, r3]
 80048c0:	2d00      	cmp	r5, #0
 80048c2:	d104      	bne.n	80048ce <QK_activate_+0x52>
 80048c4:	4813      	ldr	r0, [pc, #76]	@ (8004914 <QK_activate_+0x98>)
 80048c6:	4916      	ldr	r1, [pc, #88]	@ (8004920 <QK_activate_+0xa4>)
 80048c8:	e7e7      	b.n	800489a <QK_activate_+0x1e>
 80048ca:	9600      	str	r6, [sp, #0]
 80048cc:	e7f5      	b.n	80048ba <QK_activate_+0x3e>
 80048ce:	7b6b      	ldrb	r3, [r5, #13]
 80048d0:	4f0f      	ldr	r7, [pc, #60]	@ (8004910 <QK_activate_+0x94>)
 80048d2:	71bb      	strb	r3, [r7, #6]
 80048d4:	713c      	strb	r4, [r7, #4]
 80048d6:	f7ff fa9f 	bl	8003e18 <QF_int_enable_>
 80048da:	0028      	movs	r0, r5
 80048dc:	f7ff fd2c 	bl	8004338 <QActive_get_>
 80048e0:	682b      	ldr	r3, [r5, #0]
 80048e2:	0022      	movs	r2, r4
 80048e4:	0001      	movs	r1, r0
 80048e6:	685b      	ldr	r3, [r3, #4]
 80048e8:	9001      	str	r0, [sp, #4]
 80048ea:	0028      	movs	r0, r5
 80048ec:	4798      	blx	r3
 80048ee:	9801      	ldr	r0, [sp, #4]
 80048f0:	f7ff fd84 	bl	80043fc <QF_gc>
 80048f4:	f7ff fa82 	bl	8003dfc <QF_int_disable_>
 80048f8:	0028      	movs	r0, r5
 80048fa:	9900      	ldr	r1, [sp, #0]
 80048fc:	f7ff ffa0 	bl	8004840 <QK_sched_act_>
 8004900:	b2c4      	uxtb	r4, r0
 8004902:	2c00      	cmp	r4, #0
 8004904:	d1d9      	bne.n	80048ba <QK_activate_+0x3e>
 8004906:	9b00      	ldr	r3, [sp, #0]
 8004908:	713e      	strb	r6, [r7, #4]
 800490a:	71bb      	strb	r3, [r7, #6]
 800490c:	bdf7      	pop	{r0, r1, r2, r4, r5, r6, r7, pc}
 800490e:	46c0      	nop			@ (mov r8, r8)
 8004910:	200005e4 	.word	0x200005e4
 8004914:	0800673b 	.word	0x0800673b
 8004918:	00000212 	.word	0x00000212
 800491c:	20000544 	.word	0x20000544
 8004920:	0000023a 	.word	0x0000023a

08004924 <QF_init>:
 8004924:	2221      	movs	r2, #33	@ 0x21
 8004926:	b510      	push	{r4, lr}
 8004928:	4b03      	ldr	r3, [pc, #12]	@ (8004938 <QF_init+0x14>)
 800492a:	71da      	strb	r2, [r3, #7]
 800492c:	f7ff ff0e 	bl	800474c <QTimeEvt_init>
 8004930:	f7ff fa9c 	bl	8003e6c <QK_init>
 8004934:	bd10      	pop	{r4, pc}
 8004936:	46c0      	nop			@ (mov r8, r8)
 8004938:	200005e4 	.word	0x200005e4

0800493c <QF_run>:
 800493c:	b510      	push	{r4, lr}
 800493e:	f7ff fa5d 	bl	8003dfc <QF_int_disable_>
 8004942:	2200      	movs	r2, #0
 8004944:	4b07      	ldr	r3, [pc, #28]	@ (8004964 <QF_run+0x28>)
 8004946:	71da      	strb	r2, [r3, #7]
 8004948:	f7ff ff62 	bl	8004810 <QK_sched_>
 800494c:	2800      	cmp	r0, #0
 800494e:	d001      	beq.n	8004954 <QF_run+0x18>
 8004950:	f7ff ff94 	bl	800487c <QK_activate_>
 8004954:	f7ff fa60 	bl	8003e18 <QF_int_enable_>
 8004958:	f7fb feb6 	bl	80006c8 <QF_onStartup>
 800495c:	f7fb feee 	bl	800073c <QK_onIdle>
 8004960:	e7fc      	b.n	800495c <QF_run+0x20>
 8004962:	46c0      	nop			@ (mov r8, r8)
 8004964:	200005e4 	.word	0x200005e4

08004968 <QActive_start>:
 8004968:	b5f8      	push	{r3, r4, r5, r6, r7, lr}
 800496a:	0004      	movs	r4, r0
 800496c:	001e      	movs	r6, r3
 800496e:	000f      	movs	r7, r1
 8004970:	0015      	movs	r5, r2
 8004972:	f7ff fa5f 	bl	8003e34 <QF_crit_entry_>
 8004976:	6823      	ldr	r3, [r4, #0]
 8004978:	2b00      	cmp	r3, #0
 800497a:	d104      	bne.n	8004986 <QActive_start+0x1e>
 800497c:	21e1      	movs	r1, #225	@ 0xe1
 800497e:	4813      	ldr	r0, [pc, #76]	@ (80049cc <QActive_start+0x64>)
 8004980:	0089      	lsls	r1, r1, #2
 8004982:	f7fb fde3 	bl	800054c <Q_onError>
 8004986:	9b06      	ldr	r3, [sp, #24]
 8004988:	2b00      	cmp	r3, #0
 800498a:	d002      	beq.n	8004992 <QActive_start+0x2a>
 800498c:	480f      	ldr	r0, [pc, #60]	@ (80049cc <QActive_start+0x64>)
 800498e:	4910      	ldr	r1, [pc, #64]	@ (80049d0 <QActive_start+0x68>)
 8004990:	e7f7      	b.n	8004982 <QActive_start+0x1a>
 8004992:	f7ff fa5d 	bl	8003e50 <QF_crit_exit_>
 8004996:	0020      	movs	r0, r4
 8004998:	81a7      	strh	r7, [r4, #12]
 800499a:	f7ff fddf 	bl	800455c <QActive_register_>
 800499e:	0020      	movs	r0, r4
 80049a0:	0032      	movs	r2, r6
 80049a2:	0029      	movs	r1, r5
 80049a4:	3014      	adds	r0, #20
 80049a6:	f7ff fe45 	bl	8004634 <QEQueue_init>
 80049aa:	6823      	ldr	r3, [r4, #0]
 80049ac:	0020      	movs	r0, r4
 80049ae:	7b22      	ldrb	r2, [r4, #12]
 80049b0:	681b      	ldr	r3, [r3, #0]
 80049b2:	9908      	ldr	r1, [sp, #32]
 80049b4:	4798      	blx	r3
 80049b6:	f7ff fa3d 	bl	8003e34 <QF_crit_entry_>
 80049ba:	f7ff ff29 	bl	8004810 <QK_sched_>
 80049be:	2800      	cmp	r0, #0
 80049c0:	d001      	beq.n	80049c6 <QActive_start+0x5e>
 80049c2:	f7ff ff5b 	bl	800487c <QK_activate_>
 80049c6:	f7ff fa43 	bl	8003e50 <QF_crit_exit_>
 80049ca:	bdf8      	pop	{r3, r4, r5, r6, r7, pc}
 80049cc:	0800673b 	.word	0x0800673b
 80049d0:	0000038e 	.word	0x0000038e

080049d4 <csn_high>:
 80049d4:	b510      	push	{r4, lr}
 80049d6:	2201      	movs	r2, #1
 80049d8:	2102      	movs	r1, #2
 80049da:	4802      	ldr	r0, [pc, #8]	@ (80049e4 <csn_high+0x10>)
 80049dc:	f7fd f8dc 	bl	8001b98 <HAL_GPIO_WritePin>
 80049e0:	bd10      	pop	{r4, pc}
 80049e2:	46c0      	nop			@ (mov r8, r8)
 80049e4:	50000400 	.word	0x50000400

080049e8 <csn_low>:
 80049e8:	b510      	push	{r4, lr}
 80049ea:	2200      	movs	r2, #0
 80049ec:	2102      	movs	r1, #2
 80049ee:	4802      	ldr	r0, [pc, #8]	@ (80049f8 <csn_low+0x10>)
 80049f0:	f7fd f8d2 	bl	8001b98 <HAL_GPIO_WritePin>
 80049f4:	bd10      	pop	{r4, pc}
 80049f6:	46c0      	nop			@ (mov r8, r8)
 80049f8:	50000400 	.word	0x50000400

080049fc <ce_high>:
 80049fc:	2201      	movs	r2, #1
 80049fe:	b510      	push	{r4, lr}
 8004a00:	0011      	movs	r1, r2
 8004a02:	4802      	ldr	r0, [pc, #8]	@ (8004a0c <ce_high+0x10>)
 8004a04:	f7fd f8c8 	bl	8001b98 <HAL_GPIO_WritePin>
 8004a08:	bd10      	pop	{r4, pc}
 8004a0a:	46c0      	nop			@ (mov r8, r8)
 8004a0c:	50000400 	.word	0x50000400

08004a10 <ce_low>:
 8004a10:	b510      	push	{r4, lr}
 8004a12:	2200      	movs	r2, #0
 8004a14:	2101      	movs	r1, #1
 8004a16:	4802      	ldr	r0, [pc, #8]	@ (8004a20 <ce_low+0x10>)
 8004a18:	f7fd f8be 	bl	8001b98 <HAL_GPIO_WritePin>
 8004a1c:	bd10      	pop	{r4, pc}
 8004a1e:	46c0      	nop			@ (mov r8, r8)
 8004a20:	50000400 	.word	0x50000400

08004a24 <nrf24_w_reg>:
 8004a24:	b5f7      	push	{r0, r1, r2, r4, r5, r6, r7, lr}
 8004a26:	466b      	mov	r3, sp
 8004a28:	1ddc      	adds	r4, r3, #7
 8004a2a:	2320      	movs	r3, #32
 8004a2c:	4303      	orrs	r3, r0
 8004a2e:	000d      	movs	r5, r1
 8004a30:	0016      	movs	r6, r2
 8004a32:	7023      	strb	r3, [r4, #0]
 8004a34:	27fa      	movs	r7, #250	@ 0xfa
 8004a36:	f7ff ffd7 	bl	80049e8 <csn_low>
 8004a3a:	4808      	ldr	r0, [pc, #32]	@ (8004a5c <nrf24_w_reg+0x38>)
 8004a3c:	0021      	movs	r1, r4
 8004a3e:	0004      	movs	r4, r0
 8004a40:	00bf      	lsls	r7, r7, #2
 8004a42:	003b      	movs	r3, r7
 8004a44:	2201      	movs	r2, #1
 8004a46:	f7fd ffb9 	bl	80029bc <HAL_SPI_Transmit>
 8004a4a:	003b      	movs	r3, r7
 8004a4c:	0032      	movs	r2, r6
 8004a4e:	0029      	movs	r1, r5
 8004a50:	0020      	movs	r0, r4
 8004a52:	f7fd ffb3 	bl	80029bc <HAL_SPI_Transmit>
 8004a56:	f7ff ffbd 	bl	80049d4 <csn_high>
 8004a5a:	bdf7      	pop	{r0, r1, r2, r4, r5, r6, r7, pc}
 8004a5c:	20000320 	.word	0x20000320

08004a60 <nrf24_r_reg>:
 8004a60:	b5f7      	push	{r0, r1, r2, r4, r5, r6, r7, lr}
 8004a62:	466b      	mov	r3, sp
 8004a64:	466a      	mov	r2, sp
 8004a66:	1d9f      	adds	r7, r3, #6
 8004a68:	7198      	strb	r0, [r3, #6]
 8004a6a:	2300      	movs	r3, #0
 8004a6c:	26fa      	movs	r6, #250	@ 0xfa
 8004a6e:	000d      	movs	r5, r1
 8004a70:	71d3      	strb	r3, [r2, #7]
 8004a72:	f7ff ffb9 	bl	80049e8 <csn_low>
 8004a76:	4c0a      	ldr	r4, [pc, #40]	@ (8004aa0 <nrf24_r_reg+0x40>)
 8004a78:	00b6      	lsls	r6, r6, #2
 8004a7a:	0033      	movs	r3, r6
 8004a7c:	0039      	movs	r1, r7
 8004a7e:	2201      	movs	r2, #1
 8004a80:	0020      	movs	r0, r4
 8004a82:	f7fd ff9b 	bl	80029bc <HAL_SPI_Transmit>
 8004a86:	4669      	mov	r1, sp
 8004a88:	0033      	movs	r3, r6
 8004a8a:	002a      	movs	r2, r5
 8004a8c:	3107      	adds	r1, #7
 8004a8e:	0020      	movs	r0, r4
 8004a90:	f7fe f9ac 	bl	8002dec <HAL_SPI_Receive>
 8004a94:	f7ff ff9e 	bl	80049d4 <csn_high>
 8004a98:	466b      	mov	r3, sp
 8004a9a:	79d8      	ldrb	r0, [r3, #7]
 8004a9c:	bdfe      	pop	{r1, r2, r3, r4, r5, r6, r7, pc}
 8004a9e:	46c0      	nop			@ (mov r8, r8)
 8004aa0:	20000320 	.word	0x20000320

08004aa4 <nrf24_w_spec_cmd>:
 8004aa4:	b507      	push	{r0, r1, r2, lr}
 8004aa6:	466b      	mov	r3, sp
 8004aa8:	1dd9      	adds	r1, r3, #7
 8004aaa:	23fa      	movs	r3, #250	@ 0xfa
 8004aac:	7008      	strb	r0, [r1, #0]
 8004aae:	2201      	movs	r2, #1
 8004ab0:	4802      	ldr	r0, [pc, #8]	@ (8004abc <nrf24_w_spec_cmd+0x18>)
 8004ab2:	009b      	lsls	r3, r3, #2
 8004ab4:	f7fd ff82 	bl	80029bc <HAL_SPI_Transmit>
 8004ab8:	bd07      	pop	{r0, r1, r2, pc}
 8004aba:	46c0      	nop			@ (mov r8, r8)
 8004abc:	20000320 	.word	0x20000320

08004ac0 <nrf24_pwr_up>:
 8004ac0:	b513      	push	{r0, r1, r4, lr}
 8004ac2:	2400      	movs	r4, #0
 8004ac4:	466b      	mov	r3, sp
 8004ac6:	2101      	movs	r1, #1
 8004ac8:	0020      	movs	r0, r4
 8004aca:	71dc      	strb	r4, [r3, #7]
 8004acc:	f7ff ffc8 	bl	8004a60 <nrf24_r_reg>
 8004ad0:	2302      	movs	r3, #2
 8004ad2:	466a      	mov	r2, sp
 8004ad4:	4303      	orrs	r3, r0
 8004ad6:	71d3      	strb	r3, [r2, #7]
 8004ad8:	466b      	mov	r3, sp
 8004ada:	2201      	movs	r2, #1
 8004adc:	0020      	movs	r0, r4
 8004ade:	1dd9      	adds	r1, r3, #7
 8004ae0:	f7ff ffa0 	bl	8004a24 <nrf24_w_reg>
 8004ae4:	bd13      	pop	{r0, r1, r4, pc}

08004ae6 <nrf24_tx_pwr>:
 8004ae6:	b513      	push	{r0, r1, r4, lr}
 8004ae8:	2300      	movs	r3, #0
 8004aea:	466a      	mov	r2, sp
 8004aec:	0004      	movs	r4, r0
 8004aee:	2101      	movs	r1, #1
 8004af0:	2006      	movs	r0, #6
 8004af2:	71d3      	strb	r3, [r2, #7]
 8004af4:	f7ff ffb4 	bl	8004a60 <nrf24_r_reg>
 8004af8:	2347      	movs	r3, #71	@ 0x47
 8004afa:	4398      	bics	r0, r3
 8004afc:	466b      	mov	r3, sp
 8004afe:	0064      	lsls	r4, r4, #1
 8004b00:	4320      	orrs	r0, r4
 8004b02:	71d8      	strb	r0, [r3, #7]
 8004b04:	2201      	movs	r2, #1
 8004b06:	2006      	movs	r0, #6
 8004b08:	1dd9      	adds	r1, r3, #7
 8004b0a:	f7ff ff8b 	bl	8004a24 <nrf24_w_reg>
 8004b0e:	bd13      	pop	{r0, r1, r4, pc}

08004b10 <nrf24_data_rate>:
 8004b10:	b513      	push	{r0, r1, r4, lr}
 8004b12:	2300      	movs	r3, #0
 8004b14:	466a      	mov	r2, sp
 8004b16:	0004      	movs	r4, r0
 8004b18:	2101      	movs	r1, #1
 8004b1a:	2006      	movs	r0, #6
 8004b1c:	71d3      	strb	r3, [r2, #7]
 8004b1e:	f7ff ff9f 	bl	8004a60 <nrf24_r_reg>
 8004b22:	23d7      	movs	r3, #215	@ 0xd7
 8004b24:	4018      	ands	r0, r3
 8004b26:	3bcf      	subs	r3, #207	@ 0xcf
 8004b28:	2c01      	cmp	r4, #1
 8004b2a:	d002      	beq.n	8004b32 <nrf24_data_rate+0x22>
 8004b2c:	2c02      	cmp	r4, #2
 8004b2e:	d101      	bne.n	8004b34 <nrf24_data_rate+0x24>
 8004b30:	2320      	movs	r3, #32
 8004b32:	4318      	orrs	r0, r3
 8004b34:	466b      	mov	r3, sp
 8004b36:	71d8      	strb	r0, [r3, #7]
 8004b38:	2201      	movs	r2, #1
 8004b3a:	2006      	movs	r0, #6
 8004b3c:	1dd9      	adds	r1, r3, #7
 8004b3e:	f7ff ff71 	bl	8004a24 <nrf24_w_reg>
 8004b42:	bd13      	pop	{r0, r1, r4, pc}

08004b44 <nrf24_set_channel>:
 8004b44:	b507      	push	{r0, r1, r2, lr}
 8004b46:	466b      	mov	r3, sp
 8004b48:	1dd9      	adds	r1, r3, #7
 8004b4a:	7008      	strb	r0, [r1, #0]
 8004b4c:	2201      	movs	r2, #1
 8004b4e:	2005      	movs	r0, #5
 8004b50:	f7ff ff68 	bl	8004a24 <nrf24_w_reg>
 8004b54:	bd07      	pop	{r0, r1, r2, pc}

08004b56 <nrf24_open_tx_pipe>:
 8004b56:	b510      	push	{r4, lr}
 8004b58:	0001      	movs	r1, r0
 8004b5a:	2205      	movs	r2, #5
 8004b5c:	2010      	movs	r0, #16
 8004b5e:	f7ff ff61 	bl	8004a24 <nrf24_w_reg>
 8004b62:	bd10      	pop	{r4, pc}

08004b64 <nrf24_pipe_pld_size>:
 8004b64:	b507      	push	{r0, r1, r2, lr}
 8004b66:	466b      	mov	r3, sp
 8004b68:	71d9      	strb	r1, [r3, #7]
 8004b6a:	2920      	cmp	r1, #32
 8004b6c:	d902      	bls.n	8004b74 <nrf24_pipe_pld_size+0x10>
 8004b6e:	2320      	movs	r3, #32
 8004b70:	466a      	mov	r2, sp
 8004b72:	71d3      	strb	r3, [r2, #7]
 8004b74:	2805      	cmp	r0, #5
 8004b76:	d80a      	bhi.n	8004b8e <nrf24_pipe_pld_size+0x2a>
 8004b78:	466b      	mov	r3, sp
 8004b7a:	2201      	movs	r2, #1
 8004b7c:	1dd9      	adds	r1, r3, #7
 8004b7e:	f7fb fac3 	bl	8000108 <__gnu_thumb1_case_uqi>
 8004b82:	0703      	.short	0x0703
 8004b84:	0f0d0b09 	.word	0x0f0d0b09
 8004b88:	2011      	movs	r0, #17
 8004b8a:	f7ff ff4b 	bl	8004a24 <nrf24_w_reg>
 8004b8e:	bd07      	pop	{r0, r1, r2, pc}
 8004b90:	2012      	movs	r0, #18
 8004b92:	e7fa      	b.n	8004b8a <nrf24_pipe_pld_size+0x26>
 8004b94:	2013      	movs	r0, #19
 8004b96:	e7f8      	b.n	8004b8a <nrf24_pipe_pld_size+0x26>
 8004b98:	2014      	movs	r0, #20
 8004b9a:	e7f6      	b.n	8004b8a <nrf24_pipe_pld_size+0x26>
 8004b9c:	2015      	movs	r0, #21
 8004b9e:	e7f4      	b.n	8004b8a <nrf24_pipe_pld_size+0x26>
 8004ba0:	2016      	movs	r0, #22
 8004ba2:	e7f2      	b.n	8004b8a <nrf24_pipe_pld_size+0x26>

08004ba4 <nrf24_open_rx_pipe>:
 8004ba4:	b573      	push	{r0, r1, r4, r5, r6, lr}
 8004ba6:	466b      	mov	r3, sp
 8004ba8:	1ddc      	adds	r4, r3, #7
 8004baa:	2300      	movs	r3, #0
 8004bac:	0006      	movs	r6, r0
 8004bae:	000d      	movs	r5, r1
 8004bb0:	2002      	movs	r0, #2
 8004bb2:	2101      	movs	r1, #1
 8004bb4:	7023      	strb	r3, [r4, #0]
 8004bb6:	f7ff ff53 	bl	8004a60 <nrf24_r_reg>
 8004bba:	7020      	strb	r0, [r4, #0]
 8004bbc:	2e05      	cmp	r6, #5
 8004bbe:	d80e      	bhi.n	8004bde <nrf24_open_rx_pipe+0x3a>
 8004bc0:	0030      	movs	r0, r6
 8004bc2:	f7fb faa1 	bl	8000108 <__gnu_thumb1_case_uqi>
 8004bc6:	1203      	.short	0x1203
 8004bc8:	322a221a 	.word	0x322a221a
 8004bcc:	2205      	movs	r2, #5
 8004bce:	0029      	movs	r1, r5
 8004bd0:	200a      	movs	r0, #10
 8004bd2:	f7ff ff27 	bl	8004a24 <nrf24_w_reg>
 8004bd6:	2301      	movs	r3, #1
 8004bd8:	7822      	ldrb	r2, [r4, #0]
 8004bda:	4313      	orrs	r3, r2
 8004bdc:	7023      	strb	r3, [r4, #0]
 8004bde:	2201      	movs	r2, #1
 8004be0:	0021      	movs	r1, r4
 8004be2:	2002      	movs	r0, #2
 8004be4:	f7ff ff1e 	bl	8004a24 <nrf24_w_reg>
 8004be8:	bd73      	pop	{r0, r1, r4, r5, r6, pc}
 8004bea:	2205      	movs	r2, #5
 8004bec:	0029      	movs	r1, r5
 8004bee:	200b      	movs	r0, #11
 8004bf0:	f7ff ff18 	bl	8004a24 <nrf24_w_reg>
 8004bf4:	2302      	movs	r3, #2
 8004bf6:	7822      	ldrb	r2, [r4, #0]
 8004bf8:	e7ef      	b.n	8004bda <nrf24_open_rx_pipe+0x36>
 8004bfa:	2201      	movs	r2, #1
 8004bfc:	0029      	movs	r1, r5
 8004bfe:	200c      	movs	r0, #12
 8004c00:	f7ff ff10 	bl	8004a24 <nrf24_w_reg>
 8004c04:	2304      	movs	r3, #4
 8004c06:	7822      	ldrb	r2, [r4, #0]
 8004c08:	e7e7      	b.n	8004bda <nrf24_open_rx_pipe+0x36>
 8004c0a:	2201      	movs	r2, #1
 8004c0c:	0029      	movs	r1, r5
 8004c0e:	200d      	movs	r0, #13
 8004c10:	f7ff ff08 	bl	8004a24 <nrf24_w_reg>
 8004c14:	2308      	movs	r3, #8
 8004c16:	7822      	ldrb	r2, [r4, #0]
 8004c18:	e7df      	b.n	8004bda <nrf24_open_rx_pipe+0x36>
 8004c1a:	2201      	movs	r2, #1
 8004c1c:	0029      	movs	r1, r5
 8004c1e:	200e      	movs	r0, #14
 8004c20:	f7ff ff00 	bl	8004a24 <nrf24_w_reg>
 8004c24:	2310      	movs	r3, #16
 8004c26:	7822      	ldrb	r2, [r4, #0]
 8004c28:	e7d7      	b.n	8004bda <nrf24_open_rx_pipe+0x36>
 8004c2a:	2201      	movs	r2, #1
 8004c2c:	0029      	movs	r1, r5
 8004c2e:	200f      	movs	r0, #15
 8004c30:	f7ff fef8 	bl	8004a24 <nrf24_w_reg>
 8004c34:	2320      	movs	r3, #32
 8004c36:	7822      	ldrb	r2, [r4, #0]
 8004c38:	e7cf      	b.n	8004bda <nrf24_open_rx_pipe+0x36>

08004c3a <nrf24_set_crc>:
 8004c3a:	b537      	push	{r0, r1, r2, r4, r5, lr}
 8004c3c:	0004      	movs	r4, r0
 8004c3e:	000d      	movs	r5, r1
 8004c40:	2000      	movs	r0, #0
 8004c42:	2101      	movs	r1, #1
 8004c44:	f7ff ff0c 	bl	8004a60 <nrf24_r_reg>
 8004c48:	466b      	mov	r3, sp
 8004c4a:	1dd9      	adds	r1, r3, #7
 8004c4c:	230c      	movs	r3, #12
 8004c4e:	00ad      	lsls	r5, r5, #2
 8004c50:	00e4      	lsls	r4, r4, #3
 8004c52:	4398      	bics	r0, r3
 8004c54:	432c      	orrs	r4, r5
 8004c56:	4304      	orrs	r4, r0
 8004c58:	2201      	movs	r2, #1
 8004c5a:	2000      	movs	r0, #0
 8004c5c:	700c      	strb	r4, [r1, #0]
 8004c5e:	f7ff fee1 	bl	8004a24 <nrf24_w_reg>
 8004c62:	bd37      	pop	{r0, r1, r2, r4, r5, pc}

08004c64 <nrf24_set_addr_width>:
 8004c64:	b507      	push	{r0, r1, r2, lr}
 8004c66:	466b      	mov	r3, sp
 8004c68:	1dd9      	adds	r1, r3, #7
 8004c6a:	3802      	subs	r0, #2
 8004c6c:	7008      	strb	r0, [r1, #0]
 8004c6e:	2201      	movs	r2, #1
 8004c70:	2003      	movs	r0, #3
 8004c72:	f7ff fed7 	bl	8004a24 <nrf24_w_reg>
 8004c76:	bd07      	pop	{r0, r1, r2, pc}

08004c78 <nrf24_flush_tx>:
 8004c78:	b510      	push	{r4, lr}
 8004c7a:	f7ff feb5 	bl	80049e8 <csn_low>
 8004c7e:	20e1      	movs	r0, #225	@ 0xe1
 8004c80:	f7ff ff10 	bl	8004aa4 <nrf24_w_spec_cmd>
 8004c84:	f7ff fea6 	bl	80049d4 <csn_high>
 8004c88:	bd10      	pop	{r4, pc}

08004c8a <nrf24_flush_rx>:
 8004c8a:	b510      	push	{r4, lr}
 8004c8c:	f7ff feac 	bl	80049e8 <csn_low>
 8004c90:	20e2      	movs	r0, #226	@ 0xe2
 8004c92:	f7ff ff07 	bl	8004aa4 <nrf24_w_spec_cmd>
 8004c96:	f7ff fe9d 	bl	80049d4 <csn_high>
 8004c9a:	bd10      	pop	{r4, pc}

08004c9c <nrf24_r_status>:
 8004c9c:	b51f      	push	{r0, r1, r2, r3, r4, lr}
 8004c9e:	2300      	movs	r3, #0
 8004ca0:	466a      	mov	r2, sp
 8004ca2:	240f      	movs	r4, #15
 8004ca4:	7393      	strb	r3, [r2, #14]
 8004ca6:	446c      	add	r4, sp
 8004ca8:	33ff      	adds	r3, #255	@ 0xff
 8004caa:	7023      	strb	r3, [r4, #0]
 8004cac:	f7ff fe9c 	bl	80049e8 <csn_low>
 8004cb0:	23fa      	movs	r3, #250	@ 0xfa
 8004cb2:	220e      	movs	r2, #14
 8004cb4:	009b      	lsls	r3, r3, #2
 8004cb6:	0021      	movs	r1, r4
 8004cb8:	9300      	str	r3, [sp, #0]
 8004cba:	446a      	add	r2, sp
 8004cbc:	2301      	movs	r3, #1
 8004cbe:	4804      	ldr	r0, [pc, #16]	@ (8004cd0 <nrf24_r_status+0x34>)
 8004cc0:	f7fd ff56 	bl	8002b70 <HAL_SPI_TransmitReceive>
 8004cc4:	f7ff fe86 	bl	80049d4 <csn_high>
 8004cc8:	466b      	mov	r3, sp
 8004cca:	7b98      	ldrb	r0, [r3, #14]
 8004ccc:	b004      	add	sp, #16
 8004cce:	bd10      	pop	{r4, pc}
 8004cd0:	20000320 	.word	0x20000320

08004cd4 <nrf24_clear_rx_dr>:
 8004cd4:	b507      	push	{r0, r1, r2, lr}
 8004cd6:	2300      	movs	r3, #0
 8004cd8:	466a      	mov	r2, sp
 8004cda:	71d3      	strb	r3, [r2, #7]
 8004cdc:	f7ff ffde 	bl	8004c9c <nrf24_r_status>
 8004ce0:	2340      	movs	r3, #64	@ 0x40
 8004ce2:	466a      	mov	r2, sp
 8004ce4:	4303      	orrs	r3, r0
 8004ce6:	71d3      	strb	r3, [r2, #7]
 8004ce8:	466b      	mov	r3, sp
 8004cea:	2201      	movs	r2, #1
 8004cec:	2007      	movs	r0, #7
 8004cee:	1dd9      	adds	r1, r3, #7
 8004cf0:	f7ff fe98 	bl	8004a24 <nrf24_w_reg>
 8004cf4:	bd07      	pop	{r0, r1, r2, pc}

08004cf6 <nrf24_clear_tx_ds>:
 8004cf6:	b507      	push	{r0, r1, r2, lr}
 8004cf8:	2300      	movs	r3, #0
 8004cfa:	466a      	mov	r2, sp
 8004cfc:	71d3      	strb	r3, [r2, #7]
 8004cfe:	f7ff ffcd 	bl	8004c9c <nrf24_r_status>
 8004d02:	2320      	movs	r3, #32
 8004d04:	466a      	mov	r2, sp
 8004d06:	4303      	orrs	r3, r0
 8004d08:	71d3      	strb	r3, [r2, #7]
 8004d0a:	466b      	mov	r3, sp
 8004d0c:	2201      	movs	r2, #1
 8004d0e:	2007      	movs	r0, #7
 8004d10:	1dd9      	adds	r1, r3, #7
 8004d12:	f7ff fe87 	bl	8004a24 <nrf24_w_reg>
 8004d16:	bd07      	pop	{r0, r1, r2, pc}

08004d18 <nrf24_clear_max_rt>:
 8004d18:	b507      	push	{r0, r1, r2, lr}
 8004d1a:	2300      	movs	r3, #0
 8004d1c:	466a      	mov	r2, sp
 8004d1e:	71d3      	strb	r3, [r2, #7]
 8004d20:	f7ff ffbc 	bl	8004c9c <nrf24_r_status>
 8004d24:	2310      	movs	r3, #16
 8004d26:	466a      	mov	r2, sp
 8004d28:	4303      	orrs	r3, r0
 8004d2a:	71d3      	strb	r3, [r2, #7]
 8004d2c:	466b      	mov	r3, sp
 8004d2e:	2201      	movs	r2, #1
 8004d30:	2007      	movs	r0, #7
 8004d32:	1dd9      	adds	r1, r3, #7
 8004d34:	f7ff fe76 	bl	8004a24 <nrf24_w_reg>
 8004d38:	bd07      	pop	{r0, r1, r2, pc}

08004d3a <nrf24_listen>:
 8004d3a:	b513      	push	{r0, r1, r4, lr}
 8004d3c:	2400      	movs	r4, #0
 8004d3e:	466b      	mov	r3, sp
 8004d40:	2101      	movs	r1, #1
 8004d42:	0020      	movs	r0, r4
 8004d44:	71dc      	strb	r4, [r3, #7]
 8004d46:	f7ff fe8b 	bl	8004a60 <nrf24_r_reg>
 8004d4a:	2201      	movs	r2, #1
 8004d4c:	466b      	mov	r3, sp
 8004d4e:	4310      	orrs	r0, r2
 8004d50:	71d8      	strb	r0, [r3, #7]
 8004d52:	1dd9      	adds	r1, r3, #7
 8004d54:	0020      	movs	r0, r4
 8004d56:	f7ff fe65 	bl	8004a24 <nrf24_w_reg>
 8004d5a:	f7ff fe4f 	bl	80049fc <ce_high>
 8004d5e:	bd13      	pop	{r0, r1, r4, pc}

08004d60 <nrf24_dpl>:
 8004d60:	b513      	push	{r0, r1, r4, lr}
 8004d62:	0004      	movs	r4, r0
 8004d64:	2101      	movs	r1, #1
 8004d66:	201d      	movs	r0, #29
 8004d68:	f7ff fe7a 	bl	8004a60 <nrf24_r_reg>
 8004d6c:	2204      	movs	r2, #4
 8004d6e:	0003      	movs	r3, r0
 8004d70:	4393      	bics	r3, r2
 8004d72:	b2db      	uxtb	r3, r3
 8004d74:	2c01      	cmp	r4, #1
 8004d76:	d101      	bne.n	8004d7c <nrf24_dpl+0x1c>
 8004d78:	4302      	orrs	r2, r0
 8004d7a:	b2d3      	uxtb	r3, r2
 8004d7c:	466a      	mov	r2, sp
 8004d7e:	1dd1      	adds	r1, r2, #7
 8004d80:	201d      	movs	r0, #29
 8004d82:	2201      	movs	r2, #1
 8004d84:	700b      	strb	r3, [r1, #0]
 8004d86:	f7ff fe4d 	bl	8004a24 <nrf24_w_reg>
 8004d8a:	bd13      	pop	{r0, r1, r4, pc}

08004d8c <nrf24_set_rx_dpl>:
 8004d8c:	b537      	push	{r0, r1, r2, r4, r5, lr}
 8004d8e:	0005      	movs	r5, r0
 8004d90:	000c      	movs	r4, r1
 8004d92:	201c      	movs	r0, #28
 8004d94:	2101      	movs	r1, #1
 8004d96:	f7ff fe63 	bl	8004a60 <nrf24_r_reg>
 8004d9a:	1c2b      	adds	r3, r5, #0
 8004d9c:	2d05      	cmp	r5, #5
 8004d9e:	d900      	bls.n	8004da2 <nrf24_set_rx_dpl+0x16>
 8004da0:	2305      	movs	r3, #5
 8004da2:	2201      	movs	r2, #1
 8004da4:	b2db      	uxtb	r3, r3
 8004da6:	409a      	lsls	r2, r3
 8004da8:	0003      	movs	r3, r0
 8004daa:	4393      	bics	r3, r2
 8004dac:	b2db      	uxtb	r3, r3
 8004dae:	2c00      	cmp	r4, #0
 8004db0:	d001      	beq.n	8004db6 <nrf24_set_rx_dpl+0x2a>
 8004db2:	4310      	orrs	r0, r2
 8004db4:	b2c3      	uxtb	r3, r0
 8004db6:	466a      	mov	r2, sp
 8004db8:	1dd1      	adds	r1, r2, #7
 8004dba:	201c      	movs	r0, #28
 8004dbc:	2201      	movs	r2, #1
 8004dbe:	700b      	strb	r3, [r1, #0]
 8004dc0:	f7ff fe30 	bl	8004a24 <nrf24_w_reg>
 8004dc4:	bd37      	pop	{r0, r1, r2, r4, r5, pc}

08004dc6 <nrf24_auto_ack_all>:
 8004dc6:	b513      	push	{r0, r1, r4, lr}
 8004dc8:	2101      	movs	r1, #1
 8004dca:	0004      	movs	r4, r0
 8004dcc:	0008      	movs	r0, r1
 8004dce:	f7ff fe47 	bl	8004a60 <nrf24_r_reg>
 8004dd2:	2c00      	cmp	r4, #0
 8004dd4:	d000      	beq.n	8004dd8 <nrf24_auto_ack_all+0x12>
 8004dd6:	243f      	movs	r4, #63	@ 0x3f
 8004dd8:	466b      	mov	r3, sp
 8004dda:	2201      	movs	r2, #1
 8004ddc:	1dd9      	adds	r1, r3, #7
 8004dde:	0010      	movs	r0, r2
 8004de0:	700c      	strb	r4, [r1, #0]
 8004de2:	f7ff fe1f 	bl	8004a24 <nrf24_w_reg>
 8004de6:	bd13      	pop	{r0, r1, r4, pc}

08004de8 <nrf24_en_ack_pld>:
 8004de8:	b513      	push	{r0, r1, r4, lr}
 8004dea:	0004      	movs	r4, r0
 8004dec:	2101      	movs	r1, #1
 8004dee:	201d      	movs	r0, #29
 8004df0:	f7ff fe36 	bl	8004a60 <nrf24_r_reg>
 8004df4:	2202      	movs	r2, #2
 8004df6:	0003      	movs	r3, r0
 8004df8:	4393      	bics	r3, r2
 8004dfa:	b2db      	uxtb	r3, r3
 8004dfc:	2c00      	cmp	r4, #0
 8004dfe:	d001      	beq.n	8004e04 <nrf24_en_ack_pld+0x1c>
 8004e00:	4302      	orrs	r2, r0
 8004e02:	b2d3      	uxtb	r3, r2
 8004e04:	466a      	mov	r2, sp
 8004e06:	1dd1      	adds	r1, r2, #7
 8004e08:	201d      	movs	r0, #29
 8004e0a:	2201      	movs	r2, #1
 8004e0c:	700b      	strb	r3, [r1, #0]
 8004e0e:	f7ff fe09 	bl	8004a24 <nrf24_w_reg>
 8004e12:	bd13      	pop	{r0, r1, r4, pc}

08004e14 <nrf24_auto_retr_delay>:
 8004e14:	b513      	push	{r0, r1, r4, lr}
 8004e16:	2101      	movs	r1, #1
 8004e18:	0004      	movs	r4, r0
 8004e1a:	2004      	movs	r0, #4
 8004e1c:	f7ff fe20 	bl	8004a60 <nrf24_r_reg>
 8004e20:	466b      	mov	r3, sp
 8004e22:	1dd9      	adds	r1, r3, #7
 8004e24:	230f      	movs	r3, #15
 8004e26:	0124      	lsls	r4, r4, #4
 8004e28:	4018      	ands	r0, r3
 8004e2a:	4320      	orrs	r0, r4
 8004e2c:	7008      	strb	r0, [r1, #0]
 8004e2e:	2201      	movs	r2, #1
 8004e30:	2004      	movs	r0, #4
 8004e32:	f7ff fdf7 	bl	8004a24 <nrf24_w_reg>
 8004e36:	bd13      	pop	{r0, r1, r4, pc}

08004e38 <nrf24_auto_retr_limit>:
 8004e38:	b513      	push	{r0, r1, r4, lr}
 8004e3a:	2101      	movs	r1, #1
 8004e3c:	0004      	movs	r4, r0
 8004e3e:	2004      	movs	r0, #4
 8004e40:	f7ff fe0e 	bl	8004a60 <nrf24_r_reg>
 8004e44:	466b      	mov	r3, sp
 8004e46:	1dd9      	adds	r1, r3, #7
 8004e48:	230f      	movs	r3, #15
 8004e4a:	4398      	bics	r0, r3
 8004e4c:	4304      	orrs	r4, r0
 8004e4e:	2201      	movs	r2, #1
 8004e50:	2004      	movs	r0, #4
 8004e52:	700c      	strb	r4, [r1, #0]
 8004e54:	f7ff fde6 	bl	8004a24 <nrf24_w_reg>
 8004e58:	bd13      	pop	{r0, r1, r4, pc}

08004e5a <nrf24_data_available>:
 8004e5a:	b510      	push	{r4, lr}
 8004e5c:	2101      	movs	r1, #1
 8004e5e:	2017      	movs	r0, #23
 8004e60:	f7ff fdfe 	bl	8004a60 <nrf24_r_reg>
 8004e64:	2301      	movs	r3, #1
 8004e66:	4383      	bics	r3, r0
 8004e68:	0018      	movs	r0, r3
 8004e6a:	bd10      	pop	{r4, pc}

08004e6c <nrf24_receive>:
 8004e6c:	b5f7      	push	{r0, r1, r2, r4, r5, r6, r7, lr}
 8004e6e:	466b      	mov	r3, sp
 8004e70:	1ddc      	adds	r4, r3, #7
 8004e72:	2361      	movs	r3, #97	@ 0x61
 8004e74:	0005      	movs	r5, r0
 8004e76:	000e      	movs	r6, r1
 8004e78:	7023      	strb	r3, [r4, #0]
 8004e7a:	27fa      	movs	r7, #250	@ 0xfa
 8004e7c:	f7ff fdb4 	bl	80049e8 <csn_low>
 8004e80:	4809      	ldr	r0, [pc, #36]	@ (8004ea8 <nrf24_receive+0x3c>)
 8004e82:	0021      	movs	r1, r4
 8004e84:	0004      	movs	r4, r0
 8004e86:	00bf      	lsls	r7, r7, #2
 8004e88:	003b      	movs	r3, r7
 8004e8a:	2201      	movs	r2, #1
 8004e8c:	f7fd fd96 	bl	80029bc <HAL_SPI_Transmit>
 8004e90:	003b      	movs	r3, r7
 8004e92:	0032      	movs	r2, r6
 8004e94:	0029      	movs	r1, r5
 8004e96:	0020      	movs	r0, r4
 8004e98:	f7fd ffa8 	bl	8002dec <HAL_SPI_Receive>
 8004e9c:	f7ff fd9a 	bl	80049d4 <csn_high>
 8004ea0:	f7ff ff18 	bl	8004cd4 <nrf24_clear_rx_dr>
 8004ea4:	bdf7      	pop	{r0, r1, r2, r4, r5, r6, r7, pc}
 8004ea6:	46c0      	nop			@ (mov r8, r8)
 8004ea8:	20000320 	.word	0x20000320

08004eac <nrf24_init>:
 8004eac:	b510      	push	{r4, lr}
 8004eae:	f7ff fe07 	bl	8004ac0 <nrf24_pwr_up>
 8004eb2:	f7ff fee1 	bl	8004c78 <nrf24_flush_tx>
 8004eb6:	f7ff fee8 	bl	8004c8a <nrf24_flush_rx>
 8004eba:	f7ff ff0b 	bl	8004cd4 <nrf24_clear_rx_dr>
 8004ebe:	f7ff ff1a 	bl	8004cf6 <nrf24_clear_tx_ds>
 8004ec2:	f7ff ff29 	bl	8004d18 <nrf24_clear_max_rt>
 8004ec6:	bd10      	pop	{r4, pc}

08004ec8 <ssd1306_WriteCommand>:
 8004ec8:	b57f      	push	{r0, r1, r2, r3, r4, r5, r6, lr}
 8004eca:	2217      	movs	r2, #23
 8004ecc:	2301      	movs	r3, #1
 8004ece:	446a      	add	r2, sp
 8004ed0:	425b      	negs	r3, r3
 8004ed2:	7010      	strb	r0, [r2, #0]
 8004ed4:	9302      	str	r3, [sp, #8]
 8004ed6:	3302      	adds	r3, #2
 8004ed8:	9200      	str	r2, [sp, #0]
 8004eda:	2178      	movs	r1, #120	@ 0x78
 8004edc:	2200      	movs	r2, #0
 8004ede:	9301      	str	r3, [sp, #4]
 8004ee0:	4802      	ldr	r0, [pc, #8]	@ (8004eec <ssd1306_WriteCommand+0x24>)
 8004ee2:	f7fc ffef 	bl	8001ec4 <HAL_I2C_Mem_Write>
 8004ee6:	b007      	add	sp, #28
 8004ee8:	bd00      	pop	{pc}
 8004eea:	46c0      	nop			@ (mov r8, r8)
 8004eec:	20000384 	.word	0x20000384

08004ef0 <ssd1306_WriteData>:
 8004ef0:	b51f      	push	{r0, r1, r2, r3, r4, lr}
 8004ef2:	2301      	movs	r3, #1
 8004ef4:	4c06      	ldr	r4, [pc, #24]	@ (8004f10 <ssd1306_WriteData+0x20>)
 8004ef6:	425b      	negs	r3, r3
 8004ef8:	b289      	uxth	r1, r1
 8004efa:	9302      	str	r3, [sp, #8]
 8004efc:	9101      	str	r1, [sp, #4]
 8004efe:	9000      	str	r0, [sp, #0]
 8004f00:	2240      	movs	r2, #64	@ 0x40
 8004f02:	2178      	movs	r1, #120	@ 0x78
 8004f04:	0020      	movs	r0, r4
 8004f06:	3302      	adds	r3, #2
 8004f08:	f7fc ffdc 	bl	8001ec4 <HAL_I2C_Mem_Write>
 8004f0c:	bd1f      	pop	{r0, r1, r2, r3, r4, pc}
 8004f0e:	46c0      	nop			@ (mov r8, r8)
 8004f10:	20000384 	.word	0x20000384

08004f14 <ssd1306_Fill>:
 8004f14:	1e43      	subs	r3, r0, #1
 8004f16:	4198      	sbcs	r0, r3
 8004f18:	2280      	movs	r2, #128	@ 0x80
 8004f1a:	b510      	push	{r4, lr}
 8004f1c:	4241      	negs	r1, r0
 8004f1e:	b2c9      	uxtb	r1, r1
 8004f20:	4802      	ldr	r0, [pc, #8]	@ (8004f2c <ssd1306_Fill+0x18>)
 8004f22:	0092      	lsls	r2, r2, #2
 8004f24:	f000 fbaa 	bl	800567c <memset>
 8004f28:	bd10      	pop	{r4, pc}
 8004f2a:	46c0      	nop			@ (mov r8, r8)
 8004f2c:	200005f6 	.word	0x200005f6

08004f30 <ssd1306_UpdateScreen>:
 8004f30:	b570      	push	{r4, r5, r6, lr}
 8004f32:	24b0      	movs	r4, #176	@ 0xb0
 8004f34:	4d09      	ldr	r5, [pc, #36]	@ (8004f5c <ssd1306_UpdateScreen+0x2c>)
 8004f36:	0020      	movs	r0, r4
 8004f38:	f7ff ffc6 	bl	8004ec8 <ssd1306_WriteCommand>
 8004f3c:	2000      	movs	r0, #0
 8004f3e:	f7ff ffc3 	bl	8004ec8 <ssd1306_WriteCommand>
 8004f42:	3401      	adds	r4, #1
 8004f44:	2010      	movs	r0, #16
 8004f46:	f7ff ffbf 	bl	8004ec8 <ssd1306_WriteCommand>
 8004f4a:	b2e4      	uxtb	r4, r4
 8004f4c:	0028      	movs	r0, r5
 8004f4e:	2180      	movs	r1, #128	@ 0x80
 8004f50:	f7ff ffce 	bl	8004ef0 <ssd1306_WriteData>
 8004f54:	3580      	adds	r5, #128	@ 0x80
 8004f56:	2cb4      	cmp	r4, #180	@ 0xb4
 8004f58:	d1ed      	bne.n	8004f36 <ssd1306_UpdateScreen+0x6>
 8004f5a:	bd70      	pop	{r4, r5, r6, pc}
 8004f5c:	200005f6 	.word	0x200005f6

08004f60 <ssd1306_DrawPixel>:
 8004f60:	b243      	sxtb	r3, r0
 8004f62:	b530      	push	{r4, r5, lr}
 8004f64:	2b00      	cmp	r3, #0
 8004f66:	db0e      	blt.n	8004f86 <ssd1306_DrawPixel+0x26>
 8004f68:	291f      	cmp	r1, #31
 8004f6a:	d80c      	bhi.n	8004f86 <ssd1306_DrawPixel+0x26>
 8004f6c:	2407      	movs	r4, #7
 8004f6e:	08cb      	lsrs	r3, r1, #3
 8004f70:	01db      	lsls	r3, r3, #7
 8004f72:	4d06      	ldr	r5, [pc, #24]	@ (8004f8c <ssd1306_DrawPixel+0x2c>)
 8004f74:	4021      	ands	r1, r4
 8004f76:	1818      	adds	r0, r3, r0
 8004f78:	3c06      	subs	r4, #6
 8004f7a:	408c      	lsls	r4, r1
 8004f7c:	5c2b      	ldrb	r3, [r5, r0]
 8004f7e:	2a01      	cmp	r2, #1
 8004f80:	d102      	bne.n	8004f88 <ssd1306_DrawPixel+0x28>
 8004f82:	4323      	orrs	r3, r4
 8004f84:	542b      	strb	r3, [r5, r0]
 8004f86:	bd30      	pop	{r4, r5, pc}
 8004f88:	43a3      	bics	r3, r4
 8004f8a:	e7fb      	b.n	8004f84 <ssd1306_DrawPixel+0x24>
 8004f8c:	200005f6 	.word	0x200005f6

08004f90 <ssd1306_WriteChar>:
 8004f90:	b5f0      	push	{r4, r5, r6, r7, lr}
 8004f92:	0004      	movs	r4, r0
 8004f94:	b08b      	sub	sp, #44	@ 0x2c
 8004f96:	9208      	str	r2, [sp, #32]
 8004f98:	0022      	movs	r2, r4
 8004f9a:	9309      	str	r3, [sp, #36]	@ 0x24
 8004f9c:	ab10      	add	r3, sp, #64	@ 0x40
 8004f9e:	781b      	ldrb	r3, [r3, #0]
 8004fa0:	3a20      	subs	r2, #32
 8004fa2:	9305      	str	r3, [sp, #20]
 8004fa4:	b2d3      	uxtb	r3, r2
 8004fa6:	a807      	add	r0, sp, #28
 8004fa8:	9107      	str	r1, [sp, #28]
 8004faa:	2b5e      	cmp	r3, #94	@ 0x5e
 8004fac:	d844      	bhi.n	8005038 <ssd1306_WriteChar+0xa8>
 8004fae:	6883      	ldr	r3, [r0, #8]
 8004fb0:	2b00      	cmp	r3, #0
 8004fb2:	d01d      	beq.n	8004ff0 <ssd1306_WriteChar+0x60>
 8004fb4:	191b      	adds	r3, r3, r4
 8004fb6:	3b20      	subs	r3, #32
 8004fb8:	781d      	ldrb	r5, [r3, #0]
 8004fba:	4b20      	ldr	r3, [pc, #128]	@ (800503c <ssd1306_WriteChar+0xac>)
 8004fbc:	8819      	ldrh	r1, [r3, #0]
 8004fbe:	9101      	str	r1, [sp, #4]
 8004fc0:	1949      	adds	r1, r1, r5
 8004fc2:	2980      	cmp	r1, #128	@ 0x80
 8004fc4:	dc38      	bgt.n	8005038 <ssd1306_WriteChar+0xa8>
 8004fc6:	7841      	ldrb	r1, [r0, #1]
 8004fc8:	9103      	str	r1, [sp, #12]
 8004fca:	885b      	ldrh	r3, [r3, #2]
 8004fcc:	9304      	str	r3, [sp, #16]
 8004fce:	185b      	adds	r3, r3, r1
 8004fd0:	2b20      	cmp	r3, #32
 8004fd2:	dc31      	bgt.n	8005038 <ssd1306_WriteChar+0xa8>
 8004fd4:	2700      	movs	r7, #0
 8004fd6:	434a      	muls	r2, r1
 8004fd8:	0053      	lsls	r3, r2, #1
 8004fda:	9302      	str	r3, [sp, #8]
 8004fdc:	9b03      	ldr	r3, [sp, #12]
 8004fde:	42bb      	cmp	r3, r7
 8004fe0:	d808      	bhi.n	8004ff4 <ssd1306_WriteChar+0x64>
 8004fe2:	9a01      	ldr	r2, [sp, #4]
 8004fe4:	4b15      	ldr	r3, [pc, #84]	@ (800503c <ssd1306_WriteChar+0xac>)
 8004fe6:	18ad      	adds	r5, r5, r2
 8004fe8:	801d      	strh	r5, [r3, #0]
 8004fea:	0020      	movs	r0, r4
 8004fec:	b00b      	add	sp, #44	@ 0x2c
 8004fee:	bdf0      	pop	{r4, r5, r6, r7, pc}
 8004ff0:	7805      	ldrb	r5, [r0, #0]
 8004ff2:	e7e2      	b.n	8004fba <ssd1306_WriteChar+0x2a>
 8004ff4:	2600      	movs	r6, #0
 8004ff6:	9b08      	ldr	r3, [sp, #32]
 8004ff8:	9a02      	ldr	r2, [sp, #8]
 8004ffa:	5a9b      	ldrh	r3, [r3, r2]
 8004ffc:	9306      	str	r3, [sp, #24]
 8004ffe:	42b5      	cmp	r5, r6
 8005000:	d804      	bhi.n	800500c <ssd1306_WriteChar+0x7c>
 8005002:	9b02      	ldr	r3, [sp, #8]
 8005004:	3701      	adds	r7, #1
 8005006:	3302      	adds	r3, #2
 8005008:	9302      	str	r3, [sp, #8]
 800500a:	e7e7      	b.n	8004fdc <ssd1306_WriteChar+0x4c>
 800500c:	9b01      	ldr	r3, [sp, #4]
 800500e:	2280      	movs	r2, #128	@ 0x80
 8005010:	18f0      	adds	r0, r6, r3
 8005012:	9b04      	ldr	r3, [sp, #16]
 8005014:	0212      	lsls	r2, r2, #8
 8005016:	18f9      	adds	r1, r7, r3
 8005018:	9b06      	ldr	r3, [sp, #24]
 800501a:	b2c0      	uxtb	r0, r0
 800501c:	40b3      	lsls	r3, r6
 800501e:	b2c9      	uxtb	r1, r1
 8005020:	4213      	tst	r3, r2
 8005022:	d004      	beq.n	800502e <ssd1306_WriteChar+0x9e>
 8005024:	9a05      	ldr	r2, [sp, #20]
 8005026:	f7ff ff9b 	bl	8004f60 <ssd1306_DrawPixel>
 800502a:	3601      	adds	r6, #1
 800502c:	e7e7      	b.n	8004ffe <ssd1306_WriteChar+0x6e>
 800502e:	9b05      	ldr	r3, [sp, #20]
 8005030:	425a      	negs	r2, r3
 8005032:	415a      	adcs	r2, r3
 8005034:	b2d2      	uxtb	r2, r2
 8005036:	e7f6      	b.n	8005026 <ssd1306_WriteChar+0x96>
 8005038:	2400      	movs	r4, #0
 800503a:	e7d6      	b.n	8004fea <ssd1306_WriteChar+0x5a>
 800503c:	200005f0 	.word	0x200005f0

08005040 <ssd1306_WriteString>:
 8005040:	b530      	push	{r4, r5, lr}
 8005042:	0004      	movs	r4, r0
 8005044:	b087      	sub	sp, #28
 8005046:	9305      	str	r3, [sp, #20]
 8005048:	ab0a      	add	r3, sp, #40	@ 0x28
 800504a:	781d      	ldrb	r5, [r3, #0]
 800504c:	9103      	str	r1, [sp, #12]
 800504e:	9204      	str	r2, [sp, #16]
 8005050:	7820      	ldrb	r0, [r4, #0]
 8005052:	2800      	cmp	r0, #0
 8005054:	d101      	bne.n	800505a <ssd1306_WriteString+0x1a>
 8005056:	b007      	add	sp, #28
 8005058:	bd30      	pop	{r4, r5, pc}
 800505a:	9b05      	ldr	r3, [sp, #20]
 800505c:	9903      	ldr	r1, [sp, #12]
 800505e:	9a04      	ldr	r2, [sp, #16]
 8005060:	9500      	str	r5, [sp, #0]
 8005062:	f7ff ff95 	bl	8004f90 <ssd1306_WriteChar>
 8005066:	0003      	movs	r3, r0
 8005068:	7820      	ldrb	r0, [r4, #0]
 800506a:	4283      	cmp	r3, r0
 800506c:	d1f3      	bne.n	8005056 <ssd1306_WriteString+0x16>
 800506e:	3401      	adds	r4, #1
 8005070:	e7ee      	b.n	8005050 <ssd1306_WriteString+0x10>
	...

08005074 <ssd1306_SetCursor>:
 8005074:	4b01      	ldr	r3, [pc, #4]	@ (800507c <ssd1306_SetCursor+0x8>)
 8005076:	8018      	strh	r0, [r3, #0]
 8005078:	8059      	strh	r1, [r3, #2]
 800507a:	4770      	bx	lr
 800507c:	200005f0 	.word	0x200005f0

08005080 <ssd1306_FillRectangle>:
 8005080:	b5f7      	push	{r0, r1, r2, r4, r5, r6, r7, lr}
 8005082:	ac08      	add	r4, sp, #32
 8005084:	7824      	ldrb	r4, [r4, #0]
 8005086:	9401      	str	r4, [sp, #4]
 8005088:	1c04      	adds	r4, r0, #0
 800508a:	4290      	cmp	r0, r2
 800508c:	d900      	bls.n	8005090 <ssd1306_FillRectangle+0x10>
 800508e:	1c14      	adds	r4, r2, #0
 8005090:	b2e4      	uxtb	r4, r4
 8005092:	9400      	str	r4, [sp, #0]
 8005094:	1c06      	adds	r6, r0, #0
 8005096:	4290      	cmp	r0, r2
 8005098:	d200      	bcs.n	800509c <ssd1306_FillRectangle+0x1c>
 800509a:	1c16      	adds	r6, r2, #0
 800509c:	b2f6      	uxtb	r6, r6
 800509e:	1c0c      	adds	r4, r1, #0
 80050a0:	4299      	cmp	r1, r3
 80050a2:	d900      	bls.n	80050a6 <ssd1306_FillRectangle+0x26>
 80050a4:	1c1c      	adds	r4, r3, #0
 80050a6:	b2e4      	uxtb	r4, r4
 80050a8:	1c0f      	adds	r7, r1, #0
 80050aa:	4299      	cmp	r1, r3
 80050ac:	d200      	bcs.n	80050b0 <ssd1306_FillRectangle+0x30>
 80050ae:	1c1f      	adds	r7, r3, #0
 80050b0:	b2ff      	uxtb	r7, r7
 80050b2:	42bc      	cmp	r4, r7
 80050b4:	d801      	bhi.n	80050ba <ssd1306_FillRectangle+0x3a>
 80050b6:	2c1f      	cmp	r4, #31
 80050b8:	d900      	bls.n	80050bc <ssd1306_FillRectangle+0x3c>
 80050ba:	bdf7      	pop	{r0, r1, r2, r4, r5, r6, r7, pc}
 80050bc:	9d00      	ldr	r5, [sp, #0]
 80050be:	e009      	b.n	80050d4 <ssd1306_FillRectangle+0x54>
 80050c0:	b26b      	sxtb	r3, r5
 80050c2:	2b00      	cmp	r3, #0
 80050c4:	db08      	blt.n	80050d8 <ssd1306_FillRectangle+0x58>
 80050c6:	0028      	movs	r0, r5
 80050c8:	0021      	movs	r1, r4
 80050ca:	9a01      	ldr	r2, [sp, #4]
 80050cc:	f7ff ff48 	bl	8004f60 <ssd1306_DrawPixel>
 80050d0:	3501      	adds	r5, #1
 80050d2:	b2ed      	uxtb	r5, r5
 80050d4:	42b5      	cmp	r5, r6
 80050d6:	d9f3      	bls.n	80050c0 <ssd1306_FillRectangle+0x40>
 80050d8:	3401      	adds	r4, #1
 80050da:	b2e4      	uxtb	r4, r4
 80050dc:	e7e9      	b.n	80050b2 <ssd1306_FillRectangle+0x32>

080050de <ssd1306_SetContrast>:
 80050de:	b510      	push	{r4, lr}
 80050e0:	0004      	movs	r4, r0
 80050e2:	2081      	movs	r0, #129	@ 0x81
 80050e4:	f7ff fef0 	bl	8004ec8 <ssd1306_WriteCommand>
 80050e8:	0020      	movs	r0, r4
 80050ea:	f7ff feed 	bl	8004ec8 <ssd1306_WriteCommand>
 80050ee:	bd10      	pop	{r4, pc}

080050f0 <ssd1306_SetDisplayOn>:
 80050f0:	0003      	movs	r3, r0
 80050f2:	b510      	push	{r4, lr}
 80050f4:	20ae      	movs	r0, #174	@ 0xae
 80050f6:	2b00      	cmp	r3, #0
 80050f8:	d001      	beq.n	80050fe <ssd1306_SetDisplayOn+0xe>
 80050fa:	2301      	movs	r3, #1
 80050fc:	18c0      	adds	r0, r0, r3
 80050fe:	4a02      	ldr	r2, [pc, #8]	@ (8005108 <ssd1306_SetDisplayOn+0x18>)
 8005100:	7153      	strb	r3, [r2, #5]
 8005102:	f7ff fee1 	bl	8004ec8 <ssd1306_WriteCommand>
 8005106:	bd10      	pop	{r4, pc}
 8005108:	200005f0 	.word	0x200005f0

0800510c <ssd1306_Init>:
 800510c:	b510      	push	{r4, lr}
 800510e:	2064      	movs	r0, #100	@ 0x64
 8005110:	f7fb fa38 	bl	8000584 <BSP_delayMs>
 8005114:	2000      	movs	r0, #0
 8005116:	f7ff ffeb 	bl	80050f0 <ssd1306_SetDisplayOn>
 800511a:	2020      	movs	r0, #32
 800511c:	f7ff fed4 	bl	8004ec8 <ssd1306_WriteCommand>
 8005120:	2000      	movs	r0, #0
 8005122:	f7ff fed1 	bl	8004ec8 <ssd1306_WriteCommand>
 8005126:	20b0      	movs	r0, #176	@ 0xb0
 8005128:	f7ff fece 	bl	8004ec8 <ssd1306_WriteCommand>
 800512c:	20c8      	movs	r0, #200	@ 0xc8
 800512e:	f7ff fecb 	bl	8004ec8 <ssd1306_WriteCommand>
 8005132:	2000      	movs	r0, #0
 8005134:	f7ff fec8 	bl	8004ec8 <ssd1306_WriteCommand>
 8005138:	2010      	movs	r0, #16
 800513a:	f7ff fec5 	bl	8004ec8 <ssd1306_WriteCommand>
 800513e:	2040      	movs	r0, #64	@ 0x40
 8005140:	f7ff fec2 	bl	8004ec8 <ssd1306_WriteCommand>
 8005144:	20ff      	movs	r0, #255	@ 0xff
 8005146:	f7ff ffca 	bl	80050de <ssd1306_SetContrast>
 800514a:	20a1      	movs	r0, #161	@ 0xa1
 800514c:	f7ff febc 	bl	8004ec8 <ssd1306_WriteCommand>
 8005150:	20a6      	movs	r0, #166	@ 0xa6
 8005152:	f7ff feb9 	bl	8004ec8 <ssd1306_WriteCommand>
 8005156:	20a8      	movs	r0, #168	@ 0xa8
 8005158:	f7ff feb6 	bl	8004ec8 <ssd1306_WriteCommand>
 800515c:	201f      	movs	r0, #31
 800515e:	f7ff feb3 	bl	8004ec8 <ssd1306_WriteCommand>
 8005162:	20a4      	movs	r0, #164	@ 0xa4
 8005164:	f7ff feb0 	bl	8004ec8 <ssd1306_WriteCommand>
 8005168:	20d3      	movs	r0, #211	@ 0xd3
 800516a:	f7ff fead 	bl	8004ec8 <ssd1306_WriteCommand>
 800516e:	2000      	movs	r0, #0
 8005170:	f7ff feaa 	bl	8004ec8 <ssd1306_WriteCommand>
 8005174:	20d5      	movs	r0, #213	@ 0xd5
 8005176:	f7ff fea7 	bl	8004ec8 <ssd1306_WriteCommand>
 800517a:	20f0      	movs	r0, #240	@ 0xf0
 800517c:	f7ff fea4 	bl	8004ec8 <ssd1306_WriteCommand>
 8005180:	20d9      	movs	r0, #217	@ 0xd9
 8005182:	f7ff fea1 	bl	8004ec8 <ssd1306_WriteCommand>
 8005186:	2022      	movs	r0, #34	@ 0x22
 8005188:	f7ff fe9e 	bl	8004ec8 <ssd1306_WriteCommand>
 800518c:	20da      	movs	r0, #218	@ 0xda
 800518e:	f7ff fe9b 	bl	8004ec8 <ssd1306_WriteCommand>
 8005192:	2002      	movs	r0, #2
 8005194:	f7ff fe98 	bl	8004ec8 <ssd1306_WriteCommand>
 8005198:	20db      	movs	r0, #219	@ 0xdb
 800519a:	f7ff fe95 	bl	8004ec8 <ssd1306_WriteCommand>
 800519e:	2020      	movs	r0, #32
 80051a0:	f7ff fe92 	bl	8004ec8 <ssd1306_WriteCommand>
 80051a4:	208d      	movs	r0, #141	@ 0x8d
 80051a6:	f7ff fe8f 	bl	8004ec8 <ssd1306_WriteCommand>
 80051aa:	2014      	movs	r0, #20
 80051ac:	f7ff fe8c 	bl	8004ec8 <ssd1306_WriteCommand>
 80051b0:	2001      	movs	r0, #1
 80051b2:	f7ff ff9d 	bl	80050f0 <ssd1306_SetDisplayOn>
 80051b6:	2000      	movs	r0, #0
 80051b8:	f7ff feac 	bl	8004f14 <ssd1306_Fill>
 80051bc:	f7ff feb8 	bl	8004f30 <ssd1306_UpdateScreen>
 80051c0:	2200      	movs	r2, #0
 80051c2:	4b03      	ldr	r3, [pc, #12]	@ (80051d0 <ssd1306_Init+0xc4>)
 80051c4:	801a      	strh	r2, [r3, #0]
 80051c6:	805a      	strh	r2, [r3, #2]
 80051c8:	3201      	adds	r2, #1
 80051ca:	711a      	strb	r2, [r3, #4]
 80051cc:	bd10      	pop	{r4, pc}
 80051ce:	46c0      	nop			@ (mov r8, r8)
 80051d0:	200005f0 	.word	0x200005f0

080051d4 <std>:
 80051d4:	2300      	movs	r3, #0
 80051d6:	b510      	push	{r4, lr}
 80051d8:	0004      	movs	r4, r0
 80051da:	6003      	str	r3, [r0, #0]
 80051dc:	6043      	str	r3, [r0, #4]
 80051de:	6083      	str	r3, [r0, #8]
 80051e0:	8181      	strh	r1, [r0, #12]
 80051e2:	6643      	str	r3, [r0, #100]	@ 0x64
 80051e4:	81c2      	strh	r2, [r0, #14]
 80051e6:	6103      	str	r3, [r0, #16]
 80051e8:	6143      	str	r3, [r0, #20]
 80051ea:	6183      	str	r3, [r0, #24]
 80051ec:	0019      	movs	r1, r3
 80051ee:	2208      	movs	r2, #8
 80051f0:	305c      	adds	r0, #92	@ 0x5c
 80051f2:	f000 fa43 	bl	800567c <memset>
 80051f6:	4b0b      	ldr	r3, [pc, #44]	@ (8005224 <std+0x50>)
 80051f8:	6224      	str	r4, [r4, #32]
 80051fa:	6263      	str	r3, [r4, #36]	@ 0x24
 80051fc:	4b0a      	ldr	r3, [pc, #40]	@ (8005228 <std+0x54>)
 80051fe:	62a3      	str	r3, [r4, #40]	@ 0x28
 8005200:	4b0a      	ldr	r3, [pc, #40]	@ (800522c <std+0x58>)
 8005202:	62e3      	str	r3, [r4, #44]	@ 0x2c
 8005204:	4b0a      	ldr	r3, [pc, #40]	@ (8005230 <std+0x5c>)
 8005206:	6323      	str	r3, [r4, #48]	@ 0x30
 8005208:	4b0a      	ldr	r3, [pc, #40]	@ (8005234 <std+0x60>)
 800520a:	429c      	cmp	r4, r3
 800520c:	d005      	beq.n	800521a <std+0x46>
 800520e:	4b0a      	ldr	r3, [pc, #40]	@ (8005238 <std+0x64>)
 8005210:	429c      	cmp	r4, r3
 8005212:	d002      	beq.n	800521a <std+0x46>
 8005214:	4b09      	ldr	r3, [pc, #36]	@ (800523c <std+0x68>)
 8005216:	429c      	cmp	r4, r3
 8005218:	d103      	bne.n	8005222 <std+0x4e>
 800521a:	0020      	movs	r0, r4
 800521c:	3058      	adds	r0, #88	@ 0x58
 800521e:	f000 faad 	bl	800577c <__retarget_lock_init_recursive>
 8005222:	bd10      	pop	{r4, pc}
 8005224:	08005481 	.word	0x08005481
 8005228:	080054a9 	.word	0x080054a9
 800522c:	080054e1 	.word	0x080054e1
 8005230:	0800550d 	.word	0x0800550d
 8005234:	200007f8 	.word	0x200007f8
 8005238:	20000860 	.word	0x20000860
 800523c:	200008c8 	.word	0x200008c8

08005240 <stdio_exit_handler>:
 8005240:	b510      	push	{r4, lr}
 8005242:	4a03      	ldr	r2, [pc, #12]	@ (8005250 <stdio_exit_handler+0x10>)
 8005244:	4903      	ldr	r1, [pc, #12]	@ (8005254 <stdio_exit_handler+0x14>)
 8005246:	4804      	ldr	r0, [pc, #16]	@ (8005258 <stdio_exit_handler+0x18>)
 8005248:	f000 f86c 	bl	8005324 <_fwalk_sglue>
 800524c:	bd10      	pop	{r4, pc}
 800524e:	46c0      	nop			@ (mov r8, r8)
 8005250:	2000000c 	.word	0x2000000c
 8005254:	080062d5 	.word	0x080062d5
 8005258:	2000001c 	.word	0x2000001c

0800525c <cleanup_stdio>:
 800525c:	6841      	ldr	r1, [r0, #4]
 800525e:	4b0b      	ldr	r3, [pc, #44]	@ (800528c <cleanup_stdio+0x30>)
 8005260:	b510      	push	{r4, lr}
 8005262:	0004      	movs	r4, r0
 8005264:	4299      	cmp	r1, r3
 8005266:	d001      	beq.n	800526c <cleanup_stdio+0x10>
 8005268:	f001 f834 	bl	80062d4 <_fflush_r>
 800526c:	68a1      	ldr	r1, [r4, #8]
 800526e:	4b08      	ldr	r3, [pc, #32]	@ (8005290 <cleanup_stdio+0x34>)
 8005270:	4299      	cmp	r1, r3
 8005272:	d002      	beq.n	800527a <cleanup_stdio+0x1e>
 8005274:	0020      	movs	r0, r4
 8005276:	f001 f82d 	bl	80062d4 <_fflush_r>
 800527a:	68e1      	ldr	r1, [r4, #12]
 800527c:	4b05      	ldr	r3, [pc, #20]	@ (8005294 <cleanup_stdio+0x38>)
 800527e:	4299      	cmp	r1, r3
 8005280:	d002      	beq.n	8005288 <cleanup_stdio+0x2c>
 8005282:	0020      	movs	r0, r4
 8005284:	f001 f826 	bl	80062d4 <_fflush_r>
 8005288:	bd10      	pop	{r4, pc}
 800528a:	46c0      	nop			@ (mov r8, r8)
 800528c:	200007f8 	.word	0x200007f8
 8005290:	20000860 	.word	0x20000860
 8005294:	200008c8 	.word	0x200008c8

08005298 <global_stdio_init.part.0>:
 8005298:	b510      	push	{r4, lr}
 800529a:	4b09      	ldr	r3, [pc, #36]	@ (80052c0 <global_stdio_init.part.0+0x28>)
 800529c:	4a09      	ldr	r2, [pc, #36]	@ (80052c4 <global_stdio_init.part.0+0x2c>)
 800529e:	2104      	movs	r1, #4
 80052a0:	601a      	str	r2, [r3, #0]
 80052a2:	4809      	ldr	r0, [pc, #36]	@ (80052c8 <global_stdio_init.part.0+0x30>)
 80052a4:	2200      	movs	r2, #0
 80052a6:	f7ff ff95 	bl	80051d4 <std>
 80052aa:	2201      	movs	r2, #1
 80052ac:	2109      	movs	r1, #9
 80052ae:	4807      	ldr	r0, [pc, #28]	@ (80052cc <global_stdio_init.part.0+0x34>)
 80052b0:	f7ff ff90 	bl	80051d4 <std>
 80052b4:	2202      	movs	r2, #2
 80052b6:	2112      	movs	r1, #18
 80052b8:	4805      	ldr	r0, [pc, #20]	@ (80052d0 <global_stdio_init.part.0+0x38>)
 80052ba:	f7ff ff8b 	bl	80051d4 <std>
 80052be:	bd10      	pop	{r4, pc}
 80052c0:	20000930 	.word	0x20000930
 80052c4:	08005241 	.word	0x08005241
 80052c8:	200007f8 	.word	0x200007f8
 80052cc:	20000860 	.word	0x20000860
 80052d0:	200008c8 	.word	0x200008c8

080052d4 <__sfp_lock_acquire>:
 80052d4:	b510      	push	{r4, lr}
 80052d6:	4802      	ldr	r0, [pc, #8]	@ (80052e0 <__sfp_lock_acquire+0xc>)
 80052d8:	f000 fa51 	bl	800577e <__retarget_lock_acquire_recursive>
 80052dc:	bd10      	pop	{r4, pc}
 80052de:	46c0      	nop			@ (mov r8, r8)
 80052e0:	20000939 	.word	0x20000939

080052e4 <__sfp_lock_release>:
 80052e4:	b510      	push	{r4, lr}
 80052e6:	4802      	ldr	r0, [pc, #8]	@ (80052f0 <__sfp_lock_release+0xc>)
 80052e8:	f000 fa4a 	bl	8005780 <__retarget_lock_release_recursive>
 80052ec:	bd10      	pop	{r4, pc}
 80052ee:	46c0      	nop			@ (mov r8, r8)
 80052f0:	20000939 	.word	0x20000939

080052f4 <__sinit>:
 80052f4:	b510      	push	{r4, lr}
 80052f6:	0004      	movs	r4, r0
 80052f8:	f7ff ffec 	bl	80052d4 <__sfp_lock_acquire>
 80052fc:	6a23      	ldr	r3, [r4, #32]
 80052fe:	2b00      	cmp	r3, #0
 8005300:	d002      	beq.n	8005308 <__sinit+0x14>
 8005302:	f7ff ffef 	bl	80052e4 <__sfp_lock_release>
 8005306:	bd10      	pop	{r4, pc}
 8005308:	4b04      	ldr	r3, [pc, #16]	@ (800531c <__sinit+0x28>)
 800530a:	6223      	str	r3, [r4, #32]
 800530c:	4b04      	ldr	r3, [pc, #16]	@ (8005320 <__sinit+0x2c>)
 800530e:	681b      	ldr	r3, [r3, #0]
 8005310:	2b00      	cmp	r3, #0
 8005312:	d1f6      	bne.n	8005302 <__sinit+0xe>
 8005314:	f7ff ffc0 	bl	8005298 <global_stdio_init.part.0>
 8005318:	e7f3      	b.n	8005302 <__sinit+0xe>
 800531a:	46c0      	nop			@ (mov r8, r8)
 800531c:	0800525d 	.word	0x0800525d
 8005320:	20000930 	.word	0x20000930

08005324 <_fwalk_sglue>:
 8005324:	b5f7      	push	{r0, r1, r2, r4, r5, r6, r7, lr}
 8005326:	0014      	movs	r4, r2
 8005328:	2600      	movs	r6, #0
 800532a:	9000      	str	r0, [sp, #0]
 800532c:	9101      	str	r1, [sp, #4]
 800532e:	68a5      	ldr	r5, [r4, #8]
 8005330:	6867      	ldr	r7, [r4, #4]
 8005332:	3f01      	subs	r7, #1
 8005334:	d504      	bpl.n	8005340 <_fwalk_sglue+0x1c>
 8005336:	6824      	ldr	r4, [r4, #0]
 8005338:	2c00      	cmp	r4, #0
 800533a:	d1f8      	bne.n	800532e <_fwalk_sglue+0xa>
 800533c:	0030      	movs	r0, r6
 800533e:	bdfe      	pop	{r1, r2, r3, r4, r5, r6, r7, pc}
 8005340:	89ab      	ldrh	r3, [r5, #12]
 8005342:	2b01      	cmp	r3, #1
 8005344:	d908      	bls.n	8005358 <_fwalk_sglue+0x34>
 8005346:	220e      	movs	r2, #14
 8005348:	5eab      	ldrsh	r3, [r5, r2]
 800534a:	3301      	adds	r3, #1
 800534c:	d004      	beq.n	8005358 <_fwalk_sglue+0x34>
 800534e:	0029      	movs	r1, r5
 8005350:	9800      	ldr	r0, [sp, #0]
 8005352:	9b01      	ldr	r3, [sp, #4]
 8005354:	4798      	blx	r3
 8005356:	4306      	orrs	r6, r0
 8005358:	3568      	adds	r5, #104	@ 0x68
 800535a:	e7ea      	b.n	8005332 <_fwalk_sglue+0xe>

0800535c <iprintf>:
 800535c:	b40f      	push	{r0, r1, r2, r3}
 800535e:	b507      	push	{r0, r1, r2, lr}
 8005360:	4905      	ldr	r1, [pc, #20]	@ (8005378 <iprintf+0x1c>)
 8005362:	ab04      	add	r3, sp, #16
 8005364:	6808      	ldr	r0, [r1, #0]
 8005366:	cb04      	ldmia	r3!, {r2}
 8005368:	6881      	ldr	r1, [r0, #8]
 800536a:	9301      	str	r3, [sp, #4]
 800536c:	f000 fc94 	bl	8005c98 <_vfiprintf_r>
 8005370:	b003      	add	sp, #12
 8005372:	bc08      	pop	{r3}
 8005374:	b004      	add	sp, #16
 8005376:	4718      	bx	r3
 8005378:	20000018 	.word	0x20000018

0800537c <_puts_r>:
 800537c:	6a03      	ldr	r3, [r0, #32]
 800537e:	b570      	push	{r4, r5, r6, lr}
 8005380:	0005      	movs	r5, r0
 8005382:	000e      	movs	r6, r1
 8005384:	6884      	ldr	r4, [r0, #8]
 8005386:	2b00      	cmp	r3, #0
 8005388:	d101      	bne.n	800538e <_puts_r+0x12>
 800538a:	f7ff ffb3 	bl	80052f4 <__sinit>
 800538e:	6e63      	ldr	r3, [r4, #100]	@ 0x64
 8005390:	07db      	lsls	r3, r3, #31
 8005392:	d405      	bmi.n	80053a0 <_puts_r+0x24>
 8005394:	89a3      	ldrh	r3, [r4, #12]
 8005396:	059b      	lsls	r3, r3, #22
 8005398:	d402      	bmi.n	80053a0 <_puts_r+0x24>
 800539a:	6da0      	ldr	r0, [r4, #88]	@ 0x58
 800539c:	f000 f9ef 	bl	800577e <__retarget_lock_acquire_recursive>
 80053a0:	89a3      	ldrh	r3, [r4, #12]
 80053a2:	071b      	lsls	r3, r3, #28
 80053a4:	d502      	bpl.n	80053ac <_puts_r+0x30>
 80053a6:	6923      	ldr	r3, [r4, #16]
 80053a8:	2b00      	cmp	r3, #0
 80053aa:	d11f      	bne.n	80053ec <_puts_r+0x70>
 80053ac:	0021      	movs	r1, r4
 80053ae:	0028      	movs	r0, r5
 80053b0:	f000 f8f4 	bl	800559c <__swsetup_r>
 80053b4:	2800      	cmp	r0, #0
 80053b6:	d019      	beq.n	80053ec <_puts_r+0x70>
 80053b8:	2501      	movs	r5, #1
 80053ba:	426d      	negs	r5, r5
 80053bc:	6e63      	ldr	r3, [r4, #100]	@ 0x64
 80053be:	07db      	lsls	r3, r3, #31
 80053c0:	d405      	bmi.n	80053ce <_puts_r+0x52>
 80053c2:	89a3      	ldrh	r3, [r4, #12]
 80053c4:	059b      	lsls	r3, r3, #22
 80053c6:	d402      	bmi.n	80053ce <_puts_r+0x52>
 80053c8:	6da0      	ldr	r0, [r4, #88]	@ 0x58
 80053ca:	f000 f9d9 	bl	8005780 <__retarget_lock_release_recursive>
 80053ce:	0028      	movs	r0, r5
 80053d0:	bd70      	pop	{r4, r5, r6, pc}
 80053d2:	3601      	adds	r6, #1
 80053d4:	60a3      	str	r3, [r4, #8]
 80053d6:	2b00      	cmp	r3, #0
 80053d8:	da04      	bge.n	80053e4 <_puts_r+0x68>
 80053da:	69a2      	ldr	r2, [r4, #24]
 80053dc:	429a      	cmp	r2, r3
 80053de:	dc16      	bgt.n	800540e <_puts_r+0x92>
 80053e0:	290a      	cmp	r1, #10
 80053e2:	d014      	beq.n	800540e <_puts_r+0x92>
 80053e4:	6823      	ldr	r3, [r4, #0]
 80053e6:	1c5a      	adds	r2, r3, #1
 80053e8:	6022      	str	r2, [r4, #0]
 80053ea:	7019      	strb	r1, [r3, #0]
 80053ec:	68a3      	ldr	r3, [r4, #8]
 80053ee:	7831      	ldrb	r1, [r6, #0]
 80053f0:	3b01      	subs	r3, #1
 80053f2:	2900      	cmp	r1, #0
 80053f4:	d1ed      	bne.n	80053d2 <_puts_r+0x56>
 80053f6:	60a3      	str	r3, [r4, #8]
 80053f8:	2b00      	cmp	r3, #0
 80053fa:	da0f      	bge.n	800541c <_puts_r+0xa0>
 80053fc:	0022      	movs	r2, r4
 80053fe:	0028      	movs	r0, r5
 8005400:	310a      	adds	r1, #10
 8005402:	f000 f889 	bl	8005518 <__swbuf_r>
 8005406:	3001      	adds	r0, #1
 8005408:	d0d6      	beq.n	80053b8 <_puts_r+0x3c>
 800540a:	250a      	movs	r5, #10
 800540c:	e7d6      	b.n	80053bc <_puts_r+0x40>
 800540e:	0022      	movs	r2, r4
 8005410:	0028      	movs	r0, r5
 8005412:	f000 f881 	bl	8005518 <__swbuf_r>
 8005416:	3001      	adds	r0, #1
 8005418:	d1e8      	bne.n	80053ec <_puts_r+0x70>
 800541a:	e7cd      	b.n	80053b8 <_puts_r+0x3c>
 800541c:	6823      	ldr	r3, [r4, #0]
 800541e:	1c5a      	adds	r2, r3, #1
 8005420:	6022      	str	r2, [r4, #0]
 8005422:	220a      	movs	r2, #10
 8005424:	701a      	strb	r2, [r3, #0]
 8005426:	e7f0      	b.n	800540a <_puts_r+0x8e>

08005428 <puts>:
 8005428:	b510      	push	{r4, lr}
 800542a:	4b03      	ldr	r3, [pc, #12]	@ (8005438 <puts+0x10>)
 800542c:	0001      	movs	r1, r0
 800542e:	6818      	ldr	r0, [r3, #0]
 8005430:	f7ff ffa4 	bl	800537c <_puts_r>
 8005434:	bd10      	pop	{r4, pc}
 8005436:	46c0      	nop			@ (mov r8, r8)
 8005438:	20000018 	.word	0x20000018

0800543c <siprintf>:
 800543c:	b40e      	push	{r1, r2, r3}
 800543e:	b510      	push	{r4, lr}
 8005440:	2400      	movs	r4, #0
 8005442:	490c      	ldr	r1, [pc, #48]	@ (8005474 <siprintf+0x38>)
 8005444:	b09d      	sub	sp, #116	@ 0x74
 8005446:	ab1f      	add	r3, sp, #124	@ 0x7c
 8005448:	9002      	str	r0, [sp, #8]
 800544a:	9006      	str	r0, [sp, #24]
 800544c:	9107      	str	r1, [sp, #28]
 800544e:	9104      	str	r1, [sp, #16]
 8005450:	4809      	ldr	r0, [pc, #36]	@ (8005478 <siprintf+0x3c>)
 8005452:	490a      	ldr	r1, [pc, #40]	@ (800547c <siprintf+0x40>)
 8005454:	cb04      	ldmia	r3!, {r2}
 8005456:	9105      	str	r1, [sp, #20]
 8005458:	6800      	ldr	r0, [r0, #0]
 800545a:	a902      	add	r1, sp, #8
 800545c:	9301      	str	r3, [sp, #4]
 800545e:	941b      	str	r4, [sp, #108]	@ 0x6c
 8005460:	f000 faf4 	bl	8005a4c <_svfiprintf_r>
 8005464:	9b02      	ldr	r3, [sp, #8]
 8005466:	701c      	strb	r4, [r3, #0]
 8005468:	b01d      	add	sp, #116	@ 0x74
 800546a:	bc10      	pop	{r4}
 800546c:	bc08      	pop	{r3}
 800546e:	b003      	add	sp, #12
 8005470:	4718      	bx	r3
 8005472:	46c0      	nop			@ (mov r8, r8)
 8005474:	7fffffff 	.word	0x7fffffff
 8005478:	20000018 	.word	0x20000018
 800547c:	ffff0208 	.word	0xffff0208

08005480 <__sread>:
 8005480:	b570      	push	{r4, r5, r6, lr}
 8005482:	000c      	movs	r4, r1
 8005484:	250e      	movs	r5, #14
 8005486:	5f49      	ldrsh	r1, [r1, r5]
 8005488:	f000 f926 	bl	80056d8 <_read_r>
 800548c:	2800      	cmp	r0, #0
 800548e:	db03      	blt.n	8005498 <__sread+0x18>
 8005490:	6d63      	ldr	r3, [r4, #84]	@ 0x54
 8005492:	181b      	adds	r3, r3, r0
 8005494:	6563      	str	r3, [r4, #84]	@ 0x54
 8005496:	bd70      	pop	{r4, r5, r6, pc}
 8005498:	89a3      	ldrh	r3, [r4, #12]
 800549a:	4a02      	ldr	r2, [pc, #8]	@ (80054a4 <__sread+0x24>)
 800549c:	4013      	ands	r3, r2
 800549e:	81a3      	strh	r3, [r4, #12]
 80054a0:	e7f9      	b.n	8005496 <__sread+0x16>
 80054a2:	46c0      	nop			@ (mov r8, r8)
 80054a4:	ffffefff 	.word	0xffffefff

080054a8 <__swrite>:
 80054a8:	b5f8      	push	{r3, r4, r5, r6, r7, lr}
 80054aa:	001f      	movs	r7, r3
 80054ac:	898b      	ldrh	r3, [r1, #12]
 80054ae:	0005      	movs	r5, r0
 80054b0:	000c      	movs	r4, r1
 80054b2:	0016      	movs	r6, r2
 80054b4:	05db      	lsls	r3, r3, #23
 80054b6:	d505      	bpl.n	80054c4 <__swrite+0x1c>
 80054b8:	230e      	movs	r3, #14
 80054ba:	5ec9      	ldrsh	r1, [r1, r3]
 80054bc:	2200      	movs	r2, #0
 80054be:	2302      	movs	r3, #2
 80054c0:	f000 f8f6 	bl	80056b0 <_lseek_r>
 80054c4:	89a3      	ldrh	r3, [r4, #12]
 80054c6:	4a05      	ldr	r2, [pc, #20]	@ (80054dc <__swrite+0x34>)
 80054c8:	0028      	movs	r0, r5
 80054ca:	4013      	ands	r3, r2
 80054cc:	81a3      	strh	r3, [r4, #12]
 80054ce:	0032      	movs	r2, r6
 80054d0:	230e      	movs	r3, #14
 80054d2:	5ee1      	ldrsh	r1, [r4, r3]
 80054d4:	003b      	movs	r3, r7
 80054d6:	f000 f913 	bl	8005700 <_write_r>
 80054da:	bdf8      	pop	{r3, r4, r5, r6, r7, pc}
 80054dc:	ffffefff 	.word	0xffffefff

080054e0 <__sseek>:
 80054e0:	b570      	push	{r4, r5, r6, lr}
 80054e2:	000c      	movs	r4, r1
 80054e4:	250e      	movs	r5, #14
 80054e6:	5f49      	ldrsh	r1, [r1, r5]
 80054e8:	f000 f8e2 	bl	80056b0 <_lseek_r>
 80054ec:	89a3      	ldrh	r3, [r4, #12]
 80054ee:	1c42      	adds	r2, r0, #1
 80054f0:	d103      	bne.n	80054fa <__sseek+0x1a>
 80054f2:	4a05      	ldr	r2, [pc, #20]	@ (8005508 <__sseek+0x28>)
 80054f4:	4013      	ands	r3, r2
 80054f6:	81a3      	strh	r3, [r4, #12]
 80054f8:	bd70      	pop	{r4, r5, r6, pc}
 80054fa:	2280      	movs	r2, #128	@ 0x80
 80054fc:	0152      	lsls	r2, r2, #5
 80054fe:	4313      	orrs	r3, r2
 8005500:	81a3      	strh	r3, [r4, #12]
 8005502:	6560      	str	r0, [r4, #84]	@ 0x54
 8005504:	e7f8      	b.n	80054f8 <__sseek+0x18>
 8005506:	46c0      	nop			@ (mov r8, r8)
 8005508:	ffffefff 	.word	0xffffefff

0800550c <__sclose>:
 800550c:	b510      	push	{r4, lr}
 800550e:	230e      	movs	r3, #14
 8005510:	5ec9      	ldrsh	r1, [r1, r3]
 8005512:	f000 f8bb 	bl	800568c <_close_r>
 8005516:	bd10      	pop	{r4, pc}

08005518 <__swbuf_r>:
 8005518:	b5f8      	push	{r3, r4, r5, r6, r7, lr}
 800551a:	0006      	movs	r6, r0
 800551c:	000d      	movs	r5, r1
 800551e:	0014      	movs	r4, r2
 8005520:	2800      	cmp	r0, #0
 8005522:	d004      	beq.n	800552e <__swbuf_r+0x16>
 8005524:	6a03      	ldr	r3, [r0, #32]
 8005526:	2b00      	cmp	r3, #0
 8005528:	d101      	bne.n	800552e <__swbuf_r+0x16>
 800552a:	f7ff fee3 	bl	80052f4 <__sinit>
 800552e:	69a3      	ldr	r3, [r4, #24]
 8005530:	60a3      	str	r3, [r4, #8]
 8005532:	89a3      	ldrh	r3, [r4, #12]
 8005534:	071b      	lsls	r3, r3, #28
 8005536:	d502      	bpl.n	800553e <__swbuf_r+0x26>
 8005538:	6923      	ldr	r3, [r4, #16]
 800553a:	2b00      	cmp	r3, #0
 800553c:	d109      	bne.n	8005552 <__swbuf_r+0x3a>
 800553e:	0021      	movs	r1, r4
 8005540:	0030      	movs	r0, r6
 8005542:	f000 f82b 	bl	800559c <__swsetup_r>
 8005546:	2800      	cmp	r0, #0
 8005548:	d003      	beq.n	8005552 <__swbuf_r+0x3a>
 800554a:	2501      	movs	r5, #1
 800554c:	426d      	negs	r5, r5
 800554e:	0028      	movs	r0, r5
 8005550:	bdf8      	pop	{r3, r4, r5, r6, r7, pc}
 8005552:	6923      	ldr	r3, [r4, #16]
 8005554:	6820      	ldr	r0, [r4, #0]
 8005556:	b2ef      	uxtb	r7, r5
 8005558:	1ac0      	subs	r0, r0, r3
 800555a:	6963      	ldr	r3, [r4, #20]
 800555c:	b2ed      	uxtb	r5, r5
 800555e:	4283      	cmp	r3, r0
 8005560:	dc05      	bgt.n	800556e <__swbuf_r+0x56>
 8005562:	0021      	movs	r1, r4
 8005564:	0030      	movs	r0, r6
 8005566:	f000 feb5 	bl	80062d4 <_fflush_r>
 800556a:	2800      	cmp	r0, #0
 800556c:	d1ed      	bne.n	800554a <__swbuf_r+0x32>
 800556e:	68a3      	ldr	r3, [r4, #8]
 8005570:	3001      	adds	r0, #1
 8005572:	3b01      	subs	r3, #1
 8005574:	60a3      	str	r3, [r4, #8]
 8005576:	6823      	ldr	r3, [r4, #0]
 8005578:	1c5a      	adds	r2, r3, #1
 800557a:	6022      	str	r2, [r4, #0]
 800557c:	701f      	strb	r7, [r3, #0]
 800557e:	6963      	ldr	r3, [r4, #20]
 8005580:	4283      	cmp	r3, r0
 8005582:	d004      	beq.n	800558e <__swbuf_r+0x76>
 8005584:	89a3      	ldrh	r3, [r4, #12]
 8005586:	07db      	lsls	r3, r3, #31
 8005588:	d5e1      	bpl.n	800554e <__swbuf_r+0x36>
 800558a:	2d0a      	cmp	r5, #10
 800558c:	d1df      	bne.n	800554e <__swbuf_r+0x36>
 800558e:	0021      	movs	r1, r4
 8005590:	0030      	movs	r0, r6
 8005592:	f000 fe9f 	bl	80062d4 <_fflush_r>
 8005596:	2800      	cmp	r0, #0
 8005598:	d0d9      	beq.n	800554e <__swbuf_r+0x36>
 800559a:	e7d6      	b.n	800554a <__swbuf_r+0x32>

0800559c <__swsetup_r>:
 800559c:	4b2d      	ldr	r3, [pc, #180]	@ (8005654 <__swsetup_r+0xb8>)
 800559e:	b570      	push	{r4, r5, r6, lr}
 80055a0:	0005      	movs	r5, r0
 80055a2:	6818      	ldr	r0, [r3, #0]
 80055a4:	000c      	movs	r4, r1
 80055a6:	2800      	cmp	r0, #0
 80055a8:	d004      	beq.n	80055b4 <__swsetup_r+0x18>
 80055aa:	6a03      	ldr	r3, [r0, #32]
 80055ac:	2b00      	cmp	r3, #0
 80055ae:	d101      	bne.n	80055b4 <__swsetup_r+0x18>
 80055b0:	f7ff fea0 	bl	80052f4 <__sinit>
 80055b4:	220c      	movs	r2, #12
 80055b6:	5ea3      	ldrsh	r3, [r4, r2]
 80055b8:	071a      	lsls	r2, r3, #28
 80055ba:	d423      	bmi.n	8005604 <__swsetup_r+0x68>
 80055bc:	06da      	lsls	r2, r3, #27
 80055be:	d407      	bmi.n	80055d0 <__swsetup_r+0x34>
 80055c0:	2209      	movs	r2, #9
 80055c2:	602a      	str	r2, [r5, #0]
 80055c4:	2240      	movs	r2, #64	@ 0x40
 80055c6:	2001      	movs	r0, #1
 80055c8:	4313      	orrs	r3, r2
 80055ca:	81a3      	strh	r3, [r4, #12]
 80055cc:	4240      	negs	r0, r0
 80055ce:	e03a      	b.n	8005646 <__swsetup_r+0xaa>
 80055d0:	075b      	lsls	r3, r3, #29
 80055d2:	d513      	bpl.n	80055fc <__swsetup_r+0x60>
 80055d4:	6b61      	ldr	r1, [r4, #52]	@ 0x34
 80055d6:	2900      	cmp	r1, #0
 80055d8:	d008      	beq.n	80055ec <__swsetup_r+0x50>
 80055da:	0023      	movs	r3, r4
 80055dc:	3344      	adds	r3, #68	@ 0x44
 80055de:	4299      	cmp	r1, r3
 80055e0:	d002      	beq.n	80055e8 <__swsetup_r+0x4c>
 80055e2:	0028      	movs	r0, r5
 80055e4:	f000 f8d6 	bl	8005794 <_free_r>
 80055e8:	2300      	movs	r3, #0
 80055ea:	6363      	str	r3, [r4, #52]	@ 0x34
 80055ec:	2224      	movs	r2, #36	@ 0x24
 80055ee:	89a3      	ldrh	r3, [r4, #12]
 80055f0:	4393      	bics	r3, r2
 80055f2:	81a3      	strh	r3, [r4, #12]
 80055f4:	2300      	movs	r3, #0
 80055f6:	6063      	str	r3, [r4, #4]
 80055f8:	6923      	ldr	r3, [r4, #16]
 80055fa:	6023      	str	r3, [r4, #0]
 80055fc:	2308      	movs	r3, #8
 80055fe:	89a2      	ldrh	r2, [r4, #12]
 8005600:	4313      	orrs	r3, r2
 8005602:	81a3      	strh	r3, [r4, #12]
 8005604:	6923      	ldr	r3, [r4, #16]
 8005606:	2b00      	cmp	r3, #0
 8005608:	d10b      	bne.n	8005622 <__swsetup_r+0x86>
 800560a:	21a0      	movs	r1, #160	@ 0xa0
 800560c:	2280      	movs	r2, #128	@ 0x80
 800560e:	89a3      	ldrh	r3, [r4, #12]
 8005610:	0089      	lsls	r1, r1, #2
 8005612:	0092      	lsls	r2, r2, #2
 8005614:	400b      	ands	r3, r1
 8005616:	4293      	cmp	r3, r2
 8005618:	d003      	beq.n	8005622 <__swsetup_r+0x86>
 800561a:	0021      	movs	r1, r4
 800561c:	0028      	movs	r0, r5
 800561e:	f000 feaf 	bl	8006380 <__smakebuf_r>
 8005622:	220c      	movs	r2, #12
 8005624:	5ea3      	ldrsh	r3, [r4, r2]
 8005626:	2101      	movs	r1, #1
 8005628:	001a      	movs	r2, r3
 800562a:	400a      	ands	r2, r1
 800562c:	420b      	tst	r3, r1
 800562e:	d00b      	beq.n	8005648 <__swsetup_r+0xac>
 8005630:	2200      	movs	r2, #0
 8005632:	60a2      	str	r2, [r4, #8]
 8005634:	6962      	ldr	r2, [r4, #20]
 8005636:	4252      	negs	r2, r2
 8005638:	61a2      	str	r2, [r4, #24]
 800563a:	2000      	movs	r0, #0
 800563c:	6922      	ldr	r2, [r4, #16]
 800563e:	4282      	cmp	r2, r0
 8005640:	d101      	bne.n	8005646 <__swsetup_r+0xaa>
 8005642:	061a      	lsls	r2, r3, #24
 8005644:	d4be      	bmi.n	80055c4 <__swsetup_r+0x28>
 8005646:	bd70      	pop	{r4, r5, r6, pc}
 8005648:	0799      	lsls	r1, r3, #30
 800564a:	d400      	bmi.n	800564e <__swsetup_r+0xb2>
 800564c:	6962      	ldr	r2, [r4, #20]
 800564e:	60a2      	str	r2, [r4, #8]
 8005650:	e7f3      	b.n	800563a <__swsetup_r+0x9e>
 8005652:	46c0      	nop			@ (mov r8, r8)
 8005654:	20000018 	.word	0x20000018

08005658 <memmove>:
 8005658:	b510      	push	{r4, lr}
 800565a:	4288      	cmp	r0, r1
 800565c:	d902      	bls.n	8005664 <memmove+0xc>
 800565e:	188b      	adds	r3, r1, r2
 8005660:	4298      	cmp	r0, r3
 8005662:	d308      	bcc.n	8005676 <memmove+0x1e>
 8005664:	2300      	movs	r3, #0
 8005666:	429a      	cmp	r2, r3
 8005668:	d007      	beq.n	800567a <memmove+0x22>
 800566a:	5ccc      	ldrb	r4, [r1, r3]
 800566c:	54c4      	strb	r4, [r0, r3]
 800566e:	3301      	adds	r3, #1
 8005670:	e7f9      	b.n	8005666 <memmove+0xe>
 8005672:	5c8b      	ldrb	r3, [r1, r2]
 8005674:	5483      	strb	r3, [r0, r2]
 8005676:	3a01      	subs	r2, #1
 8005678:	d2fb      	bcs.n	8005672 <memmove+0x1a>
 800567a:	bd10      	pop	{r4, pc}

0800567c <memset>:
 800567c:	0003      	movs	r3, r0
 800567e:	1882      	adds	r2, r0, r2
 8005680:	4293      	cmp	r3, r2
 8005682:	d100      	bne.n	8005686 <memset+0xa>
 8005684:	4770      	bx	lr
 8005686:	7019      	strb	r1, [r3, #0]
 8005688:	3301      	adds	r3, #1
 800568a:	e7f9      	b.n	8005680 <memset+0x4>

0800568c <_close_r>:
 800568c:	2300      	movs	r3, #0
 800568e:	b570      	push	{r4, r5, r6, lr}
 8005690:	4d06      	ldr	r5, [pc, #24]	@ (80056ac <_close_r+0x20>)
 8005692:	0004      	movs	r4, r0
 8005694:	0008      	movs	r0, r1
 8005696:	602b      	str	r3, [r5, #0]
 8005698:	f7fb fe42 	bl	8001320 <_close>
 800569c:	1c43      	adds	r3, r0, #1
 800569e:	d103      	bne.n	80056a8 <_close_r+0x1c>
 80056a0:	682b      	ldr	r3, [r5, #0]
 80056a2:	2b00      	cmp	r3, #0
 80056a4:	d000      	beq.n	80056a8 <_close_r+0x1c>
 80056a6:	6023      	str	r3, [r4, #0]
 80056a8:	bd70      	pop	{r4, r5, r6, pc}
 80056aa:	46c0      	nop			@ (mov r8, r8)
 80056ac:	20000934 	.word	0x20000934

080056b0 <_lseek_r>:
 80056b0:	b570      	push	{r4, r5, r6, lr}
 80056b2:	0004      	movs	r4, r0
 80056b4:	0008      	movs	r0, r1
 80056b6:	0011      	movs	r1, r2
 80056b8:	001a      	movs	r2, r3
 80056ba:	2300      	movs	r3, #0
 80056bc:	4d05      	ldr	r5, [pc, #20]	@ (80056d4 <_lseek_r+0x24>)
 80056be:	602b      	str	r3, [r5, #0]
 80056c0:	f7fb fe38 	bl	8001334 <_lseek>
 80056c4:	1c43      	adds	r3, r0, #1
 80056c6:	d103      	bne.n	80056d0 <_lseek_r+0x20>
 80056c8:	682b      	ldr	r3, [r5, #0]
 80056ca:	2b00      	cmp	r3, #0
 80056cc:	d000      	beq.n	80056d0 <_lseek_r+0x20>
 80056ce:	6023      	str	r3, [r4, #0]
 80056d0:	bd70      	pop	{r4, r5, r6, pc}
 80056d2:	46c0      	nop			@ (mov r8, r8)
 80056d4:	20000934 	.word	0x20000934

080056d8 <_read_r>:
 80056d8:	b570      	push	{r4, r5, r6, lr}
 80056da:	0004      	movs	r4, r0
 80056dc:	0008      	movs	r0, r1
 80056de:	0011      	movs	r1, r2
 80056e0:	001a      	movs	r2, r3
 80056e2:	2300      	movs	r3, #0
 80056e4:	4d05      	ldr	r5, [pc, #20]	@ (80056fc <_read_r+0x24>)
 80056e6:	602b      	str	r3, [r5, #0]
 80056e8:	f7fb fdff 	bl	80012ea <_read>
 80056ec:	1c43      	adds	r3, r0, #1
 80056ee:	d103      	bne.n	80056f8 <_read_r+0x20>
 80056f0:	682b      	ldr	r3, [r5, #0]
 80056f2:	2b00      	cmp	r3, #0
 80056f4:	d000      	beq.n	80056f8 <_read_r+0x20>
 80056f6:	6023      	str	r3, [r4, #0]
 80056f8:	bd70      	pop	{r4, r5, r6, pc}
 80056fa:	46c0      	nop			@ (mov r8, r8)
 80056fc:	20000934 	.word	0x20000934

08005700 <_write_r>:
 8005700:	b570      	push	{r4, r5, r6, lr}
 8005702:	0004      	movs	r4, r0
 8005704:	0008      	movs	r0, r1
 8005706:	0011      	movs	r1, r2
 8005708:	001a      	movs	r2, r3
 800570a:	2300      	movs	r3, #0
 800570c:	4d05      	ldr	r5, [pc, #20]	@ (8005724 <_write_r+0x24>)
 800570e:	602b      	str	r3, [r5, #0]
 8005710:	f7fb fdf8 	bl	8001304 <_write>
 8005714:	1c43      	adds	r3, r0, #1
 8005716:	d103      	bne.n	8005720 <_write_r+0x20>
 8005718:	682b      	ldr	r3, [r5, #0]
 800571a:	2b00      	cmp	r3, #0
 800571c:	d000      	beq.n	8005720 <_write_r+0x20>
 800571e:	6023      	str	r3, [r4, #0]
 8005720:	bd70      	pop	{r4, r5, r6, pc}
 8005722:	46c0      	nop			@ (mov r8, r8)
 8005724:	20000934 	.word	0x20000934

08005728 <__errno>:
 8005728:	4b01      	ldr	r3, [pc, #4]	@ (8005730 <__errno+0x8>)
 800572a:	6818      	ldr	r0, [r3, #0]
 800572c:	4770      	bx	lr
 800572e:	46c0      	nop			@ (mov r8, r8)
 8005730:	20000018 	.word	0x20000018

08005734 <__libc_init_array>:
 8005734:	b570      	push	{r4, r5, r6, lr}
 8005736:	2600      	movs	r6, #0
 8005738:	4c0c      	ldr	r4, [pc, #48]	@ (800576c <__libc_init_array+0x38>)
 800573a:	4d0d      	ldr	r5, [pc, #52]	@ (8005770 <__libc_init_array+0x3c>)
 800573c:	1b64      	subs	r4, r4, r5
 800573e:	10a4      	asrs	r4, r4, #2
 8005740:	42a6      	cmp	r6, r4
 8005742:	d109      	bne.n	8005758 <__libc_init_array+0x24>
 8005744:	2600      	movs	r6, #0
 8005746:	f000 fed7 	bl	80064f8 <_init>
 800574a:	4c0a      	ldr	r4, [pc, #40]	@ (8005774 <__libc_init_array+0x40>)
 800574c:	4d0a      	ldr	r5, [pc, #40]	@ (8005778 <__libc_init_array+0x44>)
 800574e:	1b64      	subs	r4, r4, r5
 8005750:	10a4      	asrs	r4, r4, #2
 8005752:	42a6      	cmp	r6, r4
 8005754:	d105      	bne.n	8005762 <__libc_init_array+0x2e>
 8005756:	bd70      	pop	{r4, r5, r6, pc}
 8005758:	00b3      	lsls	r3, r6, #2
 800575a:	58eb      	ldr	r3, [r5, r3]
 800575c:	4798      	blx	r3
 800575e:	3601      	adds	r6, #1
 8005760:	e7ee      	b.n	8005740 <__libc_init_array+0xc>
 8005762:	00b3      	lsls	r3, r6, #2
 8005764:	58eb      	ldr	r3, [r5, r3]
 8005766:	4798      	blx	r3
 8005768:	3601      	adds	r6, #1
 800576a:	e7f2      	b.n	8005752 <__libc_init_array+0x1e>
 800576c:	08007a98 	.word	0x08007a98
 8005770:	08007a98 	.word	0x08007a98
 8005774:	08007a9c 	.word	0x08007a9c
 8005778:	08007a98 	.word	0x08007a98

0800577c <__retarget_lock_init_recursive>:
 800577c:	4770      	bx	lr

0800577e <__retarget_lock_acquire_recursive>:
 800577e:	4770      	bx	lr

08005780 <__retarget_lock_release_recursive>:
 8005780:	4770      	bx	lr

08005782 <memcpy>:
 8005782:	2300      	movs	r3, #0
 8005784:	b510      	push	{r4, lr}
 8005786:	429a      	cmp	r2, r3
 8005788:	d100      	bne.n	800578c <memcpy+0xa>
 800578a:	bd10      	pop	{r4, pc}
 800578c:	5ccc      	ldrb	r4, [r1, r3]
 800578e:	54c4      	strb	r4, [r0, r3]
 8005790:	3301      	adds	r3, #1
 8005792:	e7f8      	b.n	8005786 <memcpy+0x4>

08005794 <_free_r>:
 8005794:	b570      	push	{r4, r5, r6, lr}
 8005796:	0005      	movs	r5, r0
 8005798:	1e0c      	subs	r4, r1, #0
 800579a:	d010      	beq.n	80057be <_free_r+0x2a>
 800579c:	3c04      	subs	r4, #4
 800579e:	6823      	ldr	r3, [r4, #0]
 80057a0:	2b00      	cmp	r3, #0
 80057a2:	da00      	bge.n	80057a6 <_free_r+0x12>
 80057a4:	18e4      	adds	r4, r4, r3
 80057a6:	0028      	movs	r0, r5
 80057a8:	f000 f8e0 	bl	800596c <__malloc_lock>
 80057ac:	4a1d      	ldr	r2, [pc, #116]	@ (8005824 <_free_r+0x90>)
 80057ae:	6813      	ldr	r3, [r2, #0]
 80057b0:	2b00      	cmp	r3, #0
 80057b2:	d105      	bne.n	80057c0 <_free_r+0x2c>
 80057b4:	6063      	str	r3, [r4, #4]
 80057b6:	6014      	str	r4, [r2, #0]
 80057b8:	0028      	movs	r0, r5
 80057ba:	f000 f8df 	bl	800597c <__malloc_unlock>
 80057be:	bd70      	pop	{r4, r5, r6, pc}
 80057c0:	42a3      	cmp	r3, r4
 80057c2:	d908      	bls.n	80057d6 <_free_r+0x42>
 80057c4:	6820      	ldr	r0, [r4, #0]
 80057c6:	1821      	adds	r1, r4, r0
 80057c8:	428b      	cmp	r3, r1
 80057ca:	d1f3      	bne.n	80057b4 <_free_r+0x20>
 80057cc:	6819      	ldr	r1, [r3, #0]
 80057ce:	685b      	ldr	r3, [r3, #4]
 80057d0:	1809      	adds	r1, r1, r0
 80057d2:	6021      	str	r1, [r4, #0]
 80057d4:	e7ee      	b.n	80057b4 <_free_r+0x20>
 80057d6:	001a      	movs	r2, r3
 80057d8:	685b      	ldr	r3, [r3, #4]
 80057da:	2b00      	cmp	r3, #0
 80057dc:	d001      	beq.n	80057e2 <_free_r+0x4e>
 80057de:	42a3      	cmp	r3, r4
 80057e0:	d9f9      	bls.n	80057d6 <_free_r+0x42>
 80057e2:	6811      	ldr	r1, [r2, #0]
 80057e4:	1850      	adds	r0, r2, r1
 80057e6:	42a0      	cmp	r0, r4
 80057e8:	d10b      	bne.n	8005802 <_free_r+0x6e>
 80057ea:	6820      	ldr	r0, [r4, #0]
 80057ec:	1809      	adds	r1, r1, r0
 80057ee:	1850      	adds	r0, r2, r1
 80057f0:	6011      	str	r1, [r2, #0]
 80057f2:	4283      	cmp	r3, r0
 80057f4:	d1e0      	bne.n	80057b8 <_free_r+0x24>
 80057f6:	6818      	ldr	r0, [r3, #0]
 80057f8:	685b      	ldr	r3, [r3, #4]
 80057fa:	1841      	adds	r1, r0, r1
 80057fc:	6011      	str	r1, [r2, #0]
 80057fe:	6053      	str	r3, [r2, #4]
 8005800:	e7da      	b.n	80057b8 <_free_r+0x24>
 8005802:	42a0      	cmp	r0, r4
 8005804:	d902      	bls.n	800580c <_free_r+0x78>
 8005806:	230c      	movs	r3, #12
 8005808:	602b      	str	r3, [r5, #0]
 800580a:	e7d5      	b.n	80057b8 <_free_r+0x24>
 800580c:	6820      	ldr	r0, [r4, #0]
 800580e:	1821      	adds	r1, r4, r0
 8005810:	428b      	cmp	r3, r1
 8005812:	d103      	bne.n	800581c <_free_r+0x88>
 8005814:	6819      	ldr	r1, [r3, #0]
 8005816:	685b      	ldr	r3, [r3, #4]
 8005818:	1809      	adds	r1, r1, r0
 800581a:	6021      	str	r1, [r4, #0]
 800581c:	6063      	str	r3, [r4, #4]
 800581e:	6054      	str	r4, [r2, #4]
 8005820:	e7ca      	b.n	80057b8 <_free_r+0x24>
 8005822:	46c0      	nop			@ (mov r8, r8)
 8005824:	20000940 	.word	0x20000940

08005828 <sbrk_aligned>:
 8005828:	b570      	push	{r4, r5, r6, lr}
 800582a:	4e0f      	ldr	r6, [pc, #60]	@ (8005868 <sbrk_aligned+0x40>)
 800582c:	000d      	movs	r5, r1
 800582e:	6831      	ldr	r1, [r6, #0]
 8005830:	0004      	movs	r4, r0
 8005832:	2900      	cmp	r1, #0
 8005834:	d102      	bne.n	800583c <sbrk_aligned+0x14>
 8005836:	f000 fe09 	bl	800644c <_sbrk_r>
 800583a:	6030      	str	r0, [r6, #0]
 800583c:	0029      	movs	r1, r5
 800583e:	0020      	movs	r0, r4
 8005840:	f000 fe04 	bl	800644c <_sbrk_r>
 8005844:	1c43      	adds	r3, r0, #1
 8005846:	d103      	bne.n	8005850 <sbrk_aligned+0x28>
 8005848:	2501      	movs	r5, #1
 800584a:	426d      	negs	r5, r5
 800584c:	0028      	movs	r0, r5
 800584e:	bd70      	pop	{r4, r5, r6, pc}
 8005850:	2303      	movs	r3, #3
 8005852:	1cc5      	adds	r5, r0, #3
 8005854:	439d      	bics	r5, r3
 8005856:	42a8      	cmp	r0, r5
 8005858:	d0f8      	beq.n	800584c <sbrk_aligned+0x24>
 800585a:	1a29      	subs	r1, r5, r0
 800585c:	0020      	movs	r0, r4
 800585e:	f000 fdf5 	bl	800644c <_sbrk_r>
 8005862:	3001      	adds	r0, #1
 8005864:	d1f2      	bne.n	800584c <sbrk_aligned+0x24>
 8005866:	e7ef      	b.n	8005848 <sbrk_aligned+0x20>
 8005868:	2000093c 	.word	0x2000093c

0800586c <_malloc_r>:
 800586c:	b5f7      	push	{r0, r1, r2, r4, r5, r6, r7, lr}
 800586e:	2203      	movs	r2, #3
 8005870:	1ccb      	adds	r3, r1, #3
 8005872:	4393      	bics	r3, r2
 8005874:	3308      	adds	r3, #8
 8005876:	0005      	movs	r5, r0
 8005878:	001f      	movs	r7, r3
 800587a:	2b0c      	cmp	r3, #12
 800587c:	d234      	bcs.n	80058e8 <_malloc_r+0x7c>
 800587e:	270c      	movs	r7, #12
 8005880:	42b9      	cmp	r1, r7
 8005882:	d833      	bhi.n	80058ec <_malloc_r+0x80>
 8005884:	0028      	movs	r0, r5
 8005886:	f000 f871 	bl	800596c <__malloc_lock>
 800588a:	4e37      	ldr	r6, [pc, #220]	@ (8005968 <_malloc_r+0xfc>)
 800588c:	6833      	ldr	r3, [r6, #0]
 800588e:	001c      	movs	r4, r3
 8005890:	2c00      	cmp	r4, #0
 8005892:	d12f      	bne.n	80058f4 <_malloc_r+0x88>
 8005894:	0039      	movs	r1, r7
 8005896:	0028      	movs	r0, r5
 8005898:	f7ff ffc6 	bl	8005828 <sbrk_aligned>
 800589c:	0004      	movs	r4, r0
 800589e:	1c43      	adds	r3, r0, #1
 80058a0:	d15f      	bne.n	8005962 <_malloc_r+0xf6>
 80058a2:	6834      	ldr	r4, [r6, #0]
 80058a4:	9400      	str	r4, [sp, #0]
 80058a6:	9b00      	ldr	r3, [sp, #0]
 80058a8:	2b00      	cmp	r3, #0
 80058aa:	d14a      	bne.n	8005942 <_malloc_r+0xd6>
 80058ac:	2c00      	cmp	r4, #0
 80058ae:	d052      	beq.n	8005956 <_malloc_r+0xea>
 80058b0:	6823      	ldr	r3, [r4, #0]
 80058b2:	0028      	movs	r0, r5
 80058b4:	18e3      	adds	r3, r4, r3
 80058b6:	9900      	ldr	r1, [sp, #0]
 80058b8:	9301      	str	r3, [sp, #4]
 80058ba:	f000 fdc7 	bl	800644c <_sbrk_r>
 80058be:	9b01      	ldr	r3, [sp, #4]
 80058c0:	4283      	cmp	r3, r0
 80058c2:	d148      	bne.n	8005956 <_malloc_r+0xea>
 80058c4:	6823      	ldr	r3, [r4, #0]
 80058c6:	0028      	movs	r0, r5
 80058c8:	1aff      	subs	r7, r7, r3
 80058ca:	0039      	movs	r1, r7
 80058cc:	f7ff ffac 	bl	8005828 <sbrk_aligned>
 80058d0:	3001      	adds	r0, #1
 80058d2:	d040      	beq.n	8005956 <_malloc_r+0xea>
 80058d4:	6823      	ldr	r3, [r4, #0]
 80058d6:	19db      	adds	r3, r3, r7
 80058d8:	6023      	str	r3, [r4, #0]
 80058da:	6833      	ldr	r3, [r6, #0]
 80058dc:	685a      	ldr	r2, [r3, #4]
 80058de:	2a00      	cmp	r2, #0
 80058e0:	d133      	bne.n	800594a <_malloc_r+0xde>
 80058e2:	9b00      	ldr	r3, [sp, #0]
 80058e4:	6033      	str	r3, [r6, #0]
 80058e6:	e019      	b.n	800591c <_malloc_r+0xb0>
 80058e8:	2b00      	cmp	r3, #0
 80058ea:	dac9      	bge.n	8005880 <_malloc_r+0x14>
 80058ec:	230c      	movs	r3, #12
 80058ee:	602b      	str	r3, [r5, #0]
 80058f0:	2000      	movs	r0, #0
 80058f2:	bdfe      	pop	{r1, r2, r3, r4, r5, r6, r7, pc}
 80058f4:	6821      	ldr	r1, [r4, #0]
 80058f6:	1bc9      	subs	r1, r1, r7
 80058f8:	d420      	bmi.n	800593c <_malloc_r+0xd0>
 80058fa:	290b      	cmp	r1, #11
 80058fc:	d90a      	bls.n	8005914 <_malloc_r+0xa8>
 80058fe:	19e2      	adds	r2, r4, r7
 8005900:	6027      	str	r7, [r4, #0]
 8005902:	42a3      	cmp	r3, r4
 8005904:	d104      	bne.n	8005910 <_malloc_r+0xa4>
 8005906:	6032      	str	r2, [r6, #0]
 8005908:	6863      	ldr	r3, [r4, #4]
 800590a:	6011      	str	r1, [r2, #0]
 800590c:	6053      	str	r3, [r2, #4]
 800590e:	e005      	b.n	800591c <_malloc_r+0xb0>
 8005910:	605a      	str	r2, [r3, #4]
 8005912:	e7f9      	b.n	8005908 <_malloc_r+0x9c>
 8005914:	6862      	ldr	r2, [r4, #4]
 8005916:	42a3      	cmp	r3, r4
 8005918:	d10e      	bne.n	8005938 <_malloc_r+0xcc>
 800591a:	6032      	str	r2, [r6, #0]
 800591c:	0028      	movs	r0, r5
 800591e:	f000 f82d 	bl	800597c <__malloc_unlock>
 8005922:	0020      	movs	r0, r4
 8005924:	2207      	movs	r2, #7
 8005926:	300b      	adds	r0, #11
 8005928:	1d23      	adds	r3, r4, #4
 800592a:	4390      	bics	r0, r2
 800592c:	1ac2      	subs	r2, r0, r3
 800592e:	4298      	cmp	r0, r3
 8005930:	d0df      	beq.n	80058f2 <_malloc_r+0x86>
 8005932:	1a1b      	subs	r3, r3, r0
 8005934:	50a3      	str	r3, [r4, r2]
 8005936:	e7dc      	b.n	80058f2 <_malloc_r+0x86>
 8005938:	605a      	str	r2, [r3, #4]
 800593a:	e7ef      	b.n	800591c <_malloc_r+0xb0>
 800593c:	0023      	movs	r3, r4
 800593e:	6864      	ldr	r4, [r4, #4]
 8005940:	e7a6      	b.n	8005890 <_malloc_r+0x24>
 8005942:	9c00      	ldr	r4, [sp, #0]
 8005944:	6863      	ldr	r3, [r4, #4]
 8005946:	9300      	str	r3, [sp, #0]
 8005948:	e7ad      	b.n	80058a6 <_malloc_r+0x3a>
 800594a:	001a      	movs	r2, r3
 800594c:	685b      	ldr	r3, [r3, #4]
 800594e:	42a3      	cmp	r3, r4
 8005950:	d1fb      	bne.n	800594a <_malloc_r+0xde>
 8005952:	2300      	movs	r3, #0
 8005954:	e7da      	b.n	800590c <_malloc_r+0xa0>
 8005956:	230c      	movs	r3, #12
 8005958:	0028      	movs	r0, r5
 800595a:	602b      	str	r3, [r5, #0]
 800595c:	f000 f80e 	bl	800597c <__malloc_unlock>
 8005960:	e7c6      	b.n	80058f0 <_malloc_r+0x84>
 8005962:	6007      	str	r7, [r0, #0]
 8005964:	e7da      	b.n	800591c <_malloc_r+0xb0>
 8005966:	46c0      	nop			@ (mov r8, r8)
 8005968:	20000940 	.word	0x20000940

0800596c <__malloc_lock>:
 800596c:	b510      	push	{r4, lr}
 800596e:	4802      	ldr	r0, [pc, #8]	@ (8005978 <__malloc_lock+0xc>)
 8005970:	f7ff ff05 	bl	800577e <__retarget_lock_acquire_recursive>
 8005974:	bd10      	pop	{r4, pc}
 8005976:	46c0      	nop			@ (mov r8, r8)
 8005978:	20000938 	.word	0x20000938

0800597c <__malloc_unlock>:
 800597c:	b510      	push	{r4, lr}
 800597e:	4802      	ldr	r0, [pc, #8]	@ (8005988 <__malloc_unlock+0xc>)
 8005980:	f7ff fefe 	bl	8005780 <__retarget_lock_release_recursive>
 8005984:	bd10      	pop	{r4, pc}
 8005986:	46c0      	nop			@ (mov r8, r8)
 8005988:	20000938 	.word	0x20000938

0800598c <__ssputs_r>:
 800598c:	b5f0      	push	{r4, r5, r6, r7, lr}
 800598e:	688e      	ldr	r6, [r1, #8]
 8005990:	b085      	sub	sp, #20
 8005992:	001f      	movs	r7, r3
 8005994:	000c      	movs	r4, r1
 8005996:	680b      	ldr	r3, [r1, #0]
 8005998:	9002      	str	r0, [sp, #8]
 800599a:	9203      	str	r2, [sp, #12]
 800599c:	42be      	cmp	r6, r7
 800599e:	d830      	bhi.n	8005a02 <__ssputs_r+0x76>
 80059a0:	210c      	movs	r1, #12
 80059a2:	5e62      	ldrsh	r2, [r4, r1]
 80059a4:	2190      	movs	r1, #144	@ 0x90
 80059a6:	00c9      	lsls	r1, r1, #3
 80059a8:	420a      	tst	r2, r1
 80059aa:	d028      	beq.n	80059fe <__ssputs_r+0x72>
 80059ac:	2003      	movs	r0, #3
 80059ae:	6921      	ldr	r1, [r4, #16]
 80059b0:	1a5b      	subs	r3, r3, r1
 80059b2:	9301      	str	r3, [sp, #4]
 80059b4:	6963      	ldr	r3, [r4, #20]
 80059b6:	4343      	muls	r3, r0
 80059b8:	9801      	ldr	r0, [sp, #4]
 80059ba:	0fdd      	lsrs	r5, r3, #31
 80059bc:	18ed      	adds	r5, r5, r3
 80059be:	1c7b      	adds	r3, r7, #1
 80059c0:	181b      	adds	r3, r3, r0
 80059c2:	106d      	asrs	r5, r5, #1
 80059c4:	42ab      	cmp	r3, r5
 80059c6:	d900      	bls.n	80059ca <__ssputs_r+0x3e>
 80059c8:	001d      	movs	r5, r3
 80059ca:	0552      	lsls	r2, r2, #21
 80059cc:	d528      	bpl.n	8005a20 <__ssputs_r+0x94>
 80059ce:	0029      	movs	r1, r5
 80059d0:	9802      	ldr	r0, [sp, #8]
 80059d2:	f7ff ff4b 	bl	800586c <_malloc_r>
 80059d6:	1e06      	subs	r6, r0, #0
 80059d8:	d02c      	beq.n	8005a34 <__ssputs_r+0xa8>
 80059da:	9a01      	ldr	r2, [sp, #4]
 80059dc:	6921      	ldr	r1, [r4, #16]
 80059de:	f7ff fed0 	bl	8005782 <memcpy>
 80059e2:	89a2      	ldrh	r2, [r4, #12]
 80059e4:	4b18      	ldr	r3, [pc, #96]	@ (8005a48 <__ssputs_r+0xbc>)
 80059e6:	401a      	ands	r2, r3
 80059e8:	2380      	movs	r3, #128	@ 0x80
 80059ea:	4313      	orrs	r3, r2
 80059ec:	81a3      	strh	r3, [r4, #12]
 80059ee:	9b01      	ldr	r3, [sp, #4]
 80059f0:	6126      	str	r6, [r4, #16]
 80059f2:	18f6      	adds	r6, r6, r3
 80059f4:	6026      	str	r6, [r4, #0]
 80059f6:	003e      	movs	r6, r7
 80059f8:	6165      	str	r5, [r4, #20]
 80059fa:	1aed      	subs	r5, r5, r3
 80059fc:	60a5      	str	r5, [r4, #8]
 80059fe:	42be      	cmp	r6, r7
 8005a00:	d900      	bls.n	8005a04 <__ssputs_r+0x78>
 8005a02:	003e      	movs	r6, r7
 8005a04:	0032      	movs	r2, r6
 8005a06:	9903      	ldr	r1, [sp, #12]
 8005a08:	6820      	ldr	r0, [r4, #0]
 8005a0a:	f7ff fe25 	bl	8005658 <memmove>
 8005a0e:	2000      	movs	r0, #0
 8005a10:	68a3      	ldr	r3, [r4, #8]
 8005a12:	1b9b      	subs	r3, r3, r6
 8005a14:	60a3      	str	r3, [r4, #8]
 8005a16:	6823      	ldr	r3, [r4, #0]
 8005a18:	199b      	adds	r3, r3, r6
 8005a1a:	6023      	str	r3, [r4, #0]
 8005a1c:	b005      	add	sp, #20
 8005a1e:	bdf0      	pop	{r4, r5, r6, r7, pc}
 8005a20:	002a      	movs	r2, r5
 8005a22:	9802      	ldr	r0, [sp, #8]
 8005a24:	f000 fd2f 	bl	8006486 <_realloc_r>
 8005a28:	1e06      	subs	r6, r0, #0
 8005a2a:	d1e0      	bne.n	80059ee <__ssputs_r+0x62>
 8005a2c:	6921      	ldr	r1, [r4, #16]
 8005a2e:	9802      	ldr	r0, [sp, #8]
 8005a30:	f7ff feb0 	bl	8005794 <_free_r>
 8005a34:	230c      	movs	r3, #12
 8005a36:	2001      	movs	r0, #1
 8005a38:	9a02      	ldr	r2, [sp, #8]
 8005a3a:	4240      	negs	r0, r0
 8005a3c:	6013      	str	r3, [r2, #0]
 8005a3e:	89a2      	ldrh	r2, [r4, #12]
 8005a40:	3334      	adds	r3, #52	@ 0x34
 8005a42:	4313      	orrs	r3, r2
 8005a44:	81a3      	strh	r3, [r4, #12]
 8005a46:	e7e9      	b.n	8005a1c <__ssputs_r+0x90>
 8005a48:	fffffb7f 	.word	0xfffffb7f

08005a4c <_svfiprintf_r>:
 8005a4c:	b5f0      	push	{r4, r5, r6, r7, lr}
 8005a4e:	b0a1      	sub	sp, #132	@ 0x84
 8005a50:	9003      	str	r0, [sp, #12]
 8005a52:	001d      	movs	r5, r3
 8005a54:	898b      	ldrh	r3, [r1, #12]
 8005a56:	000f      	movs	r7, r1
 8005a58:	0016      	movs	r6, r2
 8005a5a:	061b      	lsls	r3, r3, #24
 8005a5c:	d511      	bpl.n	8005a82 <_svfiprintf_r+0x36>
 8005a5e:	690b      	ldr	r3, [r1, #16]
 8005a60:	2b00      	cmp	r3, #0
 8005a62:	d10e      	bne.n	8005a82 <_svfiprintf_r+0x36>
 8005a64:	2140      	movs	r1, #64	@ 0x40
 8005a66:	f7ff ff01 	bl	800586c <_malloc_r>
 8005a6a:	6038      	str	r0, [r7, #0]
 8005a6c:	6138      	str	r0, [r7, #16]
 8005a6e:	2800      	cmp	r0, #0
 8005a70:	d105      	bne.n	8005a7e <_svfiprintf_r+0x32>
 8005a72:	230c      	movs	r3, #12
 8005a74:	9a03      	ldr	r2, [sp, #12]
 8005a76:	6013      	str	r3, [r2, #0]
 8005a78:	2001      	movs	r0, #1
 8005a7a:	4240      	negs	r0, r0
 8005a7c:	e0cf      	b.n	8005c1e <_svfiprintf_r+0x1d2>
 8005a7e:	2340      	movs	r3, #64	@ 0x40
 8005a80:	617b      	str	r3, [r7, #20]
 8005a82:	2300      	movs	r3, #0
 8005a84:	ac08      	add	r4, sp, #32
 8005a86:	6163      	str	r3, [r4, #20]
 8005a88:	3320      	adds	r3, #32
 8005a8a:	7663      	strb	r3, [r4, #25]
 8005a8c:	3310      	adds	r3, #16
 8005a8e:	76a3      	strb	r3, [r4, #26]
 8005a90:	9507      	str	r5, [sp, #28]
 8005a92:	0035      	movs	r5, r6
 8005a94:	782b      	ldrb	r3, [r5, #0]
 8005a96:	2b00      	cmp	r3, #0
 8005a98:	d001      	beq.n	8005a9e <_svfiprintf_r+0x52>
 8005a9a:	2b25      	cmp	r3, #37	@ 0x25
 8005a9c:	d148      	bne.n	8005b30 <_svfiprintf_r+0xe4>
 8005a9e:	1bab      	subs	r3, r5, r6
 8005aa0:	9305      	str	r3, [sp, #20]
 8005aa2:	42b5      	cmp	r5, r6
 8005aa4:	d00b      	beq.n	8005abe <_svfiprintf_r+0x72>
 8005aa6:	0032      	movs	r2, r6
 8005aa8:	0039      	movs	r1, r7
 8005aaa:	9803      	ldr	r0, [sp, #12]
 8005aac:	f7ff ff6e 	bl	800598c <__ssputs_r>
 8005ab0:	3001      	adds	r0, #1
 8005ab2:	d100      	bne.n	8005ab6 <_svfiprintf_r+0x6a>
 8005ab4:	e0ae      	b.n	8005c14 <_svfiprintf_r+0x1c8>
 8005ab6:	6963      	ldr	r3, [r4, #20]
 8005ab8:	9a05      	ldr	r2, [sp, #20]
 8005aba:	189b      	adds	r3, r3, r2
 8005abc:	6163      	str	r3, [r4, #20]
 8005abe:	782b      	ldrb	r3, [r5, #0]
 8005ac0:	2b00      	cmp	r3, #0
 8005ac2:	d100      	bne.n	8005ac6 <_svfiprintf_r+0x7a>
 8005ac4:	e0a6      	b.n	8005c14 <_svfiprintf_r+0x1c8>
 8005ac6:	2201      	movs	r2, #1
 8005ac8:	2300      	movs	r3, #0
 8005aca:	4252      	negs	r2, r2
 8005acc:	6062      	str	r2, [r4, #4]
 8005ace:	a904      	add	r1, sp, #16
 8005ad0:	3254      	adds	r2, #84	@ 0x54
 8005ad2:	1852      	adds	r2, r2, r1
 8005ad4:	1c6e      	adds	r6, r5, #1
 8005ad6:	6023      	str	r3, [r4, #0]
 8005ad8:	60e3      	str	r3, [r4, #12]
 8005ada:	60a3      	str	r3, [r4, #8]
 8005adc:	7013      	strb	r3, [r2, #0]
 8005ade:	65a3      	str	r3, [r4, #88]	@ 0x58
 8005ae0:	4b54      	ldr	r3, [pc, #336]	@ (8005c34 <_svfiprintf_r+0x1e8>)
 8005ae2:	2205      	movs	r2, #5
 8005ae4:	0018      	movs	r0, r3
 8005ae6:	7831      	ldrb	r1, [r6, #0]
 8005ae8:	9305      	str	r3, [sp, #20]
 8005aea:	f000 fcc1 	bl	8006470 <memchr>
 8005aee:	1c75      	adds	r5, r6, #1
 8005af0:	2800      	cmp	r0, #0
 8005af2:	d11f      	bne.n	8005b34 <_svfiprintf_r+0xe8>
 8005af4:	6822      	ldr	r2, [r4, #0]
 8005af6:	06d3      	lsls	r3, r2, #27
 8005af8:	d504      	bpl.n	8005b04 <_svfiprintf_r+0xb8>
 8005afa:	2353      	movs	r3, #83	@ 0x53
 8005afc:	a904      	add	r1, sp, #16
 8005afe:	185b      	adds	r3, r3, r1
 8005b00:	2120      	movs	r1, #32
 8005b02:	7019      	strb	r1, [r3, #0]
 8005b04:	0713      	lsls	r3, r2, #28
 8005b06:	d504      	bpl.n	8005b12 <_svfiprintf_r+0xc6>
 8005b08:	2353      	movs	r3, #83	@ 0x53
 8005b0a:	a904      	add	r1, sp, #16
 8005b0c:	185b      	adds	r3, r3, r1
 8005b0e:	212b      	movs	r1, #43	@ 0x2b
 8005b10:	7019      	strb	r1, [r3, #0]
 8005b12:	7833      	ldrb	r3, [r6, #0]
 8005b14:	2b2a      	cmp	r3, #42	@ 0x2a
 8005b16:	d016      	beq.n	8005b46 <_svfiprintf_r+0xfa>
 8005b18:	0035      	movs	r5, r6
 8005b1a:	2100      	movs	r1, #0
 8005b1c:	200a      	movs	r0, #10
 8005b1e:	68e3      	ldr	r3, [r4, #12]
 8005b20:	782a      	ldrb	r2, [r5, #0]
 8005b22:	1c6e      	adds	r6, r5, #1
 8005b24:	3a30      	subs	r2, #48	@ 0x30
 8005b26:	2a09      	cmp	r2, #9
 8005b28:	d950      	bls.n	8005bcc <_svfiprintf_r+0x180>
 8005b2a:	2900      	cmp	r1, #0
 8005b2c:	d111      	bne.n	8005b52 <_svfiprintf_r+0x106>
 8005b2e:	e017      	b.n	8005b60 <_svfiprintf_r+0x114>
 8005b30:	3501      	adds	r5, #1
 8005b32:	e7af      	b.n	8005a94 <_svfiprintf_r+0x48>
 8005b34:	9b05      	ldr	r3, [sp, #20]
 8005b36:	6822      	ldr	r2, [r4, #0]
 8005b38:	1ac0      	subs	r0, r0, r3
 8005b3a:	2301      	movs	r3, #1
 8005b3c:	4083      	lsls	r3, r0
 8005b3e:	4313      	orrs	r3, r2
 8005b40:	002e      	movs	r6, r5
 8005b42:	6023      	str	r3, [r4, #0]
 8005b44:	e7cc      	b.n	8005ae0 <_svfiprintf_r+0x94>
 8005b46:	9b07      	ldr	r3, [sp, #28]
 8005b48:	1d19      	adds	r1, r3, #4
 8005b4a:	681b      	ldr	r3, [r3, #0]
 8005b4c:	9107      	str	r1, [sp, #28]
 8005b4e:	2b00      	cmp	r3, #0
 8005b50:	db01      	blt.n	8005b56 <_svfiprintf_r+0x10a>
 8005b52:	930b      	str	r3, [sp, #44]	@ 0x2c
 8005b54:	e004      	b.n	8005b60 <_svfiprintf_r+0x114>
 8005b56:	425b      	negs	r3, r3
 8005b58:	60e3      	str	r3, [r4, #12]
 8005b5a:	2302      	movs	r3, #2
 8005b5c:	4313      	orrs	r3, r2
 8005b5e:	6023      	str	r3, [r4, #0]
 8005b60:	782b      	ldrb	r3, [r5, #0]
 8005b62:	2b2e      	cmp	r3, #46	@ 0x2e
 8005b64:	d10c      	bne.n	8005b80 <_svfiprintf_r+0x134>
 8005b66:	786b      	ldrb	r3, [r5, #1]
 8005b68:	2b2a      	cmp	r3, #42	@ 0x2a
 8005b6a:	d134      	bne.n	8005bd6 <_svfiprintf_r+0x18a>
 8005b6c:	9b07      	ldr	r3, [sp, #28]
 8005b6e:	3502      	adds	r5, #2
 8005b70:	1d1a      	adds	r2, r3, #4
 8005b72:	681b      	ldr	r3, [r3, #0]
 8005b74:	9207      	str	r2, [sp, #28]
 8005b76:	2b00      	cmp	r3, #0
 8005b78:	da01      	bge.n	8005b7e <_svfiprintf_r+0x132>
 8005b7a:	2301      	movs	r3, #1
 8005b7c:	425b      	negs	r3, r3
 8005b7e:	9309      	str	r3, [sp, #36]	@ 0x24
 8005b80:	4e2d      	ldr	r6, [pc, #180]	@ (8005c38 <_svfiprintf_r+0x1ec>)
 8005b82:	2203      	movs	r2, #3
 8005b84:	0030      	movs	r0, r6
 8005b86:	7829      	ldrb	r1, [r5, #0]
 8005b88:	f000 fc72 	bl	8006470 <memchr>
 8005b8c:	2800      	cmp	r0, #0
 8005b8e:	d006      	beq.n	8005b9e <_svfiprintf_r+0x152>
 8005b90:	2340      	movs	r3, #64	@ 0x40
 8005b92:	1b80      	subs	r0, r0, r6
 8005b94:	4083      	lsls	r3, r0
 8005b96:	6822      	ldr	r2, [r4, #0]
 8005b98:	3501      	adds	r5, #1
 8005b9a:	4313      	orrs	r3, r2
 8005b9c:	6023      	str	r3, [r4, #0]
 8005b9e:	7829      	ldrb	r1, [r5, #0]
 8005ba0:	2206      	movs	r2, #6
 8005ba2:	4826      	ldr	r0, [pc, #152]	@ (8005c3c <_svfiprintf_r+0x1f0>)
 8005ba4:	1c6e      	adds	r6, r5, #1
 8005ba6:	7621      	strb	r1, [r4, #24]
 8005ba8:	f000 fc62 	bl	8006470 <memchr>
 8005bac:	2800      	cmp	r0, #0
 8005bae:	d038      	beq.n	8005c22 <_svfiprintf_r+0x1d6>
 8005bb0:	4b23      	ldr	r3, [pc, #140]	@ (8005c40 <_svfiprintf_r+0x1f4>)
 8005bb2:	2b00      	cmp	r3, #0
 8005bb4:	d122      	bne.n	8005bfc <_svfiprintf_r+0x1b0>
 8005bb6:	2207      	movs	r2, #7
 8005bb8:	9b07      	ldr	r3, [sp, #28]
 8005bba:	3307      	adds	r3, #7
 8005bbc:	4393      	bics	r3, r2
 8005bbe:	3308      	adds	r3, #8
 8005bc0:	9307      	str	r3, [sp, #28]
 8005bc2:	6963      	ldr	r3, [r4, #20]
 8005bc4:	9a04      	ldr	r2, [sp, #16]
 8005bc6:	189b      	adds	r3, r3, r2
 8005bc8:	6163      	str	r3, [r4, #20]
 8005bca:	e762      	b.n	8005a92 <_svfiprintf_r+0x46>
 8005bcc:	4343      	muls	r3, r0
 8005bce:	0035      	movs	r5, r6
 8005bd0:	2101      	movs	r1, #1
 8005bd2:	189b      	adds	r3, r3, r2
 8005bd4:	e7a4      	b.n	8005b20 <_svfiprintf_r+0xd4>
 8005bd6:	2300      	movs	r3, #0
 8005bd8:	200a      	movs	r0, #10
 8005bda:	0019      	movs	r1, r3
 8005bdc:	3501      	adds	r5, #1
 8005bde:	6063      	str	r3, [r4, #4]
 8005be0:	782a      	ldrb	r2, [r5, #0]
 8005be2:	1c6e      	adds	r6, r5, #1
 8005be4:	3a30      	subs	r2, #48	@ 0x30
 8005be6:	2a09      	cmp	r2, #9
 8005be8:	d903      	bls.n	8005bf2 <_svfiprintf_r+0x1a6>
 8005bea:	2b00      	cmp	r3, #0
 8005bec:	d0c8      	beq.n	8005b80 <_svfiprintf_r+0x134>
 8005bee:	9109      	str	r1, [sp, #36]	@ 0x24
 8005bf0:	e7c6      	b.n	8005b80 <_svfiprintf_r+0x134>
 8005bf2:	4341      	muls	r1, r0
 8005bf4:	0035      	movs	r5, r6
 8005bf6:	2301      	movs	r3, #1
 8005bf8:	1889      	adds	r1, r1, r2
 8005bfa:	e7f1      	b.n	8005be0 <_svfiprintf_r+0x194>
 8005bfc:	aa07      	add	r2, sp, #28
 8005bfe:	9200      	str	r2, [sp, #0]
 8005c00:	0021      	movs	r1, r4
 8005c02:	003a      	movs	r2, r7
 8005c04:	4b0f      	ldr	r3, [pc, #60]	@ (8005c44 <_svfiprintf_r+0x1f8>)
 8005c06:	9803      	ldr	r0, [sp, #12]
 8005c08:	e000      	b.n	8005c0c <_svfiprintf_r+0x1c0>
 8005c0a:	bf00      	nop
 8005c0c:	9004      	str	r0, [sp, #16]
 8005c0e:	9b04      	ldr	r3, [sp, #16]
 8005c10:	3301      	adds	r3, #1
 8005c12:	d1d6      	bne.n	8005bc2 <_svfiprintf_r+0x176>
 8005c14:	89bb      	ldrh	r3, [r7, #12]
 8005c16:	980d      	ldr	r0, [sp, #52]	@ 0x34
 8005c18:	065b      	lsls	r3, r3, #25
 8005c1a:	d500      	bpl.n	8005c1e <_svfiprintf_r+0x1d2>
 8005c1c:	e72c      	b.n	8005a78 <_svfiprintf_r+0x2c>
 8005c1e:	b021      	add	sp, #132	@ 0x84
 8005c20:	bdf0      	pop	{r4, r5, r6, r7, pc}
 8005c22:	aa07      	add	r2, sp, #28
 8005c24:	9200      	str	r2, [sp, #0]
 8005c26:	0021      	movs	r1, r4
 8005c28:	003a      	movs	r2, r7
 8005c2a:	4b06      	ldr	r3, [pc, #24]	@ (8005c44 <_svfiprintf_r+0x1f8>)
 8005c2c:	9803      	ldr	r0, [sp, #12]
 8005c2e:	f000 f9bf 	bl	8005fb0 <_printf_i>
 8005c32:	e7eb      	b.n	8005c0c <_svfiprintf_r+0x1c0>
 8005c34:	080065dc 	.word	0x080065dc
 8005c38:	080065e2 	.word	0x080065e2
 8005c3c:	080065e6 	.word	0x080065e6
 8005c40:	00000000 	.word	0x00000000
 8005c44:	0800598d 	.word	0x0800598d

08005c48 <__sfputc_r>:
 8005c48:	6893      	ldr	r3, [r2, #8]
 8005c4a:	b510      	push	{r4, lr}
 8005c4c:	3b01      	subs	r3, #1
 8005c4e:	6093      	str	r3, [r2, #8]
 8005c50:	2b00      	cmp	r3, #0
 8005c52:	da04      	bge.n	8005c5e <__sfputc_r+0x16>
 8005c54:	6994      	ldr	r4, [r2, #24]
 8005c56:	42a3      	cmp	r3, r4
 8005c58:	db07      	blt.n	8005c6a <__sfputc_r+0x22>
 8005c5a:	290a      	cmp	r1, #10
 8005c5c:	d005      	beq.n	8005c6a <__sfputc_r+0x22>
 8005c5e:	6813      	ldr	r3, [r2, #0]
 8005c60:	1c58      	adds	r0, r3, #1
 8005c62:	6010      	str	r0, [r2, #0]
 8005c64:	7019      	strb	r1, [r3, #0]
 8005c66:	0008      	movs	r0, r1
 8005c68:	bd10      	pop	{r4, pc}
 8005c6a:	f7ff fc55 	bl	8005518 <__swbuf_r>
 8005c6e:	0001      	movs	r1, r0
 8005c70:	e7f9      	b.n	8005c66 <__sfputc_r+0x1e>

08005c72 <__sfputs_r>:
 8005c72:	b5f8      	push	{r3, r4, r5, r6, r7, lr}
 8005c74:	0006      	movs	r6, r0
 8005c76:	000f      	movs	r7, r1
 8005c78:	0014      	movs	r4, r2
 8005c7a:	18d5      	adds	r5, r2, r3
 8005c7c:	42ac      	cmp	r4, r5
 8005c7e:	d101      	bne.n	8005c84 <__sfputs_r+0x12>
 8005c80:	2000      	movs	r0, #0
 8005c82:	e007      	b.n	8005c94 <__sfputs_r+0x22>
 8005c84:	7821      	ldrb	r1, [r4, #0]
 8005c86:	003a      	movs	r2, r7
 8005c88:	0030      	movs	r0, r6
 8005c8a:	f7ff ffdd 	bl	8005c48 <__sfputc_r>
 8005c8e:	3401      	adds	r4, #1
 8005c90:	1c43      	adds	r3, r0, #1
 8005c92:	d1f3      	bne.n	8005c7c <__sfputs_r+0xa>
 8005c94:	bdf8      	pop	{r3, r4, r5, r6, r7, pc}
	...

08005c98 <_vfiprintf_r>:
 8005c98:	b5f0      	push	{r4, r5, r6, r7, lr}
 8005c9a:	b0a1      	sub	sp, #132	@ 0x84
 8005c9c:	000f      	movs	r7, r1
 8005c9e:	0015      	movs	r5, r2
 8005ca0:	001e      	movs	r6, r3
 8005ca2:	9003      	str	r0, [sp, #12]
 8005ca4:	2800      	cmp	r0, #0
 8005ca6:	d004      	beq.n	8005cb2 <_vfiprintf_r+0x1a>
 8005ca8:	6a03      	ldr	r3, [r0, #32]
 8005caa:	2b00      	cmp	r3, #0
 8005cac:	d101      	bne.n	8005cb2 <_vfiprintf_r+0x1a>
 8005cae:	f7ff fb21 	bl	80052f4 <__sinit>
 8005cb2:	6e7b      	ldr	r3, [r7, #100]	@ 0x64
 8005cb4:	07db      	lsls	r3, r3, #31
 8005cb6:	d405      	bmi.n	8005cc4 <_vfiprintf_r+0x2c>
 8005cb8:	89bb      	ldrh	r3, [r7, #12]
 8005cba:	059b      	lsls	r3, r3, #22
 8005cbc:	d402      	bmi.n	8005cc4 <_vfiprintf_r+0x2c>
 8005cbe:	6db8      	ldr	r0, [r7, #88]	@ 0x58
 8005cc0:	f7ff fd5d 	bl	800577e <__retarget_lock_acquire_recursive>
 8005cc4:	89bb      	ldrh	r3, [r7, #12]
 8005cc6:	071b      	lsls	r3, r3, #28
 8005cc8:	d502      	bpl.n	8005cd0 <_vfiprintf_r+0x38>
 8005cca:	693b      	ldr	r3, [r7, #16]
 8005ccc:	2b00      	cmp	r3, #0
 8005cce:	d113      	bne.n	8005cf8 <_vfiprintf_r+0x60>
 8005cd0:	0039      	movs	r1, r7
 8005cd2:	9803      	ldr	r0, [sp, #12]
 8005cd4:	f7ff fc62 	bl	800559c <__swsetup_r>
 8005cd8:	2800      	cmp	r0, #0
 8005cda:	d00d      	beq.n	8005cf8 <_vfiprintf_r+0x60>
 8005cdc:	6e7b      	ldr	r3, [r7, #100]	@ 0x64
 8005cde:	07db      	lsls	r3, r3, #31
 8005ce0:	d503      	bpl.n	8005cea <_vfiprintf_r+0x52>
 8005ce2:	2001      	movs	r0, #1
 8005ce4:	4240      	negs	r0, r0
 8005ce6:	b021      	add	sp, #132	@ 0x84
 8005ce8:	bdf0      	pop	{r4, r5, r6, r7, pc}
 8005cea:	89bb      	ldrh	r3, [r7, #12]
 8005cec:	059b      	lsls	r3, r3, #22
 8005cee:	d4f8      	bmi.n	8005ce2 <_vfiprintf_r+0x4a>
 8005cf0:	6db8      	ldr	r0, [r7, #88]	@ 0x58
 8005cf2:	f7ff fd45 	bl	8005780 <__retarget_lock_release_recursive>
 8005cf6:	e7f4      	b.n	8005ce2 <_vfiprintf_r+0x4a>
 8005cf8:	2300      	movs	r3, #0
 8005cfa:	ac08      	add	r4, sp, #32
 8005cfc:	6163      	str	r3, [r4, #20]
 8005cfe:	3320      	adds	r3, #32
 8005d00:	7663      	strb	r3, [r4, #25]
 8005d02:	3310      	adds	r3, #16
 8005d04:	76a3      	strb	r3, [r4, #26]
 8005d06:	9607      	str	r6, [sp, #28]
 8005d08:	002e      	movs	r6, r5
 8005d0a:	7833      	ldrb	r3, [r6, #0]
 8005d0c:	2b00      	cmp	r3, #0
 8005d0e:	d001      	beq.n	8005d14 <_vfiprintf_r+0x7c>
 8005d10:	2b25      	cmp	r3, #37	@ 0x25
 8005d12:	d148      	bne.n	8005da6 <_vfiprintf_r+0x10e>
 8005d14:	1b73      	subs	r3, r6, r5
 8005d16:	9305      	str	r3, [sp, #20]
 8005d18:	42ae      	cmp	r6, r5
 8005d1a:	d00b      	beq.n	8005d34 <_vfiprintf_r+0x9c>
 8005d1c:	002a      	movs	r2, r5
 8005d1e:	0039      	movs	r1, r7
 8005d20:	9803      	ldr	r0, [sp, #12]
 8005d22:	f7ff ffa6 	bl	8005c72 <__sfputs_r>
 8005d26:	3001      	adds	r0, #1
 8005d28:	d100      	bne.n	8005d2c <_vfiprintf_r+0x94>
 8005d2a:	e0ae      	b.n	8005e8a <_vfiprintf_r+0x1f2>
 8005d2c:	6963      	ldr	r3, [r4, #20]
 8005d2e:	9a05      	ldr	r2, [sp, #20]
 8005d30:	189b      	adds	r3, r3, r2
 8005d32:	6163      	str	r3, [r4, #20]
 8005d34:	7833      	ldrb	r3, [r6, #0]
 8005d36:	2b00      	cmp	r3, #0
 8005d38:	d100      	bne.n	8005d3c <_vfiprintf_r+0xa4>
 8005d3a:	e0a6      	b.n	8005e8a <_vfiprintf_r+0x1f2>
 8005d3c:	2201      	movs	r2, #1
 8005d3e:	2300      	movs	r3, #0
 8005d40:	4252      	negs	r2, r2
 8005d42:	6062      	str	r2, [r4, #4]
 8005d44:	a904      	add	r1, sp, #16
 8005d46:	3254      	adds	r2, #84	@ 0x54
 8005d48:	1852      	adds	r2, r2, r1
 8005d4a:	1c75      	adds	r5, r6, #1
 8005d4c:	6023      	str	r3, [r4, #0]
 8005d4e:	60e3      	str	r3, [r4, #12]
 8005d50:	60a3      	str	r3, [r4, #8]
 8005d52:	7013      	strb	r3, [r2, #0]
 8005d54:	65a3      	str	r3, [r4, #88]	@ 0x58
 8005d56:	4b59      	ldr	r3, [pc, #356]	@ (8005ebc <_vfiprintf_r+0x224>)
 8005d58:	2205      	movs	r2, #5
 8005d5a:	0018      	movs	r0, r3
 8005d5c:	7829      	ldrb	r1, [r5, #0]
 8005d5e:	9305      	str	r3, [sp, #20]
 8005d60:	f000 fb86 	bl	8006470 <memchr>
 8005d64:	1c6e      	adds	r6, r5, #1
 8005d66:	2800      	cmp	r0, #0
 8005d68:	d11f      	bne.n	8005daa <_vfiprintf_r+0x112>
 8005d6a:	6822      	ldr	r2, [r4, #0]
 8005d6c:	06d3      	lsls	r3, r2, #27
 8005d6e:	d504      	bpl.n	8005d7a <_vfiprintf_r+0xe2>
 8005d70:	2353      	movs	r3, #83	@ 0x53
 8005d72:	a904      	add	r1, sp, #16
 8005d74:	185b      	adds	r3, r3, r1
 8005d76:	2120      	movs	r1, #32
 8005d78:	7019      	strb	r1, [r3, #0]
 8005d7a:	0713      	lsls	r3, r2, #28
 8005d7c:	d504      	bpl.n	8005d88 <_vfiprintf_r+0xf0>
 8005d7e:	2353      	movs	r3, #83	@ 0x53
 8005d80:	a904      	add	r1, sp, #16
 8005d82:	185b      	adds	r3, r3, r1
 8005d84:	212b      	movs	r1, #43	@ 0x2b
 8005d86:	7019      	strb	r1, [r3, #0]
 8005d88:	782b      	ldrb	r3, [r5, #0]
 8005d8a:	2b2a      	cmp	r3, #42	@ 0x2a
 8005d8c:	d016      	beq.n	8005dbc <_vfiprintf_r+0x124>
 8005d8e:	002e      	movs	r6, r5
 8005d90:	2100      	movs	r1, #0
 8005d92:	200a      	movs	r0, #10
 8005d94:	68e3      	ldr	r3, [r4, #12]
 8005d96:	7832      	ldrb	r2, [r6, #0]
 8005d98:	1c75      	adds	r5, r6, #1
 8005d9a:	3a30      	subs	r2, #48	@ 0x30
 8005d9c:	2a09      	cmp	r2, #9
 8005d9e:	d950      	bls.n	8005e42 <_vfiprintf_r+0x1aa>
 8005da0:	2900      	cmp	r1, #0
 8005da2:	d111      	bne.n	8005dc8 <_vfiprintf_r+0x130>
 8005da4:	e017      	b.n	8005dd6 <_vfiprintf_r+0x13e>
 8005da6:	3601      	adds	r6, #1
 8005da8:	e7af      	b.n	8005d0a <_vfiprintf_r+0x72>
 8005daa:	9b05      	ldr	r3, [sp, #20]
 8005dac:	6822      	ldr	r2, [r4, #0]
 8005dae:	1ac0      	subs	r0, r0, r3
 8005db0:	2301      	movs	r3, #1
 8005db2:	4083      	lsls	r3, r0
 8005db4:	4313      	orrs	r3, r2
 8005db6:	0035      	movs	r5, r6
 8005db8:	6023      	str	r3, [r4, #0]
 8005dba:	e7cc      	b.n	8005d56 <_vfiprintf_r+0xbe>
 8005dbc:	9b07      	ldr	r3, [sp, #28]
 8005dbe:	1d19      	adds	r1, r3, #4
 8005dc0:	681b      	ldr	r3, [r3, #0]
 8005dc2:	9107      	str	r1, [sp, #28]
 8005dc4:	2b00      	cmp	r3, #0
 8005dc6:	db01      	blt.n	8005dcc <_vfiprintf_r+0x134>
 8005dc8:	930b      	str	r3, [sp, #44]	@ 0x2c
 8005dca:	e004      	b.n	8005dd6 <_vfiprintf_r+0x13e>
 8005dcc:	425b      	negs	r3, r3
 8005dce:	60e3      	str	r3, [r4, #12]
 8005dd0:	2302      	movs	r3, #2
 8005dd2:	4313      	orrs	r3, r2
 8005dd4:	6023      	str	r3, [r4, #0]
 8005dd6:	7833      	ldrb	r3, [r6, #0]
 8005dd8:	2b2e      	cmp	r3, #46	@ 0x2e
 8005dda:	d10c      	bne.n	8005df6 <_vfiprintf_r+0x15e>
 8005ddc:	7873      	ldrb	r3, [r6, #1]
 8005dde:	2b2a      	cmp	r3, #42	@ 0x2a
 8005de0:	d134      	bne.n	8005e4c <_vfiprintf_r+0x1b4>
 8005de2:	9b07      	ldr	r3, [sp, #28]
 8005de4:	3602      	adds	r6, #2
 8005de6:	1d1a      	adds	r2, r3, #4
 8005de8:	681b      	ldr	r3, [r3, #0]
 8005dea:	9207      	str	r2, [sp, #28]
 8005dec:	2b00      	cmp	r3, #0
 8005dee:	da01      	bge.n	8005df4 <_vfiprintf_r+0x15c>
 8005df0:	2301      	movs	r3, #1
 8005df2:	425b      	negs	r3, r3
 8005df4:	9309      	str	r3, [sp, #36]	@ 0x24
 8005df6:	4d32      	ldr	r5, [pc, #200]	@ (8005ec0 <_vfiprintf_r+0x228>)
 8005df8:	2203      	movs	r2, #3
 8005dfa:	0028      	movs	r0, r5
 8005dfc:	7831      	ldrb	r1, [r6, #0]
 8005dfe:	f000 fb37 	bl	8006470 <memchr>
 8005e02:	2800      	cmp	r0, #0
 8005e04:	d006      	beq.n	8005e14 <_vfiprintf_r+0x17c>
 8005e06:	2340      	movs	r3, #64	@ 0x40
 8005e08:	1b40      	subs	r0, r0, r5
 8005e0a:	4083      	lsls	r3, r0
 8005e0c:	6822      	ldr	r2, [r4, #0]
 8005e0e:	3601      	adds	r6, #1
 8005e10:	4313      	orrs	r3, r2
 8005e12:	6023      	str	r3, [r4, #0]
 8005e14:	7831      	ldrb	r1, [r6, #0]
 8005e16:	2206      	movs	r2, #6
 8005e18:	482a      	ldr	r0, [pc, #168]	@ (8005ec4 <_vfiprintf_r+0x22c>)
 8005e1a:	1c75      	adds	r5, r6, #1
 8005e1c:	7621      	strb	r1, [r4, #24]
 8005e1e:	f000 fb27 	bl	8006470 <memchr>
 8005e22:	2800      	cmp	r0, #0
 8005e24:	d040      	beq.n	8005ea8 <_vfiprintf_r+0x210>
 8005e26:	4b28      	ldr	r3, [pc, #160]	@ (8005ec8 <_vfiprintf_r+0x230>)
 8005e28:	2b00      	cmp	r3, #0
 8005e2a:	d122      	bne.n	8005e72 <_vfiprintf_r+0x1da>
 8005e2c:	2207      	movs	r2, #7
 8005e2e:	9b07      	ldr	r3, [sp, #28]
 8005e30:	3307      	adds	r3, #7
 8005e32:	4393      	bics	r3, r2
 8005e34:	3308      	adds	r3, #8
 8005e36:	9307      	str	r3, [sp, #28]
 8005e38:	6963      	ldr	r3, [r4, #20]
 8005e3a:	9a04      	ldr	r2, [sp, #16]
 8005e3c:	189b      	adds	r3, r3, r2
 8005e3e:	6163      	str	r3, [r4, #20]
 8005e40:	e762      	b.n	8005d08 <_vfiprintf_r+0x70>
 8005e42:	4343      	muls	r3, r0
 8005e44:	002e      	movs	r6, r5
 8005e46:	2101      	movs	r1, #1
 8005e48:	189b      	adds	r3, r3, r2
 8005e4a:	e7a4      	b.n	8005d96 <_vfiprintf_r+0xfe>
 8005e4c:	2300      	movs	r3, #0
 8005e4e:	200a      	movs	r0, #10
 8005e50:	0019      	movs	r1, r3
 8005e52:	3601      	adds	r6, #1
 8005e54:	6063      	str	r3, [r4, #4]
 8005e56:	7832      	ldrb	r2, [r6, #0]
 8005e58:	1c75      	adds	r5, r6, #1
 8005e5a:	3a30      	subs	r2, #48	@ 0x30
 8005e5c:	2a09      	cmp	r2, #9
 8005e5e:	d903      	bls.n	8005e68 <_vfiprintf_r+0x1d0>
 8005e60:	2b00      	cmp	r3, #0
 8005e62:	d0c8      	beq.n	8005df6 <_vfiprintf_r+0x15e>
 8005e64:	9109      	str	r1, [sp, #36]	@ 0x24
 8005e66:	e7c6      	b.n	8005df6 <_vfiprintf_r+0x15e>
 8005e68:	4341      	muls	r1, r0
 8005e6a:	002e      	movs	r6, r5
 8005e6c:	2301      	movs	r3, #1
 8005e6e:	1889      	adds	r1, r1, r2
 8005e70:	e7f1      	b.n	8005e56 <_vfiprintf_r+0x1be>
 8005e72:	aa07      	add	r2, sp, #28
 8005e74:	9200      	str	r2, [sp, #0]
 8005e76:	0021      	movs	r1, r4
 8005e78:	003a      	movs	r2, r7
 8005e7a:	4b14      	ldr	r3, [pc, #80]	@ (8005ecc <_vfiprintf_r+0x234>)
 8005e7c:	9803      	ldr	r0, [sp, #12]
 8005e7e:	e000      	b.n	8005e82 <_vfiprintf_r+0x1ea>
 8005e80:	bf00      	nop
 8005e82:	9004      	str	r0, [sp, #16]
 8005e84:	9b04      	ldr	r3, [sp, #16]
 8005e86:	3301      	adds	r3, #1
 8005e88:	d1d6      	bne.n	8005e38 <_vfiprintf_r+0x1a0>
 8005e8a:	6e7b      	ldr	r3, [r7, #100]	@ 0x64
 8005e8c:	07db      	lsls	r3, r3, #31
 8005e8e:	d405      	bmi.n	8005e9c <_vfiprintf_r+0x204>
 8005e90:	89bb      	ldrh	r3, [r7, #12]
 8005e92:	059b      	lsls	r3, r3, #22
 8005e94:	d402      	bmi.n	8005e9c <_vfiprintf_r+0x204>
 8005e96:	6db8      	ldr	r0, [r7, #88]	@ 0x58
 8005e98:	f7ff fc72 	bl	8005780 <__retarget_lock_release_recursive>
 8005e9c:	89bb      	ldrh	r3, [r7, #12]
 8005e9e:	065b      	lsls	r3, r3, #25
 8005ea0:	d500      	bpl.n	8005ea4 <_vfiprintf_r+0x20c>
 8005ea2:	e71e      	b.n	8005ce2 <_vfiprintf_r+0x4a>
 8005ea4:	980d      	ldr	r0, [sp, #52]	@ 0x34
 8005ea6:	e71e      	b.n	8005ce6 <_vfiprintf_r+0x4e>
 8005ea8:	aa07      	add	r2, sp, #28
 8005eaa:	9200      	str	r2, [sp, #0]
 8005eac:	0021      	movs	r1, r4
 8005eae:	003a      	movs	r2, r7
 8005eb0:	4b06      	ldr	r3, [pc, #24]	@ (8005ecc <_vfiprintf_r+0x234>)
 8005eb2:	9803      	ldr	r0, [sp, #12]
 8005eb4:	f000 f87c 	bl	8005fb0 <_printf_i>
 8005eb8:	e7e3      	b.n	8005e82 <_vfiprintf_r+0x1ea>
 8005eba:	46c0      	nop			@ (mov r8, r8)
 8005ebc:	080065dc 	.word	0x080065dc
 8005ec0:	080065e2 	.word	0x080065e2
 8005ec4:	080065e6 	.word	0x080065e6
 8005ec8:	00000000 	.word	0x00000000
 8005ecc:	08005c73 	.word	0x08005c73

08005ed0 <_printf_common>:
 8005ed0:	b5f7      	push	{r0, r1, r2, r4, r5, r6, r7, lr}
 8005ed2:	0016      	movs	r6, r2
 8005ed4:	9301      	str	r3, [sp, #4]
 8005ed6:	688a      	ldr	r2, [r1, #8]
 8005ed8:	690b      	ldr	r3, [r1, #16]
 8005eda:	000c      	movs	r4, r1
 8005edc:	9000      	str	r0, [sp, #0]
 8005ede:	4293      	cmp	r3, r2
 8005ee0:	da00      	bge.n	8005ee4 <_printf_common+0x14>
 8005ee2:	0013      	movs	r3, r2
 8005ee4:	0022      	movs	r2, r4
 8005ee6:	6033      	str	r3, [r6, #0]
 8005ee8:	3243      	adds	r2, #67	@ 0x43
 8005eea:	7812      	ldrb	r2, [r2, #0]
 8005eec:	2a00      	cmp	r2, #0
 8005eee:	d001      	beq.n	8005ef4 <_printf_common+0x24>
 8005ef0:	3301      	adds	r3, #1
 8005ef2:	6033      	str	r3, [r6, #0]
 8005ef4:	6823      	ldr	r3, [r4, #0]
 8005ef6:	069b      	lsls	r3, r3, #26
 8005ef8:	d502      	bpl.n	8005f00 <_printf_common+0x30>
 8005efa:	6833      	ldr	r3, [r6, #0]
 8005efc:	3302      	adds	r3, #2
 8005efe:	6033      	str	r3, [r6, #0]
 8005f00:	6822      	ldr	r2, [r4, #0]
 8005f02:	2306      	movs	r3, #6
 8005f04:	0015      	movs	r5, r2
 8005f06:	401d      	ands	r5, r3
 8005f08:	421a      	tst	r2, r3
 8005f0a:	d027      	beq.n	8005f5c <_printf_common+0x8c>
 8005f0c:	0023      	movs	r3, r4
 8005f0e:	3343      	adds	r3, #67	@ 0x43
 8005f10:	781b      	ldrb	r3, [r3, #0]
 8005f12:	1e5a      	subs	r2, r3, #1
 8005f14:	4193      	sbcs	r3, r2
 8005f16:	6822      	ldr	r2, [r4, #0]
 8005f18:	0692      	lsls	r2, r2, #26
 8005f1a:	d430      	bmi.n	8005f7e <_printf_common+0xae>
 8005f1c:	0022      	movs	r2, r4
 8005f1e:	9901      	ldr	r1, [sp, #4]
 8005f20:	9800      	ldr	r0, [sp, #0]
 8005f22:	9d08      	ldr	r5, [sp, #32]
 8005f24:	3243      	adds	r2, #67	@ 0x43
 8005f26:	47a8      	blx	r5
 8005f28:	3001      	adds	r0, #1
 8005f2a:	d025      	beq.n	8005f78 <_printf_common+0xa8>
 8005f2c:	2206      	movs	r2, #6
 8005f2e:	6823      	ldr	r3, [r4, #0]
 8005f30:	2500      	movs	r5, #0
 8005f32:	4013      	ands	r3, r2
 8005f34:	2b04      	cmp	r3, #4
 8005f36:	d105      	bne.n	8005f44 <_printf_common+0x74>
 8005f38:	6833      	ldr	r3, [r6, #0]
 8005f3a:	68e5      	ldr	r5, [r4, #12]
 8005f3c:	1aed      	subs	r5, r5, r3
 8005f3e:	43eb      	mvns	r3, r5
 8005f40:	17db      	asrs	r3, r3, #31
 8005f42:	401d      	ands	r5, r3
 8005f44:	68a3      	ldr	r3, [r4, #8]
 8005f46:	6922      	ldr	r2, [r4, #16]
 8005f48:	4293      	cmp	r3, r2
 8005f4a:	dd01      	ble.n	8005f50 <_printf_common+0x80>
 8005f4c:	1a9b      	subs	r3, r3, r2
 8005f4e:	18ed      	adds	r5, r5, r3
 8005f50:	2600      	movs	r6, #0
 8005f52:	42b5      	cmp	r5, r6
 8005f54:	d120      	bne.n	8005f98 <_printf_common+0xc8>
 8005f56:	2000      	movs	r0, #0
 8005f58:	e010      	b.n	8005f7c <_printf_common+0xac>
 8005f5a:	3501      	adds	r5, #1
 8005f5c:	68e3      	ldr	r3, [r4, #12]
 8005f5e:	6832      	ldr	r2, [r6, #0]
 8005f60:	1a9b      	subs	r3, r3, r2
 8005f62:	42ab      	cmp	r3, r5
 8005f64:	ddd2      	ble.n	8005f0c <_printf_common+0x3c>
 8005f66:	0022      	movs	r2, r4
 8005f68:	2301      	movs	r3, #1
 8005f6a:	9901      	ldr	r1, [sp, #4]
 8005f6c:	9800      	ldr	r0, [sp, #0]
 8005f6e:	9f08      	ldr	r7, [sp, #32]
 8005f70:	3219      	adds	r2, #25
 8005f72:	47b8      	blx	r7
 8005f74:	3001      	adds	r0, #1
 8005f76:	d1f0      	bne.n	8005f5a <_printf_common+0x8a>
 8005f78:	2001      	movs	r0, #1
 8005f7a:	4240      	negs	r0, r0
 8005f7c:	bdfe      	pop	{r1, r2, r3, r4, r5, r6, r7, pc}
 8005f7e:	2030      	movs	r0, #48	@ 0x30
 8005f80:	18e1      	adds	r1, r4, r3
 8005f82:	3143      	adds	r1, #67	@ 0x43
 8005f84:	7008      	strb	r0, [r1, #0]
 8005f86:	0021      	movs	r1, r4
 8005f88:	1c5a      	adds	r2, r3, #1
 8005f8a:	3145      	adds	r1, #69	@ 0x45
 8005f8c:	7809      	ldrb	r1, [r1, #0]
 8005f8e:	18a2      	adds	r2, r4, r2
 8005f90:	3243      	adds	r2, #67	@ 0x43
 8005f92:	3302      	adds	r3, #2
 8005f94:	7011      	strb	r1, [r2, #0]
 8005f96:	e7c1      	b.n	8005f1c <_printf_common+0x4c>
 8005f98:	0022      	movs	r2, r4
 8005f9a:	2301      	movs	r3, #1
 8005f9c:	9901      	ldr	r1, [sp, #4]
 8005f9e:	9800      	ldr	r0, [sp, #0]
 8005fa0:	9f08      	ldr	r7, [sp, #32]
 8005fa2:	321a      	adds	r2, #26
 8005fa4:	47b8      	blx	r7
 8005fa6:	3001      	adds	r0, #1
 8005fa8:	d0e6      	beq.n	8005f78 <_printf_common+0xa8>
 8005faa:	3601      	adds	r6, #1
 8005fac:	e7d1      	b.n	8005f52 <_printf_common+0x82>
	...

08005fb0 <_printf_i>:
 8005fb0:	b5f0      	push	{r4, r5, r6, r7, lr}
 8005fb2:	b08b      	sub	sp, #44	@ 0x2c
 8005fb4:	9206      	str	r2, [sp, #24]
 8005fb6:	000a      	movs	r2, r1
 8005fb8:	3243      	adds	r2, #67	@ 0x43
 8005fba:	9307      	str	r3, [sp, #28]
 8005fbc:	9005      	str	r0, [sp, #20]
 8005fbe:	9203      	str	r2, [sp, #12]
 8005fc0:	7e0a      	ldrb	r2, [r1, #24]
 8005fc2:	000c      	movs	r4, r1
 8005fc4:	9b10      	ldr	r3, [sp, #64]	@ 0x40
 8005fc6:	2a78      	cmp	r2, #120	@ 0x78
 8005fc8:	d809      	bhi.n	8005fde <_printf_i+0x2e>
 8005fca:	2a62      	cmp	r2, #98	@ 0x62
 8005fcc:	d80b      	bhi.n	8005fe6 <_printf_i+0x36>
 8005fce:	2a00      	cmp	r2, #0
 8005fd0:	d100      	bne.n	8005fd4 <_printf_i+0x24>
 8005fd2:	e0ba      	b.n	800614a <_printf_i+0x19a>
 8005fd4:	497a      	ldr	r1, [pc, #488]	@ (80061c0 <_printf_i+0x210>)
 8005fd6:	9104      	str	r1, [sp, #16]
 8005fd8:	2a58      	cmp	r2, #88	@ 0x58
 8005fda:	d100      	bne.n	8005fde <_printf_i+0x2e>
 8005fdc:	e08e      	b.n	80060fc <_printf_i+0x14c>
 8005fde:	0025      	movs	r5, r4
 8005fe0:	3542      	adds	r5, #66	@ 0x42
 8005fe2:	702a      	strb	r2, [r5, #0]
 8005fe4:	e022      	b.n	800602c <_printf_i+0x7c>
 8005fe6:	0010      	movs	r0, r2
 8005fe8:	3863      	subs	r0, #99	@ 0x63
 8005fea:	2815      	cmp	r0, #21
 8005fec:	d8f7      	bhi.n	8005fde <_printf_i+0x2e>
 8005fee:	f7fa f895 	bl	800011c <__gnu_thumb1_case_shi>
 8005ff2:	0016      	.short	0x0016
 8005ff4:	fff6001f 	.word	0xfff6001f
 8005ff8:	fff6fff6 	.word	0xfff6fff6
 8005ffc:	001ffff6 	.word	0x001ffff6
 8006000:	fff6fff6 	.word	0xfff6fff6
 8006004:	fff6fff6 	.word	0xfff6fff6
 8006008:	0036009f 	.word	0x0036009f
 800600c:	fff6007e 	.word	0xfff6007e
 8006010:	00b0fff6 	.word	0x00b0fff6
 8006014:	0036fff6 	.word	0x0036fff6
 8006018:	fff6fff6 	.word	0xfff6fff6
 800601c:	0082      	.short	0x0082
 800601e:	0025      	movs	r5, r4
 8006020:	681a      	ldr	r2, [r3, #0]
 8006022:	3542      	adds	r5, #66	@ 0x42
 8006024:	1d11      	adds	r1, r2, #4
 8006026:	6019      	str	r1, [r3, #0]
 8006028:	6813      	ldr	r3, [r2, #0]
 800602a:	702b      	strb	r3, [r5, #0]
 800602c:	2301      	movs	r3, #1
 800602e:	e09e      	b.n	800616e <_printf_i+0x1be>
 8006030:	6818      	ldr	r0, [r3, #0]
 8006032:	6809      	ldr	r1, [r1, #0]
 8006034:	1d02      	adds	r2, r0, #4
 8006036:	060d      	lsls	r5, r1, #24
 8006038:	d50b      	bpl.n	8006052 <_printf_i+0xa2>
 800603a:	6806      	ldr	r6, [r0, #0]
 800603c:	601a      	str	r2, [r3, #0]
 800603e:	2e00      	cmp	r6, #0
 8006040:	da03      	bge.n	800604a <_printf_i+0x9a>
 8006042:	232d      	movs	r3, #45	@ 0x2d
 8006044:	9a03      	ldr	r2, [sp, #12]
 8006046:	4276      	negs	r6, r6
 8006048:	7013      	strb	r3, [r2, #0]
 800604a:	4b5d      	ldr	r3, [pc, #372]	@ (80061c0 <_printf_i+0x210>)
 800604c:	270a      	movs	r7, #10
 800604e:	9304      	str	r3, [sp, #16]
 8006050:	e018      	b.n	8006084 <_printf_i+0xd4>
 8006052:	6806      	ldr	r6, [r0, #0]
 8006054:	601a      	str	r2, [r3, #0]
 8006056:	0649      	lsls	r1, r1, #25
 8006058:	d5f1      	bpl.n	800603e <_printf_i+0x8e>
 800605a:	b236      	sxth	r6, r6
 800605c:	e7ef      	b.n	800603e <_printf_i+0x8e>
 800605e:	6808      	ldr	r0, [r1, #0]
 8006060:	6819      	ldr	r1, [r3, #0]
 8006062:	c940      	ldmia	r1!, {r6}
 8006064:	0605      	lsls	r5, r0, #24
 8006066:	d402      	bmi.n	800606e <_printf_i+0xbe>
 8006068:	0640      	lsls	r0, r0, #25
 800606a:	d500      	bpl.n	800606e <_printf_i+0xbe>
 800606c:	b2b6      	uxth	r6, r6
 800606e:	6019      	str	r1, [r3, #0]
 8006070:	4b53      	ldr	r3, [pc, #332]	@ (80061c0 <_printf_i+0x210>)
 8006072:	270a      	movs	r7, #10
 8006074:	9304      	str	r3, [sp, #16]
 8006076:	2a6f      	cmp	r2, #111	@ 0x6f
 8006078:	d100      	bne.n	800607c <_printf_i+0xcc>
 800607a:	3f02      	subs	r7, #2
 800607c:	0023      	movs	r3, r4
 800607e:	2200      	movs	r2, #0
 8006080:	3343      	adds	r3, #67	@ 0x43
 8006082:	701a      	strb	r2, [r3, #0]
 8006084:	6863      	ldr	r3, [r4, #4]
 8006086:	60a3      	str	r3, [r4, #8]
 8006088:	2b00      	cmp	r3, #0
 800608a:	db06      	blt.n	800609a <_printf_i+0xea>
 800608c:	2104      	movs	r1, #4
 800608e:	6822      	ldr	r2, [r4, #0]
 8006090:	9d03      	ldr	r5, [sp, #12]
 8006092:	438a      	bics	r2, r1
 8006094:	6022      	str	r2, [r4, #0]
 8006096:	4333      	orrs	r3, r6
 8006098:	d00c      	beq.n	80060b4 <_printf_i+0x104>
 800609a:	9d03      	ldr	r5, [sp, #12]
 800609c:	0030      	movs	r0, r6
 800609e:	0039      	movs	r1, r7
 80060a0:	f7fa f8cc 	bl	800023c <__aeabi_uidivmod>
 80060a4:	9b04      	ldr	r3, [sp, #16]
 80060a6:	3d01      	subs	r5, #1
 80060a8:	5c5b      	ldrb	r3, [r3, r1]
 80060aa:	702b      	strb	r3, [r5, #0]
 80060ac:	0033      	movs	r3, r6
 80060ae:	0006      	movs	r6, r0
 80060b0:	429f      	cmp	r7, r3
 80060b2:	d9f3      	bls.n	800609c <_printf_i+0xec>
 80060b4:	2f08      	cmp	r7, #8
 80060b6:	d109      	bne.n	80060cc <_printf_i+0x11c>
 80060b8:	6823      	ldr	r3, [r4, #0]
 80060ba:	07db      	lsls	r3, r3, #31
 80060bc:	d506      	bpl.n	80060cc <_printf_i+0x11c>
 80060be:	6862      	ldr	r2, [r4, #4]
 80060c0:	6923      	ldr	r3, [r4, #16]
 80060c2:	429a      	cmp	r2, r3
 80060c4:	dc02      	bgt.n	80060cc <_printf_i+0x11c>
 80060c6:	2330      	movs	r3, #48	@ 0x30
 80060c8:	3d01      	subs	r5, #1
 80060ca:	702b      	strb	r3, [r5, #0]
 80060cc:	9b03      	ldr	r3, [sp, #12]
 80060ce:	1b5b      	subs	r3, r3, r5
 80060d0:	6123      	str	r3, [r4, #16]
 80060d2:	9b07      	ldr	r3, [sp, #28]
 80060d4:	0021      	movs	r1, r4
 80060d6:	9300      	str	r3, [sp, #0]
 80060d8:	9805      	ldr	r0, [sp, #20]
 80060da:	9b06      	ldr	r3, [sp, #24]
 80060dc:	aa09      	add	r2, sp, #36	@ 0x24
 80060de:	f7ff fef7 	bl	8005ed0 <_printf_common>
 80060e2:	3001      	adds	r0, #1
 80060e4:	d148      	bne.n	8006178 <_printf_i+0x1c8>
 80060e6:	2001      	movs	r0, #1
 80060e8:	4240      	negs	r0, r0
 80060ea:	b00b      	add	sp, #44	@ 0x2c
 80060ec:	bdf0      	pop	{r4, r5, r6, r7, pc}
 80060ee:	2220      	movs	r2, #32
 80060f0:	6809      	ldr	r1, [r1, #0]
 80060f2:	430a      	orrs	r2, r1
 80060f4:	6022      	str	r2, [r4, #0]
 80060f6:	2278      	movs	r2, #120	@ 0x78
 80060f8:	4932      	ldr	r1, [pc, #200]	@ (80061c4 <_printf_i+0x214>)
 80060fa:	9104      	str	r1, [sp, #16]
 80060fc:	0021      	movs	r1, r4
 80060fe:	3145      	adds	r1, #69	@ 0x45
 8006100:	700a      	strb	r2, [r1, #0]
 8006102:	6819      	ldr	r1, [r3, #0]
 8006104:	6822      	ldr	r2, [r4, #0]
 8006106:	c940      	ldmia	r1!, {r6}
 8006108:	0610      	lsls	r0, r2, #24
 800610a:	d402      	bmi.n	8006112 <_printf_i+0x162>
 800610c:	0650      	lsls	r0, r2, #25
 800610e:	d500      	bpl.n	8006112 <_printf_i+0x162>
 8006110:	b2b6      	uxth	r6, r6
 8006112:	6019      	str	r1, [r3, #0]
 8006114:	07d3      	lsls	r3, r2, #31
 8006116:	d502      	bpl.n	800611e <_printf_i+0x16e>
 8006118:	2320      	movs	r3, #32
 800611a:	4313      	orrs	r3, r2
 800611c:	6023      	str	r3, [r4, #0]
 800611e:	2e00      	cmp	r6, #0
 8006120:	d001      	beq.n	8006126 <_printf_i+0x176>
 8006122:	2710      	movs	r7, #16
 8006124:	e7aa      	b.n	800607c <_printf_i+0xcc>
 8006126:	2220      	movs	r2, #32
 8006128:	6823      	ldr	r3, [r4, #0]
 800612a:	4393      	bics	r3, r2
 800612c:	6023      	str	r3, [r4, #0]
 800612e:	e7f8      	b.n	8006122 <_printf_i+0x172>
 8006130:	681a      	ldr	r2, [r3, #0]
 8006132:	680d      	ldr	r5, [r1, #0]
 8006134:	1d10      	adds	r0, r2, #4
 8006136:	6949      	ldr	r1, [r1, #20]
 8006138:	6018      	str	r0, [r3, #0]
 800613a:	6813      	ldr	r3, [r2, #0]
 800613c:	062e      	lsls	r6, r5, #24
 800613e:	d501      	bpl.n	8006144 <_printf_i+0x194>
 8006140:	6019      	str	r1, [r3, #0]
 8006142:	e002      	b.n	800614a <_printf_i+0x19a>
 8006144:	066d      	lsls	r5, r5, #25
 8006146:	d5fb      	bpl.n	8006140 <_printf_i+0x190>
 8006148:	8019      	strh	r1, [r3, #0]
 800614a:	2300      	movs	r3, #0
 800614c:	9d03      	ldr	r5, [sp, #12]
 800614e:	6123      	str	r3, [r4, #16]
 8006150:	e7bf      	b.n	80060d2 <_printf_i+0x122>
 8006152:	681a      	ldr	r2, [r3, #0]
 8006154:	1d11      	adds	r1, r2, #4
 8006156:	6019      	str	r1, [r3, #0]
 8006158:	6815      	ldr	r5, [r2, #0]
 800615a:	2100      	movs	r1, #0
 800615c:	0028      	movs	r0, r5
 800615e:	6862      	ldr	r2, [r4, #4]
 8006160:	f000 f986 	bl	8006470 <memchr>
 8006164:	2800      	cmp	r0, #0
 8006166:	d001      	beq.n	800616c <_printf_i+0x1bc>
 8006168:	1b40      	subs	r0, r0, r5
 800616a:	6060      	str	r0, [r4, #4]
 800616c:	6863      	ldr	r3, [r4, #4]
 800616e:	6123      	str	r3, [r4, #16]
 8006170:	2300      	movs	r3, #0
 8006172:	9a03      	ldr	r2, [sp, #12]
 8006174:	7013      	strb	r3, [r2, #0]
 8006176:	e7ac      	b.n	80060d2 <_printf_i+0x122>
 8006178:	002a      	movs	r2, r5
 800617a:	6923      	ldr	r3, [r4, #16]
 800617c:	9906      	ldr	r1, [sp, #24]
 800617e:	9805      	ldr	r0, [sp, #20]
 8006180:	9d07      	ldr	r5, [sp, #28]
 8006182:	47a8      	blx	r5
 8006184:	3001      	adds	r0, #1
 8006186:	d0ae      	beq.n	80060e6 <_printf_i+0x136>
 8006188:	6823      	ldr	r3, [r4, #0]
 800618a:	079b      	lsls	r3, r3, #30
 800618c:	d415      	bmi.n	80061ba <_printf_i+0x20a>
 800618e:	9b09      	ldr	r3, [sp, #36]	@ 0x24
 8006190:	68e0      	ldr	r0, [r4, #12]
 8006192:	4298      	cmp	r0, r3
 8006194:	daa9      	bge.n	80060ea <_printf_i+0x13a>
 8006196:	0018      	movs	r0, r3
 8006198:	e7a7      	b.n	80060ea <_printf_i+0x13a>
 800619a:	0022      	movs	r2, r4
 800619c:	2301      	movs	r3, #1
 800619e:	9906      	ldr	r1, [sp, #24]
 80061a0:	9805      	ldr	r0, [sp, #20]
 80061a2:	9e07      	ldr	r6, [sp, #28]
 80061a4:	3219      	adds	r2, #25
 80061a6:	47b0      	blx	r6
 80061a8:	3001      	adds	r0, #1
 80061aa:	d09c      	beq.n	80060e6 <_printf_i+0x136>
 80061ac:	3501      	adds	r5, #1
 80061ae:	68e3      	ldr	r3, [r4, #12]
 80061b0:	9a09      	ldr	r2, [sp, #36]	@ 0x24
 80061b2:	1a9b      	subs	r3, r3, r2
 80061b4:	42ab      	cmp	r3, r5
 80061b6:	dcf0      	bgt.n	800619a <_printf_i+0x1ea>
 80061b8:	e7e9      	b.n	800618e <_printf_i+0x1de>
 80061ba:	2500      	movs	r5, #0
 80061bc:	e7f7      	b.n	80061ae <_printf_i+0x1fe>
 80061be:	46c0      	nop			@ (mov r8, r8)
 80061c0:	080065ed 	.word	0x080065ed
 80061c4:	080065fe 	.word	0x080065fe

080061c8 <__sflush_r>:
 80061c8:	b5f7      	push	{r0, r1, r2, r4, r5, r6, r7, lr}
 80061ca:	220c      	movs	r2, #12
 80061cc:	5e8b      	ldrsh	r3, [r1, r2]
 80061ce:	0005      	movs	r5, r0
 80061d0:	000c      	movs	r4, r1
 80061d2:	071a      	lsls	r2, r3, #28
 80061d4:	d456      	bmi.n	8006284 <__sflush_r+0xbc>
 80061d6:	684a      	ldr	r2, [r1, #4]
 80061d8:	2a00      	cmp	r2, #0
 80061da:	dc02      	bgt.n	80061e2 <__sflush_r+0x1a>
 80061dc:	6c0a      	ldr	r2, [r1, #64]	@ 0x40
 80061de:	2a00      	cmp	r2, #0
 80061e0:	dd4e      	ble.n	8006280 <__sflush_r+0xb8>
 80061e2:	6ae7      	ldr	r7, [r4, #44]	@ 0x2c
 80061e4:	2f00      	cmp	r7, #0
 80061e6:	d04b      	beq.n	8006280 <__sflush_r+0xb8>
 80061e8:	2200      	movs	r2, #0
 80061ea:	2080      	movs	r0, #128	@ 0x80
 80061ec:	682e      	ldr	r6, [r5, #0]
 80061ee:	602a      	str	r2, [r5, #0]
 80061f0:	001a      	movs	r2, r3
 80061f2:	0140      	lsls	r0, r0, #5
 80061f4:	6a21      	ldr	r1, [r4, #32]
 80061f6:	4002      	ands	r2, r0
 80061f8:	4203      	tst	r3, r0
 80061fa:	d033      	beq.n	8006264 <__sflush_r+0x9c>
 80061fc:	6d62      	ldr	r2, [r4, #84]	@ 0x54
 80061fe:	89a3      	ldrh	r3, [r4, #12]
 8006200:	075b      	lsls	r3, r3, #29
 8006202:	d506      	bpl.n	8006212 <__sflush_r+0x4a>
 8006204:	6863      	ldr	r3, [r4, #4]
 8006206:	1ad2      	subs	r2, r2, r3
 8006208:	6b63      	ldr	r3, [r4, #52]	@ 0x34
 800620a:	2b00      	cmp	r3, #0
 800620c:	d001      	beq.n	8006212 <__sflush_r+0x4a>
 800620e:	6c23      	ldr	r3, [r4, #64]	@ 0x40
 8006210:	1ad2      	subs	r2, r2, r3
 8006212:	2300      	movs	r3, #0
 8006214:	0028      	movs	r0, r5
 8006216:	6ae7      	ldr	r7, [r4, #44]	@ 0x2c
 8006218:	6a21      	ldr	r1, [r4, #32]
 800621a:	47b8      	blx	r7
 800621c:	89a2      	ldrh	r2, [r4, #12]
 800621e:	1c43      	adds	r3, r0, #1
 8006220:	d106      	bne.n	8006230 <__sflush_r+0x68>
 8006222:	6829      	ldr	r1, [r5, #0]
 8006224:	291d      	cmp	r1, #29
 8006226:	d846      	bhi.n	80062b6 <__sflush_r+0xee>
 8006228:	4b29      	ldr	r3, [pc, #164]	@ (80062d0 <__sflush_r+0x108>)
 800622a:	40cb      	lsrs	r3, r1
 800622c:	07db      	lsls	r3, r3, #31
 800622e:	d542      	bpl.n	80062b6 <__sflush_r+0xee>
 8006230:	2300      	movs	r3, #0
 8006232:	6063      	str	r3, [r4, #4]
 8006234:	6923      	ldr	r3, [r4, #16]
 8006236:	6023      	str	r3, [r4, #0]
 8006238:	04d2      	lsls	r2, r2, #19
 800623a:	d505      	bpl.n	8006248 <__sflush_r+0x80>
 800623c:	1c43      	adds	r3, r0, #1
 800623e:	d102      	bne.n	8006246 <__sflush_r+0x7e>
 8006240:	682b      	ldr	r3, [r5, #0]
 8006242:	2b00      	cmp	r3, #0
 8006244:	d100      	bne.n	8006248 <__sflush_r+0x80>
 8006246:	6560      	str	r0, [r4, #84]	@ 0x54
 8006248:	6b61      	ldr	r1, [r4, #52]	@ 0x34
 800624a:	602e      	str	r6, [r5, #0]
 800624c:	2900      	cmp	r1, #0
 800624e:	d017      	beq.n	8006280 <__sflush_r+0xb8>
 8006250:	0023      	movs	r3, r4
 8006252:	3344      	adds	r3, #68	@ 0x44
 8006254:	4299      	cmp	r1, r3
 8006256:	d002      	beq.n	800625e <__sflush_r+0x96>
 8006258:	0028      	movs	r0, r5
 800625a:	f7ff fa9b 	bl	8005794 <_free_r>
 800625e:	2300      	movs	r3, #0
 8006260:	6363      	str	r3, [r4, #52]	@ 0x34
 8006262:	e00d      	b.n	8006280 <__sflush_r+0xb8>
 8006264:	2301      	movs	r3, #1
 8006266:	0028      	movs	r0, r5
 8006268:	47b8      	blx	r7
 800626a:	0002      	movs	r2, r0
 800626c:	1c43      	adds	r3, r0, #1
 800626e:	d1c6      	bne.n	80061fe <__sflush_r+0x36>
 8006270:	682b      	ldr	r3, [r5, #0]
 8006272:	2b00      	cmp	r3, #0
 8006274:	d0c3      	beq.n	80061fe <__sflush_r+0x36>
 8006276:	2b1d      	cmp	r3, #29
 8006278:	d001      	beq.n	800627e <__sflush_r+0xb6>
 800627a:	2b16      	cmp	r3, #22
 800627c:	d11a      	bne.n	80062b4 <__sflush_r+0xec>
 800627e:	602e      	str	r6, [r5, #0]
 8006280:	2000      	movs	r0, #0
 8006282:	e01e      	b.n	80062c2 <__sflush_r+0xfa>
 8006284:	690e      	ldr	r6, [r1, #16]
 8006286:	2e00      	cmp	r6, #0
 8006288:	d0fa      	beq.n	8006280 <__sflush_r+0xb8>
 800628a:	680f      	ldr	r7, [r1, #0]
 800628c:	600e      	str	r6, [r1, #0]
 800628e:	1bba      	subs	r2, r7, r6
 8006290:	9201      	str	r2, [sp, #4]
 8006292:	2200      	movs	r2, #0
 8006294:	079b      	lsls	r3, r3, #30
 8006296:	d100      	bne.n	800629a <__sflush_r+0xd2>
 8006298:	694a      	ldr	r2, [r1, #20]
 800629a:	60a2      	str	r2, [r4, #8]
 800629c:	9b01      	ldr	r3, [sp, #4]
 800629e:	2b00      	cmp	r3, #0
 80062a0:	ddee      	ble.n	8006280 <__sflush_r+0xb8>
 80062a2:	6aa3      	ldr	r3, [r4, #40]	@ 0x28
 80062a4:	0032      	movs	r2, r6
 80062a6:	001f      	movs	r7, r3
 80062a8:	0028      	movs	r0, r5
 80062aa:	9b01      	ldr	r3, [sp, #4]
 80062ac:	6a21      	ldr	r1, [r4, #32]
 80062ae:	47b8      	blx	r7
 80062b0:	2800      	cmp	r0, #0
 80062b2:	dc07      	bgt.n	80062c4 <__sflush_r+0xfc>
 80062b4:	89a2      	ldrh	r2, [r4, #12]
 80062b6:	2340      	movs	r3, #64	@ 0x40
 80062b8:	2001      	movs	r0, #1
 80062ba:	4313      	orrs	r3, r2
 80062bc:	b21b      	sxth	r3, r3
 80062be:	81a3      	strh	r3, [r4, #12]
 80062c0:	4240      	negs	r0, r0
 80062c2:	bdfe      	pop	{r1, r2, r3, r4, r5, r6, r7, pc}
 80062c4:	9b01      	ldr	r3, [sp, #4]
 80062c6:	1836      	adds	r6, r6, r0
 80062c8:	1a1b      	subs	r3, r3, r0
 80062ca:	9301      	str	r3, [sp, #4]
 80062cc:	e7e6      	b.n	800629c <__sflush_r+0xd4>
 80062ce:	46c0      	nop			@ (mov r8, r8)
 80062d0:	20400001 	.word	0x20400001

080062d4 <_fflush_r>:
 80062d4:	690b      	ldr	r3, [r1, #16]
 80062d6:	b570      	push	{r4, r5, r6, lr}
 80062d8:	0005      	movs	r5, r0
 80062da:	000c      	movs	r4, r1
 80062dc:	2b00      	cmp	r3, #0
 80062de:	d102      	bne.n	80062e6 <_fflush_r+0x12>
 80062e0:	2500      	movs	r5, #0
 80062e2:	0028      	movs	r0, r5
 80062e4:	bd70      	pop	{r4, r5, r6, pc}
 80062e6:	2800      	cmp	r0, #0
 80062e8:	d004      	beq.n	80062f4 <_fflush_r+0x20>
 80062ea:	6a03      	ldr	r3, [r0, #32]
 80062ec:	2b00      	cmp	r3, #0
 80062ee:	d101      	bne.n	80062f4 <_fflush_r+0x20>
 80062f0:	f7ff f800 	bl	80052f4 <__sinit>
 80062f4:	220c      	movs	r2, #12
 80062f6:	5ea3      	ldrsh	r3, [r4, r2]
 80062f8:	2b00      	cmp	r3, #0
 80062fa:	d0f1      	beq.n	80062e0 <_fflush_r+0xc>
 80062fc:	6e62      	ldr	r2, [r4, #100]	@ 0x64
 80062fe:	07d2      	lsls	r2, r2, #31
 8006300:	d404      	bmi.n	800630c <_fflush_r+0x38>
 8006302:	059b      	lsls	r3, r3, #22
 8006304:	d402      	bmi.n	800630c <_fflush_r+0x38>
 8006306:	6da0      	ldr	r0, [r4, #88]	@ 0x58
 8006308:	f7ff fa39 	bl	800577e <__retarget_lock_acquire_recursive>
 800630c:	0028      	movs	r0, r5
 800630e:	0021      	movs	r1, r4
 8006310:	f7ff ff5a 	bl	80061c8 <__sflush_r>
 8006314:	6e63      	ldr	r3, [r4, #100]	@ 0x64
 8006316:	0005      	movs	r5, r0
 8006318:	07db      	lsls	r3, r3, #31
 800631a:	d4e2      	bmi.n	80062e2 <_fflush_r+0xe>
 800631c:	89a3      	ldrh	r3, [r4, #12]
 800631e:	059b      	lsls	r3, r3, #22
 8006320:	d4df      	bmi.n	80062e2 <_fflush_r+0xe>
 8006322:	6da0      	ldr	r0, [r4, #88]	@ 0x58
 8006324:	f7ff fa2c 	bl	8005780 <__retarget_lock_release_recursive>
 8006328:	e7db      	b.n	80062e2 <_fflush_r+0xe>
	...

0800632c <__swhatbuf_r>:
 800632c:	b570      	push	{r4, r5, r6, lr}
 800632e:	000e      	movs	r6, r1
 8006330:	001d      	movs	r5, r3
 8006332:	230e      	movs	r3, #14
 8006334:	5ec9      	ldrsh	r1, [r1, r3]
 8006336:	0014      	movs	r4, r2
 8006338:	b096      	sub	sp, #88	@ 0x58
 800633a:	2900      	cmp	r1, #0
 800633c:	da0c      	bge.n	8006358 <__swhatbuf_r+0x2c>
 800633e:	89b2      	ldrh	r2, [r6, #12]
 8006340:	2380      	movs	r3, #128	@ 0x80
 8006342:	0011      	movs	r1, r2
 8006344:	4019      	ands	r1, r3
 8006346:	421a      	tst	r2, r3
 8006348:	d114      	bne.n	8006374 <__swhatbuf_r+0x48>
 800634a:	2380      	movs	r3, #128	@ 0x80
 800634c:	00db      	lsls	r3, r3, #3
 800634e:	2000      	movs	r0, #0
 8006350:	6029      	str	r1, [r5, #0]
 8006352:	6023      	str	r3, [r4, #0]
 8006354:	b016      	add	sp, #88	@ 0x58
 8006356:	bd70      	pop	{r4, r5, r6, pc}
 8006358:	466a      	mov	r2, sp
 800635a:	f000 f853 	bl	8006404 <_fstat_r>
 800635e:	2800      	cmp	r0, #0
 8006360:	dbed      	blt.n	800633e <__swhatbuf_r+0x12>
 8006362:	23f0      	movs	r3, #240	@ 0xf0
 8006364:	9901      	ldr	r1, [sp, #4]
 8006366:	021b      	lsls	r3, r3, #8
 8006368:	4019      	ands	r1, r3
 800636a:	4b04      	ldr	r3, [pc, #16]	@ (800637c <__swhatbuf_r+0x50>)
 800636c:	18c9      	adds	r1, r1, r3
 800636e:	424b      	negs	r3, r1
 8006370:	4159      	adcs	r1, r3
 8006372:	e7ea      	b.n	800634a <__swhatbuf_r+0x1e>
 8006374:	2100      	movs	r1, #0
 8006376:	2340      	movs	r3, #64	@ 0x40
 8006378:	e7e9      	b.n	800634e <__swhatbuf_r+0x22>
 800637a:	46c0      	nop			@ (mov r8, r8)
 800637c:	ffffe000 	.word	0xffffe000

08006380 <__smakebuf_r>:
 8006380:	b5f0      	push	{r4, r5, r6, r7, lr}
 8006382:	2602      	movs	r6, #2
 8006384:	898b      	ldrh	r3, [r1, #12]
 8006386:	0005      	movs	r5, r0
 8006388:	000c      	movs	r4, r1
 800638a:	b085      	sub	sp, #20
 800638c:	4233      	tst	r3, r6
 800638e:	d007      	beq.n	80063a0 <__smakebuf_r+0x20>
 8006390:	0023      	movs	r3, r4
 8006392:	3347      	adds	r3, #71	@ 0x47
 8006394:	6023      	str	r3, [r4, #0]
 8006396:	6123      	str	r3, [r4, #16]
 8006398:	2301      	movs	r3, #1
 800639a:	6163      	str	r3, [r4, #20]
 800639c:	b005      	add	sp, #20
 800639e:	bdf0      	pop	{r4, r5, r6, r7, pc}
 80063a0:	ab03      	add	r3, sp, #12
 80063a2:	aa02      	add	r2, sp, #8
 80063a4:	f7ff ffc2 	bl	800632c <__swhatbuf_r>
 80063a8:	9f02      	ldr	r7, [sp, #8]
 80063aa:	9001      	str	r0, [sp, #4]
 80063ac:	0039      	movs	r1, r7
 80063ae:	0028      	movs	r0, r5
 80063b0:	f7ff fa5c 	bl	800586c <_malloc_r>
 80063b4:	2800      	cmp	r0, #0
 80063b6:	d108      	bne.n	80063ca <__smakebuf_r+0x4a>
 80063b8:	220c      	movs	r2, #12
 80063ba:	5ea3      	ldrsh	r3, [r4, r2]
 80063bc:	059a      	lsls	r2, r3, #22
 80063be:	d4ed      	bmi.n	800639c <__smakebuf_r+0x1c>
 80063c0:	2203      	movs	r2, #3
 80063c2:	4393      	bics	r3, r2
 80063c4:	431e      	orrs	r6, r3
 80063c6:	81a6      	strh	r6, [r4, #12]
 80063c8:	e7e2      	b.n	8006390 <__smakebuf_r+0x10>
 80063ca:	2380      	movs	r3, #128	@ 0x80
 80063cc:	89a2      	ldrh	r2, [r4, #12]
 80063ce:	6020      	str	r0, [r4, #0]
 80063d0:	4313      	orrs	r3, r2
 80063d2:	81a3      	strh	r3, [r4, #12]
 80063d4:	9b03      	ldr	r3, [sp, #12]
 80063d6:	6120      	str	r0, [r4, #16]
 80063d8:	6167      	str	r7, [r4, #20]
 80063da:	2b00      	cmp	r3, #0
 80063dc:	d00c      	beq.n	80063f8 <__smakebuf_r+0x78>
 80063de:	0028      	movs	r0, r5
 80063e0:	230e      	movs	r3, #14
 80063e2:	5ee1      	ldrsh	r1, [r4, r3]
 80063e4:	f000 f820 	bl	8006428 <_isatty_r>
 80063e8:	2800      	cmp	r0, #0
 80063ea:	d005      	beq.n	80063f8 <__smakebuf_r+0x78>
 80063ec:	2303      	movs	r3, #3
 80063ee:	89a2      	ldrh	r2, [r4, #12]
 80063f0:	439a      	bics	r2, r3
 80063f2:	3b02      	subs	r3, #2
 80063f4:	4313      	orrs	r3, r2
 80063f6:	81a3      	strh	r3, [r4, #12]
 80063f8:	89a3      	ldrh	r3, [r4, #12]
 80063fa:	9a01      	ldr	r2, [sp, #4]
 80063fc:	4313      	orrs	r3, r2
 80063fe:	81a3      	strh	r3, [r4, #12]
 8006400:	e7cc      	b.n	800639c <__smakebuf_r+0x1c>
	...

08006404 <_fstat_r>:
 8006404:	2300      	movs	r3, #0
 8006406:	b570      	push	{r4, r5, r6, lr}
 8006408:	4d06      	ldr	r5, [pc, #24]	@ (8006424 <_fstat_r+0x20>)
 800640a:	0004      	movs	r4, r0
 800640c:	0008      	movs	r0, r1
 800640e:	0011      	movs	r1, r2
 8006410:	602b      	str	r3, [r5, #0]
 8006412:	f7fa ff88 	bl	8001326 <_fstat>
 8006416:	1c43      	adds	r3, r0, #1
 8006418:	d103      	bne.n	8006422 <_fstat_r+0x1e>
 800641a:	682b      	ldr	r3, [r5, #0]
 800641c:	2b00      	cmp	r3, #0
 800641e:	d000      	beq.n	8006422 <_fstat_r+0x1e>
 8006420:	6023      	str	r3, [r4, #0]
 8006422:	bd70      	pop	{r4, r5, r6, pc}
 8006424:	20000934 	.word	0x20000934

08006428 <_isatty_r>:
 8006428:	2300      	movs	r3, #0
 800642a:	b570      	push	{r4, r5, r6, lr}
 800642c:	4d06      	ldr	r5, [pc, #24]	@ (8006448 <_isatty_r+0x20>)
 800642e:	0004      	movs	r4, r0
 8006430:	0008      	movs	r0, r1
 8006432:	602b      	str	r3, [r5, #0]
 8006434:	f7fa ff7c 	bl	8001330 <_isatty>
 8006438:	1c43      	adds	r3, r0, #1
 800643a:	d103      	bne.n	8006444 <_isatty_r+0x1c>
 800643c:	682b      	ldr	r3, [r5, #0]
 800643e:	2b00      	cmp	r3, #0
 8006440:	d000      	beq.n	8006444 <_isatty_r+0x1c>
 8006442:	6023      	str	r3, [r4, #0]
 8006444:	bd70      	pop	{r4, r5, r6, pc}
 8006446:	46c0      	nop			@ (mov r8, r8)
 8006448:	20000934 	.word	0x20000934

0800644c <_sbrk_r>:
 800644c:	2300      	movs	r3, #0
 800644e:	b570      	push	{r4, r5, r6, lr}
 8006450:	4d06      	ldr	r5, [pc, #24]	@ (800646c <_sbrk_r+0x20>)
 8006452:	0004      	movs	r4, r0
 8006454:	0008      	movs	r0, r1
 8006456:	602b      	str	r3, [r5, #0]
 8006458:	f7fa ff6e 	bl	8001338 <_sbrk>
 800645c:	1c43      	adds	r3, r0, #1
 800645e:	d103      	bne.n	8006468 <_sbrk_r+0x1c>
 8006460:	682b      	ldr	r3, [r5, #0]
 8006462:	2b00      	cmp	r3, #0
 8006464:	d000      	beq.n	8006468 <_sbrk_r+0x1c>
 8006466:	6023      	str	r3, [r4, #0]
 8006468:	bd70      	pop	{r4, r5, r6, pc}
 800646a:	46c0      	nop			@ (mov r8, r8)
 800646c:	20000934 	.word	0x20000934

08006470 <memchr>:
 8006470:	b2c9      	uxtb	r1, r1
 8006472:	1882      	adds	r2, r0, r2
 8006474:	4290      	cmp	r0, r2
 8006476:	d101      	bne.n	800647c <memchr+0xc>
 8006478:	2000      	movs	r0, #0
 800647a:	4770      	bx	lr
 800647c:	7803      	ldrb	r3, [r0, #0]
 800647e:	428b      	cmp	r3, r1
 8006480:	d0fb      	beq.n	800647a <memchr+0xa>
 8006482:	3001      	adds	r0, #1
 8006484:	e7f6      	b.n	8006474 <memchr+0x4>

08006486 <_realloc_r>:
 8006486:	b5f7      	push	{r0, r1, r2, r4, r5, r6, r7, lr}
 8006488:	0006      	movs	r6, r0
 800648a:	000c      	movs	r4, r1
 800648c:	0015      	movs	r5, r2
 800648e:	2900      	cmp	r1, #0
 8006490:	d105      	bne.n	800649e <_realloc_r+0x18>
 8006492:	0011      	movs	r1, r2
 8006494:	f7ff f9ea 	bl	800586c <_malloc_r>
 8006498:	0004      	movs	r4, r0
 800649a:	0020      	movs	r0, r4
 800649c:	bdfe      	pop	{r1, r2, r3, r4, r5, r6, r7, pc}
 800649e:	2a00      	cmp	r2, #0
 80064a0:	d103      	bne.n	80064aa <_realloc_r+0x24>
 80064a2:	f7ff f977 	bl	8005794 <_free_r>
 80064a6:	002c      	movs	r4, r5
 80064a8:	e7f7      	b.n	800649a <_realloc_r+0x14>
 80064aa:	f000 f81c 	bl	80064e6 <_malloc_usable_size_r>
 80064ae:	0007      	movs	r7, r0
 80064b0:	4285      	cmp	r5, r0
 80064b2:	d802      	bhi.n	80064ba <_realloc_r+0x34>
 80064b4:	0843      	lsrs	r3, r0, #1
 80064b6:	42ab      	cmp	r3, r5
 80064b8:	d3ef      	bcc.n	800649a <_realloc_r+0x14>
 80064ba:	0029      	movs	r1, r5
 80064bc:	0030      	movs	r0, r6
 80064be:	f7ff f9d5 	bl	800586c <_malloc_r>
 80064c2:	9001      	str	r0, [sp, #4]
 80064c4:	2800      	cmp	r0, #0
 80064c6:	d101      	bne.n	80064cc <_realloc_r+0x46>
 80064c8:	9c01      	ldr	r4, [sp, #4]
 80064ca:	e7e6      	b.n	800649a <_realloc_r+0x14>
 80064cc:	002a      	movs	r2, r5
 80064ce:	42bd      	cmp	r5, r7
 80064d0:	d900      	bls.n	80064d4 <_realloc_r+0x4e>
 80064d2:	003a      	movs	r2, r7
 80064d4:	0021      	movs	r1, r4
 80064d6:	9801      	ldr	r0, [sp, #4]
 80064d8:	f7ff f953 	bl	8005782 <memcpy>
 80064dc:	0021      	movs	r1, r4
 80064de:	0030      	movs	r0, r6
 80064e0:	f7ff f958 	bl	8005794 <_free_r>
 80064e4:	e7f0      	b.n	80064c8 <_realloc_r+0x42>

080064e6 <_malloc_usable_size_r>:
 80064e6:	1f0b      	subs	r3, r1, #4
 80064e8:	681b      	ldr	r3, [r3, #0]
 80064ea:	1f18      	subs	r0, r3, #4
 80064ec:	2b00      	cmp	r3, #0
 80064ee:	da01      	bge.n	80064f4 <_malloc_usable_size_r+0xe>
 80064f0:	580b      	ldr	r3, [r1, r0]
 80064f2:	18c0      	adds	r0, r0, r3
 80064f4:	4770      	bx	lr
	...

080064f8 <_init>:
 80064f8:	b5f8      	push	{r3, r4, r5, r6, r7, lr}
 80064fa:	46c0      	nop			@ (mov r8, r8)
 80064fc:	bcf8      	pop	{r3, r4, r5, r6, r7}
 80064fe:	bc08      	pop	{r3}
 8006500:	469e      	mov	lr, r3
 8006502:	4770      	bx	lr

08006504 <_fini>:
 8006504:	b5f8      	push	{r3, r4, r5, r6, r7, lr}
 8006506:	46c0      	nop			@ (mov r8, r8)
 8006508:	bcf8      	pop	{r3, r4, r5, r6, r7}
 800650a:	bc08      	pop	{r3}
 800650c:	469e      	mov	lr, r3
 800650e:	4770      	bx	lr
