
qpc_tetris.elf:     file format elf32-littlearm

Sections:
Idx Name          Size      VMA       LMA       File off  Algn
  0 .isr_vector   000000c0  08000000  08000000  00001000  2**0
                  CONTENTS, ALLOC, LOAD, READONLY, DATA
  1 .text         00003e20  080000c0  080000c0  000010c0  2**2
                  CONTENTS, ALLOC, LOAD, READONLY, CODE
  2 .rodata       000001f4  08003ee0  08003ee0  00004ee0  2**2
                  CONTENTS, ALLOC, LOAD, READONLY, DATA
  3 .ARM.extab    00000000  080040d4  080040d4  0000600c  2**0
                  CONTENTS, READONLY
  4 .ARM          00000000  080040d4  080040d4  0000600c  2**0
                  CONTENTS, READONLY
  5 .preinit_array 00000000  080040d4  080040d4  0000600c  2**0
                  CONTENTS, ALLOC, LOAD, DATA
  6 .init_array   00000004  080040d4  080040d4  000050d4  2**2
                  CONTENTS, ALLOC, LOAD, READONLY, DATA
  7 .fini_array   00000004  080040d8  080040d8  000050d8  2**2
                  CONTENTS, ALLOC, LOAD, READONLY, DATA
  8 .data         0000000c  20000000  080040dc  00006000  2**2
                  CONTENTS, ALLOC, LOAD, DATA
  9 .bss          0000041c  2000000c  080040e8  0000600c  2**2
                  ALLOC
 10 ._user_heap_stack 00000600  20000428  080040e8  00006428  2**0
                  ALLOC
 11 .ARM.attributes 00000028  00000000  00000000  0000600c  2**0
                  CONTENTS, READONLY
 12 .debug_info   0000a18b  00000000  00000000  00006034  2**0
                  CONTENTS, READONLY, DEBUGGING, OCTETS
 13 .debug_abbrev 0000349b  00000000  00000000  000101bf  2**0
                  CONTENTS, READONLY, DEBUGGING, OCTETS
 14 .debug_aranges 00000910  00000000  00000000  00013660  2**3
                  CONTENTS, READONLY, DEBUGGING, OCTETS
 15 .debug_rnglists 000006a5  00000000  00000000  00013f70  2**0
                  CONTENTS, READONLY, DEBUGGING, OCTETS
 16 .debug_macro  00012b42  00000000  00000000  00014615  2**0
                  CONTENTS, READONLY, DEBUGGING, OCTETS
 17 .debug_line   0000bc69  00000000  00000000  00027157  2**0
                  CONTENTS, READONLY, DEBUGGING, OCTETS
 18 .debug_str    0006f521  00000000  00000000  00032dc0  2**0
                  CONTENTS, READONLY, DEBUGGING, OCTETS
 19 .comment      00000043  00000000  00000000  000a22e1  2**0
                  CONTENTS, READONLY
 20 .debug_frame  00001bf8  00000000  00000000  000a2324  2**2
                  CONTENTS, READONLY, DEBUGGING, OCTETS
 21 .debug_line_str 00000060  00000000  00000000  000a3f1c  2**0
                  CONTENTS, READONLY, DEBUGGING, OCTETS

Disassembly of section .text:

080000c0 <__do_global_dtors_aux>:
 80000c0:	b510      	push	{r4, lr}
 80000c2:	4c06      	ldr	r4, [pc, #24]	@ (80000dc <__do_global_dtors_aux+0x1c>)
 80000c4:	7823      	ldrb	r3, [r4, #0]
 80000c6:	2b00      	cmp	r3, #0
 80000c8:	d107      	bne.n	80000da <__do_global_dtors_aux+0x1a>
 80000ca:	4b05      	ldr	r3, [pc, #20]	@ (80000e0 <__do_global_dtors_aux+0x20>)
 80000cc:	2b00      	cmp	r3, #0
 80000ce:	d002      	beq.n	80000d6 <__do_global_dtors_aux+0x16>
 80000d0:	4804      	ldr	r0, [pc, #16]	@ (80000e4 <__do_global_dtors_aux+0x24>)
 80000d2:	e000      	b.n	80000d6 <__do_global_dtors_aux+0x16>
 80000d4:	bf00      	nop
 80000d6:	2301      	movs	r3, #1
 80000d8:	7023      	strb	r3, [r4, #0]
 80000da:	bd10      	pop	{r4, pc}
 80000dc:	2000000c 	.word	0x2000000c
 80000e0:	00000000 	.word	0x00000000
 80000e4:	08003ec8 	.word	0x08003ec8

080000e8 <frame_dummy>:
 80000e8:	4b04      	ldr	r3, [pc, #16]	@ (80000fc <frame_dummy+0x14>)
 80000ea:	b510      	push	{r4, lr}
 80000ec:	2b00      	cmp	r3, #0
 80000ee:	d003      	beq.n	80000f8 <frame_dummy+0x10>
 80000f0:	4903      	ldr	r1, [pc, #12]	@ (8000100 <frame_dummy+0x18>)
 80000f2:	4804      	ldr	r0, [pc, #16]	@ (8000104 <frame_dummy+0x1c>)
 80000f4:	e000      	b.n	80000f8 <frame_dummy+0x10>
 80000f6:	bf00      	nop
 80000f8:	bd10      	pop	{r4, pc}
 80000fa:	46c0      	nop			@ (mov r8, r8)
 80000fc:	00000000 	.word	0x00000000
 8000100:	20000010 	.word	0x20000010
 8000104:	08003ec8 	.word	0x08003ec8

08000108 <__udivsi3>:
 8000108:	2200      	movs	r2, #0
 800010a:	0843      	lsrs	r3, r0, #1
 800010c:	428b      	cmp	r3, r1
 800010e:	d374      	bcc.n	80001fa <__udivsi3+0xf2>
 8000110:	0903      	lsrs	r3, r0, #4
 8000112:	428b      	cmp	r3, r1
 8000114:	d35f      	bcc.n	80001d6 <__udivsi3+0xce>
 8000116:	0a03      	lsrs	r3, r0, #8
 8000118:	428b      	cmp	r3, r1
 800011a:	d344      	bcc.n	80001a6 <__udivsi3+0x9e>
 800011c:	0b03      	lsrs	r3, r0, #12
 800011e:	428b      	cmp	r3, r1
 8000120:	d328      	bcc.n	8000174 <__udivsi3+0x6c>
 8000122:	0c03      	lsrs	r3, r0, #16
 8000124:	428b      	cmp	r3, r1
 8000126:	d30d      	bcc.n	8000144 <__udivsi3+0x3c>
 8000128:	22ff      	movs	r2, #255	@ 0xff
 800012a:	0209      	lsls	r1, r1, #8
 800012c:	ba12      	rev	r2, r2
 800012e:	0c03      	lsrs	r3, r0, #16
 8000130:	428b      	cmp	r3, r1
 8000132:	d302      	bcc.n	800013a <__udivsi3+0x32>
 8000134:	1212      	asrs	r2, r2, #8
 8000136:	0209      	lsls	r1, r1, #8
 8000138:	d065      	beq.n	8000206 <__udivsi3+0xfe>
 800013a:	0b03      	lsrs	r3, r0, #12
 800013c:	428b      	cmp	r3, r1
 800013e:	d319      	bcc.n	8000174 <__udivsi3+0x6c>
 8000140:	e000      	b.n	8000144 <__udivsi3+0x3c>
 8000142:	0a09      	lsrs	r1, r1, #8
 8000144:	0bc3      	lsrs	r3, r0, #15
 8000146:	428b      	cmp	r3, r1
 8000148:	d301      	bcc.n	800014e <__udivsi3+0x46>
 800014a:	03cb      	lsls	r3, r1, #15
 800014c:	1ac0      	subs	r0, r0, r3
 800014e:	4152      	adcs	r2, r2
 8000150:	0b83      	lsrs	r3, r0, #14
 8000152:	428b      	cmp	r3, r1
 8000154:	d301      	bcc.n	800015a <__udivsi3+0x52>
 8000156:	038b      	lsls	r3, r1, #14
 8000158:	1ac0      	subs	r0, r0, r3
 800015a:	4152      	adcs	r2, r2
 800015c:	0b43      	lsrs	r3, r0, #13
 800015e:	428b      	cmp	r3, r1
 8000160:	d301      	bcc.n	8000166 <__udivsi3+0x5e>
 8000162:	034b      	lsls	r3, r1, #13
 8000164:	1ac0      	subs	r0, r0, r3
 8000166:	4152      	adcs	r2, r2
 8000168:	0b03      	lsrs	r3, r0, #12
 800016a:	428b      	cmp	r3, r1
 800016c:	d301      	bcc.n	8000172 <__udivsi3+0x6a>
 800016e:	030b      	lsls	r3, r1, #12
 8000170:	1ac0      	subs	r0, r0, r3
 8000172:	4152      	adcs	r2, r2
 8000174:	0ac3      	lsrs	r3, r0, #11
 8000176:	428b      	cmp	r3, r1
 8000178:	d301      	bcc.n	800017e <__udivsi3+0x76>
 800017a:	02cb      	lsls	r3, r1, #11
 800017c:	1ac0      	subs	r0, r0, r3
 800017e:	4152      	adcs	r2, r2
 8000180:	0a83      	lsrs	r3, r0, #10
 8000182:	428b      	cmp	r3, r1
 8000184:	d301      	bcc.n	800018a <__udivsi3+0x82>
 8000186:	028b      	lsls	r3, r1, #10
 8000188:	1ac0      	subs	r0, r0, r3
 800018a:	4152      	adcs	r2, r2
 800018c:	0a43      	lsrs	r3, r0, #9
 800018e:	428b      	cmp	r3, r1
 8000190:	d301      	bcc.n	8000196 <__udivsi3+0x8e>
 8000192:	024b      	lsls	r3, r1, #9
 8000194:	1ac0      	subs	r0, r0, r3
 8000196:	4152      	adcs	r2, r2
 8000198:	0a03      	lsrs	r3, r0, #8
 800019a:	428b      	cmp	r3, r1
 800019c:	d301      	bcc.n	80001a2 <__udivsi3+0x9a>
 800019e:	020b      	lsls	r3, r1, #8
 80001a0:	1ac0      	subs	r0, r0, r3
 80001a2:	4152      	adcs	r2, r2
 80001a4:	d2cd      	bcs.n	8000142 <__udivsi3+0x3a>
 80001a6:	09c3      	lsrs	r3, r0, #7
 80001a8:	428b      	cmp	r3, r1
 80001aa:	d301      	bcc.n	80001b0 <__udivsi3+0xa8>
 80001ac:	01cb      	lsls	r3, r1, #7
 80001ae:	1ac0      	subs	r0, r0, r3
 80001b0:	4152      	adcs	r2, r2
 80001b2:	0983      	lsrs	r3, r0, #6
 80001b4:	428b      	cmp	r3, r1
 80001b6:	d301      	bcc.n	80001bc <__udivsi3+0xb4>
 80001b8:	018b      	lsls	r3, r1, #6
 80001ba:	1ac0      	subs	r0, r0, r3
 80001bc:	4152      	adcs	r2, r2
 80001be:	0943      	lsrs	r3, r0, #5
 80001c0:	428b      	cmp	r3, r1
 80001c2:	d301      	bcc.n	80001c8 <__udivsi3+0xc0>
 80001c4:	014b      	lsls	r3, r1, #5
 80001c6:	1ac0      	subs	r0, r0, r3
 80001c8:	4152      	adcs	r2, r2
 80001ca:	0903      	lsrs	r3, r0, #4
 80001cc:	428b      	cmp	r3, r1
 80001ce:	d301      	bcc.n	80001d4 <__udivsi3+0xcc>
 80001d0:	010b      	lsls	r3, r1, #4
 80001d2:	1ac0      	subs	r0, r0, r3
 80001d4:	4152      	adcs	r2, r2
 80001d6:	08c3      	lsrs	r3, r0, #3
 80001d8:	428b      	cmp	r3, r1
 80001da:	d301      	bcc.n	80001e0 <__udivsi3+0xd8>
 80001dc:	00cb      	lsls	r3, r1, #3
 80001de:	1ac0      	subs	r0, r0, r3
 80001e0:	4152      	adcs	r2, r2
 80001e2:	0883      	lsrs	r3, r0, #2
 80001e4:	428b      	cmp	r3, r1
 80001e6:	d301      	bcc.n	80001ec <__udivsi3+0xe4>
 80001e8:	008b      	lsls	r3, r1, #2
 80001ea:	1ac0      	subs	r0, r0, r3
 80001ec:	4152      	adcs	r2, r2
 80001ee:	0843      	lsrs	r3, r0, #1
 80001f0:	428b      	cmp	r3, r1
 80001f2:	d301      	bcc.n	80001f8 <__udivsi3+0xf0>
 80001f4:	004b      	lsls	r3, r1, #1
 80001f6:	1ac0      	subs	r0, r0, r3
 80001f8:	4152      	adcs	r2, r2
 80001fa:	1a41      	subs	r1, r0, r1
 80001fc:	d200      	bcs.n	8000200 <__udivsi3+0xf8>
 80001fe:	4601      	mov	r1, r0
 8000200:	4152      	adcs	r2, r2
 8000202:	4610      	mov	r0, r2
 8000204:	4770      	bx	lr
 8000206:	e7ff      	b.n	8000208 <__udivsi3+0x100>
 8000208:	b501      	push	{r0, lr}
 800020a:	2000      	movs	r0, #0
 800020c:	f000 f806 	bl	800021c <__aeabi_idiv0>
 8000210:	bd02      	pop	{r1, pc}
 8000212:	46c0      	nop			@ (mov r8, r8)

08000214 <__aeabi_uidivmod>:
 8000214:	2900      	cmp	r1, #0
 8000216:	d0f7      	beq.n	8000208 <__udivsi3+0x100>
 8000218:	e776      	b.n	8000108 <__udivsi3>
 800021a:	4770      	bx	lr

0800021c <__aeabi_idiv0>:
 800021c:	4770      	bx	lr
 800021e:	46c0      	nop			@ (mov r8, r8)

08000220 <Q_PRIO>:
    void QF_onContextSw(
        QActive * prev,
        QActive * next);
#endif // def QF_ON_CONTEXT_SW

static inline QPrioSpec Q_PRIO(uint8_t const prio, uint8_t const pthre) {
 8000220:	b580      	push	{r7, lr}
 8000222:	b082      	sub	sp, #8
 8000224:	af00      	add	r7, sp, #0
 8000226:	0002      	movs	r2, r0
 8000228:	1dfb      	adds	r3, r7, #7
 800022a:	701a      	strb	r2, [r3, #0]
 800022c:	1dbb      	adds	r3, r7, #6
 800022e:	1c0a      	adds	r2, r1, #0
 8000230:	701a      	strb	r2, [r3, #0]
    // combine the QF prio. preemption-threshld pthre in the upper byte
    return (QPrioSpec)((uint32_t)prio | ((uint32_t)pthre << 8U));
 8000232:	1dfb      	adds	r3, r7, #7
 8000234:	781b      	ldrb	r3, [r3, #0]
 8000236:	b29a      	uxth	r2, r3
 8000238:	1dbb      	adds	r3, r7, #6
 800023a:	781b      	ldrb	r3, [r3, #0]
 800023c:	b29b      	uxth	r3, r3
 800023e:	021b      	lsls	r3, r3, #8
 8000240:	b29b      	uxth	r3, r3
 8000242:	4313      	orrs	r3, r2
 8000244:	b29b      	uxth	r3, r3
}
 8000246:	0018      	movs	r0, r3
 8000248:	46bd      	mov	sp, r7
 800024a:	b002      	add	sp, #8
 800024c:	bd80      	pop	{r7, pc}
	...

08000250 <__NVIC_EnableIRQ>:
  \details Enables a device specific interrupt in the NVIC interrupt controller.
  \param [in]      IRQn  Device specific interrupt number.
  \note    IRQn must not be negative.
 */
__STATIC_INLINE void __NVIC_EnableIRQ(IRQn_Type IRQn)
{
 8000250:	b580      	push	{r7, lr}
 8000252:	b082      	sub	sp, #8
 8000254:	af00      	add	r7, sp, #0
 8000256:	0002      	movs	r2, r0
 8000258:	1dfb      	adds	r3, r7, #7
 800025a:	701a      	strb	r2, [r3, #0]
  if ((int32_t)(IRQn) >= 0)
 800025c:	1dfb      	adds	r3, r7, #7
 800025e:	781b      	ldrb	r3, [r3, #0]
 8000260:	2b7f      	cmp	r3, #127	@ 0x7f
 8000262:	d809      	bhi.n	8000278 <__NVIC_EnableIRQ+0x28>
  {
    __COMPILER_BARRIER();
    NVIC->ISER[0U] = (uint32_t)(1UL << (((uint32_t)IRQn) & 0x1FUL));
 8000264:	1dfb      	adds	r3, r7, #7
 8000266:	781b      	ldrb	r3, [r3, #0]
 8000268:	001a      	movs	r2, r3
 800026a:	231f      	movs	r3, #31
 800026c:	401a      	ands	r2, r3
 800026e:	4b04      	ldr	r3, [pc, #16]	@ (8000280 <__NVIC_EnableIRQ+0x30>)
 8000270:	2101      	movs	r1, #1
 8000272:	4091      	lsls	r1, r2
 8000274:	000a      	movs	r2, r1
 8000276:	601a      	str	r2, [r3, #0]
    __COMPILER_BARRIER();
  }
}
 8000278:	46c0      	nop			@ (mov r8, r8)
 800027a:	46bd      	mov	sp, r7
 800027c:	b002      	add	sp, #8
 800027e:	bd80      	pop	{r7, pc}
 8000280:	e000e100 	.word	0xe000e100

08000284 <__NVIC_SetPriority>:
  \param [in]      IRQn  Interrupt number.
  \param [in]  priority  Priority to set.
  \note    The priority cannot be set for every processor exception.
 */
__STATIC_INLINE void __NVIC_SetPriority(IRQn_Type IRQn, uint32_t priority)
{
 8000284:	b590      	push	{r4, r7, lr}
 8000286:	b083      	sub	sp, #12
 8000288:	af00      	add	r7, sp, #0
 800028a:	0002      	movs	r2, r0
 800028c:	6039      	str	r1, [r7, #0]
 800028e:	1dfb      	adds	r3, r7, #7
 8000290:	701a      	strb	r2, [r3, #0]
  if ((int32_t)(IRQn) >= 0)
 8000292:	1dfb      	adds	r3, r7, #7
 8000294:	781b      	ldrb	r3, [r3, #0]
 8000296:	2b7f      	cmp	r3, #127	@ 0x7f
 8000298:	d828      	bhi.n	80002ec <__NVIC_SetPriority+0x68>
  {
    NVIC->IP[_IP_IDX(IRQn)]  = ((uint32_t)(NVIC->IP[_IP_IDX(IRQn)]  & ~(0xFFUL << _BIT_SHIFT(IRQn))) |
 800029a:	4a2f      	ldr	r2, [pc, #188]	@ (8000358 <__NVIC_SetPriority+0xd4>)
 800029c:	1dfb      	adds	r3, r7, #7
 800029e:	781b      	ldrb	r3, [r3, #0]
 80002a0:	b25b      	sxtb	r3, r3
 80002a2:	089b      	lsrs	r3, r3, #2
 80002a4:	33c0      	adds	r3, #192	@ 0xc0
 80002a6:	009b      	lsls	r3, r3, #2
 80002a8:	589b      	ldr	r3, [r3, r2]
 80002aa:	1dfa      	adds	r2, r7, #7
 80002ac:	7812      	ldrb	r2, [r2, #0]
 80002ae:	0011      	movs	r1, r2
 80002b0:	2203      	movs	r2, #3
 80002b2:	400a      	ands	r2, r1
 80002b4:	00d2      	lsls	r2, r2, #3
 80002b6:	21ff      	movs	r1, #255	@ 0xff
 80002b8:	4091      	lsls	r1, r2
 80002ba:	000a      	movs	r2, r1
 80002bc:	43d2      	mvns	r2, r2
 80002be:	401a      	ands	r2, r3
 80002c0:	0011      	movs	r1, r2
       (((priority << (8U - __NVIC_PRIO_BITS)) & (uint32_t)0xFFUL) << _BIT_SHIFT(IRQn)));
 80002c2:	683b      	ldr	r3, [r7, #0]
 80002c4:	019b      	lsls	r3, r3, #6
 80002c6:	22ff      	movs	r2, #255	@ 0xff
 80002c8:	401a      	ands	r2, r3
 80002ca:	1dfb      	adds	r3, r7, #7
 80002cc:	781b      	ldrb	r3, [r3, #0]
 80002ce:	0018      	movs	r0, r3
 80002d0:	2303      	movs	r3, #3
 80002d2:	4003      	ands	r3, r0
 80002d4:	00db      	lsls	r3, r3, #3
 80002d6:	409a      	lsls	r2, r3
    NVIC->IP[_IP_IDX(IRQn)]  = ((uint32_t)(NVIC->IP[_IP_IDX(IRQn)]  & ~(0xFFUL << _BIT_SHIFT(IRQn))) |
 80002d8:	481f      	ldr	r0, [pc, #124]	@ (8000358 <__NVIC_SetPriority+0xd4>)
 80002da:	1dfb      	adds	r3, r7, #7
 80002dc:	781b      	ldrb	r3, [r3, #0]
 80002de:	b25b      	sxtb	r3, r3
 80002e0:	089b      	lsrs	r3, r3, #2
 80002e2:	430a      	orrs	r2, r1
 80002e4:	33c0      	adds	r3, #192	@ 0xc0
 80002e6:	009b      	lsls	r3, r3, #2
 80002e8:	501a      	str	r2, [r3, r0]
  else
  {
    SCB->SHP[_SHP_IDX(IRQn)] = ((uint32_t)(SCB->SHP[_SHP_IDX(IRQn)] & ~(0xFFUL << _BIT_SHIFT(IRQn))) |
       (((priority << (8U - __NVIC_PRIO_BITS)) & (uint32_t)0xFFUL) << _BIT_SHIFT(IRQn)));
  }
}
 80002ea:	e031      	b.n	8000350 <__NVIC_SetPriority+0xcc>
    SCB->SHP[_SHP_IDX(IRQn)] = ((uint32_t)(SCB->SHP[_SHP_IDX(IRQn)] & ~(0xFFUL << _BIT_SHIFT(IRQn))) |
 80002ec:	4a1b      	ldr	r2, [pc, #108]	@ (800035c <__NVIC_SetPriority+0xd8>)
 80002ee:	1dfb      	adds	r3, r7, #7
 80002f0:	781b      	ldrb	r3, [r3, #0]
 80002f2:	0019      	movs	r1, r3
 80002f4:	230f      	movs	r3, #15
 80002f6:	400b      	ands	r3, r1
 80002f8:	3b08      	subs	r3, #8
 80002fa:	089b      	lsrs	r3, r3, #2
 80002fc:	3306      	adds	r3, #6
 80002fe:	009b      	lsls	r3, r3, #2
 8000300:	18d3      	adds	r3, r2, r3
 8000302:	3304      	adds	r3, #4
 8000304:	681b      	ldr	r3, [r3, #0]
 8000306:	1dfa      	adds	r2, r7, #7
 8000308:	7812      	ldrb	r2, [r2, #0]
 800030a:	0011      	movs	r1, r2
 800030c:	2203      	movs	r2, #3
 800030e:	400a      	ands	r2, r1
 8000310:	00d2      	lsls	r2, r2, #3
 8000312:	21ff      	movs	r1, #255	@ 0xff
 8000314:	4091      	lsls	r1, r2
 8000316:	000a      	movs	r2, r1
 8000318:	43d2      	mvns	r2, r2
 800031a:	401a      	ands	r2, r3
 800031c:	0011      	movs	r1, r2
       (((priority << (8U - __NVIC_PRIO_BITS)) & (uint32_t)0xFFUL) << _BIT_SHIFT(IRQn)));
 800031e:	683b      	ldr	r3, [r7, #0]
 8000320:	019b      	lsls	r3, r3, #6
 8000322:	22ff      	movs	r2, #255	@ 0xff
 8000324:	401a      	ands	r2, r3
 8000326:	1dfb      	adds	r3, r7, #7
 8000328:	781b      	ldrb	r3, [r3, #0]
 800032a:	0018      	movs	r0, r3
 800032c:	2303      	movs	r3, #3
 800032e:	4003      	ands	r3, r0
 8000330:	00db      	lsls	r3, r3, #3
 8000332:	409a      	lsls	r2, r3
    SCB->SHP[_SHP_IDX(IRQn)] = ((uint32_t)(SCB->SHP[_SHP_IDX(IRQn)] & ~(0xFFUL << _BIT_SHIFT(IRQn))) |
 8000334:	4809      	ldr	r0, [pc, #36]	@ (800035c <__NVIC_SetPriority+0xd8>)
 8000336:	1dfb      	adds	r3, r7, #7
 8000338:	781b      	ldrb	r3, [r3, #0]
 800033a:	001c      	movs	r4, r3
 800033c:	230f      	movs	r3, #15
 800033e:	4023      	ands	r3, r4
 8000340:	3b08      	subs	r3, #8
 8000342:	089b      	lsrs	r3, r3, #2
 8000344:	430a      	orrs	r2, r1
 8000346:	3306      	adds	r3, #6
 8000348:	009b      	lsls	r3, r3, #2
 800034a:	18c3      	adds	r3, r0, r3
 800034c:	3304      	adds	r3, #4
 800034e:	601a      	str	r2, [r3, #0]
}
 8000350:	46c0      	nop			@ (mov r8, r8)
 8000352:	46bd      	mov	sp, r7
 8000354:	b003      	add	sp, #12
 8000356:	bd90      	pop	{r4, r7, pc}
 8000358:	e000e100 	.word	0xe000e100
 800035c:	e000ed00 	.word	0xe000ed00

08000360 <SysTick_Config>:
  \note    When the variable <b>__Vendor_SysTickConfig</b> is set to 1, then the
           function <b>SysTick_Config</b> is not included. In this case, the file <b><i>device</i>.h</b>
           must contain a vendor-specific implementation of this function.
 */
__STATIC_INLINE uint32_t SysTick_Config(uint32_t ticks)
{
 8000360:	b580      	push	{r7, lr}
 8000362:	b082      	sub	sp, #8
 8000364:	af00      	add	r7, sp, #0
 8000366:	6078      	str	r0, [r7, #4]
  if ((ticks - 1UL) > SysTick_LOAD_RELOAD_Msk)
 8000368:	687b      	ldr	r3, [r7, #4]
 800036a:	1e5a      	subs	r2, r3, #1
 800036c:	2380      	movs	r3, #128	@ 0x80
 800036e:	045b      	lsls	r3, r3, #17
 8000370:	429a      	cmp	r2, r3
 8000372:	d301      	bcc.n	8000378 <SysTick_Config+0x18>
  {
    return (1UL);                                                   /* Reload value impossible */
 8000374:	2301      	movs	r3, #1
 8000376:	e010      	b.n	800039a <SysTick_Config+0x3a>
  }

  SysTick->LOAD  = (uint32_t)(ticks - 1UL);                         /* set reload register */
 8000378:	4b0a      	ldr	r3, [pc, #40]	@ (80003a4 <SysTick_Config+0x44>)
 800037a:	687a      	ldr	r2, [r7, #4]
 800037c:	3a01      	subs	r2, #1
 800037e:	605a      	str	r2, [r3, #4]
  NVIC_SetPriority (SysTick_IRQn, (1UL << __NVIC_PRIO_BITS) - 1UL); /* set Priority for Systick Interrupt */
 8000380:	2301      	movs	r3, #1
 8000382:	425b      	negs	r3, r3
 8000384:	2103      	movs	r1, #3
 8000386:	0018      	movs	r0, r3
 8000388:	f7ff ff7c 	bl	8000284 <__NVIC_SetPriority>
  SysTick->VAL   = 0UL;                                             /* Load the SysTick Counter Value */
 800038c:	4b05      	ldr	r3, [pc, #20]	@ (80003a4 <SysTick_Config+0x44>)
 800038e:	2200      	movs	r2, #0
 8000390:	609a      	str	r2, [r3, #8]
  SysTick->CTRL  = SysTick_CTRL_CLKSOURCE_Msk |
 8000392:	4b04      	ldr	r3, [pc, #16]	@ (80003a4 <SysTick_Config+0x44>)
 8000394:	2207      	movs	r2, #7
 8000396:	601a      	str	r2, [r3, #0]
                   SysTick_CTRL_TICKINT_Msk   |
                   SysTick_CTRL_ENABLE_Msk;                         /* Enable SysTick IRQ and SysTick Timer */
  return (0UL);                                                     /* Function successful */
 8000398:	2300      	movs	r3, #0
}
 800039a:	0018      	movs	r0, r3
 800039c:	46bd      	mov	sp, r7
 800039e:	b002      	add	sp, #8
 80003a0:	bd80      	pop	{r7, pc}
 80003a2:	46c0      	nop			@ (mov r8, r8)
 80003a4:	e000e010 	.word	0xe000e010

080003a8 <Q_onError>:
#endif

//============================================================================
// Error handler and ISRs...

Q_NORETURN Q_onError(char const * const module, int_t const id) {
 80003a8:	b580      	push	{r7, lr}
 80003aa:	b082      	sub	sp, #8
 80003ac:	af00      	add	r7, sp, #0
 80003ae:	6078      	str	r0, [r7, #4]
 80003b0:	6039      	str	r1, [r7, #0]
    Q_UNUSED_PAR(id);
    QS_ASSERTION(module, id, 10000U);

#ifndef NDEBUG
    // light up the user LED
    GPIOA->BSRR = (1U << LD4_PIN);  // turn LED on
 80003b2:	23a0      	movs	r3, #160	@ 0xa0
 80003b4:	05db      	lsls	r3, r3, #23
 80003b6:	2220      	movs	r2, #32
 80003b8:	619a      	str	r2, [r3, #24]
    // for debugging, hang on in an endless loop...
    for (;;) {
 80003ba:	46c0      	nop			@ (mov r8, r8)
 80003bc:	e7fd      	b.n	80003ba <Q_onError+0x12>
	...

080003c0 <SysTick_Handler>:
}

// ISRs used in the application ============================================

void SysTick_Handler(void); // prototype
void SysTick_Handler(void) {
 80003c0:	b580      	push	{r7, lr}
 80003c2:	b082      	sub	sp, #8
 80003c4:	af00      	add	r7, sp, #0
    QK_ISR_ENTRY();   // inform QK about entering an ISR

    QTIMEEVT_TICK_X(0U, &l_SysTick_Handler); // time events at rate 0
 80003c6:	2100      	movs	r1, #0
 80003c8:	2000      	movs	r0, #0
 80003ca:	f003 fa8d 	bl	80038e8 <QTimeEvt_tick_>
    static struct {
        uint32_t depressed;
        uint32_t previous;
    } buttons = { 0U, 0U };

    uint32_t current = ~GPIOC->IDR; // read Port C with state of Button B1
 80003ce:	4b25      	ldr	r3, [pc, #148]	@ (8000464 <SysTick_Handler+0xa4>)
 80003d0:	691b      	ldr	r3, [r3, #16]
 80003d2:	43db      	mvns	r3, r3
 80003d4:	607b      	str	r3, [r7, #4]
    uint32_t tmp = buttons.depressed; // save the depressed buttons
 80003d6:	4b24      	ldr	r3, [pc, #144]	@ (8000468 <SysTick_Handler+0xa8>)
 80003d8:	681b      	ldr	r3, [r3, #0]
 80003da:	603b      	str	r3, [r7, #0]
    buttons.depressed |= (buttons.previous & current); // set depressed
 80003dc:	4b22      	ldr	r3, [pc, #136]	@ (8000468 <SysTick_Handler+0xa8>)
 80003de:	681a      	ldr	r2, [r3, #0]
 80003e0:	4b21      	ldr	r3, [pc, #132]	@ (8000468 <SysTick_Handler+0xa8>)
 80003e2:	685b      	ldr	r3, [r3, #4]
 80003e4:	6879      	ldr	r1, [r7, #4]
 80003e6:	400b      	ands	r3, r1
 80003e8:	431a      	orrs	r2, r3
 80003ea:	4b1f      	ldr	r3, [pc, #124]	@ (8000468 <SysTick_Handler+0xa8>)
 80003ec:	601a      	str	r2, [r3, #0]
    buttons.depressed &= (buttons.previous | current); // clear released
 80003ee:	4b1e      	ldr	r3, [pc, #120]	@ (8000468 <SysTick_Handler+0xa8>)
 80003f0:	681a      	ldr	r2, [r3, #0]
 80003f2:	4b1d      	ldr	r3, [pc, #116]	@ (8000468 <SysTick_Handler+0xa8>)
 80003f4:	6859      	ldr	r1, [r3, #4]
 80003f6:	687b      	ldr	r3, [r7, #4]
 80003f8:	430b      	orrs	r3, r1
 80003fa:	401a      	ands	r2, r3
 80003fc:	4b1a      	ldr	r3, [pc, #104]	@ (8000468 <SysTick_Handler+0xa8>)
 80003fe:	601a      	str	r2, [r3, #0]
    buttons.previous   = current; // update the history
 8000400:	4b19      	ldr	r3, [pc, #100]	@ (8000468 <SysTick_Handler+0xa8>)
 8000402:	687a      	ldr	r2, [r7, #4]
 8000404:	605a      	str	r2, [r3, #4]
    tmp ^= buttons.depressed;     // changed debounced depressed
 8000406:	4b18      	ldr	r3, [pc, #96]	@ (8000468 <SysTick_Handler+0xa8>)
 8000408:	681b      	ldr	r3, [r3, #0]
 800040a:	683a      	ldr	r2, [r7, #0]
 800040c:	4053      	eors	r3, r2
 800040e:	603b      	str	r3, [r7, #0]
    current = buttons.depressed;
 8000410:	4b15      	ldr	r3, [pc, #84]	@ (8000468 <SysTick_Handler+0xa8>)
 8000412:	681b      	ldr	r3, [r3, #0]
 8000414:	607b      	str	r3, [r7, #4]

    if ((tmp & (1U << B1_PIN)) != 0U) { // debounced B1 state changed?
 8000416:	683a      	ldr	r2, [r7, #0]
 8000418:	2380      	movs	r3, #128	@ 0x80
 800041a:	019b      	lsls	r3, r3, #6
 800041c:	4013      	ands	r3, r2
 800041e:	d011      	beq.n	8000444 <SysTick_Handler+0x84>
        if ((current & (1U << B1_PIN)) != 0U) { // is B1 depressed?
 8000420:	687a      	ldr	r2, [r7, #4]
 8000422:	2380      	movs	r3, #128	@ 0x80
 8000424:	019b      	lsls	r3, r3, #6
 8000426:	4013      	ands	r3, r2
 8000428:	d006      	beq.n	8000438 <SysTick_Handler+0x78>
            static QEvt const pauseEvt = QEVT_INITIALIZER(PAUSE_SIG);
            QACTIVE_PUBLISH(&pauseEvt, &l_SysTick_Handler);
 800042a:	4b10      	ldr	r3, [pc, #64]	@ (800046c <SysTick_Handler+0xac>)
 800042c:	2200      	movs	r2, #0
 800042e:	2100      	movs	r1, #0
 8000430:	0018      	movs	r0, r3
 8000432:	f002 fefd 	bl	8003230 <QActive_publish_>
 8000436:	e005      	b.n	8000444 <SysTick_Handler+0x84>
        }
        else { // the button is released
            static QEvt const serveEvt = QEVT_INITIALIZER(SERVE_SIG);
            QACTIVE_PUBLISH(&serveEvt, &l_SysTick_Handler);
 8000438:	4b0d      	ldr	r3, [pc, #52]	@ (8000470 <SysTick_Handler+0xb0>)
 800043a:	2200      	movs	r2, #0
 800043c:	2100      	movs	r1, #0
 800043e:	0018      	movs	r0, r3
 8000440:	f002 fef6 	bl	8003230 <QActive_publish_>
#ifdef Q_SPY
    tmp = SysTick->CTRL; // clear CTRL_COUNTFLAG
    QS_tickTime_ += QS_tickPeriod_; // account for the clock rollover
#endif

    QK_ISR_EXIT();  // inform QK about exiting an ISR
 8000444:	f001 feae 	bl	80021a4 <QF_int_disable_>
 8000448:	f003 fb76 	bl	8003b38 <QK_sched_>
 800044c:	1e03      	subs	r3, r0, #0
 800044e:	d003      	beq.n	8000458 <SysTick_Handler+0x98>
 8000450:	4b08      	ldr	r3, [pc, #32]	@ (8000474 <SysTick_Handler+0xb4>)
 8000452:	2280      	movs	r2, #128	@ 0x80
 8000454:	0552      	lsls	r2, r2, #21
 8000456:	601a      	str	r2, [r3, #0]
 8000458:	f001 feb4 	bl	80021c4 <QF_int_enable_>
}
 800045c:	46c0      	nop			@ (mov r8, r8)
 800045e:	46bd      	mov	sp, r7
 8000460:	b002      	add	sp, #8
 8000462:	bd80      	pop	{r7, pc}
 8000464:	50000800 	.word	0x50000800
 8000468:	2000002c 	.word	0x2000002c
 800046c:	08003f1c 	.word	0x08003f1c
 8000470:	08003f24 	.word	0x08003f24
 8000474:	e000ed04 	.word	0xe000ed04

08000478 <EXTI0_1_IRQHandler>:
//............................................................................
// interrupt handler for testing preemptions in QK
void EXTI0_1_IRQHandler(void); // prototype
void EXTI0_1_IRQHandler(void) {
 8000478:	b580      	push	{r7, lr}
 800047a:	af00      	add	r7, sp, #0
    QK_ISR_ENTRY();   // inform QK about entering an ISR

    static QEvt const testEvt = QEVT_INITIALIZER(TEST_SIG);
    QACTIVE_POST(AO_Table, &testEvt, &l_EXTI0_1_IRQHandler);
 800047c:	4b0a      	ldr	r3, [pc, #40]	@ (80004a8 <EXTI0_1_IRQHandler+0x30>)
 800047e:	6818      	ldr	r0, [r3, #0]
 8000480:	4a0a      	ldr	r2, [pc, #40]	@ (80004ac <EXTI0_1_IRQHandler+0x34>)
 8000482:	490b      	ldr	r1, [pc, #44]	@ (80004b0 <EXTI0_1_IRQHandler+0x38>)
 8000484:	2300      	movs	r3, #0
 8000486:	f002 fab1 	bl	80029ec <QActive_post_>

    QK_ISR_EXIT();    // inform QK about exiting an ISR
 800048a:	f001 fe8b 	bl	80021a4 <QF_int_disable_>
 800048e:	f003 fb53 	bl	8003b38 <QK_sched_>
 8000492:	1e03      	subs	r3, r0, #0
 8000494:	d003      	beq.n	800049e <EXTI0_1_IRQHandler+0x26>
 8000496:	4b07      	ldr	r3, [pc, #28]	@ (80004b4 <EXTI0_1_IRQHandler+0x3c>)
 8000498:	2280      	movs	r2, #128	@ 0x80
 800049a:	0552      	lsls	r2, r2, #21
 800049c:	601a      	str	r2, [r3, #0]
 800049e:	f001 fe91 	bl	80021c4 <QF_int_enable_>
}
 80004a2:	46c0      	nop			@ (mov r8, r8)
 80004a4:	46bd      	mov	sp, r7
 80004a6:	bd80      	pop	{r7, pc}
 80004a8:	08003fdc 	.word	0x08003fdc
 80004ac:	0000ffff 	.word	0x0000ffff
 80004b0:	08003f2c 	.word	0x08003f2c
 80004b4:	e000ed04 	.word	0xe000ed04

080004b8 <BSP_init>:


//============================================================================
// BSP functions...

void BSP_init(void) {
 80004b8:	b580      	push	{r7, lr}
 80004ba:	af00      	add	r7, sp, #0
    // Configure the MPU to prevent NULL-pointer dereferencing ...
    MPU->RBAR = 0x0U                          // base address (NULL)
 80004bc:	4b30      	ldr	r3, [pc, #192]	@ (8000580 <BSP_init+0xc8>)
 80004be:	2217      	movs	r2, #23
 80004c0:	60da      	str	r2, [r3, #12]
                | MPU_RBAR_VALID_Msk          // valid region
                | (MPU_RBAR_REGION_Msk & 7U); // region #7
    MPU->RASR = (7U << MPU_RASR_SIZE_Pos)     // 2^(7+1) region
 80004c2:	4b2f      	ldr	r3, [pc, #188]	@ (8000580 <BSP_init+0xc8>)
 80004c4:	220f      	movs	r2, #15
 80004c6:	611a      	str	r2, [r3, #16]
                | (0x0U << MPU_RASR_AP_Pos)   // no-access region
                | MPU_RASR_ENABLE_Msk;        // region enable
    MPU->CTRL = MPU_CTRL_PRIVDEFENA_Msk       // enable background region
 80004c8:	4b2d      	ldr	r3, [pc, #180]	@ (8000580 <BSP_init+0xc8>)
 80004ca:	2205      	movs	r2, #5
 80004cc:	605a      	str	r2, [r3, #4]
           so that all instructions following the ISB are fetched from cache or memory,
           after the instruction has been completed.
 */
__STATIC_FORCEINLINE void __ISB(void)
{
  __ASM volatile ("isb 0xF":::"memory");
 80004ce:	f3bf 8f6f 	isb	sy
}
 80004d2:	46c0      	nop			@ (mov r8, r8)
  \details Acts as a special kind of Data Memory Barrier.
           It completes when all explicit memory accesses before this instruction complete.
 */
__STATIC_FORCEINLINE void __DSB(void)
{
  __ASM volatile ("dsb 0xF":::"memory");
 80004d4:	f3bf 8f4f 	dsb	sy
}
 80004d8:	46c0      	nop			@ (mov r8, r8)
    __ISB();
    __DSB();

    // NOTE: SystemInit() has been already called from the startup code
    // but SystemCoreClock needs to be updated
    SystemCoreClockUpdate();
 80004da:	f000 fbe3 	bl	8000ca4 <SystemCoreClockUpdate>

    // enable GPIOA clock port for the LED LD4
    RCC->IOPENR |= (1U << 0U);
 80004de:	4b29      	ldr	r3, [pc, #164]	@ (8000584 <BSP_init+0xcc>)
 80004e0:	6b5a      	ldr	r2, [r3, #52]	@ 0x34
 80004e2:	4b28      	ldr	r3, [pc, #160]	@ (8000584 <BSP_init+0xcc>)
 80004e4:	2101      	movs	r1, #1
 80004e6:	430a      	orrs	r2, r1
 80004e8:	635a      	str	r2, [r3, #52]	@ 0x34

    // set all used GPIOA pins as push-pull output, no pull-up, pull-down
    GPIOA->MODER   &= ~(3U << 2U*LD4_PIN);
 80004ea:	23a0      	movs	r3, #160	@ 0xa0
 80004ec:	05db      	lsls	r3, r3, #23
 80004ee:	681a      	ldr	r2, [r3, #0]
 80004f0:	23a0      	movs	r3, #160	@ 0xa0
 80004f2:	05db      	lsls	r3, r3, #23
 80004f4:	4924      	ldr	r1, [pc, #144]	@ (8000588 <BSP_init+0xd0>)
 80004f6:	400a      	ands	r2, r1
 80004f8:	601a      	str	r2, [r3, #0]
    GPIOA->MODER   |=  (1U << 2U*LD4_PIN);
 80004fa:	23a0      	movs	r3, #160	@ 0xa0
 80004fc:	05db      	lsls	r3, r3, #23
 80004fe:	681a      	ldr	r2, [r3, #0]
 8000500:	23a0      	movs	r3, #160	@ 0xa0
 8000502:	05db      	lsls	r3, r3, #23
 8000504:	2180      	movs	r1, #128	@ 0x80
 8000506:	00c9      	lsls	r1, r1, #3
 8000508:	430a      	orrs	r2, r1
 800050a:	601a      	str	r2, [r3, #0]
    GPIOA->OTYPER  &= ~(1U <<    LD4_PIN);
 800050c:	23a0      	movs	r3, #160	@ 0xa0
 800050e:	05db      	lsls	r3, r3, #23
 8000510:	685a      	ldr	r2, [r3, #4]
 8000512:	23a0      	movs	r3, #160	@ 0xa0
 8000514:	05db      	lsls	r3, r3, #23
 8000516:	2120      	movs	r1, #32
 8000518:	438a      	bics	r2, r1
 800051a:	605a      	str	r2, [r3, #4]
    GPIOA->OSPEEDR &= ~(3U << 2U*LD4_PIN);
 800051c:	23a0      	movs	r3, #160	@ 0xa0
 800051e:	05db      	lsls	r3, r3, #23
 8000520:	689a      	ldr	r2, [r3, #8]
 8000522:	23a0      	movs	r3, #160	@ 0xa0
 8000524:	05db      	lsls	r3, r3, #23
 8000526:	4918      	ldr	r1, [pc, #96]	@ (8000588 <BSP_init+0xd0>)
 8000528:	400a      	ands	r2, r1
 800052a:	609a      	str	r2, [r3, #8]
    GPIOA->OSPEEDR |=  (1U << 2U*LD4_PIN);
 800052c:	23a0      	movs	r3, #160	@ 0xa0
 800052e:	05db      	lsls	r3, r3, #23
 8000530:	689a      	ldr	r2, [r3, #8]
 8000532:	23a0      	movs	r3, #160	@ 0xa0
 8000534:	05db      	lsls	r3, r3, #23
 8000536:	2180      	movs	r1, #128	@ 0x80
 8000538:	00c9      	lsls	r1, r1, #3
 800053a:	430a      	orrs	r2, r1
 800053c:	609a      	str	r2, [r3, #8]
    GPIOA->PUPDR   &= ~(3U << 2U*LD4_PIN);
 800053e:	23a0      	movs	r3, #160	@ 0xa0
 8000540:	05db      	lsls	r3, r3, #23
 8000542:	68da      	ldr	r2, [r3, #12]
 8000544:	23a0      	movs	r3, #160	@ 0xa0
 8000546:	05db      	lsls	r3, r3, #23
 8000548:	490f      	ldr	r1, [pc, #60]	@ (8000588 <BSP_init+0xd0>)
 800054a:	400a      	ands	r2, r1
 800054c:	60da      	str	r2, [r3, #12]

    // enable GPIOC clock port for the Button B1
    RCC->IOPENR |=  (1U << 2U);
 800054e:	4b0d      	ldr	r3, [pc, #52]	@ (8000584 <BSP_init+0xcc>)
 8000550:	6b5a      	ldr	r2, [r3, #52]	@ 0x34
 8000552:	4b0c      	ldr	r3, [pc, #48]	@ (8000584 <BSP_init+0xcc>)
 8000554:	2104      	movs	r1, #4
 8000556:	430a      	orrs	r2, r1
 8000558:	635a      	str	r2, [r3, #52]	@ 0x34

    // configure Button B1 pin on GPIOC as input, no pull-up, pull-down
    GPIOC->MODER &= ~(3U << 2U*B1_PIN);
 800055a:	4b0c      	ldr	r3, [pc, #48]	@ (800058c <BSP_init+0xd4>)
 800055c:	681a      	ldr	r2, [r3, #0]
 800055e:	4b0b      	ldr	r3, [pc, #44]	@ (800058c <BSP_init+0xd4>)
 8000560:	490b      	ldr	r1, [pc, #44]	@ (8000590 <BSP_init+0xd8>)
 8000562:	400a      	ands	r2, r1
 8000564:	601a      	str	r2, [r3, #0]
    GPIOC->PUPDR &= ~(3U << 2U*B1_PIN);
 8000566:	4b09      	ldr	r3, [pc, #36]	@ (800058c <BSP_init+0xd4>)
 8000568:	68da      	ldr	r2, [r3, #12]
 800056a:	4b08      	ldr	r3, [pc, #32]	@ (800058c <BSP_init+0xd4>)
 800056c:	4908      	ldr	r1, [pc, #32]	@ (8000590 <BSP_init+0xd8>)
 800056e:	400a      	ands	r2, r1
 8000570:	60da      	str	r2, [r3, #12]

    BSP_randomSeed(1234U); // seed the random number generator
 8000572:	4b08      	ldr	r3, [pc, #32]	@ (8000594 <BSP_init+0xdc>)
 8000574:	0018      	movs	r0, r3
 8000576:	f000 f893 	bl	80006a0 <BSP_randomSeed>
    QS_ONLY(produce_sig_dict());

    // setup the QS filters...
    QS_GLB_FILTER(QS_GRP_ALL);   // all records
    QS_GLB_FILTER(-QS_QF_TICK);      // exclude the clock tick
}
 800057a:	46c0      	nop			@ (mov r8, r8)
 800057c:	46bd      	mov	sp, r7
 800057e:	bd80      	pop	{r7, pc}
 8000580:	e000ed90 	.word	0xe000ed90
 8000584:	40021000 	.word	0x40021000
 8000588:	fffff3ff 	.word	0xfffff3ff
 800058c:	50000800 	.word	0x50000800
 8000590:	f3ffffff 	.word	0xf3ffffff
 8000594:	000004d2 	.word	0x000004d2

08000598 <BSP_start>:
//............................................................................
void BSP_start(void) {
 8000598:	b590      	push	{r4, r7, lr}
 800059a:	b087      	sub	sp, #28
 800059c:	af04      	add	r7, sp, #16
    // initialize event pools
    static QF_MPOOL_EL(TableEvt) smlPoolSto[2*N_PHILO];
    QF_poolInit(smlPoolSto, sizeof(smlPoolSto), sizeof(smlPoolSto[0]));
 800059e:	4b28      	ldr	r3, [pc, #160]	@ (8000640 <BSP_start+0xa8>)
 80005a0:	220c      	movs	r2, #12
 80005a2:	2178      	movs	r1, #120	@ 0x78
 80005a4:	0018      	movs	r0, r3
 80005a6:	f002 fb4f 	bl	8002c48 <QF_poolInit>

    // initialize publish-subscribe
    static QSubscrList subscrSto[MAX_PUB_SIG];
    QActive_psInit(subscrSto, Q_DIM(subscrSto));
 80005aa:	4b26      	ldr	r3, [pc, #152]	@ (8000644 <BSP_start+0xac>)
 80005ac:	2109      	movs	r1, #9
 80005ae:	0018      	movs	r0, r3
 80005b0:	f002 fe06 	bl	80031c0 <QActive_psInit>

    // instantiate and start AOs/threads...

    static QEvtPtr philoQueueSto[N_PHILO][10];
    for (uint8_t n = 0U; n < N_PHILO; ++n) {
 80005b4:	1dfb      	adds	r3, r7, #7
 80005b6:	2200      	movs	r2, #0
 80005b8:	701a      	strb	r2, [r3, #0]
 80005ba:	e02a      	b.n	8000612 <BSP_start+0x7a>
        Philo_ctor(n);
 80005bc:	1dfb      	adds	r3, r7, #7
 80005be:	781b      	ldrb	r3, [r3, #0]
 80005c0:	0018      	movs	r0, r3
 80005c2:	f000 f9c7 	bl	8000954 <Philo_ctor>
        QActive_start(AO_Philo[n],
 80005c6:	1dfb      	adds	r3, r7, #7
 80005c8:	781a      	ldrb	r2, [r3, #0]
 80005ca:	4b1f      	ldr	r3, [pc, #124]	@ (8000648 <BSP_start+0xb0>)
 80005cc:	0092      	lsls	r2, r2, #2
 80005ce:	58d4      	ldr	r4, [r2, r3]
 80005d0:	1dfb      	adds	r3, r7, #7
 80005d2:	781b      	ldrb	r3, [r3, #0]
 80005d4:	3303      	adds	r3, #3
 80005d6:	b2db      	uxtb	r3, r3
 80005d8:	2107      	movs	r1, #7
 80005da:	0018      	movs	r0, r3
 80005dc:	f7ff fe20 	bl	8000220 <Q_PRIO>
 80005e0:	0003      	movs	r3, r0
 80005e2:	0019      	movs	r1, r3

            // NOTE: set the preemption-threshold of all Philos to
            // the same level, so that they cannot preempt each other.
            Q_PRIO(n + 3U, N_PHILO + 2U), // QF-prio/pre-thre.

            philoQueueSto[n],        // event queue storage
 80005e4:	1dfb      	adds	r3, r7, #7
 80005e6:	781a      	ldrb	r2, [r3, #0]
 80005e8:	0013      	movs	r3, r2
 80005ea:	009b      	lsls	r3, r3, #2
 80005ec:	189b      	adds	r3, r3, r2
 80005ee:	00db      	lsls	r3, r3, #3
 80005f0:	4a16      	ldr	r2, [pc, #88]	@ (800064c <BSP_start+0xb4>)
 80005f2:	189a      	adds	r2, r3, r2
        QActive_start(AO_Philo[n],
 80005f4:	2300      	movs	r3, #0
 80005f6:	9302      	str	r3, [sp, #8]
 80005f8:	2300      	movs	r3, #0
 80005fa:	9301      	str	r3, [sp, #4]
 80005fc:	2300      	movs	r3, #0
 80005fe:	9300      	str	r3, [sp, #0]
 8000600:	230a      	movs	r3, #10
 8000602:	0020      	movs	r0, r4
 8000604:	f003 fbe0 	bl	8003dc8 <QActive_start>
    for (uint8_t n = 0U; n < N_PHILO; ++n) {
 8000608:	1dfb      	adds	r3, r7, #7
 800060a:	1dfa      	adds	r2, r7, #7
 800060c:	7812      	ldrb	r2, [r2, #0]
 800060e:	3201      	adds	r2, #1
 8000610:	701a      	strb	r2, [r3, #0]
 8000612:	1dfb      	adds	r3, r7, #7
 8000614:	781b      	ldrb	r3, [r3, #0]
 8000616:	2b04      	cmp	r3, #4
 8000618:	d9d0      	bls.n	80005bc <BSP_start+0x24>
            (void *)0, 0U,           // no stack storage
            (void *)0);              // no initialization param
    }

    static QEvtPtr tableQueueSto[N_PHILO];
    Table_ctor();
 800061a:	f000 fbc9 	bl	8000db0 <Table_ctor>
    QActive_start(AO_Table,
 800061e:	4b0c      	ldr	r3, [pc, #48]	@ (8000650 <BSP_start+0xb8>)
 8000620:	6818      	ldr	r0, [r3, #0]
 8000622:	4a0c      	ldr	r2, [pc, #48]	@ (8000654 <BSP_start+0xbc>)
 8000624:	2300      	movs	r3, #0
 8000626:	9302      	str	r3, [sp, #8]
 8000628:	2300      	movs	r3, #0
 800062a:	9301      	str	r3, [sp, #4]
 800062c:	2300      	movs	r3, #0
 800062e:	9300      	str	r3, [sp, #0]
 8000630:	2305      	movs	r3, #5
 8000632:	210c      	movs	r1, #12
 8000634:	f003 fbc8 	bl	8003dc8 <QActive_start>
        N_PHILO + 7U,                // QP prio. of the AO
        tableQueueSto,               // event queue storage
        Q_DIM(tableQueueSto),        // queue length [events]
        (void *)0, 0U,               // no stack storage
        (void *)0);                  // no initialization param
}
 8000638:	46c0      	nop			@ (mov r8, r8)
 800063a:	46bd      	mov	sp, r7
 800063c:	b003      	add	sp, #12
 800063e:	bd90      	pop	{r4, r7, pc}
 8000640:	20000034 	.word	0x20000034
 8000644:	200000ac 	.word	0x200000ac
 8000648:	08003f48 	.word	0x08003f48
 800064c:	200000d0 	.word	0x200000d0
 8000650:	08003fdc 	.word	0x08003fdc
 8000654:	20000198 	.word	0x20000198

08000658 <BSP_displayPhilStat>:
//............................................................................
void BSP_displayPhilStat(uint8_t n, char const *stat) {
 8000658:	b580      	push	{r7, lr}
 800065a:	b082      	sub	sp, #8
 800065c:	af00      	add	r7, sp, #0
 800065e:	0002      	movs	r2, r0
 8000660:	6039      	str	r1, [r7, #0]
 8000662:	1dfb      	adds	r3, r7, #7
 8000664:	701a      	strb	r2, [r3, #0]
    Q_UNUSED_PAR(n);

    if (stat[0] == 'e') {
 8000666:	683b      	ldr	r3, [r7, #0]
 8000668:	781b      	ldrb	r3, [r3, #0]
 800066a:	2b65      	cmp	r3, #101	@ 0x65
 800066c:	d104      	bne.n	8000678 <BSP_displayPhilStat+0x20>
        GPIOA->BSRR = (1U << LD4_PIN);  // turn LED on
 800066e:	23a0      	movs	r3, #160	@ 0xa0
 8000670:	05db      	lsls	r3, r3, #23
 8000672:	2220      	movs	r2, #32
 8000674:	619a      	str	r2, [r3, #24]
    // app-specific trace record...
    QS_BEGIN_ID(PHILO_STAT, AO_Table->prio)
        QS_U8(1, n);  // Philosopher number
        QS_STR(stat); // Philosopher status
    QS_END()
}
 8000676:	e004      	b.n	8000682 <BSP_displayPhilStat+0x2a>
        GPIOA->BSRR = (1U << (LD4_PIN + 16U));  // turn LED off
 8000678:	23a0      	movs	r3, #160	@ 0xa0
 800067a:	05db      	lsls	r3, r3, #23
 800067c:	2280      	movs	r2, #128	@ 0x80
 800067e:	0392      	lsls	r2, r2, #14
 8000680:	619a      	str	r2, [r3, #24]
}
 8000682:	46c0      	nop			@ (mov r8, r8)
 8000684:	46bd      	mov	sp, r7
 8000686:	b002      	add	sp, #8
 8000688:	bd80      	pop	{r7, pc}

0800068a <BSP_displayPaused>:
//............................................................................
void BSP_displayPaused(uint8_t const paused) {
 800068a:	b580      	push	{r7, lr}
 800068c:	b082      	sub	sp, #8
 800068e:	af00      	add	r7, sp, #0
 8000690:	0002      	movs	r2, r0
 8000692:	1dfb      	adds	r3, r7, #7
 8000694:	701a      	strb	r2, [r3, #0]

    // application-specific trace record
    QS_BEGIN_ID(PAUSED_STAT, AO_Table->prio)
        QS_U8(1, paused);  // Paused status
    QS_END()
}
 8000696:	46c0      	nop			@ (mov r8, r8)
 8000698:	46bd      	mov	sp, r7
 800069a:	b002      	add	sp, #8
 800069c:	bd80      	pop	{r7, pc}
	...

080006a0 <BSP_randomSeed>:
//............................................................................
void BSP_randomSeed(uint32_t seed) {
 80006a0:	b580      	push	{r7, lr}
 80006a2:	b082      	sub	sp, #8
 80006a4:	af00      	add	r7, sp, #0
 80006a6:	6078      	str	r0, [r7, #4]
    l_rndSeed = seed;
 80006a8:	4b03      	ldr	r3, [pc, #12]	@ (80006b8 <BSP_randomSeed+0x18>)
 80006aa:	687a      	ldr	r2, [r7, #4]
 80006ac:	601a      	str	r2, [r3, #0]
}
 80006ae:	46c0      	nop			@ (mov r8, r8)
 80006b0:	46bd      	mov	sp, r7
 80006b2:	b002      	add	sp, #8
 80006b4:	bd80      	pop	{r7, pc}
 80006b6:	46c0      	nop			@ (mov r8, r8)
 80006b8:	20000028 	.word	0x20000028

080006bc <BSP_random>:
//............................................................................
uint32_t BSP_random(void) { // a very cheap pseudo-random-number generator
 80006bc:	b580      	push	{r7, lr}
 80006be:	b082      	sub	sp, #8
 80006c0:	af00      	add	r7, sp, #0

    QSchedStatus lockStat = QK_schedLock(N_PHILO); // N_PHILO prio. ceiling
 80006c2:	2005      	movs	r0, #5
 80006c4:	f003 f9d6 	bl	8003a74 <QK_schedLock>
 80006c8:	0003      	movs	r3, r0
 80006ca:	607b      	str	r3, [r7, #4]
    // "Super-Duper" Linear Congruential Generator (LCG)
    // LCG(2^32, 3*7*11*13*23, 0, seed)
    //
    uint32_t rnd = l_rndSeed * (3U*7U*11U*13U*23U);
 80006cc:	4b08      	ldr	r3, [pc, #32]	@ (80006f0 <BSP_random+0x34>)
 80006ce:	681b      	ldr	r3, [r3, #0]
 80006d0:	4a08      	ldr	r2, [pc, #32]	@ (80006f4 <BSP_random+0x38>)
 80006d2:	4353      	muls	r3, r2
 80006d4:	603b      	str	r3, [r7, #0]
    l_rndSeed = rnd; // set for the next time
 80006d6:	4b06      	ldr	r3, [pc, #24]	@ (80006f0 <BSP_random+0x34>)
 80006d8:	683a      	ldr	r2, [r7, #0]
 80006da:	601a      	str	r2, [r3, #0]
    QK_schedUnlock(lockStat);
 80006dc:	687b      	ldr	r3, [r7, #4]
 80006de:	0018      	movs	r0, r3
 80006e0:	f003 f9f6 	bl	8003ad0 <QK_schedUnlock>

    return (rnd >> 8U);
 80006e4:	683b      	ldr	r3, [r7, #0]
 80006e6:	0a1b      	lsrs	r3, r3, #8
}
 80006e8:	0018      	movs	r0, r3
 80006ea:	46bd      	mov	sp, r7
 80006ec:	b002      	add	sp, #8
 80006ee:	bd80      	pop	{r7, pc}
 80006f0:	20000028 	.word	0x20000028
 80006f4:	00010dcd 	.word	0x00010dcd

080006f8 <QF_onStartup>:
    Q_UNUSED_PAR(result);
}

//============================================================================
// QF callbacks...
void QF_onStartup(void) {
 80006f8:	b580      	push	{r7, lr}
 80006fa:	af00      	add	r7, sp, #0
    // set up the SysTick timer to fire at BSP_TICKS_PER_SEC rate
    SysTick_Config(SystemCoreClock / BSP_TICKS_PER_SEC);
 80006fc:	4b0e      	ldr	r3, [pc, #56]	@ (8000738 <QF_onStartup+0x40>)
 80006fe:	681b      	ldr	r3, [r3, #0]
 8000700:	2164      	movs	r1, #100	@ 0x64
 8000702:	0018      	movs	r0, r3
 8000704:	f7ff fd00 	bl	8000108 <__udivsi3>
 8000708:	0003      	movs	r3, r0
 800070a:	0018      	movs	r0, r3
 800070c:	f7ff fe28 	bl	8000360 <SysTick_Config>
    // assign all priority bits for preemption-prio. and none to sub-prio.
    // NOTE: this might have been changed by STM32Cube.
    NVIC_SetPriorityGrouping(0U);

    // set priorities of ALL ISRs used in the system, see NOTE1
    NVIC_SetPriority(USART2_IRQn,    0U); // kernel UNAWARE interrupt
 8000710:	2100      	movs	r1, #0
 8000712:	201c      	movs	r0, #28
 8000714:	f7ff fdb6 	bl	8000284 <__NVIC_SetPriority>
    NVIC_SetPriority(EXTI0_1_IRQn,   QF_AWARE_ISR_CMSIS_PRI + 0U);
 8000718:	2100      	movs	r1, #0
 800071a:	2005      	movs	r0, #5
 800071c:	f7ff fdb2 	bl	8000284 <__NVIC_SetPriority>
    NVIC_SetPriority(SysTick_IRQn,   QF_AWARE_ISR_CMSIS_PRI + 1U);
 8000720:	2301      	movs	r3, #1
 8000722:	425b      	negs	r3, r3
 8000724:	2101      	movs	r1, #1
 8000726:	0018      	movs	r0, r3
 8000728:	f7ff fdac 	bl	8000284 <__NVIC_SetPriority>
    // ...

    // enable IRQs...
    NVIC_EnableIRQ(EXTI0_1_IRQn);
 800072c:	2005      	movs	r0, #5
 800072e:	f7ff fd8f 	bl	8000250 <__NVIC_EnableIRQ>

#ifdef Q_SPY
    NVIC_EnableIRQ(USART2_IRQn); // UART2 interrupt used for QS-RX
#endif
}
 8000732:	46c0      	nop			@ (mov r8, r8)
 8000734:	46bd      	mov	sp, r7
 8000736:	bd80      	pop	{r7, pc}
 8000738:	20000000 	.word	0x20000000

0800073c <QK_onIdle>:
//............................................................................
void QF_onCleanup(void) {
}

//............................................................................
void QK_onIdle(void) {
 800073c:	b580      	push	{r7, lr}
 800073e:	af00      	add	r7, sp, #0
    // Put the CPU and peripherals to the low-power mode.
    // you might need to customize the clock management for your application,
    // see the datasheet for your particular Cortex-M MCU.
    __WFI(); // Wait-For-Interrupt
#endif
}
 8000740:	46c0      	nop			@ (mov r8, r8)
 8000742:	46bd      	mov	sp, r7
 8000744:	bd80      	pop	{r7, pc}

08000746 <main>:
/**
  * @brief  The application entry point.
  * @retval int
  */
int main(void)
{
 8000746:	b580      	push	{r7, lr}
 8000748:	af00      	add	r7, sp, #0
  /* USER CODE END 1 */

  /* MCU Configuration--------------------------------------------------------*/

  /* Reset of all peripherals, Initializes the Flash interface and the Systick. */
  HAL_Init();
 800074a:	f000 fef0 	bl	800152e <HAL_Init>
  /* USER CODE BEGIN Init */

  /* USER CODE END Init */

  /* Configure the system clock */
  SystemClock_Config();
 800074e:	f000 f80f 	bl	8000770 <SystemClock_Config>
  /* USER CODE BEGIN SysInit */

  /* USER CODE END SysInit */

  /* Initialize all configured peripherals */
  MX_GPIO_Init();
 8000752:	f000 f855 	bl	8000800 <MX_GPIO_Init>

  /* USER CODE END 2 */

  /* Infinite loop */
  /* USER CODE BEGIN WHILE */
  	  QF_init();       // initialize the framework and the underlying RT kernel
 8000756:	f003 fb13 	bl	8003d80 <QF_init>
  	  BSP_init();      // initialize the BSP
 800075a:	f7ff fead 	bl	80004b8 <BSP_init>
  	  BSP_start();     // start the AOs/Threads
 800075e:	f7ff ff1b 	bl	8000598 <BSP_start>
  	  return QF_run(); // run the QF application
 8000762:	f003 fb1b 	bl	8003d9c <QF_run>
 8000766:	0003      	movs	r3, r0
    /* USER CODE END WHILE */

    /* USER CODE BEGIN 3 */
  }
  /* USER CODE END 3 */
}
 8000768:	0018      	movs	r0, r3
 800076a:	46bd      	mov	sp, r7
 800076c:	bd80      	pop	{r7, pc}
	...

08000770 <SystemClock_Config>:
/**
  * @brief System Clock Configuration
  * @retval None
  */
void SystemClock_Config(void)
{
 8000770:	b590      	push	{r4, r7, lr}
 8000772:	b08d      	sub	sp, #52	@ 0x34
 8000774:	af00      	add	r7, sp, #0
  RCC_OscInitTypeDef RCC_OscInitStruct = {0};
 8000776:	2414      	movs	r4, #20
 8000778:	193b      	adds	r3, r7, r4
 800077a:	0018      	movs	r0, r3
 800077c:	231c      	movs	r3, #28
 800077e:	001a      	movs	r2, r3
 8000780:	2100      	movs	r1, #0
 8000782:	f003 fb75 	bl	8003e70 <memset>
  RCC_ClkInitTypeDef RCC_ClkInitStruct = {0};
 8000786:	003b      	movs	r3, r7
 8000788:	0018      	movs	r0, r3
 800078a:	2314      	movs	r3, #20
 800078c:	001a      	movs	r2, r3
 800078e:	2100      	movs	r1, #0
 8000790:	f003 fb6e 	bl	8003e70 <memset>

  __HAL_FLASH_SET_LATENCY(FLASH_LATENCY_1);
 8000794:	4b19      	ldr	r3, [pc, #100]	@ (80007fc <SystemClock_Config+0x8c>)
 8000796:	681b      	ldr	r3, [r3, #0]
 8000798:	2207      	movs	r2, #7
 800079a:	4393      	bics	r3, r2
 800079c:	001a      	movs	r2, r3
 800079e:	4b17      	ldr	r3, [pc, #92]	@ (80007fc <SystemClock_Config+0x8c>)
 80007a0:	2101      	movs	r1, #1
 80007a2:	430a      	orrs	r2, r1
 80007a4:	601a      	str	r2, [r3, #0]

  /** Initializes the RCC Oscillators according to the specified parameters
  * in the RCC_OscInitTypeDef structure.
  */
  RCC_OscInitStruct.OscillatorType = RCC_OSCILLATORTYPE_HSE;
 80007a6:	193b      	adds	r3, r7, r4
 80007a8:	2201      	movs	r2, #1
 80007aa:	601a      	str	r2, [r3, #0]
  RCC_OscInitStruct.HSEState = RCC_HSE_ON;
 80007ac:	193b      	adds	r3, r7, r4
 80007ae:	2280      	movs	r2, #128	@ 0x80
 80007b0:	0252      	lsls	r2, r2, #9
 80007b2:	605a      	str	r2, [r3, #4]
  if (HAL_RCC_OscConfig(&RCC_OscInitStruct) != HAL_OK)
 80007b4:	193b      	adds	r3, r7, r4
 80007b6:	0018      	movs	r0, r3
 80007b8:	f001 f9d0 	bl	8001b5c <HAL_RCC_OscConfig>
 80007bc:	1e03      	subs	r3, r0, #0
 80007be:	d001      	beq.n	80007c4 <SystemClock_Config+0x54>
  {
    Error_Handler();
 80007c0:	f000 f8a0 	bl	8000904 <Error_Handler>
  }

  /** Initializes the CPU, AHB and APB buses clocks
  */
  RCC_ClkInitStruct.ClockType = RCC_CLOCKTYPE_HCLK|RCC_CLOCKTYPE_SYSCLK
 80007c4:	003b      	movs	r3, r7
 80007c6:	2207      	movs	r2, #7
 80007c8:	601a      	str	r2, [r3, #0]
                              |RCC_CLOCKTYPE_PCLK1;
  RCC_ClkInitStruct.SYSCLKSource = RCC_SYSCLKSOURCE_HSE;
 80007ca:	003b      	movs	r3, r7
 80007cc:	2201      	movs	r2, #1
 80007ce:	605a      	str	r2, [r3, #4]
  RCC_ClkInitStruct.SYSCLKDivider = RCC_SYSCLK_DIV1;
 80007d0:	003b      	movs	r3, r7
 80007d2:	2200      	movs	r2, #0
 80007d4:	609a      	str	r2, [r3, #8]
  RCC_ClkInitStruct.AHBCLKDivider = RCC_HCLK_DIV1;
 80007d6:	003b      	movs	r3, r7
 80007d8:	2200      	movs	r2, #0
 80007da:	60da      	str	r2, [r3, #12]
  RCC_ClkInitStruct.APB1CLKDivider = RCC_APB1_DIV1;
 80007dc:	003b      	movs	r3, r7
 80007de:	2200      	movs	r2, #0
 80007e0:	611a      	str	r2, [r3, #16]

  if (HAL_RCC_ClockConfig(&RCC_ClkInitStruct, FLASH_LATENCY_1) != HAL_OK)
 80007e2:	003b      	movs	r3, r7
 80007e4:	2101      	movs	r1, #1
 80007e6:	0018      	movs	r0, r3
 80007e8:	f001 fb9c 	bl	8001f24 <HAL_RCC_ClockConfig>
 80007ec:	1e03      	subs	r3, r0, #0
 80007ee:	d001      	beq.n	80007f4 <SystemClock_Config+0x84>
  {
    Error_Handler();
 80007f0:	f000 f888 	bl	8000904 <Error_Handler>
  }
}
 80007f4:	46c0      	nop			@ (mov r8, r8)
 80007f6:	46bd      	mov	sp, r7
 80007f8:	b00d      	add	sp, #52	@ 0x34
 80007fa:	bd90      	pop	{r4, r7, pc}
 80007fc:	40022000 	.word	0x40022000

08000800 <MX_GPIO_Init>:
  * @brief GPIO Initialization Function
  * @param None
  * @retval None
  */
static void MX_GPIO_Init(void)
{
 8000800:	b590      	push	{r4, r7, lr}
 8000802:	b089      	sub	sp, #36	@ 0x24
 8000804:	af00      	add	r7, sp, #0
  GPIO_InitTypeDef GPIO_InitStruct = {0};
 8000806:	240c      	movs	r4, #12
 8000808:	193b      	adds	r3, r7, r4
 800080a:	0018      	movs	r0, r3
 800080c:	2314      	movs	r3, #20
 800080e:	001a      	movs	r2, r3
 8000810:	2100      	movs	r1, #0
 8000812:	f003 fb2d 	bl	8003e70 <memset>
  /* USER CODE BEGIN MX_GPIO_Init_1 */

  /* USER CODE END MX_GPIO_Init_1 */

  /* GPIO Ports Clock Enable */
  __HAL_RCC_GPIOC_CLK_ENABLE();
 8000816:	4b38      	ldr	r3, [pc, #224]	@ (80008f8 <MX_GPIO_Init+0xf8>)
 8000818:	6b5a      	ldr	r2, [r3, #52]	@ 0x34
 800081a:	4b37      	ldr	r3, [pc, #220]	@ (80008f8 <MX_GPIO_Init+0xf8>)
 800081c:	2104      	movs	r1, #4
 800081e:	430a      	orrs	r2, r1
 8000820:	635a      	str	r2, [r3, #52]	@ 0x34
 8000822:	4b35      	ldr	r3, [pc, #212]	@ (80008f8 <MX_GPIO_Init+0xf8>)
 8000824:	6b5b      	ldr	r3, [r3, #52]	@ 0x34
 8000826:	2204      	movs	r2, #4
 8000828:	4013      	ands	r3, r2
 800082a:	60bb      	str	r3, [r7, #8]
 800082c:	68bb      	ldr	r3, [r7, #8]
  __HAL_RCC_GPIOF_CLK_ENABLE();
 800082e:	4b32      	ldr	r3, [pc, #200]	@ (80008f8 <MX_GPIO_Init+0xf8>)
 8000830:	6b5a      	ldr	r2, [r3, #52]	@ 0x34
 8000832:	4b31      	ldr	r3, [pc, #196]	@ (80008f8 <MX_GPIO_Init+0xf8>)
 8000834:	2120      	movs	r1, #32
 8000836:	430a      	orrs	r2, r1
 8000838:	635a      	str	r2, [r3, #52]	@ 0x34
 800083a:	4b2f      	ldr	r3, [pc, #188]	@ (80008f8 <MX_GPIO_Init+0xf8>)
 800083c:	6b5b      	ldr	r3, [r3, #52]	@ 0x34
 800083e:	2220      	movs	r2, #32
 8000840:	4013      	ands	r3, r2
 8000842:	607b      	str	r3, [r7, #4]
 8000844:	687b      	ldr	r3, [r7, #4]
  __HAL_RCC_GPIOA_CLK_ENABLE();
 8000846:	4b2c      	ldr	r3, [pc, #176]	@ (80008f8 <MX_GPIO_Init+0xf8>)
 8000848:	6b5a      	ldr	r2, [r3, #52]	@ 0x34
 800084a:	4b2b      	ldr	r3, [pc, #172]	@ (80008f8 <MX_GPIO_Init+0xf8>)
 800084c:	2101      	movs	r1, #1
 800084e:	430a      	orrs	r2, r1
 8000850:	635a      	str	r2, [r3, #52]	@ 0x34
 8000852:	4b29      	ldr	r3, [pc, #164]	@ (80008f8 <MX_GPIO_Init+0xf8>)
 8000854:	6b5b      	ldr	r3, [r3, #52]	@ 0x34
 8000856:	2201      	movs	r2, #1
 8000858:	4013      	ands	r3, r2
 800085a:	603b      	str	r3, [r7, #0]
 800085c:	683b      	ldr	r3, [r7, #0]

  /*Configure GPIO pin Output Level */
  HAL_GPIO_WritePin(Led_GPIO_Port, Led_Pin, GPIO_PIN_SET);
 800085e:	23a0      	movs	r3, #160	@ 0xa0
 8000860:	05db      	lsls	r3, r3, #23
 8000862:	2201      	movs	r2, #1
 8000864:	2120      	movs	r1, #32
 8000866:	0018      	movs	r0, r3
 8000868:	f001 f91c 	bl	8001aa4 <HAL_GPIO_WritePin>

  /*Configure GPIO pin : User_Button_Pin */
  GPIO_InitStruct.Pin = User_Button_Pin;
 800086c:	193b      	adds	r3, r7, r4
 800086e:	2280      	movs	r2, #128	@ 0x80
 8000870:	0192      	lsls	r2, r2, #6
 8000872:	601a      	str	r2, [r3, #0]
  GPIO_InitStruct.Mode = GPIO_MODE_IT_RISING;
 8000874:	193b      	adds	r3, r7, r4
 8000876:	4a21      	ldr	r2, [pc, #132]	@ (80008fc <MX_GPIO_Init+0xfc>)
 8000878:	605a      	str	r2, [r3, #4]
  GPIO_InitStruct.Pull = GPIO_NOPULL;
 800087a:	193b      	adds	r3, r7, r4
 800087c:	2200      	movs	r2, #0
 800087e:	609a      	str	r2, [r3, #8]
  HAL_GPIO_Init(User_Button_GPIO_Port, &GPIO_InitStruct);
 8000880:	193b      	adds	r3, r7, r4
 8000882:	4a1f      	ldr	r2, [pc, #124]	@ (8000900 <MX_GPIO_Init+0x100>)
 8000884:	0019      	movs	r1, r3
 8000886:	0010      	movs	r0, r2
 8000888:	f000 ff9a 	bl	80017c0 <HAL_GPIO_Init>

  /*Configure GPIO pins : VCP_USART2_TX_Pin VCP_USART2_RX_Pin */
  GPIO_InitStruct.Pin = VCP_USART2_TX_Pin|VCP_USART2_RX_Pin;
 800088c:	193b      	adds	r3, r7, r4
 800088e:	220c      	movs	r2, #12
 8000890:	601a      	str	r2, [r3, #0]
  GPIO_InitStruct.Mode = GPIO_MODE_AF_PP;
 8000892:	193b      	adds	r3, r7, r4
 8000894:	2202      	movs	r2, #2
 8000896:	605a      	str	r2, [r3, #4]
  GPIO_InitStruct.Pull = GPIO_NOPULL;
 8000898:	193b      	adds	r3, r7, r4
 800089a:	2200      	movs	r2, #0
 800089c:	609a      	str	r2, [r3, #8]
  GPIO_InitStruct.Speed = GPIO_SPEED_FREQ_LOW;
 800089e:	193b      	adds	r3, r7, r4
 80008a0:	2200      	movs	r2, #0
 80008a2:	60da      	str	r2, [r3, #12]
  GPIO_InitStruct.Alternate = GPIO_AF1_USART2;
 80008a4:	193b      	adds	r3, r7, r4
 80008a6:	2201      	movs	r2, #1
 80008a8:	611a      	str	r2, [r3, #16]
  HAL_GPIO_Init(GPIOA, &GPIO_InitStruct);
 80008aa:	193a      	adds	r2, r7, r4
 80008ac:	23a0      	movs	r3, #160	@ 0xa0
 80008ae:	05db      	lsls	r3, r3, #23
 80008b0:	0011      	movs	r1, r2
 80008b2:	0018      	movs	r0, r3
 80008b4:	f000 ff84 	bl	80017c0 <HAL_GPIO_Init>

  /*Configure GPIO pin : Led_Pin */
  GPIO_InitStruct.Pin = Led_Pin;
 80008b8:	0021      	movs	r1, r4
 80008ba:	187b      	adds	r3, r7, r1
 80008bc:	2220      	movs	r2, #32
 80008be:	601a      	str	r2, [r3, #0]
  GPIO_InitStruct.Mode = GPIO_MODE_OUTPUT_PP;
 80008c0:	187b      	adds	r3, r7, r1
 80008c2:	2201      	movs	r2, #1
 80008c4:	605a      	str	r2, [r3, #4]
  GPIO_InitStruct.Pull = GPIO_NOPULL;
 80008c6:	187b      	adds	r3, r7, r1
 80008c8:	2200      	movs	r2, #0
 80008ca:	609a      	str	r2, [r3, #8]
  GPIO_InitStruct.Speed = GPIO_SPEED_FREQ_VERY_HIGH;
 80008cc:	187b      	adds	r3, r7, r1
 80008ce:	2203      	movs	r2, #3
 80008d0:	60da      	str	r2, [r3, #12]
  HAL_GPIO_Init(Led_GPIO_Port, &GPIO_InitStruct);
 80008d2:	187a      	adds	r2, r7, r1
 80008d4:	23a0      	movs	r3, #160	@ 0xa0
 80008d6:	05db      	lsls	r3, r3, #23
 80008d8:	0011      	movs	r1, r2
 80008da:	0018      	movs	r0, r3
 80008dc:	f000 ff70 	bl	80017c0 <HAL_GPIO_Init>

  /* EXTI interrupt init*/
  HAL_NVIC_SetPriority(EXTI4_15_IRQn, 0, 0);
 80008e0:	2200      	movs	r2, #0
 80008e2:	2100      	movs	r1, #0
 80008e4:	2007      	movs	r0, #7
 80008e6:	f000 ff39 	bl	800175c <HAL_NVIC_SetPriority>
  HAL_NVIC_EnableIRQ(EXTI4_15_IRQn);
 80008ea:	2007      	movs	r0, #7
 80008ec:	f000 ff4b 	bl	8001786 <HAL_NVIC_EnableIRQ>

  /* USER CODE BEGIN MX_GPIO_Init_2 */

  /* USER CODE END MX_GPIO_Init_2 */
}
 80008f0:	46c0      	nop			@ (mov r8, r8)
 80008f2:	46bd      	mov	sp, r7
 80008f4:	b009      	add	sp, #36	@ 0x24
 80008f6:	bd90      	pop	{r4, r7, pc}
 80008f8:	40021000 	.word	0x40021000
 80008fc:	10110000 	.word	0x10110000
 8000900:	50000800 	.word	0x50000800

08000904 <Error_Handler>:
/**
  * @brief  This function is executed in case of error occurrence.
  * @retval None
  */
void Error_Handler(void)
{
 8000904:	b580      	push	{r7, lr}
 8000906:	af00      	add	r7, sp, #0
  \details Disables IRQ interrupts by setting special-purpose register PRIMASK.
           Can only be executed in Privileged modes.
 */
__STATIC_FORCEINLINE void __disable_irq(void)
{
  __ASM volatile ("cpsid i" : : : "memory");
 8000908:	b672      	cpsid	i
}
 800090a:	46c0      	nop			@ (mov r8, r8)
  /* USER CODE BEGIN Error_Handler_Debug */
  /* User can add his own implementation to report the HAL error return state */
  __disable_irq();
  Q_onError("HAL Error", 0U);
 800090c:	4b02      	ldr	r3, [pc, #8]	@ (8000918 <Error_Handler+0x14>)
 800090e:	2100      	movs	r1, #0
 8000910:	0018      	movs	r0, r3
 8000912:	f7ff fd49 	bl	80003a8 <Q_onError>
 8000916:	46c0      	nop			@ (mov r8, r8)
 8000918:	08003ee0 	.word	0x08003ee0

0800091c <think_time>:
//----------------------------------------------------------------------------
Q_DEFINE_THIS_FILE

// helper function to provide a randomized think time for Philos
static QTimeEvtCtr think_time(void); // prototype
static inline QTimeEvtCtr think_time(void) {
 800091c:	b580      	push	{r7, lr}
 800091e:	af00      	add	r7, sp, #0
    return (QTimeEvtCtr)((BSP_random() % BSP_TICKS_PER_SEC)
 8000920:	f7ff fecc 	bl	80006bc <BSP_random>
 8000924:	0003      	movs	r3, r0
 8000926:	2164      	movs	r1, #100	@ 0x64
 8000928:	0018      	movs	r0, r3
 800092a:	f7ff fc73 	bl	8000214 <__aeabi_uidivmod>
 800092e:	000b      	movs	r3, r1
 8000930:	3332      	adds	r3, #50	@ 0x32
                                       + (BSP_TICKS_PER_SEC/2U));
}
 8000932:	0018      	movs	r0, r3
 8000934:	46bd      	mov	sp, r7
 8000936:	bd80      	pop	{r7, pc}

08000938 <eat_time>:

// helper function to provide a randomized eat time for Philos
static QTimeEvtCtr eat_time(void); // prototype
static inline QTimeEvtCtr eat_time(void) {
 8000938:	b580      	push	{r7, lr}
 800093a:	af00      	add	r7, sp, #0
    return (QTimeEvtCtr)((BSP_random() % BSP_TICKS_PER_SEC)
 800093c:	f7ff febe 	bl	80006bc <BSP_random>
 8000940:	0003      	movs	r3, r0
 8000942:	2164      	movs	r1, #100	@ 0x64
 8000944:	0018      	movs	r0, r3
 8000946:	f7ff fc65 	bl	8000214 <__aeabi_uidivmod>
 800094a:	000b      	movs	r3, r1
 800094c:	3364      	adds	r3, #100	@ 0x64
                                       + BSP_TICKS_PER_SEC);
}
 800094e:	0018      	movs	r0, r3
 8000950:	46bd      	mov	sp, r7
 8000952:	bd80      	pop	{r7, pc}

08000954 <Philo_ctor>:
#endif
//$endskip${QP_VERSION} ^^^^^^^^^^^^^^^^^^^^^^^^^^^^^^^^^^^^^^^^^^^^^^^^^^^^^^
//$define${Shared::Philo_ctor} vvvvvvvvvvvvvvvvvvvvvvvvvvvvvvvvvvvvvvvvvvvvvvv

//${Shared::Philo_ctor} ......................................................
void Philo_ctor(uint_fast8_t const id) {
 8000954:	b580      	push	{r7, lr}
 8000956:	b084      	sub	sp, #16
 8000958:	af00      	add	r7, sp, #0
 800095a:	6078      	str	r0, [r7, #4]
    Philo * const me = &Philo_inst[id];
 800095c:	687a      	ldr	r2, [r7, #4]
 800095e:	0013      	movs	r3, r2
 8000960:	011b      	lsls	r3, r3, #4
 8000962:	189b      	adds	r3, r3, r2
 8000964:	009b      	lsls	r3, r3, #2
 8000966:	4a0d      	ldr	r2, [pc, #52]	@ (800099c <Philo_ctor+0x48>)
 8000968:	189b      	adds	r3, r3, r2
 800096a:	60fb      	str	r3, [r7, #12]
    QActive_ctor(&me->super, Q_STATE_CAST(&Philo_initial));
 800096c:	68fb      	ldr	r3, [r7, #12]
 800096e:	4a0c      	ldr	r2, [pc, #48]	@ (80009a0 <Philo_ctor+0x4c>)
 8000970:	0011      	movs	r1, r2
 8000972:	0018      	movs	r0, r3
 8000974:	f002 fd8a 	bl	800348c <QActive_ctor>
    QTimeEvt_ctorX(&me->timeEvt, &me->super, TIMEOUT_SIG, 0U);
 8000978:	68fb      	ldr	r3, [r7, #12]
 800097a:	3324      	adds	r3, #36	@ 0x24
 800097c:	0018      	movs	r0, r3
 800097e:	68f9      	ldr	r1, [r7, #12]
 8000980:	2300      	movs	r3, #0
 8000982:	220a      	movs	r2, #10
 8000984:	f002 fed0 	bl	8003728 <QTimeEvt_ctorX>
    me->id = (uint8_t)id;
 8000988:	687b      	ldr	r3, [r7, #4]
 800098a:	b2d9      	uxtb	r1, r3
 800098c:	68fb      	ldr	r3, [r7, #12]
 800098e:	2240      	movs	r2, #64	@ 0x40
 8000990:	5499      	strb	r1, [r3, r2]
}
 8000992:	46c0      	nop			@ (mov r8, r8)
 8000994:	46bd      	mov	sp, r7
 8000996:	b004      	add	sp, #16
 8000998:	bd80      	pop	{r7, pc}
 800099a:	46c0      	nop			@ (mov r8, r8)
 800099c:	200001ac 	.word	0x200001ac
 80009a0:	080009a5 	.word	0x080009a5

080009a4 <Philo_initial>:

//${AOs::Philo} ..............................................................
Philo Philo_inst[N_PHILO];

//${AOs::Philo::SM} ..........................................................
static QState Philo_initial(Philo * const me, void const * const par) {
 80009a4:	b580      	push	{r7, lr}
 80009a6:	b082      	sub	sp, #8
 80009a8:	af00      	add	r7, sp, #0
 80009aa:	6078      	str	r0, [r7, #4]
 80009ac:	6039      	str	r1, [r7, #0]
    Q_UNUSED_PAR(par);

    QS_OBJ_ARR_DICTIONARY(&Philo_inst[me->id], me->id);
    QS_OBJ_ARR_DICTIONARY(&Philo_inst[me->id].timeEvt, me->id);

    QActive_subscribe(&me->super, EAT_SIG);
 80009ae:	687b      	ldr	r3, [r7, #4]
 80009b0:	2104      	movs	r1, #4
 80009b2:	0018      	movs	r0, r3
 80009b4:	f002 fd0c 	bl	80033d0 <QActive_subscribe>
    QActive_subscribe(&me->super, TEST_SIG);
 80009b8:	687b      	ldr	r3, [r7, #4]
 80009ba:	2108      	movs	r1, #8
 80009bc:	0018      	movs	r0, r3
 80009be:	f002 fd07 	bl	80033d0 <QActive_subscribe>

    QS_FUN_DICTIONARY(&Philo_thinking);
    QS_FUN_DICTIONARY(&Philo_hungry);
    QS_FUN_DICTIONARY(&Philo_eating);

    return Q_TRAN(&Philo_thinking);
 80009c2:	687b      	ldr	r3, [r7, #4]
 80009c4:	4a03      	ldr	r2, [pc, #12]	@ (80009d4 <Philo_initial+0x30>)
 80009c6:	609a      	str	r2, [r3, #8]
 80009c8:	2303      	movs	r3, #3
}
 80009ca:	0018      	movs	r0, r3
 80009cc:	46bd      	mov	sp, r7
 80009ce:	b002      	add	sp, #8
 80009d0:	bd80      	pop	{r7, pc}
 80009d2:	46c0      	nop			@ (mov r8, r8)
 80009d4:	080009d9 	.word	0x080009d9

080009d8 <Philo_thinking>:

//${AOs::Philo::SM::thinking} ................................................
static QState Philo_thinking(Philo * const me, QEvt const * const e) {
 80009d8:	b590      	push	{r4, r7, lr}
 80009da:	b085      	sub	sp, #20
 80009dc:	af00      	add	r7, sp, #0
 80009de:	6078      	str	r0, [r7, #4]
 80009e0:	6039      	str	r1, [r7, #0]
    QState status_;
    switch (e->sig) {
 80009e2:	683b      	ldr	r3, [r7, #0]
 80009e4:	881b      	ldrh	r3, [r3, #0]
 80009e6:	2b0a      	cmp	r3, #10
 80009e8:	d836      	bhi.n	8000a58 <Philo_thinking+0x80>
 80009ea:	009a      	lsls	r2, r3, #2
 80009ec:	4b20      	ldr	r3, [pc, #128]	@ (8000a70 <Philo_thinking+0x98>)
 80009ee:	18d3      	adds	r3, r2, r3
 80009f0:	681b      	ldr	r3, [r3, #0]
 80009f2:	469f      	mov	pc, r3
        //${AOs::Philo::SM::thinking}
        case Q_ENTRY_SIG: {
            QTimeEvt_armX(&me->timeEvt, think_time(), 0U);
 80009f4:	687b      	ldr	r3, [r7, #4]
 80009f6:	3324      	adds	r3, #36	@ 0x24
 80009f8:	001c      	movs	r4, r3
 80009fa:	f7ff ff8f 	bl	800091c <think_time>
 80009fe:	0003      	movs	r3, r0
 8000a00:	2200      	movs	r2, #0
 8000a02:	0019      	movs	r1, r3
 8000a04:	0020      	movs	r0, r4
 8000a06:	f002 fed1 	bl	80037ac <QTimeEvt_armX>
            status_ = Q_HANDLED();
 8000a0a:	2302      	movs	r3, #2
 8000a0c:	60fb      	str	r3, [r7, #12]
            break;
 8000a0e:	e029      	b.n	8000a64 <Philo_thinking+0x8c>
        }
        //${AOs::Philo::SM::thinking}
        case Q_EXIT_SIG: {
            (void)QTimeEvt_disarm(&me->timeEvt);
 8000a10:	687b      	ldr	r3, [r7, #4]
 8000a12:	3324      	adds	r3, #36	@ 0x24
 8000a14:	0018      	movs	r0, r3
 8000a16:	f002 ff39 	bl	800388c <QTimeEvt_disarm>
            status_ = Q_HANDLED();
 8000a1a:	2302      	movs	r3, #2
 8000a1c:	60fb      	str	r3, [r7, #12]
            break;
 8000a1e:	e021      	b.n	8000a64 <Philo_thinking+0x8c>
        }
        //${AOs::Philo::SM::thinking::TIMEOUT}
        case TIMEOUT_SIG: {
            status_ = Q_TRAN(&Philo_hungry);
 8000a20:	687b      	ldr	r3, [r7, #4]
 8000a22:	4a14      	ldr	r2, [pc, #80]	@ (8000a74 <Philo_thinking+0x9c>)
 8000a24:	609a      	str	r2, [r3, #8]
 8000a26:	2303      	movs	r3, #3
 8000a28:	60fb      	str	r3, [r7, #12]
            break;
 8000a2a:	e01b      	b.n	8000a64 <Philo_thinking+0x8c>
        }
        //${AOs::Philo::SM::thinking::EAT, DONE}
        case EAT_SIG: // intentionally fall through
        case DONE_SIG: {
            // EAT or DONE must be for other Philos than this one
            Q_ASSERT(Q_EVT_CAST(TableEvt)->philoId != me->id);
 8000a2c:	f001 fbda 	bl	80021e4 <QF_crit_entry_>
 8000a30:	683b      	ldr	r3, [r7, #0]
 8000a32:	7a1a      	ldrb	r2, [r3, #8]
 8000a34:	687b      	ldr	r3, [r7, #4]
 8000a36:	2140      	movs	r1, #64	@ 0x40
 8000a38:	5c5b      	ldrb	r3, [r3, r1]
 8000a3a:	429a      	cmp	r2, r3
 8000a3c:	d104      	bne.n	8000a48 <Philo_thinking+0x70>
 8000a3e:	4b0e      	ldr	r3, [pc, #56]	@ (8000a78 <Philo_thinking+0xa0>)
 8000a40:	219e      	movs	r1, #158	@ 0x9e
 8000a42:	0018      	movs	r0, r3
 8000a44:	f7ff fcb0 	bl	80003a8 <Q_onError>
 8000a48:	f001 fbdc 	bl	8002204 <QF_crit_exit_>
            status_ = Q_HANDLED();
 8000a4c:	2302      	movs	r3, #2
 8000a4e:	60fb      	str	r3, [r7, #12]
            break;
 8000a50:	e008      	b.n	8000a64 <Philo_thinking+0x8c>
        }
        //${AOs::Philo::SM::thinking::TEST}
        case TEST_SIG: {
            status_ = Q_HANDLED();
 8000a52:	2302      	movs	r3, #2
 8000a54:	60fb      	str	r3, [r7, #12]
            break;
 8000a56:	e005      	b.n	8000a64 <Philo_thinking+0x8c>
        }
        default: {
            status_ = Q_SUPER(&QHsm_top);
 8000a58:	687b      	ldr	r3, [r7, #4]
 8000a5a:	4a08      	ldr	r2, [pc, #32]	@ (8000a7c <Philo_thinking+0xa4>)
 8000a5c:	609a      	str	r2, [r3, #8]
 8000a5e:	2300      	movs	r3, #0
 8000a60:	60fb      	str	r3, [r7, #12]
            break;
 8000a62:	46c0      	nop			@ (mov r8, r8)
        }
    }
    return status_;
 8000a64:	68fb      	ldr	r3, [r7, #12]
}
 8000a66:	0018      	movs	r0, r3
 8000a68:	46bd      	mov	sp, r7
 8000a6a:	b005      	add	sp, #20
 8000a6c:	bd90      	pop	{r4, r7, pc}
 8000a6e:	46c0      	nop			@ (mov r8, r8)
 8000a70:	08003f5c 	.word	0x08003f5c
 8000a74:	08000a81 	.word	0x08000a81
 8000a78:	08003f34 	.word	0x08003f34
 8000a7c:	08002315 	.word	0x08002315

08000a80 <Philo_hungry>:

//${AOs::Philo::SM::hungry} ..................................................
static QState Philo_hungry(Philo * const me, QEvt const * const e) {
 8000a80:	b580      	push	{r7, lr}
 8000a82:	b084      	sub	sp, #16
 8000a84:	af00      	add	r7, sp, #0
 8000a86:	6078      	str	r0, [r7, #4]
 8000a88:	6039      	str	r1, [r7, #0]
    QState status_;
    switch (e->sig) {
 8000a8a:	683b      	ldr	r3, [r7, #0]
 8000a8c:	881b      	ldrh	r3, [r3, #0]
 8000a8e:	2b05      	cmp	r3, #5
 8000a90:	d02c      	beq.n	8000aec <Philo_hungry+0x6c>
 8000a92:	dc3e      	bgt.n	8000b12 <Philo_hungry+0x92>
 8000a94:	2b01      	cmp	r3, #1
 8000a96:	d002      	beq.n	8000a9e <Philo_hungry+0x1e>
 8000a98:	2b04      	cmp	r3, #4
 8000a9a:	d017      	beq.n	8000acc <Philo_hungry+0x4c>
 8000a9c:	e039      	b.n	8000b12 <Philo_hungry+0x92>
        //${AOs::Philo::SM::hungry}
        case Q_ENTRY_SIG: {
            #ifdef QEVT_PAR_INIT
            TableEvt const *pe = Q_NEW(TableEvt, HUNGRY_SIG, me->id);
            #else
            TableEvt *pe = Q_NEW(TableEvt, HUNGRY_SIG);
 8000a9e:	4b22      	ldr	r3, [pc, #136]	@ (8000b28 <Philo_hungry+0xa8>)
 8000aa0:	220b      	movs	r2, #11
 8000aa2:	0019      	movs	r1, r3
 8000aa4:	200c      	movs	r0, #12
 8000aa6:	f002 f91f 	bl	8002ce8 <QF_newX_>
 8000aaa:	0003      	movs	r3, r0
 8000aac:	60bb      	str	r3, [r7, #8]
            pe->philoId = me->id;
 8000aae:	687b      	ldr	r3, [r7, #4]
 8000ab0:	2240      	movs	r2, #64	@ 0x40
 8000ab2:	5c9a      	ldrb	r2, [r3, r2]
 8000ab4:	68bb      	ldr	r3, [r7, #8]
 8000ab6:	721a      	strb	r2, [r3, #8]
            #endif
            QACTIVE_POST(AO_Table, &pe->super, &me->super);
 8000ab8:	4b1c      	ldr	r3, [pc, #112]	@ (8000b2c <Philo_hungry+0xac>)
 8000aba:	6818      	ldr	r0, [r3, #0]
 8000abc:	68b9      	ldr	r1, [r7, #8]
 8000abe:	4a1a      	ldr	r2, [pc, #104]	@ (8000b28 <Philo_hungry+0xa8>)
 8000ac0:	2300      	movs	r3, #0
 8000ac2:	f001 ff93 	bl	80029ec <QActive_post_>
            status_ = Q_HANDLED();
 8000ac6:	2302      	movs	r3, #2
 8000ac8:	60fb      	str	r3, [r7, #12]
            break;
 8000aca:	e028      	b.n	8000b1e <Philo_hungry+0x9e>
        }
        //${AOs::Philo::SM::hungry::EAT}
        case EAT_SIG: {
            //${AOs::Philo::SM::hungry::EAT::[e->philoId==me->iid]}
            if (Q_EVT_CAST(TableEvt)->philoId == me->id) {
 8000acc:	683b      	ldr	r3, [r7, #0]
 8000ace:	7a1a      	ldrb	r2, [r3, #8]
 8000ad0:	687b      	ldr	r3, [r7, #4]
 8000ad2:	2140      	movs	r1, #64	@ 0x40
 8000ad4:	5c5b      	ldrb	r3, [r3, r1]
 8000ad6:	429a      	cmp	r2, r3
 8000ad8:	d105      	bne.n	8000ae6 <Philo_hungry+0x66>
                status_ = Q_TRAN(&Philo_eating);
 8000ada:	687b      	ldr	r3, [r7, #4]
 8000adc:	4a14      	ldr	r2, [pc, #80]	@ (8000b30 <Philo_hungry+0xb0>)
 8000ade:	609a      	str	r2, [r3, #8]
 8000ae0:	2303      	movs	r3, #3
 8000ae2:	60fb      	str	r3, [r7, #12]
            }
            else {
                status_ = Q_UNHANDLED();
            }
            break;
 8000ae4:	e01b      	b.n	8000b1e <Philo_hungry+0x9e>
                status_ = Q_UNHANDLED();
 8000ae6:	2301      	movs	r3, #1
 8000ae8:	60fb      	str	r3, [r7, #12]
            break;
 8000aea:	e018      	b.n	8000b1e <Philo_hungry+0x9e>
        }
        //${AOs::Philo::SM::hungry::DONE}
        case DONE_SIG: {
            // DONE must be for other Philos than this one
            Q_ASSERT(Q_EVT_CAST(TableEvt)->philoId != me->id);
 8000aec:	f001 fb7a 	bl	80021e4 <QF_crit_entry_>
 8000af0:	683b      	ldr	r3, [r7, #0]
 8000af2:	7a1a      	ldrb	r2, [r3, #8]
 8000af4:	687b      	ldr	r3, [r7, #4]
 8000af6:	2140      	movs	r1, #64	@ 0x40
 8000af8:	5c5b      	ldrb	r3, [r3, r1]
 8000afa:	429a      	cmp	r2, r3
 8000afc:	d104      	bne.n	8000b08 <Philo_hungry+0x88>
 8000afe:	4b0d      	ldr	r3, [pc, #52]	@ (8000b34 <Philo_hungry+0xb4>)
 8000b00:	21cd      	movs	r1, #205	@ 0xcd
 8000b02:	0018      	movs	r0, r3
 8000b04:	f7ff fc50 	bl	80003a8 <Q_onError>
 8000b08:	f001 fb7c 	bl	8002204 <QF_crit_exit_>
            status_ = Q_HANDLED();
 8000b0c:	2302      	movs	r3, #2
 8000b0e:	60fb      	str	r3, [r7, #12]
            break;
 8000b10:	e005      	b.n	8000b1e <Philo_hungry+0x9e>
        }
        default: {
            status_ = Q_SUPER(&QHsm_top);
 8000b12:	687b      	ldr	r3, [r7, #4]
 8000b14:	4a08      	ldr	r2, [pc, #32]	@ (8000b38 <Philo_hungry+0xb8>)
 8000b16:	609a      	str	r2, [r3, #8]
 8000b18:	2300      	movs	r3, #0
 8000b1a:	60fb      	str	r3, [r7, #12]
            break;
 8000b1c:	46c0      	nop			@ (mov r8, r8)
        }
    }
    return status_;
 8000b1e:	68fb      	ldr	r3, [r7, #12]
}
 8000b20:	0018      	movs	r0, r3
 8000b22:	46bd      	mov	sp, r7
 8000b24:	b004      	add	sp, #16
 8000b26:	bd80      	pop	{r7, pc}
 8000b28:	0000ffff 	.word	0x0000ffff
 8000b2c:	08003fdc 	.word	0x08003fdc
 8000b30:	08000b3d 	.word	0x08000b3d
 8000b34:	08003f34 	.word	0x08003f34
 8000b38:	08002315 	.word	0x08002315

08000b3c <Philo_eating>:

//${AOs::Philo::SM::eating} ..................................................
static QState Philo_eating(Philo * const me, QEvt const * const e) {
 8000b3c:	b590      	push	{r4, r7, lr}
 8000b3e:	b085      	sub	sp, #20
 8000b40:	af00      	add	r7, sp, #0
 8000b42:	6078      	str	r0, [r7, #4]
 8000b44:	6039      	str	r1, [r7, #0]
    QState status_;
    switch (e->sig) {
 8000b46:	683b      	ldr	r3, [r7, #0]
 8000b48:	881b      	ldrh	r3, [r3, #0]
 8000b4a:	2b0a      	cmp	r3, #10
 8000b4c:	d032      	beq.n	8000bb4 <Philo_eating+0x78>
 8000b4e:	dc4a      	bgt.n	8000be6 <Philo_eating+0xaa>
 8000b50:	2b05      	cmp	r3, #5
 8000b52:	dc48      	bgt.n	8000be6 <Philo_eating+0xaa>
 8000b54:	2b04      	cmp	r3, #4
 8000b56:	da33      	bge.n	8000bc0 <Philo_eating+0x84>
 8000b58:	2b01      	cmp	r3, #1
 8000b5a:	d002      	beq.n	8000b62 <Philo_eating+0x26>
 8000b5c:	2b02      	cmp	r3, #2
 8000b5e:	d00e      	beq.n	8000b7e <Philo_eating+0x42>
 8000b60:	e041      	b.n	8000be6 <Philo_eating+0xaa>
        //${AOs::Philo::SM::eating}
        case Q_ENTRY_SIG: {
            QTimeEvt_armX(&me->timeEvt, eat_time(), 0U);
 8000b62:	687b      	ldr	r3, [r7, #4]
 8000b64:	3324      	adds	r3, #36	@ 0x24
 8000b66:	001c      	movs	r4, r3
 8000b68:	f7ff fee6 	bl	8000938 <eat_time>
 8000b6c:	0003      	movs	r3, r0
 8000b6e:	2200      	movs	r2, #0
 8000b70:	0019      	movs	r1, r3
 8000b72:	0020      	movs	r0, r4
 8000b74:	f002 fe1a 	bl	80037ac <QTimeEvt_armX>
            status_ = Q_HANDLED();
 8000b78:	2302      	movs	r3, #2
 8000b7a:	60fb      	str	r3, [r7, #12]
            break;
 8000b7c:	e039      	b.n	8000bf2 <Philo_eating+0xb6>
        }
        //${AOs::Philo::SM::eating}
        case Q_EXIT_SIG: {
            (void)QTimeEvt_disarm(&me->timeEvt);
 8000b7e:	687b      	ldr	r3, [r7, #4]
 8000b80:	3324      	adds	r3, #36	@ 0x24
 8000b82:	0018      	movs	r0, r3
 8000b84:	f002 fe82 	bl	800388c <QTimeEvt_disarm>

            #ifdef QEVT_PAR_INIT
            TableEvt const *pe = Q_NEW(TableEvt, DONE_SIG, me->id);
            #else
            TableEvt *pe = Q_NEW(TableEvt, DONE_SIG);
 8000b88:	4b1c      	ldr	r3, [pc, #112]	@ (8000bfc <Philo_eating+0xc0>)
 8000b8a:	2205      	movs	r2, #5
 8000b8c:	0019      	movs	r1, r3
 8000b8e:	200c      	movs	r0, #12
 8000b90:	f002 f8aa 	bl	8002ce8 <QF_newX_>
 8000b94:	0003      	movs	r3, r0
 8000b96:	60bb      	str	r3, [r7, #8]
            pe->philoId = me->id;
 8000b98:	687b      	ldr	r3, [r7, #4]
 8000b9a:	2240      	movs	r2, #64	@ 0x40
 8000b9c:	5c9a      	ldrb	r2, [r3, r2]
 8000b9e:	68bb      	ldr	r3, [r7, #8]
 8000ba0:	721a      	strb	r2, [r3, #8]
            #endif
            QACTIVE_PUBLISH(&pe->super, &me->super);
 8000ba2:	68bb      	ldr	r3, [r7, #8]
 8000ba4:	2200      	movs	r2, #0
 8000ba6:	2100      	movs	r1, #0
 8000ba8:	0018      	movs	r0, r3
 8000baa:	f002 fb41 	bl	8003230 <QActive_publish_>
            status_ = Q_HANDLED();
 8000bae:	2302      	movs	r3, #2
 8000bb0:	60fb      	str	r3, [r7, #12]
            break;
 8000bb2:	e01e      	b.n	8000bf2 <Philo_eating+0xb6>
        }
        //${AOs::Philo::SM::eating::TIMEOUT}
        case TIMEOUT_SIG: {
            status_ = Q_TRAN(&Philo_thinking);
 8000bb4:	687b      	ldr	r3, [r7, #4]
 8000bb6:	4a12      	ldr	r2, [pc, #72]	@ (8000c00 <Philo_eating+0xc4>)
 8000bb8:	609a      	str	r2, [r3, #8]
 8000bba:	2303      	movs	r3, #3
 8000bbc:	60fb      	str	r3, [r7, #12]
            break;
 8000bbe:	e018      	b.n	8000bf2 <Philo_eating+0xb6>
        }
        //${AOs::Philo::SM::eating::EAT, DONE}
        case EAT_SIG: // intentionally fall through
        case DONE_SIG: {
            // EAT or DONE must be for other Philos than this one
            Q_ASSERT(Q_EVT_CAST(TableEvt)->philoId != me->id);
 8000bc0:	f001 fb10 	bl	80021e4 <QF_crit_entry_>
 8000bc4:	683b      	ldr	r3, [r7, #0]
 8000bc6:	7a1a      	ldrb	r2, [r3, #8]
 8000bc8:	687b      	ldr	r3, [r7, #4]
 8000bca:	2140      	movs	r1, #64	@ 0x40
 8000bcc:	5c5b      	ldrb	r3, [r3, r1]
 8000bce:	429a      	cmp	r2, r3
 8000bd0:	d104      	bne.n	8000bdc <Philo_eating+0xa0>
 8000bd2:	4b0c      	ldr	r3, [pc, #48]	@ (8000c04 <Philo_eating+0xc8>)
 8000bd4:	21fa      	movs	r1, #250	@ 0xfa
 8000bd6:	0018      	movs	r0, r3
 8000bd8:	f7ff fbe6 	bl	80003a8 <Q_onError>
 8000bdc:	f001 fb12 	bl	8002204 <QF_crit_exit_>
            status_ = Q_HANDLED();
 8000be0:	2302      	movs	r3, #2
 8000be2:	60fb      	str	r3, [r7, #12]
            break;
 8000be4:	e005      	b.n	8000bf2 <Philo_eating+0xb6>
        }
        default: {
            status_ = Q_SUPER(&QHsm_top);
 8000be6:	687b      	ldr	r3, [r7, #4]
 8000be8:	4a07      	ldr	r2, [pc, #28]	@ (8000c08 <Philo_eating+0xcc>)
 8000bea:	609a      	str	r2, [r3, #8]
 8000bec:	2300      	movs	r3, #0
 8000bee:	60fb      	str	r3, [r7, #12]
            break;
 8000bf0:	46c0      	nop			@ (mov r8, r8)
        }
    }
    return status_;
 8000bf2:	68fb      	ldr	r3, [r7, #12]
}
 8000bf4:	0018      	movs	r0, r3
 8000bf6:	46bd      	mov	sp, r7
 8000bf8:	b005      	add	sp, #20
 8000bfa:	bd90      	pop	{r4, r7, pc}
 8000bfc:	0000ffff 	.word	0x0000ffff
 8000c00:	080009d9 	.word	0x080009d9
 8000c04:	08003f34 	.word	0x08003f34
 8000c08:	08002315 	.word	0x08002315

08000c0c <HAL_MspInit>:
/* USER CODE END 0 */
/**
  * Initializes the Global MSP.
  */
void HAL_MspInit(void)
{
 8000c0c:	b580      	push	{r7, lr}
 8000c0e:	b082      	sub	sp, #8
 8000c10:	af00      	add	r7, sp, #0

  /* USER CODE BEGIN MspInit 0 */

  /* USER CODE END MspInit 0 */

  __HAL_RCC_SYSCFG_CLK_ENABLE();
 8000c12:	4b0f      	ldr	r3, [pc, #60]	@ (8000c50 <HAL_MspInit+0x44>)
 8000c14:	6c1a      	ldr	r2, [r3, #64]	@ 0x40
 8000c16:	4b0e      	ldr	r3, [pc, #56]	@ (8000c50 <HAL_MspInit+0x44>)
 8000c18:	2101      	movs	r1, #1
 8000c1a:	430a      	orrs	r2, r1
 8000c1c:	641a      	str	r2, [r3, #64]	@ 0x40
 8000c1e:	4b0c      	ldr	r3, [pc, #48]	@ (8000c50 <HAL_MspInit+0x44>)
 8000c20:	6c1b      	ldr	r3, [r3, #64]	@ 0x40
 8000c22:	2201      	movs	r2, #1
 8000c24:	4013      	ands	r3, r2
 8000c26:	607b      	str	r3, [r7, #4]
 8000c28:	687b      	ldr	r3, [r7, #4]
  __HAL_RCC_PWR_CLK_ENABLE();
 8000c2a:	4b09      	ldr	r3, [pc, #36]	@ (8000c50 <HAL_MspInit+0x44>)
 8000c2c:	6bda      	ldr	r2, [r3, #60]	@ 0x3c
 8000c2e:	4b08      	ldr	r3, [pc, #32]	@ (8000c50 <HAL_MspInit+0x44>)
 8000c30:	2180      	movs	r1, #128	@ 0x80
 8000c32:	0549      	lsls	r1, r1, #21
 8000c34:	430a      	orrs	r2, r1
 8000c36:	63da      	str	r2, [r3, #60]	@ 0x3c
 8000c38:	4b05      	ldr	r3, [pc, #20]	@ (8000c50 <HAL_MspInit+0x44>)
 8000c3a:	6bda      	ldr	r2, [r3, #60]	@ 0x3c
 8000c3c:	2380      	movs	r3, #128	@ 0x80
 8000c3e:	055b      	lsls	r3, r3, #21
 8000c40:	4013      	ands	r3, r2
 8000c42:	603b      	str	r3, [r7, #0]
 8000c44:	683b      	ldr	r3, [r7, #0]
  /* System interrupt init*/

  /* USER CODE BEGIN MspInit 1 */

  /* USER CODE END MspInit 1 */
}
 8000c46:	46c0      	nop			@ (mov r8, r8)
 8000c48:	46bd      	mov	sp, r7
 8000c4a:	b002      	add	sp, #8
 8000c4c:	bd80      	pop	{r7, pc}
 8000c4e:	46c0      	nop			@ (mov r8, r8)
 8000c50:	40021000 	.word	0x40021000

08000c54 <HardFault_Handler>:
/******************************************************************************/
/**
  * @brief This function handles Hard fault interrupt.
  */
void HardFault_Handler(void)
{
 8000c54:	b580      	push	{r7, lr}
 8000c56:	af00      	add	r7, sp, #0
  __ASM volatile ("cpsid i" : : : "memory");
 8000c58:	b672      	cpsid	i
}
 8000c5a:	46c0      	nop			@ (mov r8, r8)
  /* USER CODE BEGIN HardFault_IRQn 0 */
	__disable_irq();
	Q_onError("HAL Error", 0U);
 8000c5c:	4b02      	ldr	r3, [pc, #8]	@ (8000c68 <HardFault_Handler+0x14>)
 8000c5e:	2100      	movs	r1, #0
 8000c60:	0018      	movs	r0, r3
 8000c62:	f7ff fba1 	bl	80003a8 <Q_onError>
 8000c66:	46c0      	nop			@ (mov r8, r8)
 8000c68:	08003eec 	.word	0x08003eec

08000c6c <SVC_Handler>:

/**
  * @brief This function handles System service call via SWI instruction.
  */
void SVC_Handler(void)
{
 8000c6c:	b580      	push	{r7, lr}
 8000c6e:	af00      	add	r7, sp, #0

  /* USER CODE END SVC_IRQn 0 */
  /* USER CODE BEGIN SVC_IRQn 1 */

  /* USER CODE END SVC_IRQn 1 */
}
 8000c70:	46c0      	nop			@ (mov r8, r8)
 8000c72:	46bd      	mov	sp, r7
 8000c74:	bd80      	pop	{r7, pc}

08000c76 <EXTI4_15_IRQHandler>:

/**
  * @brief This function handles EXTI line 4 to 15 interrupts.
  */
void EXTI4_15_IRQHandler(void)
{
 8000c76:	b580      	push	{r7, lr}
 8000c78:	af00      	add	r7, sp, #0
  /* USER CODE BEGIN EXTI4_15_IRQn 0 */

  /* USER CODE END EXTI4_15_IRQn 0 */
  HAL_GPIO_EXTI_IRQHandler(User_Button_Pin);
 8000c7a:	2380      	movs	r3, #128	@ 0x80
 8000c7c:	019b      	lsls	r3, r3, #6
 8000c7e:	0018      	movs	r0, r3
 8000c80:	f000 ff2e 	bl	8001ae0 <HAL_GPIO_EXTI_IRQHandler>
  /* USER CODE BEGIN EXTI4_15_IRQn 1 */

  /* USER CODE END EXTI4_15_IRQn 1 */
}
 8000c84:	46c0      	nop			@ (mov r8, r8)
 8000c86:	46bd      	mov	sp, r7
 8000c88:	bd80      	pop	{r7, pc}
	...

08000c8c <SystemInit>:
  * @brief  Setup the microcontroller system.
  * @param  None
  * @retval None
  */
void SystemInit(void)
{
 8000c8c:	b580      	push	{r7, lr}
 8000c8e:	af00      	add	r7, sp, #0
  
  /* Configure the Vector Table location add offset address ------------------*/
#ifdef VECT_TAB_SRAM
  SCB->VTOR = SRAM_BASE | VECT_TAB_OFFSET; /* Vector Table Relocation in Internal SRAM */
#else
  SCB->VTOR = FLASH_BASE | VECT_TAB_OFFSET; /* Vector Table Relocation in Internal FLASH */
 8000c90:	4b03      	ldr	r3, [pc, #12]	@ (8000ca0 <SystemInit+0x14>)
 8000c92:	2280      	movs	r2, #128	@ 0x80
 8000c94:	0512      	lsls	r2, r2, #20
 8000c96:	609a      	str	r2, [r3, #8]
#endif
}
 8000c98:	46c0      	nop			@ (mov r8, r8)
 8000c9a:	46bd      	mov	sp, r7
 8000c9c:	bd80      	pop	{r7, pc}
 8000c9e:	46c0      	nop			@ (mov r8, r8)
 8000ca0:	e000ed00 	.word	0xe000ed00

08000ca4 <SystemCoreClockUpdate>:
  *
  * @param  None
  * @retval None
  */
void SystemCoreClockUpdate(void)
{
 8000ca4:	b580      	push	{r7, lr}
 8000ca6:	b084      	sub	sp, #16
 8000ca8:	af00      	add	r7, sp, #0
  uint32_t hsidiv;
  uint32_t sysdiv;
#if defined(RCC_CR_SYSDIV)
  sysdiv = (uint32_t)(((RCC->CR & RCC_CR_SYSDIV) >> RCC_CR_SYSDIV_Pos) + 1U);
#else
  sysdiv = 1U;
 8000caa:	2301      	movs	r3, #1
 8000cac:	60fb      	str	r3, [r7, #12]
#endif /* RCC_CR_SYSDIV */

  /* Get SYSCLK source -------------------------------------------------------*/
  switch (RCC->CFGR & RCC_CFGR_SWS)
 8000cae:	4b29      	ldr	r3, [pc, #164]	@ (8000d54 <SystemCoreClockUpdate+0xb0>)
 8000cb0:	689b      	ldr	r3, [r3, #8]
 8000cb2:	2238      	movs	r2, #56	@ 0x38
 8000cb4:	4013      	ands	r3, r2
 8000cb6:	2b20      	cmp	r3, #32
 8000cb8:	d018      	beq.n	8000cec <SystemCoreClockUpdate+0x48>
 8000cba:	d821      	bhi.n	8000d00 <SystemCoreClockUpdate+0x5c>
 8000cbc:	2b08      	cmp	r3, #8
 8000cbe:	d002      	beq.n	8000cc6 <SystemCoreClockUpdate+0x22>
 8000cc0:	2b18      	cmp	r3, #24
 8000cc2:	d009      	beq.n	8000cd8 <SystemCoreClockUpdate+0x34>
 8000cc4:	e01c      	b.n	8000d00 <SystemCoreClockUpdate+0x5c>
  {
    case RCC_CFGR_SWS_0:                /* HSE used as system clock */
      SystemCoreClock = (HSE_VALUE / sysdiv);
 8000cc6:	68f9      	ldr	r1, [r7, #12]
 8000cc8:	4823      	ldr	r0, [pc, #140]	@ (8000d58 <SystemCoreClockUpdate+0xb4>)
 8000cca:	f7ff fa1d 	bl	8000108 <__udivsi3>
 8000cce:	0003      	movs	r3, r0
 8000cd0:	001a      	movs	r2, r3
 8000cd2:	4b22      	ldr	r3, [pc, #136]	@ (8000d5c <SystemCoreClockUpdate+0xb8>)
 8000cd4:	601a      	str	r2, [r3, #0]
      break;
 8000cd6:	e02a      	b.n	8000d2e <SystemCoreClockUpdate+0x8a>
      SystemCoreClock = (HSI48_VALUE / sysdiv);
      break;
#endif /* RCC_HSI48_SUPPORT */

    case (RCC_CFGR_SWS_1 | RCC_CFGR_SWS_0):  /* LSI used as system clock */
      SystemCoreClock = (LSI_VALUE / sysdiv);
 8000cd8:	68f9      	ldr	r1, [r7, #12]
 8000cda:	23fa      	movs	r3, #250	@ 0xfa
 8000cdc:	01d8      	lsls	r0, r3, #7
 8000cde:	f7ff fa13 	bl	8000108 <__udivsi3>
 8000ce2:	0003      	movs	r3, r0
 8000ce4:	001a      	movs	r2, r3
 8000ce6:	4b1d      	ldr	r3, [pc, #116]	@ (8000d5c <SystemCoreClockUpdate+0xb8>)
 8000ce8:	601a      	str	r2, [r3, #0]
      break;
 8000cea:	e020      	b.n	8000d2e <SystemCoreClockUpdate+0x8a>

    case RCC_CFGR_SWS_2:                /* LSE used as system clock */
      SystemCoreClock = (LSE_VALUE / sysdiv);
 8000cec:	68f9      	ldr	r1, [r7, #12]
 8000cee:	2380      	movs	r3, #128	@ 0x80
 8000cf0:	0218      	lsls	r0, r3, #8
 8000cf2:	f7ff fa09 	bl	8000108 <__udivsi3>
 8000cf6:	0003      	movs	r3, r0
 8000cf8:	001a      	movs	r2, r3
 8000cfa:	4b18      	ldr	r3, [pc, #96]	@ (8000d5c <SystemCoreClockUpdate+0xb8>)
 8000cfc:	601a      	str	r2, [r3, #0]
      break;
 8000cfe:	e016      	b.n	8000d2e <SystemCoreClockUpdate+0x8a>

    case 0x00000000U:                   /* HSI used as system clock */
    default:                            /* HSI used as system clock */
      hsidiv = (1UL << ((READ_BIT(RCC->CR, RCC_CR_HSIDIV))>> RCC_CR_HSIDIV_Pos));
 8000d00:	4b14      	ldr	r3, [pc, #80]	@ (8000d54 <SystemCoreClockUpdate+0xb0>)
 8000d02:	681b      	ldr	r3, [r3, #0]
 8000d04:	0adb      	lsrs	r3, r3, #11
 8000d06:	2207      	movs	r2, #7
 8000d08:	4013      	ands	r3, r2
 8000d0a:	2201      	movs	r2, #1
 8000d0c:	409a      	lsls	r2, r3
 8000d0e:	0013      	movs	r3, r2
 8000d10:	60bb      	str	r3, [r7, #8]
      SystemCoreClock = ((HSI_VALUE / sysdiv) / hsidiv);
 8000d12:	68f9      	ldr	r1, [r7, #12]
 8000d14:	4810      	ldr	r0, [pc, #64]	@ (8000d58 <SystemCoreClockUpdate+0xb4>)
 8000d16:	f7ff f9f7 	bl	8000108 <__udivsi3>
 8000d1a:	0003      	movs	r3, r0
 8000d1c:	68b9      	ldr	r1, [r7, #8]
 8000d1e:	0018      	movs	r0, r3
 8000d20:	f7ff f9f2 	bl	8000108 <__udivsi3>
 8000d24:	0003      	movs	r3, r0
 8000d26:	001a      	movs	r2, r3
 8000d28:	4b0c      	ldr	r3, [pc, #48]	@ (8000d5c <SystemCoreClockUpdate+0xb8>)
 8000d2a:	601a      	str	r2, [r3, #0]
      break;
 8000d2c:	46c0      	nop			@ (mov r8, r8)
  }
  /* Compute HCLK clock frequency --------------------------------------------*/
  /* Get HCLK prescaler */
  tmp = AHBPrescTable[((RCC->CFGR & RCC_CFGR_HPRE) >> RCC_CFGR_HPRE_Pos)];
 8000d2e:	4b09      	ldr	r3, [pc, #36]	@ (8000d54 <SystemCoreClockUpdate+0xb0>)
 8000d30:	689b      	ldr	r3, [r3, #8]
 8000d32:	0a1b      	lsrs	r3, r3, #8
 8000d34:	220f      	movs	r2, #15
 8000d36:	401a      	ands	r2, r3
 8000d38:	4b09      	ldr	r3, [pc, #36]	@ (8000d60 <SystemCoreClockUpdate+0xbc>)
 8000d3a:	0092      	lsls	r2, r2, #2
 8000d3c:	58d3      	ldr	r3, [r2, r3]
 8000d3e:	607b      	str	r3, [r7, #4]
  /* HCLK clock frequency */
  SystemCoreClock >>= tmp;
 8000d40:	4b06      	ldr	r3, [pc, #24]	@ (8000d5c <SystemCoreClockUpdate+0xb8>)
 8000d42:	681a      	ldr	r2, [r3, #0]
 8000d44:	687b      	ldr	r3, [r7, #4]
 8000d46:	40da      	lsrs	r2, r3
 8000d48:	4b04      	ldr	r3, [pc, #16]	@ (8000d5c <SystemCoreClockUpdate+0xb8>)
 8000d4a:	601a      	str	r2, [r3, #0]
}
 8000d4c:	46c0      	nop			@ (mov r8, r8)
 8000d4e:	46bd      	mov	sp, r7
 8000d50:	b004      	add	sp, #16
 8000d52:	bd80      	pop	{r7, pc}
 8000d54:	40021000 	.word	0x40021000
 8000d58:	02dc6c00 	.word	0x02dc6c00
 8000d5c:	20000000 	.word	0x20000000
 8000d60:	08003f88 	.word	0x08003f88

08000d64 <right>:

//----------------------------------------------------------------------------
Q_DEFINE_THIS_FILE

// helper function to provide the RIGHT neighbor of a Philo[n]
static inline uint8_t right(uint8_t const n) {
 8000d64:	b580      	push	{r7, lr}
 8000d66:	b082      	sub	sp, #8
 8000d68:	af00      	add	r7, sp, #0
 8000d6a:	0002      	movs	r2, r0
 8000d6c:	1dfb      	adds	r3, r7, #7
 8000d6e:	701a      	strb	r2, [r3, #0]
    return (uint8_t)((n + (N_PHILO - 1U)) % N_PHILO);
 8000d70:	1dfb      	adds	r3, r7, #7
 8000d72:	781b      	ldrb	r3, [r3, #0]
 8000d74:	3304      	adds	r3, #4
 8000d76:	2105      	movs	r1, #5
 8000d78:	0018      	movs	r0, r3
 8000d7a:	f7ff fa4b 	bl	8000214 <__aeabi_uidivmod>
 8000d7e:	000b      	movs	r3, r1
 8000d80:	b2db      	uxtb	r3, r3
}
 8000d82:	0018      	movs	r0, r3
 8000d84:	46bd      	mov	sp, r7
 8000d86:	b002      	add	sp, #8
 8000d88:	bd80      	pop	{r7, pc}

08000d8a <left>:

// helper function to provide the LEFT neighbor of a Philo[n]
static inline uint8_t left(uint8_t const n) {
 8000d8a:	b580      	push	{r7, lr}
 8000d8c:	b082      	sub	sp, #8
 8000d8e:	af00      	add	r7, sp, #0
 8000d90:	0002      	movs	r2, r0
 8000d92:	1dfb      	adds	r3, r7, #7
 8000d94:	701a      	strb	r2, [r3, #0]
    return (uint8_t)((n + 1U) % N_PHILO);
 8000d96:	1dfb      	adds	r3, r7, #7
 8000d98:	781b      	ldrb	r3, [r3, #0]
 8000d9a:	3301      	adds	r3, #1
 8000d9c:	2105      	movs	r1, #5
 8000d9e:	0018      	movs	r0, r3
 8000da0:	f7ff fa38 	bl	8000214 <__aeabi_uidivmod>
 8000da4:	000b      	movs	r3, r1
 8000da6:	b2db      	uxtb	r3, r3
}
 8000da8:	0018      	movs	r0, r3
 8000daa:	46bd      	mov	sp, r7
 8000dac:	b002      	add	sp, #8
 8000dae:	bd80      	pop	{r7, pc}

08000db0 <Table_ctor>:
#endif
//$endskip${QP_VERSION} ^^^^^^^^^^^^^^^^^^^^^^^^^^^^^^^^^^^^^^^^^^^^^^^^^^^^^^
//$define${Shared::Table_ctor} vvvvvvvvvvvvvvvvvvvvvvvvvvvvvvvvvvvvvvvvvvvvvvv

//${Shared::Table_ctor} ......................................................
void Table_ctor(void) {
 8000db0:	b580      	push	{r7, lr}
 8000db2:	b082      	sub	sp, #8
 8000db4:	af00      	add	r7, sp, #0
    Table * const me = &Table_inst;
 8000db6:	4b15      	ldr	r3, [pc, #84]	@ (8000e0c <Table_ctor+0x5c>)
 8000db8:	603b      	str	r3, [r7, #0]
    QActive_ctor(&me->super, Q_STATE_CAST(&Table_initial));
 8000dba:	683b      	ldr	r3, [r7, #0]
 8000dbc:	4a14      	ldr	r2, [pc, #80]	@ (8000e10 <Table_ctor+0x60>)
 8000dbe:	0011      	movs	r1, r2
 8000dc0:	0018      	movs	r0, r3
 8000dc2:	f002 fb63 	bl	800348c <QActive_ctor>
    for (uint8_t n = 0U; n < N_PHILO; ++n) {
 8000dc6:	1dfb      	adds	r3, r7, #7
 8000dc8:	2200      	movs	r2, #0
 8000dca:	701a      	strb	r2, [r3, #0]
 8000dcc:	e014      	b.n	8000df8 <Table_ctor+0x48>
        me->fork[n] = FREE;
 8000dce:	1dfb      	adds	r3, r7, #7
 8000dd0:	781b      	ldrb	r3, [r3, #0]
 8000dd2:	683a      	ldr	r2, [r7, #0]
 8000dd4:	2124      	movs	r1, #36	@ 0x24
 8000dd6:	18d3      	adds	r3, r2, r3
 8000dd8:	185b      	adds	r3, r3, r1
 8000dda:	2200      	movs	r2, #0
 8000ddc:	701a      	strb	r2, [r3, #0]
        me->isHungry[n] = false;
 8000dde:	1dfb      	adds	r3, r7, #7
 8000de0:	781b      	ldrb	r3, [r3, #0]
 8000de2:	683a      	ldr	r2, [r7, #0]
 8000de4:	2129      	movs	r1, #41	@ 0x29
 8000de6:	18d3      	adds	r3, r2, r3
 8000de8:	185b      	adds	r3, r3, r1
 8000dea:	2200      	movs	r2, #0
 8000dec:	701a      	strb	r2, [r3, #0]
    for (uint8_t n = 0U; n < N_PHILO; ++n) {
 8000dee:	1dfb      	adds	r3, r7, #7
 8000df0:	1dfa      	adds	r2, r7, #7
 8000df2:	7812      	ldrb	r2, [r2, #0]
 8000df4:	3201      	adds	r2, #1
 8000df6:	701a      	strb	r2, [r3, #0]
 8000df8:	1dfb      	adds	r3, r7, #7
 8000dfa:	781b      	ldrb	r3, [r3, #0]
 8000dfc:	2b04      	cmp	r3, #4
 8000dfe:	d9e6      	bls.n	8000dce <Table_ctor+0x1e>
    }
}
 8000e00:	46c0      	nop			@ (mov r8, r8)
 8000e02:	46c0      	nop			@ (mov r8, r8)
 8000e04:	46bd      	mov	sp, r7
 8000e06:	b002      	add	sp, #8
 8000e08:	bd80      	pop	{r7, pc}
 8000e0a:	46c0      	nop			@ (mov r8, r8)
 8000e0c:	20000300 	.word	0x20000300
 8000e10:	08000e15 	.word	0x08000e15

08000e14 <Table_initial>:

//${AOs::Table} ..............................................................
Table Table_inst;

//${AOs::Table::SM} ..........................................................
static QState Table_initial(Table * const me, void const * const par) {
 8000e14:	b590      	push	{r4, r7, lr}
 8000e16:	b085      	sub	sp, #20
 8000e18:	af00      	add	r7, sp, #0
 8000e1a:	6078      	str	r0, [r7, #4]
 8000e1c:	6039      	str	r1, [r7, #0]
    //${AOs::Table::SM::initial}
    Q_UNUSED_PAR(par);

    QS_OBJ_DICTIONARY(&Table_inst);

    QActive_subscribe(&me->super, DONE_SIG);
 8000e1e:	687b      	ldr	r3, [r7, #4]
 8000e20:	2105      	movs	r1, #5
 8000e22:	0018      	movs	r0, r3
 8000e24:	f002 fad4 	bl	80033d0 <QActive_subscribe>
    QActive_subscribe(&me->super, PAUSE_SIG);
 8000e28:	687b      	ldr	r3, [r7, #4]
 8000e2a:	2106      	movs	r1, #6
 8000e2c:	0018      	movs	r0, r3
 8000e2e:	f002 facf 	bl	80033d0 <QActive_subscribe>
    QActive_subscribe(&me->super, SERVE_SIG);
 8000e32:	687b      	ldr	r3, [r7, #4]
 8000e34:	2107      	movs	r1, #7
 8000e36:	0018      	movs	r0, r3
 8000e38:	f002 faca 	bl	80033d0 <QActive_subscribe>
    QActive_subscribe(&me->super, TEST_SIG);
 8000e3c:	687b      	ldr	r3, [r7, #4]
 8000e3e:	2108      	movs	r1, #8
 8000e40:	0018      	movs	r0, r3
 8000e42:	f002 fac5 	bl	80033d0 <QActive_subscribe>

    for (uint8_t n = 0U; n < N_PHILO; ++n) {
 8000e46:	230f      	movs	r3, #15
 8000e48:	18fb      	adds	r3, r7, r3
 8000e4a:	2200      	movs	r2, #0
 8000e4c:	701a      	strb	r2, [r3, #0]
 8000e4e:	e01d      	b.n	8000e8c <Table_initial+0x78>
        me->fork[n] = FREE;
 8000e50:	200f      	movs	r0, #15
 8000e52:	183b      	adds	r3, r7, r0
 8000e54:	781b      	ldrb	r3, [r3, #0]
 8000e56:	687a      	ldr	r2, [r7, #4]
 8000e58:	2124      	movs	r1, #36	@ 0x24
 8000e5a:	18d3      	adds	r3, r2, r3
 8000e5c:	185b      	adds	r3, r3, r1
 8000e5e:	2200      	movs	r2, #0
 8000e60:	701a      	strb	r2, [r3, #0]
        me->isHungry[n] = false;
 8000e62:	183b      	adds	r3, r7, r0
 8000e64:	781b      	ldrb	r3, [r3, #0]
 8000e66:	687a      	ldr	r2, [r7, #4]
 8000e68:	2129      	movs	r1, #41	@ 0x29
 8000e6a:	18d3      	adds	r3, r2, r3
 8000e6c:	185b      	adds	r3, r3, r1
 8000e6e:	2200      	movs	r2, #0
 8000e70:	701a      	strb	r2, [r3, #0]
        BSP_displayPhilStat(n, THINKING);
 8000e72:	4a0d      	ldr	r2, [pc, #52]	@ (8000ea8 <Table_initial+0x94>)
 8000e74:	0004      	movs	r4, r0
 8000e76:	183b      	adds	r3, r7, r0
 8000e78:	781b      	ldrb	r3, [r3, #0]
 8000e7a:	0011      	movs	r1, r2
 8000e7c:	0018      	movs	r0, r3
 8000e7e:	f7ff fbeb 	bl	8000658 <BSP_displayPhilStat>
    for (uint8_t n = 0U; n < N_PHILO; ++n) {
 8000e82:	193b      	adds	r3, r7, r4
 8000e84:	193a      	adds	r2, r7, r4
 8000e86:	7812      	ldrb	r2, [r2, #0]
 8000e88:	3201      	adds	r2, #1
 8000e8a:	701a      	strb	r2, [r3, #0]
 8000e8c:	230f      	movs	r3, #15
 8000e8e:	18fb      	adds	r3, r7, r3
 8000e90:	781b      	ldrb	r3, [r3, #0]
 8000e92:	2b04      	cmp	r3, #4
 8000e94:	d9dc      	bls.n	8000e50 <Table_initial+0x3c>

    QS_FUN_DICTIONARY(&Table_active);
    QS_FUN_DICTIONARY(&Table_serving);
    QS_FUN_DICTIONARY(&Table_paused);

    return Q_TRAN(&Table_serving);
 8000e96:	687b      	ldr	r3, [r7, #4]
 8000e98:	4a04      	ldr	r2, [pc, #16]	@ (8000eac <Table_initial+0x98>)
 8000e9a:	609a      	str	r2, [r3, #8]
 8000e9c:	2303      	movs	r3, #3
}
 8000e9e:	0018      	movs	r0, r3
 8000ea0:	46bd      	mov	sp, r7
 8000ea2:	b005      	add	sp, #20
 8000ea4:	bd90      	pop	{r4, r7, pc}
 8000ea6:	46c0      	nop			@ (mov r8, r8)
 8000ea8:	08003ef8 	.word	0x08003ef8
 8000eac:	08000ef9 	.word	0x08000ef9

08000eb0 <Table_active>:

//${AOs::Table::SM::active} ..................................................
static QState Table_active(Table * const me, QEvt const * const e) {
 8000eb0:	b580      	push	{r7, lr}
 8000eb2:	b084      	sub	sp, #16
 8000eb4:	af00      	add	r7, sp, #0
 8000eb6:	6078      	str	r0, [r7, #4]
 8000eb8:	6039      	str	r1, [r7, #0]
    QState status_;
    switch (e->sig) {
 8000eba:	683b      	ldr	r3, [r7, #0]
 8000ebc:	881b      	ldrh	r3, [r3, #0]
 8000ebe:	2b04      	cmp	r3, #4
 8000ec0:	d004      	beq.n	8000ecc <Table_active+0x1c>
 8000ec2:	2b08      	cmp	r3, #8
 8000ec4:	d109      	bne.n	8000eda <Table_active+0x2a>
        //${AOs::Table::SM::active::TEST}
        case TEST_SIG: {
            status_ = Q_HANDLED();
 8000ec6:	2302      	movs	r3, #2
 8000ec8:	60fb      	str	r3, [r7, #12]
            break;
 8000eca:	e00c      	b.n	8000ee6 <Table_active+0x36>
        }
        //${AOs::Table::SM::active::EAT}
        case EAT_SIG: {
            Q_ERROR();
 8000ecc:	f001 f98a 	bl	80021e4 <QF_crit_entry_>
 8000ed0:	4b07      	ldr	r3, [pc, #28]	@ (8000ef0 <Table_active+0x40>)
 8000ed2:	2197      	movs	r1, #151	@ 0x97
 8000ed4:	0018      	movs	r0, r3
 8000ed6:	f7ff fa67 	bl	80003a8 <Q_onError>
            status_ = Q_HANDLED();
            break;
        }
        default: {
            status_ = Q_SUPER(&QHsm_top);
 8000eda:	687b      	ldr	r3, [r7, #4]
 8000edc:	4a05      	ldr	r2, [pc, #20]	@ (8000ef4 <Table_active+0x44>)
 8000ede:	609a      	str	r2, [r3, #8]
 8000ee0:	2300      	movs	r3, #0
 8000ee2:	60fb      	str	r3, [r7, #12]
            break;
 8000ee4:	46c0      	nop			@ (mov r8, r8)
        }
    }
    return status_;
 8000ee6:	68fb      	ldr	r3, [r7, #12]
}
 8000ee8:	0018      	movs	r0, r3
 8000eea:	46bd      	mov	sp, r7
 8000eec:	b004      	add	sp, #16
 8000eee:	bd80      	pop	{r7, pc}
 8000ef0:	08003fc8 	.word	0x08003fc8
 8000ef4:	08002315 	.word	0x08002315

08000ef8 <Table_serving>:

//${AOs::Table::SM::active::serving} .........................................
static QState Table_serving(Table * const me, QEvt const * const e) {
 8000ef8:	b5f0      	push	{r4, r5, r6, r7, lr}
 8000efa:	b08b      	sub	sp, #44	@ 0x2c
 8000efc:	af00      	add	r7, sp, #0
 8000efe:	6078      	str	r0, [r7, #4]
 8000f00:	6039      	str	r1, [r7, #0]
    QState status_;
    switch (e->sig) {
 8000f02:	683b      	ldr	r3, [r7, #0]
 8000f04:	881b      	ldrh	r3, [r3, #0]
 8000f06:	2b0b      	cmp	r3, #11
 8000f08:	d900      	bls.n	8000f0c <Table_serving+0x14>
 8000f0a:	e207      	b.n	800131c <Table_serving+0x424>
 8000f0c:	009a      	lsls	r2, r3, #2
 8000f0e:	4b97      	ldr	r3, [pc, #604]	@ (800116c <Table_serving+0x274>)
 8000f10:	18d3      	adds	r3, r2, r3
 8000f12:	681b      	ldr	r3, [r3, #0]
 8000f14:	469f      	mov	pc, r3
        //${AOs::Table::SM::active::serving}
        case Q_ENTRY_SIG: {
            // give permissions to eat...
            for (uint8_t n = 0U; n < N_PHILO; ++n) {
 8000f16:	2323      	movs	r3, #35	@ 0x23
 8000f18:	18fb      	adds	r3, r7, r3
 8000f1a:	2200      	movs	r2, #0
 8000f1c:	701a      	strb	r2, [r3, #0]
 8000f1e:	e05c      	b.n	8000fda <Table_serving+0xe2>
                if (me->isHungry[n]
 8000f20:	2423      	movs	r4, #35	@ 0x23
 8000f22:	193b      	adds	r3, r7, r4
 8000f24:	781b      	ldrb	r3, [r3, #0]
 8000f26:	687a      	ldr	r2, [r7, #4]
 8000f28:	2129      	movs	r1, #41	@ 0x29
 8000f2a:	18d3      	adds	r3, r2, r3
 8000f2c:	185b      	adds	r3, r3, r1
 8000f2e:	781b      	ldrb	r3, [r3, #0]
 8000f30:	2b00      	cmp	r3, #0
 8000f32:	d04c      	beq.n	8000fce <Table_serving+0xd6>
                    && (me->fork[left(n)] == FREE)
 8000f34:	193b      	adds	r3, r7, r4
 8000f36:	781b      	ldrb	r3, [r3, #0]
 8000f38:	0018      	movs	r0, r3
 8000f3a:	f7ff ff26 	bl	8000d8a <left>
 8000f3e:	0003      	movs	r3, r0
 8000f40:	0019      	movs	r1, r3
 8000f42:	687b      	ldr	r3, [r7, #4]
 8000f44:	2224      	movs	r2, #36	@ 0x24
 8000f46:	185b      	adds	r3, r3, r1
 8000f48:	189b      	adds	r3, r3, r2
 8000f4a:	781b      	ldrb	r3, [r3, #0]
 8000f4c:	2b00      	cmp	r3, #0
 8000f4e:	d13e      	bne.n	8000fce <Table_serving+0xd6>
                    && (me->fork[n] == FREE))
 8000f50:	193b      	adds	r3, r7, r4
 8000f52:	781b      	ldrb	r3, [r3, #0]
 8000f54:	687a      	ldr	r2, [r7, #4]
 8000f56:	2124      	movs	r1, #36	@ 0x24
 8000f58:	18d3      	adds	r3, r2, r3
 8000f5a:	185b      	adds	r3, r3, r1
 8000f5c:	781b      	ldrb	r3, [r3, #0]
 8000f5e:	2b00      	cmp	r3, #0
 8000f60:	d135      	bne.n	8000fce <Table_serving+0xd6>
                {
                    me->fork[left(n)] = USED;
 8000f62:	193b      	adds	r3, r7, r4
 8000f64:	781b      	ldrb	r3, [r3, #0]
 8000f66:	0018      	movs	r0, r3
 8000f68:	f7ff ff0f 	bl	8000d8a <left>
 8000f6c:	0003      	movs	r3, r0
 8000f6e:	0019      	movs	r1, r3
 8000f70:	687b      	ldr	r3, [r7, #4]
 8000f72:	2224      	movs	r2, #36	@ 0x24
 8000f74:	185b      	adds	r3, r3, r1
 8000f76:	189b      	adds	r3, r3, r2
 8000f78:	2201      	movs	r2, #1
 8000f7a:	701a      	strb	r2, [r3, #0]
                    me->fork[n] = USED;
 8000f7c:	193b      	adds	r3, r7, r4
 8000f7e:	781b      	ldrb	r3, [r3, #0]
 8000f80:	687a      	ldr	r2, [r7, #4]
 8000f82:	2124      	movs	r1, #36	@ 0x24
 8000f84:	18d3      	adds	r3, r2, r3
 8000f86:	185b      	adds	r3, r3, r1
 8000f88:	2201      	movs	r2, #1
 8000f8a:	701a      	strb	r2, [r3, #0]
            #ifdef QEVT_PAR_INIT
                    TableEvt const *pe = Q_NEW(TableEvt, EAT_SIG, n);
            #else
                    TableEvt *pe = Q_NEW(TableEvt, EAT_SIG);
 8000f8c:	4b78      	ldr	r3, [pc, #480]	@ (8001170 <Table_serving+0x278>)
 8000f8e:	2204      	movs	r2, #4
 8000f90:	0019      	movs	r1, r3
 8000f92:	200c      	movs	r0, #12
 8000f94:	f001 fea8 	bl	8002ce8 <QF_newX_>
 8000f98:	0003      	movs	r3, r0
 8000f9a:	60fb      	str	r3, [r7, #12]
                    pe->philoId = n;
 8000f9c:	68fb      	ldr	r3, [r7, #12]
 8000f9e:	193a      	adds	r2, r7, r4
 8000fa0:	7812      	ldrb	r2, [r2, #0]
 8000fa2:	721a      	strb	r2, [r3, #8]
            #endif
                    QACTIVE_PUBLISH(&pe->super, &me->super);
 8000fa4:	68fb      	ldr	r3, [r7, #12]
 8000fa6:	2200      	movs	r2, #0
 8000fa8:	2100      	movs	r1, #0
 8000faa:	0018      	movs	r0, r3
 8000fac:	f002 f940 	bl	8003230 <QActive_publish_>
                    me->isHungry[n] = false;
 8000fb0:	193b      	adds	r3, r7, r4
 8000fb2:	781b      	ldrb	r3, [r3, #0]
 8000fb4:	687a      	ldr	r2, [r7, #4]
 8000fb6:	2129      	movs	r1, #41	@ 0x29
 8000fb8:	18d3      	adds	r3, r2, r3
 8000fba:	185b      	adds	r3, r3, r1
 8000fbc:	2200      	movs	r2, #0
 8000fbe:	701a      	strb	r2, [r3, #0]
                    BSP_displayPhilStat(n, EATING);
 8000fc0:	4a6c      	ldr	r2, [pc, #432]	@ (8001174 <Table_serving+0x27c>)
 8000fc2:	193b      	adds	r3, r7, r4
 8000fc4:	781b      	ldrb	r3, [r3, #0]
 8000fc6:	0011      	movs	r1, r2
 8000fc8:	0018      	movs	r0, r3
 8000fca:	f7ff fb45 	bl	8000658 <BSP_displayPhilStat>
            for (uint8_t n = 0U; n < N_PHILO; ++n) {
 8000fce:	2223      	movs	r2, #35	@ 0x23
 8000fd0:	18bb      	adds	r3, r7, r2
 8000fd2:	18ba      	adds	r2, r7, r2
 8000fd4:	7812      	ldrb	r2, [r2, #0]
 8000fd6:	3201      	adds	r2, #1
 8000fd8:	701a      	strb	r2, [r3, #0]
 8000fda:	2323      	movs	r3, #35	@ 0x23
 8000fdc:	18fb      	adds	r3, r7, r3
 8000fde:	781b      	ldrb	r3, [r3, #0]
 8000fe0:	2b04      	cmp	r3, #4
 8000fe2:	d99d      	bls.n	8000f20 <Table_serving+0x28>
                }
            }
            status_ = Q_HANDLED();
 8000fe4:	2302      	movs	r3, #2
 8000fe6:	627b      	str	r3, [r7, #36]	@ 0x24
            break;
 8000fe8:	e19e      	b.n	8001328 <Table_serving+0x430>
        }
        //${AOs::Table::SM::active::serving::HUNGRY}
        case HUNGRY_SIG: {
            uint8_t n = Q_EVT_CAST(TableEvt)->philoId;
 8000fea:	2422      	movs	r4, #34	@ 0x22
 8000fec:	193b      	adds	r3, r7, r4
 8000fee:	683a      	ldr	r2, [r7, #0]
 8000ff0:	7a12      	ldrb	r2, [r2, #8]
 8000ff2:	701a      	strb	r2, [r3, #0]

            // phil ID must be in range and he must be not hungry
            Q_ASSERT((n < N_PHILO) && (!me->isHungry[n]));
 8000ff4:	f001 f8f6 	bl	80021e4 <QF_crit_entry_>
 8000ff8:	0022      	movs	r2, r4
 8000ffa:	18bb      	adds	r3, r7, r2
 8000ffc:	781b      	ldrb	r3, [r3, #0]
 8000ffe:	2b04      	cmp	r3, #4
 8001000:	d808      	bhi.n	8001014 <Table_serving+0x11c>
 8001002:	18bb      	adds	r3, r7, r2
 8001004:	781b      	ldrb	r3, [r3, #0]
 8001006:	687a      	ldr	r2, [r7, #4]
 8001008:	2129      	movs	r1, #41	@ 0x29
 800100a:	18d3      	adds	r3, r2, r3
 800100c:	185b      	adds	r3, r3, r1
 800100e:	781b      	ldrb	r3, [r3, #0]
 8001010:	2b00      	cmp	r3, #0
 8001012:	d004      	beq.n	800101e <Table_serving+0x126>
 8001014:	4b58      	ldr	r3, [pc, #352]	@ (8001178 <Table_serving+0x280>)
 8001016:	21c4      	movs	r1, #196	@ 0xc4
 8001018:	0018      	movs	r0, r3
 800101a:	f7ff f9c5 	bl	80003a8 <Q_onError>
 800101e:	f001 f8f1 	bl	8002204 <QF_crit_exit_>

            BSP_displayPhilStat(n, HUNGRY);
 8001022:	4a56      	ldr	r2, [pc, #344]	@ (800117c <Table_serving+0x284>)
 8001024:	2522      	movs	r5, #34	@ 0x22
 8001026:	197b      	adds	r3, r7, r5
 8001028:	781b      	ldrb	r3, [r3, #0]
 800102a:	0011      	movs	r1, r2
 800102c:	0018      	movs	r0, r3
 800102e:	f7ff fb13 	bl	8000658 <BSP_displayPhilStat>
            uint8_t m = left(n);
 8001032:	2621      	movs	r6, #33	@ 0x21
 8001034:	19bc      	adds	r4, r7, r6
 8001036:	197b      	adds	r3, r7, r5
 8001038:	781b      	ldrb	r3, [r3, #0]
 800103a:	0018      	movs	r0, r3
 800103c:	f7ff fea5 	bl	8000d8a <left>
 8001040:	0003      	movs	r3, r0
 8001042:	7023      	strb	r3, [r4, #0]
            //${AOs::Table::SM::active::serving::HUNGRY::[bothfree]}
            if ((me->fork[m] == FREE) && (me->fork[n] == FREE)) {
 8001044:	0034      	movs	r4, r6
 8001046:	193b      	adds	r3, r7, r4
 8001048:	781b      	ldrb	r3, [r3, #0]
 800104a:	687a      	ldr	r2, [r7, #4]
 800104c:	2124      	movs	r1, #36	@ 0x24
 800104e:	18d3      	adds	r3, r2, r3
 8001050:	185b      	adds	r3, r3, r1
 8001052:	781b      	ldrb	r3, [r3, #0]
 8001054:	2b00      	cmp	r3, #0
 8001056:	d137      	bne.n	80010c8 <Table_serving+0x1d0>
 8001058:	0028      	movs	r0, r5
 800105a:	183b      	adds	r3, r7, r0
 800105c:	781b      	ldrb	r3, [r3, #0]
 800105e:	687a      	ldr	r2, [r7, #4]
 8001060:	2124      	movs	r1, #36	@ 0x24
 8001062:	18d3      	adds	r3, r2, r3
 8001064:	185b      	adds	r3, r3, r1
 8001066:	781b      	ldrb	r3, [r3, #0]
 8001068:	2b00      	cmp	r3, #0
 800106a:	d12d      	bne.n	80010c8 <Table_serving+0x1d0>
                me->fork[m] = USED;
 800106c:	193b      	adds	r3, r7, r4
 800106e:	781b      	ldrb	r3, [r3, #0]
 8001070:	687a      	ldr	r2, [r7, #4]
 8001072:	2124      	movs	r1, #36	@ 0x24
 8001074:	18d3      	adds	r3, r2, r3
 8001076:	185b      	adds	r3, r3, r1
 8001078:	2201      	movs	r2, #1
 800107a:	701a      	strb	r2, [r3, #0]
                me->fork[n] = USED;
 800107c:	0004      	movs	r4, r0
 800107e:	183b      	adds	r3, r7, r0
 8001080:	781b      	ldrb	r3, [r3, #0]
 8001082:	687a      	ldr	r2, [r7, #4]
 8001084:	2124      	movs	r1, #36	@ 0x24
 8001086:	18d3      	adds	r3, r2, r3
 8001088:	185b      	adds	r3, r3, r1
 800108a:	2201      	movs	r2, #1
 800108c:	701a      	strb	r2, [r3, #0]
                #ifdef QEVT_PAR_INIT
                TableEvt const *pe = Q_NEW(TableEvt, EAT_SIG, n);
                #else
                TableEvt *pe = Q_NEW(TableEvt, EAT_SIG);
 800108e:	4b38      	ldr	r3, [pc, #224]	@ (8001170 <Table_serving+0x278>)
 8001090:	2204      	movs	r2, #4
 8001092:	0019      	movs	r1, r3
 8001094:	200c      	movs	r0, #12
 8001096:	f001 fe27 	bl	8002ce8 <QF_newX_>
 800109a:	0003      	movs	r3, r0
 800109c:	61fb      	str	r3, [r7, #28]
                pe->philoId = n;
 800109e:	69fb      	ldr	r3, [r7, #28]
 80010a0:	193a      	adds	r2, r7, r4
 80010a2:	7812      	ldrb	r2, [r2, #0]
 80010a4:	721a      	strb	r2, [r3, #8]
                #endif
                QACTIVE_PUBLISH(&pe->super, &me->super);
 80010a6:	69fb      	ldr	r3, [r7, #28]
 80010a8:	2200      	movs	r2, #0
 80010aa:	2100      	movs	r1, #0
 80010ac:	0018      	movs	r0, r3
 80010ae:	f002 f8bf 	bl	8003230 <QActive_publish_>
                BSP_displayPhilStat(n, EATING);
 80010b2:	4a30      	ldr	r2, [pc, #192]	@ (8001174 <Table_serving+0x27c>)
 80010b4:	193b      	adds	r3, r7, r4
 80010b6:	781b      	ldrb	r3, [r3, #0]
 80010b8:	0011      	movs	r1, r2
 80010ba:	0018      	movs	r0, r3
 80010bc:	f7ff facc 	bl	8000658 <BSP_displayPhilStat>
                status_ = Q_HANDLED();
 80010c0:	2302      	movs	r3, #2
 80010c2:	627b      	str	r3, [r7, #36]	@ 0x24
            if ((me->fork[m] == FREE) && (me->fork[n] == FREE)) {
 80010c4:	46c0      	nop			@ (mov r8, r8)
            //${AOs::Table::SM::active::serving::HUNGRY::[else]}
            else {
                me->isHungry[n] = true;
                status_ = Q_HANDLED();
            }
            break;
 80010c6:	e12f      	b.n	8001328 <Table_serving+0x430>
                me->isHungry[n] = true;
 80010c8:	2322      	movs	r3, #34	@ 0x22
 80010ca:	18fb      	adds	r3, r7, r3
 80010cc:	781b      	ldrb	r3, [r3, #0]
 80010ce:	687a      	ldr	r2, [r7, #4]
 80010d0:	2129      	movs	r1, #41	@ 0x29
 80010d2:	18d3      	adds	r3, r2, r3
 80010d4:	185b      	adds	r3, r3, r1
 80010d6:	2201      	movs	r2, #1
 80010d8:	701a      	strb	r2, [r3, #0]
                status_ = Q_HANDLED();
 80010da:	2302      	movs	r3, #2
 80010dc:	627b      	str	r3, [r7, #36]	@ 0x24
            break;
 80010de:	e123      	b.n	8001328 <Table_serving+0x430>
        }
        //${AOs::Table::SM::active::serving::DONE}
        case DONE_SIG: {
            uint8_t n = Q_EVT_CAST(TableEvt)->philoId;
 80010e0:	241b      	movs	r4, #27
 80010e2:	193b      	adds	r3, r7, r4
 80010e4:	683a      	ldr	r2, [r7, #0]
 80010e6:	7a12      	ldrb	r2, [r2, #8]
 80010e8:	701a      	strb	r2, [r3, #0]

            // phil ID must be in range and he must be not hungry
            Q_ASSERT((n < N_PHILO) && (!me->isHungry[n]));
 80010ea:	f001 f87b 	bl	80021e4 <QF_crit_entry_>
 80010ee:	0022      	movs	r2, r4
 80010f0:	18bb      	adds	r3, r7, r2
 80010f2:	781b      	ldrb	r3, [r3, #0]
 80010f4:	2b04      	cmp	r3, #4
 80010f6:	d808      	bhi.n	800110a <Table_serving+0x212>
 80010f8:	18bb      	adds	r3, r7, r2
 80010fa:	781b      	ldrb	r3, [r3, #0]
 80010fc:	687a      	ldr	r2, [r7, #4]
 80010fe:	2129      	movs	r1, #41	@ 0x29
 8001100:	18d3      	adds	r3, r2, r3
 8001102:	185b      	adds	r3, r3, r1
 8001104:	781b      	ldrb	r3, [r3, #0]
 8001106:	2b00      	cmp	r3, #0
 8001108:	d004      	beq.n	8001114 <Table_serving+0x21c>
 800110a:	4b1b      	ldr	r3, [pc, #108]	@ (8001178 <Table_serving+0x280>)
 800110c:	21e2      	movs	r1, #226	@ 0xe2
 800110e:	0018      	movs	r0, r3
 8001110:	f7ff f94a 	bl	80003a8 <Q_onError>
 8001114:	f001 f876 	bl	8002204 <QF_crit_exit_>

            BSP_displayPhilStat(n, THINKING);
 8001118:	4a19      	ldr	r2, [pc, #100]	@ (8001180 <Table_serving+0x288>)
 800111a:	251b      	movs	r5, #27
 800111c:	197b      	adds	r3, r7, r5
 800111e:	781b      	ldrb	r3, [r3, #0]
 8001120:	0011      	movs	r1, r2
 8001122:	0018      	movs	r0, r3
 8001124:	f7ff fa98 	bl	8000658 <BSP_displayPhilStat>
            uint8_t m = left(n);
 8001128:	261a      	movs	r6, #26
 800112a:	19bc      	adds	r4, r7, r6
 800112c:	197b      	adds	r3, r7, r5
 800112e:	781b      	ldrb	r3, [r3, #0]
 8001130:	0018      	movs	r0, r3
 8001132:	f7ff fe2a 	bl	8000d8a <left>
 8001136:	0003      	movs	r3, r0
 8001138:	7023      	strb	r3, [r4, #0]

            // both forks of Phil[n] must be used
            Q_ASSERT((me->fork[n] == USED) && (me->fork[m] == USED));
 800113a:	f001 f853 	bl	80021e4 <QF_crit_entry_>
 800113e:	197b      	adds	r3, r7, r5
 8001140:	781b      	ldrb	r3, [r3, #0]
 8001142:	687a      	ldr	r2, [r7, #4]
 8001144:	2124      	movs	r1, #36	@ 0x24
 8001146:	18d3      	adds	r3, r2, r3
 8001148:	185b      	adds	r3, r3, r1
 800114a:	781b      	ldrb	r3, [r3, #0]
 800114c:	2b01      	cmp	r3, #1
 800114e:	d108      	bne.n	8001162 <Table_serving+0x26a>
 8001150:	19bb      	adds	r3, r7, r6
 8001152:	781b      	ldrb	r3, [r3, #0]
 8001154:	687a      	ldr	r2, [r7, #4]
 8001156:	2124      	movs	r1, #36	@ 0x24
 8001158:	18d3      	adds	r3, r2, r3
 800115a:	185b      	adds	r3, r3, r1
 800115c:	781b      	ldrb	r3, [r3, #0]
 800115e:	2b01      	cmp	r3, #1
 8001160:	d010      	beq.n	8001184 <Table_serving+0x28c>
 8001162:	4b05      	ldr	r3, [pc, #20]	@ (8001178 <Table_serving+0x280>)
 8001164:	21e8      	movs	r1, #232	@ 0xe8
 8001166:	0018      	movs	r0, r3
 8001168:	f7ff f91e 	bl	80003a8 <Q_onError>
 800116c:	08003fe0 	.word	0x08003fe0
 8001170:	0000ffff 	.word	0x0000ffff
 8001174:	08003f04 	.word	0x08003f04
 8001178:	08003fc8 	.word	0x08003fc8
 800117c:	08003f10 	.word	0x08003f10
 8001180:	08003ef8 	.word	0x08003ef8
 8001184:	f001 f83e 	bl	8002204 <QF_crit_exit_>

            me->fork[m] = FREE;
 8001188:	201a      	movs	r0, #26
 800118a:	183b      	adds	r3, r7, r0
 800118c:	781b      	ldrb	r3, [r3, #0]
 800118e:	687a      	ldr	r2, [r7, #4]
 8001190:	2124      	movs	r1, #36	@ 0x24
 8001192:	18d3      	adds	r3, r2, r3
 8001194:	185b      	adds	r3, r3, r1
 8001196:	2200      	movs	r2, #0
 8001198:	701a      	strb	r2, [r3, #0]
            me->fork[n] = FREE;
 800119a:	261b      	movs	r6, #27
 800119c:	19bb      	adds	r3, r7, r6
 800119e:	781b      	ldrb	r3, [r3, #0]
 80011a0:	687a      	ldr	r2, [r7, #4]
 80011a2:	2124      	movs	r1, #36	@ 0x24
 80011a4:	18d3      	adds	r3, r2, r3
 80011a6:	185b      	adds	r3, r3, r1
 80011a8:	2200      	movs	r2, #0
 80011aa:	701a      	strb	r2, [r3, #0]
            m = right(n); // check the right neighbor
 80011ac:	0005      	movs	r5, r0
 80011ae:	183c      	adds	r4, r7, r0
 80011b0:	19bb      	adds	r3, r7, r6
 80011b2:	781b      	ldrb	r3, [r3, #0]
 80011b4:	0018      	movs	r0, r3
 80011b6:	f7ff fdd5 	bl	8000d64 <right>
 80011ba:	0003      	movs	r3, r0
 80011bc:	7023      	strb	r3, [r4, #0]

            if (me->isHungry[m] && (me->fork[m] == FREE)) {
 80011be:	0028      	movs	r0, r5
 80011c0:	183b      	adds	r3, r7, r0
 80011c2:	781b      	ldrb	r3, [r3, #0]
 80011c4:	687a      	ldr	r2, [r7, #4]
 80011c6:	2129      	movs	r1, #41	@ 0x29
 80011c8:	18d3      	adds	r3, r2, r3
 80011ca:	185b      	adds	r3, r3, r1
 80011cc:	781b      	ldrb	r3, [r3, #0]
 80011ce:	2b00      	cmp	r3, #0
 80011d0:	d03a      	beq.n	8001248 <Table_serving+0x350>
 80011d2:	183b      	adds	r3, r7, r0
 80011d4:	781b      	ldrb	r3, [r3, #0]
 80011d6:	687a      	ldr	r2, [r7, #4]
 80011d8:	2124      	movs	r1, #36	@ 0x24
 80011da:	18d3      	adds	r3, r2, r3
 80011dc:	185b      	adds	r3, r3, r1
 80011de:	781b      	ldrb	r3, [r3, #0]
 80011e0:	2b00      	cmp	r3, #0
 80011e2:	d131      	bne.n	8001248 <Table_serving+0x350>
                me->fork[n] = USED;
 80011e4:	19bb      	adds	r3, r7, r6
 80011e6:	781b      	ldrb	r3, [r3, #0]
 80011e8:	687a      	ldr	r2, [r7, #4]
 80011ea:	2124      	movs	r1, #36	@ 0x24
 80011ec:	18d3      	adds	r3, r2, r3
 80011ee:	185b      	adds	r3, r3, r1
 80011f0:	2201      	movs	r2, #1
 80011f2:	701a      	strb	r2, [r3, #0]
                me->fork[m] = USED;
 80011f4:	183b      	adds	r3, r7, r0
 80011f6:	781b      	ldrb	r3, [r3, #0]
 80011f8:	687a      	ldr	r2, [r7, #4]
 80011fa:	2124      	movs	r1, #36	@ 0x24
 80011fc:	18d3      	adds	r3, r2, r3
 80011fe:	185b      	adds	r3, r3, r1
 8001200:	2201      	movs	r2, #1
 8001202:	701a      	strb	r2, [r3, #0]
                me->isHungry[m] = false;
 8001204:	0004      	movs	r4, r0
 8001206:	183b      	adds	r3, r7, r0
 8001208:	781b      	ldrb	r3, [r3, #0]
 800120a:	687a      	ldr	r2, [r7, #4]
 800120c:	2129      	movs	r1, #41	@ 0x29
 800120e:	18d3      	adds	r3, r2, r3
 8001210:	185b      	adds	r3, r3, r1
 8001212:	2200      	movs	r2, #0
 8001214:	701a      	strb	r2, [r3, #0]
            #ifdef QEVT_PAR_INIT
                TableEvt const *pe = Q_NEW(TableEvt, EAT_SIG, m);
            #else
                TableEvt *pe = Q_NEW(TableEvt, EAT_SIG);
 8001216:	4b47      	ldr	r3, [pc, #284]	@ (8001334 <Table_serving+0x43c>)
 8001218:	2204      	movs	r2, #4
 800121a:	0019      	movs	r1, r3
 800121c:	200c      	movs	r0, #12
 800121e:	f001 fd63 	bl	8002ce8 <QF_newX_>
 8001222:	0003      	movs	r3, r0
 8001224:	617b      	str	r3, [r7, #20]
                pe->philoId = m;
 8001226:	697b      	ldr	r3, [r7, #20]
 8001228:	193a      	adds	r2, r7, r4
 800122a:	7812      	ldrb	r2, [r2, #0]
 800122c:	721a      	strb	r2, [r3, #8]
            #endif
                QACTIVE_PUBLISH(&pe->super, &me->super);
 800122e:	697b      	ldr	r3, [r7, #20]
 8001230:	2200      	movs	r2, #0
 8001232:	2100      	movs	r1, #0
 8001234:	0018      	movs	r0, r3
 8001236:	f001 fffb 	bl	8003230 <QActive_publish_>
                BSP_displayPhilStat(m, EATING);
 800123a:	4a3f      	ldr	r2, [pc, #252]	@ (8001338 <Table_serving+0x440>)
 800123c:	193b      	adds	r3, r7, r4
 800123e:	781b      	ldrb	r3, [r3, #0]
 8001240:	0011      	movs	r1, r2
 8001242:	0018      	movs	r0, r3
 8001244:	f7ff fa08 	bl	8000658 <BSP_displayPhilStat>
            }
            m = left(n); // check the left neighbor
 8001248:	251a      	movs	r5, #26
 800124a:	197c      	adds	r4, r7, r5
 800124c:	261b      	movs	r6, #27
 800124e:	19bb      	adds	r3, r7, r6
 8001250:	781b      	ldrb	r3, [r3, #0]
 8001252:	0018      	movs	r0, r3
 8001254:	f7ff fd99 	bl	8000d8a <left>
 8001258:	0003      	movs	r3, r0
 800125a:	7023      	strb	r3, [r4, #0]
            n = left(m); // left fork of the left neighbor
 800125c:	19bc      	adds	r4, r7, r6
 800125e:	197b      	adds	r3, r7, r5
 8001260:	781b      	ldrb	r3, [r3, #0]
 8001262:	0018      	movs	r0, r3
 8001264:	f7ff fd91 	bl	8000d8a <left>
 8001268:	0003      	movs	r3, r0
 800126a:	7023      	strb	r3, [r4, #0]
            if (me->isHungry[m] && (me->fork[n] == FREE)) {
 800126c:	0028      	movs	r0, r5
 800126e:	183b      	adds	r3, r7, r0
 8001270:	781b      	ldrb	r3, [r3, #0]
 8001272:	687a      	ldr	r2, [r7, #4]
 8001274:	2129      	movs	r1, #41	@ 0x29
 8001276:	18d3      	adds	r3, r2, r3
 8001278:	185b      	adds	r3, r3, r1
 800127a:	781b      	ldrb	r3, [r3, #0]
 800127c:	2b00      	cmp	r3, #0
 800127e:	d03a      	beq.n	80012f6 <Table_serving+0x3fe>
 8001280:	19bb      	adds	r3, r7, r6
 8001282:	781b      	ldrb	r3, [r3, #0]
 8001284:	687a      	ldr	r2, [r7, #4]
 8001286:	2124      	movs	r1, #36	@ 0x24
 8001288:	18d3      	adds	r3, r2, r3
 800128a:	185b      	adds	r3, r3, r1
 800128c:	781b      	ldrb	r3, [r3, #0]
 800128e:	2b00      	cmp	r3, #0
 8001290:	d131      	bne.n	80012f6 <Table_serving+0x3fe>
                me->fork[m] = USED;
 8001292:	183b      	adds	r3, r7, r0
 8001294:	781b      	ldrb	r3, [r3, #0]
 8001296:	687a      	ldr	r2, [r7, #4]
 8001298:	2124      	movs	r1, #36	@ 0x24
 800129a:	18d3      	adds	r3, r2, r3
 800129c:	185b      	adds	r3, r3, r1
 800129e:	2201      	movs	r2, #1
 80012a0:	701a      	strb	r2, [r3, #0]
                me->fork[n] = USED;
 80012a2:	19bb      	adds	r3, r7, r6
 80012a4:	781b      	ldrb	r3, [r3, #0]
 80012a6:	687a      	ldr	r2, [r7, #4]
 80012a8:	2124      	movs	r1, #36	@ 0x24
 80012aa:	18d3      	adds	r3, r2, r3
 80012ac:	185b      	adds	r3, r3, r1
 80012ae:	2201      	movs	r2, #1
 80012b0:	701a      	strb	r2, [r3, #0]
                me->isHungry[m] = false;
 80012b2:	0004      	movs	r4, r0
 80012b4:	183b      	adds	r3, r7, r0
 80012b6:	781b      	ldrb	r3, [r3, #0]
 80012b8:	687a      	ldr	r2, [r7, #4]
 80012ba:	2129      	movs	r1, #41	@ 0x29
 80012bc:	18d3      	adds	r3, r2, r3
 80012be:	185b      	adds	r3, r3, r1
 80012c0:	2200      	movs	r2, #0
 80012c2:	701a      	strb	r2, [r3, #0]
            #ifdef QEVT_PAR_INIT
                TableEvt const *pe = Q_NEW(TableEvt, EAT_SIG, m);
            #else
                TableEvt *pe = Q_NEW(TableEvt, EAT_SIG);
 80012c4:	4b1b      	ldr	r3, [pc, #108]	@ (8001334 <Table_serving+0x43c>)
 80012c6:	2204      	movs	r2, #4
 80012c8:	0019      	movs	r1, r3
 80012ca:	200c      	movs	r0, #12
 80012cc:	f001 fd0c 	bl	8002ce8 <QF_newX_>
 80012d0:	0003      	movs	r3, r0
 80012d2:	613b      	str	r3, [r7, #16]
                pe->philoId = m;
 80012d4:	693b      	ldr	r3, [r7, #16]
 80012d6:	193a      	adds	r2, r7, r4
 80012d8:	7812      	ldrb	r2, [r2, #0]
 80012da:	721a      	strb	r2, [r3, #8]
            #endif
                QACTIVE_PUBLISH(&pe->super, &me->super);
 80012dc:	693b      	ldr	r3, [r7, #16]
 80012de:	2200      	movs	r2, #0
 80012e0:	2100      	movs	r1, #0
 80012e2:	0018      	movs	r0, r3
 80012e4:	f001 ffa4 	bl	8003230 <QActive_publish_>
                BSP_displayPhilStat(m, EATING);
 80012e8:	4a13      	ldr	r2, [pc, #76]	@ (8001338 <Table_serving+0x440>)
 80012ea:	193b      	adds	r3, r7, r4
 80012ec:	781b      	ldrb	r3, [r3, #0]
 80012ee:	0011      	movs	r1, r2
 80012f0:	0018      	movs	r0, r3
 80012f2:	f7ff f9b1 	bl	8000658 <BSP_displayPhilStat>
            }
            status_ = Q_HANDLED();
 80012f6:	2302      	movs	r3, #2
 80012f8:	627b      	str	r3, [r7, #36]	@ 0x24
            break;
 80012fa:	e015      	b.n	8001328 <Table_serving+0x430>
        }
        //${AOs::Table::SM::active::serving::EAT}
        case EAT_SIG: {
            Q_ERROR();
 80012fc:	f000 ff72 	bl	80021e4 <QF_crit_entry_>
 8001300:	2310      	movs	r3, #16
 8001302:	33ff      	adds	r3, #255	@ 0xff
 8001304:	001a      	movs	r2, r3
 8001306:	4b0d      	ldr	r3, [pc, #52]	@ (800133c <Table_serving+0x444>)
 8001308:	0011      	movs	r1, r2
 800130a:	0018      	movs	r0, r3
 800130c:	f7ff f84c 	bl	80003a8 <Q_onError>
            status_ = Q_HANDLED();
            break;
        }
        //${AOs::Table::SM::active::serving::PAUSE}
        case PAUSE_SIG: {
            status_ = Q_TRAN(&Table_paused);
 8001310:	687b      	ldr	r3, [r7, #4]
 8001312:	4a0b      	ldr	r2, [pc, #44]	@ (8001340 <Table_serving+0x448>)
 8001314:	609a      	str	r2, [r3, #8]
 8001316:	2303      	movs	r3, #3
 8001318:	627b      	str	r3, [r7, #36]	@ 0x24
            break;
 800131a:	e005      	b.n	8001328 <Table_serving+0x430>
        }
        default: {
            status_ = Q_SUPER(&Table_active);
 800131c:	687b      	ldr	r3, [r7, #4]
 800131e:	4a09      	ldr	r2, [pc, #36]	@ (8001344 <Table_serving+0x44c>)
 8001320:	609a      	str	r2, [r3, #8]
 8001322:	2300      	movs	r3, #0
 8001324:	627b      	str	r3, [r7, #36]	@ 0x24
            break;
 8001326:	46c0      	nop			@ (mov r8, r8)
        }
    }
    return status_;
 8001328:	6a7b      	ldr	r3, [r7, #36]	@ 0x24
}
 800132a:	0018      	movs	r0, r3
 800132c:	46bd      	mov	sp, r7
 800132e:	b00b      	add	sp, #44	@ 0x2c
 8001330:	bdf0      	pop	{r4, r5, r6, r7, pc}
 8001332:	46c0      	nop			@ (mov r8, r8)
 8001334:	0000ffff 	.word	0x0000ffff
 8001338:	08003f04 	.word	0x08003f04
 800133c:	08003fc8 	.word	0x08003fc8
 8001340:	08001349 	.word	0x08001349
 8001344:	08000eb1 	.word	0x08000eb1

08001348 <Table_paused>:

//${AOs::Table::SM::active::paused} ..........................................
static QState Table_paused(Table * const me, QEvt const * const e) {
 8001348:	b5f0      	push	{r4, r5, r6, r7, lr}
 800134a:	b085      	sub	sp, #20
 800134c:	af00      	add	r7, sp, #0
 800134e:	6078      	str	r0, [r7, #4]
 8001350:	6039      	str	r1, [r7, #0]
    QState status_;
    switch (e->sig) {
 8001352:	683b      	ldr	r3, [r7, #0]
 8001354:	881b      	ldrh	r3, [r3, #0]
 8001356:	2b0b      	cmp	r3, #11
 8001358:	d900      	bls.n	800135c <Table_paused+0x14>
 800135a:	e0a8      	b.n	80014ae <Table_paused+0x166>
 800135c:	009a      	lsls	r2, r3, #2
 800135e:	4b59      	ldr	r3, [pc, #356]	@ (80014c4 <Table_paused+0x17c>)
 8001360:	18d3      	adds	r3, r2, r3
 8001362:	681b      	ldr	r3, [r3, #0]
 8001364:	469f      	mov	pc, r3
        //${AOs::Table::SM::active::paused}
        case Q_ENTRY_SIG: {
            BSP_displayPaused(1U);
 8001366:	2001      	movs	r0, #1
 8001368:	f7ff f98f 	bl	800068a <BSP_displayPaused>
            status_ = Q_HANDLED();
 800136c:	2302      	movs	r3, #2
 800136e:	60fb      	str	r3, [r7, #12]
            break;
 8001370:	e0a3      	b.n	80014ba <Table_paused+0x172>
        }
        //${AOs::Table::SM::active::paused}
        case Q_EXIT_SIG: {
            BSP_displayPaused(0U);
 8001372:	2000      	movs	r0, #0
 8001374:	f7ff f989 	bl	800068a <BSP_displayPaused>
            status_ = Q_HANDLED();
 8001378:	2302      	movs	r3, #2
 800137a:	60fb      	str	r3, [r7, #12]
            break;
 800137c:	e09d      	b.n	80014ba <Table_paused+0x172>
        }
        //${AOs::Table::SM::active::paused::SERVE}
        case SERVE_SIG: {
            status_ = Q_TRAN(&Table_serving);
 800137e:	687b      	ldr	r3, [r7, #4]
 8001380:	4a51      	ldr	r2, [pc, #324]	@ (80014c8 <Table_paused+0x180>)
 8001382:	609a      	str	r2, [r3, #8]
 8001384:	2303      	movs	r3, #3
 8001386:	60fb      	str	r3, [r7, #12]
            break;
 8001388:	e097      	b.n	80014ba <Table_paused+0x172>
        }
        //${AOs::Table::SM::active::paused::HUNGRY}
        case HUNGRY_SIG: {
            uint8_t n = Q_EVT_CAST(TableEvt)->philoId;
 800138a:	240b      	movs	r4, #11
 800138c:	193b      	adds	r3, r7, r4
 800138e:	683a      	ldr	r2, [r7, #0]
 8001390:	7a12      	ldrb	r2, [r2, #8]
 8001392:	701a      	strb	r2, [r3, #0]

            // philo ID must be in range and he must be not hungry
            Q_ASSERT((n < N_PHILO) && (!me->isHungry[n]));
 8001394:	f000 ff26 	bl	80021e4 <QF_crit_entry_>
 8001398:	0022      	movs	r2, r4
 800139a:	18bb      	adds	r3, r7, r2
 800139c:	781b      	ldrb	r3, [r3, #0]
 800139e:	2b04      	cmp	r3, #4
 80013a0:	d808      	bhi.n	80013b4 <Table_paused+0x6c>
 80013a2:	18bb      	adds	r3, r7, r2
 80013a4:	781b      	ldrb	r3, [r3, #0]
 80013a6:	687a      	ldr	r2, [r7, #4]
 80013a8:	2129      	movs	r1, #41	@ 0x29
 80013aa:	18d3      	adds	r3, r2, r3
 80013ac:	185b      	adds	r3, r3, r1
 80013ae:	781b      	ldrb	r3, [r3, #0]
 80013b0:	2b00      	cmp	r3, #0
 80013b2:	d006      	beq.n	80013c2 <Table_paused+0x7a>
 80013b4:	239d      	movs	r3, #157	@ 0x9d
 80013b6:	005a      	lsls	r2, r3, #1
 80013b8:	4b44      	ldr	r3, [pc, #272]	@ (80014cc <Table_paused+0x184>)
 80013ba:	0011      	movs	r1, r2
 80013bc:	0018      	movs	r0, r3
 80013be:	f7fe fff3 	bl	80003a8 <Q_onError>
 80013c2:	f000 ff1f 	bl	8002204 <QF_crit_exit_>

            me->isHungry[n] = true;
 80013c6:	200b      	movs	r0, #11
 80013c8:	183b      	adds	r3, r7, r0
 80013ca:	781b      	ldrb	r3, [r3, #0]
 80013cc:	687a      	ldr	r2, [r7, #4]
 80013ce:	2129      	movs	r1, #41	@ 0x29
 80013d0:	18d3      	adds	r3, r2, r3
 80013d2:	185b      	adds	r3, r3, r1
 80013d4:	2201      	movs	r2, #1
 80013d6:	701a      	strb	r2, [r3, #0]
            BSP_displayPhilStat(n, HUNGRY);
 80013d8:	4a3d      	ldr	r2, [pc, #244]	@ (80014d0 <Table_paused+0x188>)
 80013da:	183b      	adds	r3, r7, r0
 80013dc:	781b      	ldrb	r3, [r3, #0]
 80013de:	0011      	movs	r1, r2
 80013e0:	0018      	movs	r0, r3
 80013e2:	f7ff f939 	bl	8000658 <BSP_displayPhilStat>
            status_ = Q_HANDLED();
 80013e6:	2302      	movs	r3, #2
 80013e8:	60fb      	str	r3, [r7, #12]
            break;
 80013ea:	e066      	b.n	80014ba <Table_paused+0x172>
        }
        //${AOs::Table::SM::active::paused::DONE}
        case DONE_SIG: {
            uint8_t n = Q_EVT_CAST(TableEvt)->philoId;
 80013ec:	240a      	movs	r4, #10
 80013ee:	193b      	adds	r3, r7, r4
 80013f0:	683a      	ldr	r2, [r7, #0]
 80013f2:	7a12      	ldrb	r2, [r2, #8]
 80013f4:	701a      	strb	r2, [r3, #0]

            // phil ID must be in range and he must be not hungry
            Q_ASSERT((n < N_PHILO) && (!me->isHungry[n]));
 80013f6:	f000 fef5 	bl	80021e4 <QF_crit_entry_>
 80013fa:	0022      	movs	r2, r4
 80013fc:	18bb      	adds	r3, r7, r2
 80013fe:	781b      	ldrb	r3, [r3, #0]
 8001400:	2b04      	cmp	r3, #4
 8001402:	d808      	bhi.n	8001416 <Table_paused+0xce>
 8001404:	18bb      	adds	r3, r7, r2
 8001406:	781b      	ldrb	r3, [r3, #0]
 8001408:	687a      	ldr	r2, [r7, #4]
 800140a:	2129      	movs	r1, #41	@ 0x29
 800140c:	18d3      	adds	r3, r2, r3
 800140e:	185b      	adds	r3, r3, r1
 8001410:	781b      	ldrb	r3, [r3, #0]
 8001412:	2b00      	cmp	r3, #0
 8001414:	d006      	beq.n	8001424 <Table_paused+0xdc>
 8001416:	23a3      	movs	r3, #163	@ 0xa3
 8001418:	005a      	lsls	r2, r3, #1
 800141a:	4b2c      	ldr	r3, [pc, #176]	@ (80014cc <Table_paused+0x184>)
 800141c:	0011      	movs	r1, r2
 800141e:	0018      	movs	r0, r3
 8001420:	f7fe ffc2 	bl	80003a8 <Q_onError>
 8001424:	f000 feee 	bl	8002204 <QF_crit_exit_>

            BSP_displayPhilStat(n, THINKING);
 8001428:	4a2a      	ldr	r2, [pc, #168]	@ (80014d4 <Table_paused+0x18c>)
 800142a:	250a      	movs	r5, #10
 800142c:	197b      	adds	r3, r7, r5
 800142e:	781b      	ldrb	r3, [r3, #0]
 8001430:	0011      	movs	r1, r2
 8001432:	0018      	movs	r0, r3
 8001434:	f7ff f910 	bl	8000658 <BSP_displayPhilStat>
            uint8_t m = left(n);
 8001438:	2609      	movs	r6, #9
 800143a:	19bc      	adds	r4, r7, r6
 800143c:	197b      	adds	r3, r7, r5
 800143e:	781b      	ldrb	r3, [r3, #0]
 8001440:	0018      	movs	r0, r3
 8001442:	f7ff fca2 	bl	8000d8a <left>
 8001446:	0003      	movs	r3, r0
 8001448:	7023      	strb	r3, [r4, #0]

            // both forks of Phil[n] must be used
            Q_ASSERT((me->fork[n] == USED) && (me->fork[m] == USED));
 800144a:	f000 fecb 	bl	80021e4 <QF_crit_entry_>
 800144e:	197b      	adds	r3, r7, r5
 8001450:	781b      	ldrb	r3, [r3, #0]
 8001452:	687a      	ldr	r2, [r7, #4]
 8001454:	2124      	movs	r1, #36	@ 0x24
 8001456:	18d3      	adds	r3, r2, r3
 8001458:	185b      	adds	r3, r3, r1
 800145a:	781b      	ldrb	r3, [r3, #0]
 800145c:	2b01      	cmp	r3, #1
 800145e:	d108      	bne.n	8001472 <Table_paused+0x12a>
 8001460:	19bb      	adds	r3, r7, r6
 8001462:	781b      	ldrb	r3, [r3, #0]
 8001464:	687a      	ldr	r2, [r7, #4]
 8001466:	2124      	movs	r1, #36	@ 0x24
 8001468:	18d3      	adds	r3, r2, r3
 800146a:	185b      	adds	r3, r3, r1
 800146c:	781b      	ldrb	r3, [r3, #0]
 800146e:	2b01      	cmp	r3, #1
 8001470:	d006      	beq.n	8001480 <Table_paused+0x138>
 8001472:	23a6      	movs	r3, #166	@ 0xa6
 8001474:	005a      	lsls	r2, r3, #1
 8001476:	4b15      	ldr	r3, [pc, #84]	@ (80014cc <Table_paused+0x184>)
 8001478:	0011      	movs	r1, r2
 800147a:	0018      	movs	r0, r3
 800147c:	f7fe ff94 	bl	80003a8 <Q_onError>
 8001480:	f000 fec0 	bl	8002204 <QF_crit_exit_>

            me->fork[m] = FREE;
 8001484:	2309      	movs	r3, #9
 8001486:	18fb      	adds	r3, r7, r3
 8001488:	781b      	ldrb	r3, [r3, #0]
 800148a:	687a      	ldr	r2, [r7, #4]
 800148c:	2124      	movs	r1, #36	@ 0x24
 800148e:	18d3      	adds	r3, r2, r3
 8001490:	185b      	adds	r3, r3, r1
 8001492:	2200      	movs	r2, #0
 8001494:	701a      	strb	r2, [r3, #0]
            me->fork[n] = FREE;
 8001496:	230a      	movs	r3, #10
 8001498:	18fb      	adds	r3, r7, r3
 800149a:	781b      	ldrb	r3, [r3, #0]
 800149c:	687a      	ldr	r2, [r7, #4]
 800149e:	2124      	movs	r1, #36	@ 0x24
 80014a0:	18d3      	adds	r3, r2, r3
 80014a2:	185b      	adds	r3, r3, r1
 80014a4:	2200      	movs	r2, #0
 80014a6:	701a      	strb	r2, [r3, #0]
            status_ = Q_HANDLED();
 80014a8:	2302      	movs	r3, #2
 80014aa:	60fb      	str	r3, [r7, #12]
            break;
 80014ac:	e005      	b.n	80014ba <Table_paused+0x172>
        }
        default: {
            status_ = Q_SUPER(&Table_active);
 80014ae:	687b      	ldr	r3, [r7, #4]
 80014b0:	4a09      	ldr	r2, [pc, #36]	@ (80014d8 <Table_paused+0x190>)
 80014b2:	609a      	str	r2, [r3, #8]
 80014b4:	2300      	movs	r3, #0
 80014b6:	60fb      	str	r3, [r7, #12]
            break;
 80014b8:	46c0      	nop			@ (mov r8, r8)
        }
    }
    return status_;
 80014ba:	68fb      	ldr	r3, [r7, #12]
}
 80014bc:	0018      	movs	r0, r3
 80014be:	46bd      	mov	sp, r7
 80014c0:	b005      	add	sp, #20
 80014c2:	bdf0      	pop	{r4, r5, r6, r7, pc}
 80014c4:	08004010 	.word	0x08004010
 80014c8:	08000ef9 	.word	0x08000ef9
 80014cc:	08003fc8 	.word	0x08003fc8
 80014d0:	08003f10 	.word	0x08003f10
 80014d4:	08003ef8 	.word	0x08003ef8
 80014d8:	08000eb1 	.word	0x08000eb1

080014dc <Reset_Handler>:

  .section .text.Reset_Handler
  .weak Reset_Handler
  .type Reset_Handler, %function
Reset_Handler:
  ldr   r0, =_estack
 80014dc:	480d      	ldr	r0, [pc, #52]	@ (8001514 <LoopForever+0x2>)
  mov   sp, r0          /* set stack pointer */
 80014de:	4685      	mov	sp, r0
/* Call the clock system initialization function.*/
  bl  SystemInit
 80014e0:	f7ff fbd4 	bl	8000c8c <SystemInit>

/* Copy the data segment initializers from flash to SRAM */
  movs r1, #0
 80014e4:	2100      	movs	r1, #0
  b LoopCopyDataInit
 80014e6:	e003      	b.n	80014f0 <LoopCopyDataInit>

080014e8 <CopyDataInit>:

CopyDataInit:
  ldr r3, =_sidata
 80014e8:	4b0b      	ldr	r3, [pc, #44]	@ (8001518 <LoopForever+0x6>)
  ldr r3, [r3, r1]
 80014ea:	585b      	ldr	r3, [r3, r1]
  str r3, [r0, r1]
 80014ec:	5043      	str	r3, [r0, r1]
  adds r1, r1, #4
 80014ee:	3104      	adds	r1, #4

080014f0 <LoopCopyDataInit>:

LoopCopyDataInit:
  ldr r0, =_sdata
 80014f0:	480a      	ldr	r0, [pc, #40]	@ (800151c <LoopForever+0xa>)
  ldr r3, =_edata
 80014f2:	4b0b      	ldr	r3, [pc, #44]	@ (8001520 <LoopForever+0xe>)
  adds r2, r0, r1
 80014f4:	1842      	adds	r2, r0, r1
  cmp r2, r3
 80014f6:	429a      	cmp	r2, r3
  bcc CopyDataInit
 80014f8:	d3f6      	bcc.n	80014e8 <CopyDataInit>
  ldr r2, =_sbss
 80014fa:	4a0a      	ldr	r2, [pc, #40]	@ (8001524 <LoopForever+0x12>)
  b LoopFillZerobss
 80014fc:	e002      	b.n	8001504 <LoopFillZerobss>

080014fe <FillZerobss>:
/* Zero fill the bss segment. */
FillZerobss:
  movs r3, #0
 80014fe:	2300      	movs	r3, #0
  str  r3, [r2]
 8001500:	6013      	str	r3, [r2, #0]
  adds r2, r2, #4
 8001502:	3204      	adds	r2, #4

08001504 <LoopFillZerobss>:


LoopFillZerobss:
  ldr r3, = _ebss
 8001504:	4b08      	ldr	r3, [pc, #32]	@ (8001528 <LoopForever+0x16>)
  cmp r2, r3
 8001506:	429a      	cmp	r2, r3
  bcc FillZerobss
 8001508:	d3f9      	bcc.n	80014fe <FillZerobss>


/* Call static constructors */
  bl __libc_init_array
 800150a:	f002 fcb9 	bl	8003e80 <__libc_init_array>
/* Call the application's entry point.*/
  bl main
 800150e:	f7ff f91a 	bl	8000746 <main>

08001512 <LoopForever>:

LoopForever:
    b LoopForever
 8001512:	e7fe      	b.n	8001512 <LoopForever>
  ldr   r0, =_estack
 8001514:	20003000 	.word	0x20003000
  ldr r3, =_sidata
 8001518:	080040dc 	.word	0x080040dc
  ldr r0, =_sdata
 800151c:	20000000 	.word	0x20000000
  ldr r3, =_edata
 8001520:	2000000c 	.word	0x2000000c
  ldr r2, =_sbss
 8001524:	2000000c 	.word	0x2000000c
  ldr r3, = _ebss
 8001528:	20000428 	.word	0x20000428

0800152c <ADC1_IRQHandler>:
 * @retval : None
*/
    .section .text.Default_Handler,"ax",%progbits
Default_Handler:
Infinite_Loop:
  b Infinite_Loop
 800152c:	e7fe      	b.n	800152c <ADC1_IRQHandler>

0800152e <HAL_Init>:
  *         each 1ms in the SysTick_Handler() interrupt handler.
  *
  * @retval HAL status
  */
HAL_StatusTypeDef HAL_Init(void)
{
 800152e:	b580      	push	{r7, lr}
 8001530:	b082      	sub	sp, #8
 8001532:	af00      	add	r7, sp, #0
  HAL_StatusTypeDef  status = HAL_OK;
 8001534:	1dfb      	adds	r3, r7, #7
 8001536:	2200      	movs	r2, #0
 8001538:	701a      	strb	r2, [r3, #0]
#if (PREFETCH_ENABLE != 0U)
  __HAL_FLASH_PREFETCH_BUFFER_ENABLE();
#endif /* PREFETCH_ENABLE */

  /* Use SysTick as time base source and configure 1ms tick (default clock after Reset is HSI) */
  if (HAL_InitTick(TICK_INT_PRIORITY) != HAL_OK)
 800153a:	2003      	movs	r0, #3
 800153c:	f000 f80e 	bl	800155c <HAL_InitTick>
 8001540:	1e03      	subs	r3, r0, #0
 8001542:	d003      	beq.n	800154c <HAL_Init+0x1e>
  {
    status = HAL_ERROR;
 8001544:	1dfb      	adds	r3, r7, #7
 8001546:	2201      	movs	r2, #1
 8001548:	701a      	strb	r2, [r3, #0]
 800154a:	e001      	b.n	8001550 <HAL_Init+0x22>
  }
  else
  {
    /* Init the low level hardware */
    HAL_MspInit();
 800154c:	f7ff fb5e 	bl	8000c0c <HAL_MspInit>
  }

  /* Return function status */
  return status;
 8001550:	1dfb      	adds	r3, r7, #7
 8001552:	781b      	ldrb	r3, [r3, #0]
}
 8001554:	0018      	movs	r0, r3
 8001556:	46bd      	mov	sp, r7
 8001558:	b002      	add	sp, #8
 800155a:	bd80      	pop	{r7, pc}

0800155c <HAL_InitTick>:
  *       implementation  in user file.
  * @param TickPriority Tick interrupt priority.
  * @retval HAL status
  */
__weak HAL_StatusTypeDef HAL_InitTick(uint32_t TickPriority)
{
 800155c:	b590      	push	{r4, r7, lr}
 800155e:	b085      	sub	sp, #20
 8001560:	af00      	add	r7, sp, #0
 8001562:	6078      	str	r0, [r7, #4]
  HAL_StatusTypeDef  status = HAL_OK;
 8001564:	230f      	movs	r3, #15
 8001566:	18fb      	adds	r3, r7, r3
 8001568:	2200      	movs	r2, #0
 800156a:	701a      	strb	r2, [r3, #0]

  if ((uint32_t)uwTickFreq != 0UL)
 800156c:	4b1d      	ldr	r3, [pc, #116]	@ (80015e4 <HAL_InitTick+0x88>)
 800156e:	781b      	ldrb	r3, [r3, #0]
 8001570:	2b00      	cmp	r3, #0
 8001572:	d02b      	beq.n	80015cc <HAL_InitTick+0x70>
  {
    /*Configure the SysTick to have interrupt in 1ms time basis*/
    if (HAL_SYSTICK_Config(SystemCoreClock / (1000UL / (uint32_t)uwTickFreq)) == 0U)
 8001574:	4b1c      	ldr	r3, [pc, #112]	@ (80015e8 <HAL_InitTick+0x8c>)
 8001576:	681c      	ldr	r4, [r3, #0]
 8001578:	4b1a      	ldr	r3, [pc, #104]	@ (80015e4 <HAL_InitTick+0x88>)
 800157a:	781b      	ldrb	r3, [r3, #0]
 800157c:	0019      	movs	r1, r3
 800157e:	23fa      	movs	r3, #250	@ 0xfa
 8001580:	0098      	lsls	r0, r3, #2
 8001582:	f7fe fdc1 	bl	8000108 <__udivsi3>
 8001586:	0003      	movs	r3, r0
 8001588:	0019      	movs	r1, r3
 800158a:	0020      	movs	r0, r4
 800158c:	f7fe fdbc 	bl	8000108 <__udivsi3>
 8001590:	0003      	movs	r3, r0
 8001592:	0018      	movs	r0, r3
 8001594:	f000 f907 	bl	80017a6 <HAL_SYSTICK_Config>
 8001598:	1e03      	subs	r3, r0, #0
 800159a:	d112      	bne.n	80015c2 <HAL_InitTick+0x66>
    {
      /* Configure the SysTick IRQ priority */
      if (TickPriority < (1UL << __NVIC_PRIO_BITS))
 800159c:	687b      	ldr	r3, [r7, #4]
 800159e:	2b03      	cmp	r3, #3
 80015a0:	d80a      	bhi.n	80015b8 <HAL_InitTick+0x5c>
      {
        HAL_NVIC_SetPriority(SysTick_IRQn, TickPriority, 0U);
 80015a2:	6879      	ldr	r1, [r7, #4]
 80015a4:	2301      	movs	r3, #1
 80015a6:	425b      	negs	r3, r3
 80015a8:	2200      	movs	r2, #0
 80015aa:	0018      	movs	r0, r3
 80015ac:	f000 f8d6 	bl	800175c <HAL_NVIC_SetPriority>
        uwTickPrio = TickPriority;
 80015b0:	4b0e      	ldr	r3, [pc, #56]	@ (80015ec <HAL_InitTick+0x90>)
 80015b2:	687a      	ldr	r2, [r7, #4]
 80015b4:	601a      	str	r2, [r3, #0]
 80015b6:	e00d      	b.n	80015d4 <HAL_InitTick+0x78>
      }
      else
      {
        status = HAL_ERROR;
 80015b8:	230f      	movs	r3, #15
 80015ba:	18fb      	adds	r3, r7, r3
 80015bc:	2201      	movs	r2, #1
 80015be:	701a      	strb	r2, [r3, #0]
 80015c0:	e008      	b.n	80015d4 <HAL_InitTick+0x78>
      }
    }
    else
    {
      status = HAL_ERROR;
 80015c2:	230f      	movs	r3, #15
 80015c4:	18fb      	adds	r3, r7, r3
 80015c6:	2201      	movs	r2, #1
 80015c8:	701a      	strb	r2, [r3, #0]
 80015ca:	e003      	b.n	80015d4 <HAL_InitTick+0x78>
    }
  }
  else
  {
    status = HAL_ERROR;
 80015cc:	230f      	movs	r3, #15
 80015ce:	18fb      	adds	r3, r7, r3
 80015d0:	2201      	movs	r2, #1
 80015d2:	701a      	strb	r2, [r3, #0]
  }

  /* Return function status */
  return status;
 80015d4:	230f      	movs	r3, #15
 80015d6:	18fb      	adds	r3, r7, r3
 80015d8:	781b      	ldrb	r3, [r3, #0]
}
 80015da:	0018      	movs	r0, r3
 80015dc:	46bd      	mov	sp, r7
 80015de:	b005      	add	sp, #20
 80015e0:	bd90      	pop	{r4, r7, pc}
 80015e2:	46c0      	nop			@ (mov r8, r8)
 80015e4:	20000008 	.word	0x20000008
 80015e8:	20000000 	.word	0x20000000
 80015ec:	20000004 	.word	0x20000004

080015f0 <HAL_GetTick>:
  * @note This function is declared as __weak to be overwritten in case of other
  *       implementations in user file.
  * @retval tick value
  */
__weak uint32_t HAL_GetTick(void)
{
 80015f0:	b580      	push	{r7, lr}
 80015f2:	af00      	add	r7, sp, #0
  return uwTick;
 80015f4:	4b02      	ldr	r3, [pc, #8]	@ (8001600 <HAL_GetTick+0x10>)
 80015f6:	681b      	ldr	r3, [r3, #0]
}
 80015f8:	0018      	movs	r0, r3
 80015fa:	46bd      	mov	sp, r7
 80015fc:	bd80      	pop	{r7, pc}
 80015fe:	46c0      	nop			@ (mov r8, r8)
 8001600:	20000330 	.word	0x20000330

08001604 <__NVIC_EnableIRQ>:
{
 8001604:	b580      	push	{r7, lr}
 8001606:	b082      	sub	sp, #8
 8001608:	af00      	add	r7, sp, #0
 800160a:	0002      	movs	r2, r0
 800160c:	1dfb      	adds	r3, r7, #7
 800160e:	701a      	strb	r2, [r3, #0]
  if ((int32_t)(IRQn) >= 0)
 8001610:	1dfb      	adds	r3, r7, #7
 8001612:	781b      	ldrb	r3, [r3, #0]
 8001614:	2b7f      	cmp	r3, #127	@ 0x7f
 8001616:	d809      	bhi.n	800162c <__NVIC_EnableIRQ+0x28>
    NVIC->ISER[0U] = (uint32_t)(1UL << (((uint32_t)IRQn) & 0x1FUL));
 8001618:	1dfb      	adds	r3, r7, #7
 800161a:	781b      	ldrb	r3, [r3, #0]
 800161c:	001a      	movs	r2, r3
 800161e:	231f      	movs	r3, #31
 8001620:	401a      	ands	r2, r3
 8001622:	4b04      	ldr	r3, [pc, #16]	@ (8001634 <__NVIC_EnableIRQ+0x30>)
 8001624:	2101      	movs	r1, #1
 8001626:	4091      	lsls	r1, r2
 8001628:	000a      	movs	r2, r1
 800162a:	601a      	str	r2, [r3, #0]
}
 800162c:	46c0      	nop			@ (mov r8, r8)
 800162e:	46bd      	mov	sp, r7
 8001630:	b002      	add	sp, #8
 8001632:	bd80      	pop	{r7, pc}
 8001634:	e000e100 	.word	0xe000e100

08001638 <__NVIC_SetPriority>:
{
 8001638:	b590      	push	{r4, r7, lr}
 800163a:	b083      	sub	sp, #12
 800163c:	af00      	add	r7, sp, #0
 800163e:	0002      	movs	r2, r0
 8001640:	6039      	str	r1, [r7, #0]
 8001642:	1dfb      	adds	r3, r7, #7
 8001644:	701a      	strb	r2, [r3, #0]
  if ((int32_t)(IRQn) >= 0)
 8001646:	1dfb      	adds	r3, r7, #7
 8001648:	781b      	ldrb	r3, [r3, #0]
 800164a:	2b7f      	cmp	r3, #127	@ 0x7f
 800164c:	d828      	bhi.n	80016a0 <__NVIC_SetPriority+0x68>
    NVIC->IP[_IP_IDX(IRQn)]  = ((uint32_t)(NVIC->IP[_IP_IDX(IRQn)]  & ~(0xFFUL << _BIT_SHIFT(IRQn))) |
 800164e:	4a2f      	ldr	r2, [pc, #188]	@ (800170c <__NVIC_SetPriority+0xd4>)
 8001650:	1dfb      	adds	r3, r7, #7
 8001652:	781b      	ldrb	r3, [r3, #0]
 8001654:	b25b      	sxtb	r3, r3
 8001656:	089b      	lsrs	r3, r3, #2
 8001658:	33c0      	adds	r3, #192	@ 0xc0
 800165a:	009b      	lsls	r3, r3, #2
 800165c:	589b      	ldr	r3, [r3, r2]
 800165e:	1dfa      	adds	r2, r7, #7
 8001660:	7812      	ldrb	r2, [r2, #0]
 8001662:	0011      	movs	r1, r2
 8001664:	2203      	movs	r2, #3
 8001666:	400a      	ands	r2, r1
 8001668:	00d2      	lsls	r2, r2, #3
 800166a:	21ff      	movs	r1, #255	@ 0xff
 800166c:	4091      	lsls	r1, r2
 800166e:	000a      	movs	r2, r1
 8001670:	43d2      	mvns	r2, r2
 8001672:	401a      	ands	r2, r3
 8001674:	0011      	movs	r1, r2
       (((priority << (8U - __NVIC_PRIO_BITS)) & (uint32_t)0xFFUL) << _BIT_SHIFT(IRQn)));
 8001676:	683b      	ldr	r3, [r7, #0]
 8001678:	019b      	lsls	r3, r3, #6
 800167a:	22ff      	movs	r2, #255	@ 0xff
 800167c:	401a      	ands	r2, r3
 800167e:	1dfb      	adds	r3, r7, #7
 8001680:	781b      	ldrb	r3, [r3, #0]
 8001682:	0018      	movs	r0, r3
 8001684:	2303      	movs	r3, #3
 8001686:	4003      	ands	r3, r0
 8001688:	00db      	lsls	r3, r3, #3
 800168a:	409a      	lsls	r2, r3
    NVIC->IP[_IP_IDX(IRQn)]  = ((uint32_t)(NVIC->IP[_IP_IDX(IRQn)]  & ~(0xFFUL << _BIT_SHIFT(IRQn))) |
 800168c:	481f      	ldr	r0, [pc, #124]	@ (800170c <__NVIC_SetPriority+0xd4>)
 800168e:	1dfb      	adds	r3, r7, #7
 8001690:	781b      	ldrb	r3, [r3, #0]
 8001692:	b25b      	sxtb	r3, r3
 8001694:	089b      	lsrs	r3, r3, #2
 8001696:	430a      	orrs	r2, r1
 8001698:	33c0      	adds	r3, #192	@ 0xc0
 800169a:	009b      	lsls	r3, r3, #2
 800169c:	501a      	str	r2, [r3, r0]
}
 800169e:	e031      	b.n	8001704 <__NVIC_SetPriority+0xcc>
    SCB->SHP[_SHP_IDX(IRQn)] = ((uint32_t)(SCB->SHP[_SHP_IDX(IRQn)] & ~(0xFFUL << _BIT_SHIFT(IRQn))) |
 80016a0:	4a1b      	ldr	r2, [pc, #108]	@ (8001710 <__NVIC_SetPriority+0xd8>)
 80016a2:	1dfb      	adds	r3, r7, #7
 80016a4:	781b      	ldrb	r3, [r3, #0]
 80016a6:	0019      	movs	r1, r3
 80016a8:	230f      	movs	r3, #15
 80016aa:	400b      	ands	r3, r1
 80016ac:	3b08      	subs	r3, #8
 80016ae:	089b      	lsrs	r3, r3, #2
 80016b0:	3306      	adds	r3, #6
 80016b2:	009b      	lsls	r3, r3, #2
 80016b4:	18d3      	adds	r3, r2, r3
 80016b6:	3304      	adds	r3, #4
 80016b8:	681b      	ldr	r3, [r3, #0]
 80016ba:	1dfa      	adds	r2, r7, #7
 80016bc:	7812      	ldrb	r2, [r2, #0]
 80016be:	0011      	movs	r1, r2
 80016c0:	2203      	movs	r2, #3
 80016c2:	400a      	ands	r2, r1
 80016c4:	00d2      	lsls	r2, r2, #3
 80016c6:	21ff      	movs	r1, #255	@ 0xff
 80016c8:	4091      	lsls	r1, r2
 80016ca:	000a      	movs	r2, r1
 80016cc:	43d2      	mvns	r2, r2
 80016ce:	401a      	ands	r2, r3
 80016d0:	0011      	movs	r1, r2
       (((priority << (8U - __NVIC_PRIO_BITS)) & (uint32_t)0xFFUL) << _BIT_SHIFT(IRQn)));
 80016d2:	683b      	ldr	r3, [r7, #0]
 80016d4:	019b      	lsls	r3, r3, #6
 80016d6:	22ff      	movs	r2, #255	@ 0xff
 80016d8:	401a      	ands	r2, r3
 80016da:	1dfb      	adds	r3, r7, #7
 80016dc:	781b      	ldrb	r3, [r3, #0]
 80016de:	0018      	movs	r0, r3
 80016e0:	2303      	movs	r3, #3
 80016e2:	4003      	ands	r3, r0
 80016e4:	00db      	lsls	r3, r3, #3
 80016e6:	409a      	lsls	r2, r3
    SCB->SHP[_SHP_IDX(IRQn)] = ((uint32_t)(SCB->SHP[_SHP_IDX(IRQn)] & ~(0xFFUL << _BIT_SHIFT(IRQn))) |
 80016e8:	4809      	ldr	r0, [pc, #36]	@ (8001710 <__NVIC_SetPriority+0xd8>)
 80016ea:	1dfb      	adds	r3, r7, #7
 80016ec:	781b      	ldrb	r3, [r3, #0]
 80016ee:	001c      	movs	r4, r3
 80016f0:	230f      	movs	r3, #15
 80016f2:	4023      	ands	r3, r4
 80016f4:	3b08      	subs	r3, #8
 80016f6:	089b      	lsrs	r3, r3, #2
 80016f8:	430a      	orrs	r2, r1
 80016fa:	3306      	adds	r3, #6
 80016fc:	009b      	lsls	r3, r3, #2
 80016fe:	18c3      	adds	r3, r0, r3
 8001700:	3304      	adds	r3, #4
 8001702:	601a      	str	r2, [r3, #0]
}
 8001704:	46c0      	nop			@ (mov r8, r8)
 8001706:	46bd      	mov	sp, r7
 8001708:	b003      	add	sp, #12
 800170a:	bd90      	pop	{r4, r7, pc}
 800170c:	e000e100 	.word	0xe000e100
 8001710:	e000ed00 	.word	0xe000ed00

08001714 <SysTick_Config>:
{
 8001714:	b580      	push	{r7, lr}
 8001716:	b082      	sub	sp, #8
 8001718:	af00      	add	r7, sp, #0
 800171a:	6078      	str	r0, [r7, #4]
  if ((ticks - 1UL) > SysTick_LOAD_RELOAD_Msk)
 800171c:	687b      	ldr	r3, [r7, #4]
 800171e:	1e5a      	subs	r2, r3, #1
 8001720:	2380      	movs	r3, #128	@ 0x80
 8001722:	045b      	lsls	r3, r3, #17
 8001724:	429a      	cmp	r2, r3
 8001726:	d301      	bcc.n	800172c <SysTick_Config+0x18>
    return (1UL);                                                   /* Reload value impossible */
 8001728:	2301      	movs	r3, #1
 800172a:	e010      	b.n	800174e <SysTick_Config+0x3a>
  SysTick->LOAD  = (uint32_t)(ticks - 1UL);                         /* set reload register */
 800172c:	4b0a      	ldr	r3, [pc, #40]	@ (8001758 <SysTick_Config+0x44>)
 800172e:	687a      	ldr	r2, [r7, #4]
 8001730:	3a01      	subs	r2, #1
 8001732:	605a      	str	r2, [r3, #4]
  NVIC_SetPriority (SysTick_IRQn, (1UL << __NVIC_PRIO_BITS) - 1UL); /* set Priority for Systick Interrupt */
 8001734:	2301      	movs	r3, #1
 8001736:	425b      	negs	r3, r3
 8001738:	2103      	movs	r1, #3
 800173a:	0018      	movs	r0, r3
 800173c:	f7ff ff7c 	bl	8001638 <__NVIC_SetPriority>
  SysTick->VAL   = 0UL;                                             /* Load the SysTick Counter Value */
 8001740:	4b05      	ldr	r3, [pc, #20]	@ (8001758 <SysTick_Config+0x44>)
 8001742:	2200      	movs	r2, #0
 8001744:	609a      	str	r2, [r3, #8]
  SysTick->CTRL  = SysTick_CTRL_CLKSOURCE_Msk |
 8001746:	4b04      	ldr	r3, [pc, #16]	@ (8001758 <SysTick_Config+0x44>)
 8001748:	2207      	movs	r2, #7
 800174a:	601a      	str	r2, [r3, #0]
  return (0UL);                                                     /* Function successful */
 800174c:	2300      	movs	r3, #0
}
 800174e:	0018      	movs	r0, r3
 8001750:	46bd      	mov	sp, r7
 8001752:	b002      	add	sp, #8
 8001754:	bd80      	pop	{r7, pc}
 8001756:	46c0      	nop			@ (mov r8, r8)
 8001758:	e000e010 	.word	0xe000e010

0800175c <HAL_NVIC_SetPriority>:
  *         with stm32c0xx devices, this parameter is a dummy value and it is ignored, because
  *         no subpriority supported in Cortex M0+ based products.
  * @retval None
  */
void HAL_NVIC_SetPriority(IRQn_Type IRQn, uint32_t PreemptPriority, uint32_t SubPriority)
{
 800175c:	b580      	push	{r7, lr}
 800175e:	b084      	sub	sp, #16
 8001760:	af00      	add	r7, sp, #0
 8001762:	60b9      	str	r1, [r7, #8]
 8001764:	607a      	str	r2, [r7, #4]
 8001766:	210f      	movs	r1, #15
 8001768:	187b      	adds	r3, r7, r1
 800176a:	1c02      	adds	r2, r0, #0
 800176c:	701a      	strb	r2, [r3, #0]
  /* Prevent unused argument(s) compilation warning */
  UNUSED(SubPriority);
  /* Check the parameters */
  assert_param(IS_NVIC_PREEMPTION_PRIORITY(PreemptPriority));
  NVIC_SetPriority(IRQn, PreemptPriority);
 800176e:	68ba      	ldr	r2, [r7, #8]
 8001770:	187b      	adds	r3, r7, r1
 8001772:	781b      	ldrb	r3, [r3, #0]
 8001774:	b25b      	sxtb	r3, r3
 8001776:	0011      	movs	r1, r2
 8001778:	0018      	movs	r0, r3
 800177a:	f7ff ff5d 	bl	8001638 <__NVIC_SetPriority>
}
 800177e:	46c0      	nop			@ (mov r8, r8)
 8001780:	46bd      	mov	sp, r7
 8001782:	b004      	add	sp, #16
 8001784:	bd80      	pop	{r7, pc}

08001786 <HAL_NVIC_EnableIRQ>:
  *         (For the complete STM32 Devices IRQ Channels list, please refer to the appropriate
  *         CMSIS device file (stm32c0xxxx.h))
  * @retval None
  */
void HAL_NVIC_EnableIRQ(IRQn_Type IRQn)
{
 8001786:	b580      	push	{r7, lr}
 8001788:	b082      	sub	sp, #8
 800178a:	af00      	add	r7, sp, #0
 800178c:	0002      	movs	r2, r0
 800178e:	1dfb      	adds	r3, r7, #7
 8001790:	701a      	strb	r2, [r3, #0]
  /* Check the parameters */
  assert_param(IS_NVIC_DEVICE_IRQ(IRQn));

  /* Enable interrupt */
  NVIC_EnableIRQ(IRQn);
 8001792:	1dfb      	adds	r3, r7, #7
 8001794:	781b      	ldrb	r3, [r3, #0]
 8001796:	b25b      	sxtb	r3, r3
 8001798:	0018      	movs	r0, r3
 800179a:	f7ff ff33 	bl	8001604 <__NVIC_EnableIRQ>
}
 800179e:	46c0      	nop			@ (mov r8, r8)
 80017a0:	46bd      	mov	sp, r7
 80017a2:	b002      	add	sp, #8
 80017a4:	bd80      	pop	{r7, pc}

080017a6 <HAL_SYSTICK_Config>:
  * @param  TicksNumb Specifies the ticks Number of ticks between two interrupts.
  * @retval status:  - 0  Function succeeded.
  *                  - 1  Function failed.
  */
uint32_t HAL_SYSTICK_Config(uint32_t TicksNumb)
{
 80017a6:	b580      	push	{r7, lr}
 80017a8:	b082      	sub	sp, #8
 80017aa:	af00      	add	r7, sp, #0
 80017ac:	6078      	str	r0, [r7, #4]
  return SysTick_Config(TicksNumb);
 80017ae:	687b      	ldr	r3, [r7, #4]
 80017b0:	0018      	movs	r0, r3
 80017b2:	f7ff ffaf 	bl	8001714 <SysTick_Config>
 80017b6:	0003      	movs	r3, r0
}
 80017b8:	0018      	movs	r0, r3
 80017ba:	46bd      	mov	sp, r7
 80017bc:	b002      	add	sp, #8
 80017be:	bd80      	pop	{r7, pc}

080017c0 <HAL_GPIO_Init>:
  * @param  pGPIO_Init pointer to a GPIO_InitTypeDef structure that contains
  *         the configuration information for the specified GPIO peripheral.
  * @retval None
  */
void HAL_GPIO_Init(GPIO_TypeDef  *GPIOx, const GPIO_InitTypeDef *pGPIO_Init)
{
 80017c0:	b580      	push	{r7, lr}
 80017c2:	b086      	sub	sp, #24
 80017c4:	af00      	add	r7, sp, #0
 80017c6:	6078      	str	r0, [r7, #4]
 80017c8:	6039      	str	r1, [r7, #0]
  uint32_t tmp;
  uint32_t iocurrent;
  uint32_t position = 0U;
 80017ca:	2300      	movs	r3, #0
 80017cc:	613b      	str	r3, [r7, #16]
  assert_param(IS_GPIO_ALL_INSTANCE(GPIOx));
  assert_param(IS_GPIO_PIN(pGPIO_Init->Pin));
  assert_param(IS_GPIO_MODE(pGPIO_Init->Mode));

  /* Configure the port pins */
  while (((pGPIO_Init->Pin) >> position) != 0U)
 80017ce:	e153      	b.n	8001a78 <HAL_GPIO_Init+0x2b8>
  {
    /* Get current io position */
    iocurrent = (pGPIO_Init->Pin) & (1UL << position);
 80017d0:	683b      	ldr	r3, [r7, #0]
 80017d2:	681b      	ldr	r3, [r3, #0]
 80017d4:	2101      	movs	r1, #1
 80017d6:	693a      	ldr	r2, [r7, #16]
 80017d8:	4091      	lsls	r1, r2
 80017da:	000a      	movs	r2, r1
 80017dc:	4013      	ands	r3, r2
 80017de:	60fb      	str	r3, [r7, #12]

    if (iocurrent != 0U)
 80017e0:	68fb      	ldr	r3, [r7, #12]
 80017e2:	2b00      	cmp	r3, #0
 80017e4:	d100      	bne.n	80017e8 <HAL_GPIO_Init+0x28>
 80017e6:	e144      	b.n	8001a72 <HAL_GPIO_Init+0x2b2>
    {
      /*--------------------- GPIO Mode Configuration ------------------------*/
      /* In case of Alternate function mode selection */
      if ((pGPIO_Init->Mode == GPIO_MODE_AF_PP) || (pGPIO_Init->Mode == GPIO_MODE_AF_OD))
 80017e8:	683b      	ldr	r3, [r7, #0]
 80017ea:	685b      	ldr	r3, [r3, #4]
 80017ec:	2b02      	cmp	r3, #2
 80017ee:	d003      	beq.n	80017f8 <HAL_GPIO_Init+0x38>
 80017f0:	683b      	ldr	r3, [r7, #0]
 80017f2:	685b      	ldr	r3, [r3, #4]
 80017f4:	2b12      	cmp	r3, #18
 80017f6:	d125      	bne.n	8001844 <HAL_GPIO_Init+0x84>
        /* Check the Alternate function parameters */
        assert_param(IS_GPIO_AF_INSTANCE(GPIOx));
        assert_param(IS_GPIO_AF(pGPIO_Init->Alternate));

        /* Configure Alternate function mapped with the current IO */
        tmp = GPIOx->AFR[position >> 3U];
 80017f8:	693b      	ldr	r3, [r7, #16]
 80017fa:	08da      	lsrs	r2, r3, #3
 80017fc:	687b      	ldr	r3, [r7, #4]
 80017fe:	3208      	adds	r2, #8
 8001800:	0092      	lsls	r2, r2, #2
 8001802:	58d3      	ldr	r3, [r2, r3]
 8001804:	617b      	str	r3, [r7, #20]
        tmp &= ~(0xFUL << ((position & 0x07U) * GPIO_AFRL_AFSEL1_Pos)) ;
 8001806:	693b      	ldr	r3, [r7, #16]
 8001808:	2207      	movs	r2, #7
 800180a:	4013      	ands	r3, r2
 800180c:	009b      	lsls	r3, r3, #2
 800180e:	220f      	movs	r2, #15
 8001810:	409a      	lsls	r2, r3
 8001812:	0013      	movs	r3, r2
 8001814:	43da      	mvns	r2, r3
 8001816:	697b      	ldr	r3, [r7, #20]
 8001818:	4013      	ands	r3, r2
 800181a:	617b      	str	r3, [r7, #20]
        tmp |= ((pGPIO_Init->Alternate & 0x0FUL) << ((position & 0x07U) * GPIO_AFRL_AFSEL1_Pos));
 800181c:	683b      	ldr	r3, [r7, #0]
 800181e:	691b      	ldr	r3, [r3, #16]
 8001820:	220f      	movs	r2, #15
 8001822:	401a      	ands	r2, r3
 8001824:	693b      	ldr	r3, [r7, #16]
 8001826:	2107      	movs	r1, #7
 8001828:	400b      	ands	r3, r1
 800182a:	009b      	lsls	r3, r3, #2
 800182c:	409a      	lsls	r2, r3
 800182e:	0013      	movs	r3, r2
 8001830:	697a      	ldr	r2, [r7, #20]
 8001832:	4313      	orrs	r3, r2
 8001834:	617b      	str	r3, [r7, #20]
        GPIOx->AFR[position >> 3U] = tmp;
 8001836:	693b      	ldr	r3, [r7, #16]
 8001838:	08da      	lsrs	r2, r3, #3
 800183a:	687b      	ldr	r3, [r7, #4]
 800183c:	3208      	adds	r2, #8
 800183e:	0092      	lsls	r2, r2, #2
 8001840:	6979      	ldr	r1, [r7, #20]
 8001842:	50d1      	str	r1, [r2, r3]
      }

      /* Configure IO Direction mode (Input, Output, Alternate or Analog) */
      tmp = GPIOx->MODER;
 8001844:	687b      	ldr	r3, [r7, #4]
 8001846:	681b      	ldr	r3, [r3, #0]
 8001848:	617b      	str	r3, [r7, #20]
      tmp &= ~(GPIO_MODER_MODE0 << (position * GPIO_MODER_MODE1_Pos));
 800184a:	693b      	ldr	r3, [r7, #16]
 800184c:	005b      	lsls	r3, r3, #1
 800184e:	2203      	movs	r2, #3
 8001850:	409a      	lsls	r2, r3
 8001852:	0013      	movs	r3, r2
 8001854:	43da      	mvns	r2, r3
 8001856:	697b      	ldr	r3, [r7, #20]
 8001858:	4013      	ands	r3, r2
 800185a:	617b      	str	r3, [r7, #20]
      tmp |= ((pGPIO_Init->Mode & GPIO_MODE) << (position * GPIO_MODER_MODE1_Pos));
 800185c:	683b      	ldr	r3, [r7, #0]
 800185e:	685b      	ldr	r3, [r3, #4]
 8001860:	2203      	movs	r2, #3
 8001862:	401a      	ands	r2, r3
 8001864:	693b      	ldr	r3, [r7, #16]
 8001866:	005b      	lsls	r3, r3, #1
 8001868:	409a      	lsls	r2, r3
 800186a:	0013      	movs	r3, r2
 800186c:	697a      	ldr	r2, [r7, #20]
 800186e:	4313      	orrs	r3, r2
 8001870:	617b      	str	r3, [r7, #20]
      GPIOx->MODER = tmp;
 8001872:	687b      	ldr	r3, [r7, #4]
 8001874:	697a      	ldr	r2, [r7, #20]
 8001876:	601a      	str	r2, [r3, #0]

      /* In case of Output or Alternate function mode selection */
      if ((pGPIO_Init->Mode == GPIO_MODE_OUTPUT_PP) || (pGPIO_Init->Mode == GPIO_MODE_AF_PP) ||
 8001878:	683b      	ldr	r3, [r7, #0]
 800187a:	685b      	ldr	r3, [r3, #4]
 800187c:	2b01      	cmp	r3, #1
 800187e:	d00b      	beq.n	8001898 <HAL_GPIO_Init+0xd8>
 8001880:	683b      	ldr	r3, [r7, #0]
 8001882:	685b      	ldr	r3, [r3, #4]
 8001884:	2b02      	cmp	r3, #2
 8001886:	d007      	beq.n	8001898 <HAL_GPIO_Init+0xd8>
          (pGPIO_Init->Mode == GPIO_MODE_OUTPUT_OD) || (pGPIO_Init->Mode == GPIO_MODE_AF_OD))
 8001888:	683b      	ldr	r3, [r7, #0]
 800188a:	685b      	ldr	r3, [r3, #4]
      if ((pGPIO_Init->Mode == GPIO_MODE_OUTPUT_PP) || (pGPIO_Init->Mode == GPIO_MODE_AF_PP) ||
 800188c:	2b11      	cmp	r3, #17
 800188e:	d003      	beq.n	8001898 <HAL_GPIO_Init+0xd8>
          (pGPIO_Init->Mode == GPIO_MODE_OUTPUT_OD) || (pGPIO_Init->Mode == GPIO_MODE_AF_OD))
 8001890:	683b      	ldr	r3, [r7, #0]
 8001892:	685b      	ldr	r3, [r3, #4]
 8001894:	2b12      	cmp	r3, #18
 8001896:	d130      	bne.n	80018fa <HAL_GPIO_Init+0x13a>
      {
        /* Check the Speed parameter */
        assert_param(IS_GPIO_SPEED(pGPIO_Init->Speed));

        /* Configure the IO Speed */
        tmp = GPIOx->OSPEEDR;
 8001898:	687b      	ldr	r3, [r7, #4]
 800189a:	689b      	ldr	r3, [r3, #8]
 800189c:	617b      	str	r3, [r7, #20]
        tmp &= ~(GPIO_OSPEEDR_OSPEED0 << (position * GPIO_OSPEEDR_OSPEED1_Pos));
 800189e:	693b      	ldr	r3, [r7, #16]
 80018a0:	005b      	lsls	r3, r3, #1
 80018a2:	2203      	movs	r2, #3
 80018a4:	409a      	lsls	r2, r3
 80018a6:	0013      	movs	r3, r2
 80018a8:	43da      	mvns	r2, r3
 80018aa:	697b      	ldr	r3, [r7, #20]
 80018ac:	4013      	ands	r3, r2
 80018ae:	617b      	str	r3, [r7, #20]
        tmp |= (pGPIO_Init->Speed << (position * GPIO_OSPEEDR_OSPEED1_Pos));
 80018b0:	683b      	ldr	r3, [r7, #0]
 80018b2:	68da      	ldr	r2, [r3, #12]
 80018b4:	693b      	ldr	r3, [r7, #16]
 80018b6:	005b      	lsls	r3, r3, #1
 80018b8:	409a      	lsls	r2, r3
 80018ba:	0013      	movs	r3, r2
 80018bc:	697a      	ldr	r2, [r7, #20]
 80018be:	4313      	orrs	r3, r2
 80018c0:	617b      	str	r3, [r7, #20]
        GPIOx->OSPEEDR = tmp;
 80018c2:	687b      	ldr	r3, [r7, #4]
 80018c4:	697a      	ldr	r2, [r7, #20]
 80018c6:	609a      	str	r2, [r3, #8]

        /* Configure the IO Output Type */
        tmp = GPIOx->OTYPER;
 80018c8:	687b      	ldr	r3, [r7, #4]
 80018ca:	685b      	ldr	r3, [r3, #4]
 80018cc:	617b      	str	r3, [r7, #20]
        tmp &= ~(GPIO_OTYPER_OT0 << position) ;
 80018ce:	2201      	movs	r2, #1
 80018d0:	693b      	ldr	r3, [r7, #16]
 80018d2:	409a      	lsls	r2, r3
 80018d4:	0013      	movs	r3, r2
 80018d6:	43da      	mvns	r2, r3
 80018d8:	697b      	ldr	r3, [r7, #20]
 80018da:	4013      	ands	r3, r2
 80018dc:	617b      	str	r3, [r7, #20]
        tmp |= (((pGPIO_Init->Mode & GPIO_OUTPUT_TYPE) >> 4U) << position);
 80018de:	683b      	ldr	r3, [r7, #0]
 80018e0:	685b      	ldr	r3, [r3, #4]
 80018e2:	091b      	lsrs	r3, r3, #4
 80018e4:	2201      	movs	r2, #1
 80018e6:	401a      	ands	r2, r3
 80018e8:	693b      	ldr	r3, [r7, #16]
 80018ea:	409a      	lsls	r2, r3
 80018ec:	0013      	movs	r3, r2
 80018ee:	697a      	ldr	r2, [r7, #20]
 80018f0:	4313      	orrs	r3, r2
 80018f2:	617b      	str	r3, [r7, #20]
        GPIOx->OTYPER = tmp;
 80018f4:	687b      	ldr	r3, [r7, #4]
 80018f6:	697a      	ldr	r2, [r7, #20]
 80018f8:	605a      	str	r2, [r3, #4]
      }

      if (pGPIO_Init->Mode != GPIO_MODE_ANALOG)
 80018fa:	683b      	ldr	r3, [r7, #0]
 80018fc:	685b      	ldr	r3, [r3, #4]
 80018fe:	2b03      	cmp	r3, #3
 8001900:	d017      	beq.n	8001932 <HAL_GPIO_Init+0x172>
      {
        /* Check the Pull parameters */
        assert_param(IS_GPIO_PULL(pGPIO_Init->Pull));

        /* Activate the Pull-up or Pull down resistor for the current IO */
        tmp = GPIOx->PUPDR;
 8001902:	687b      	ldr	r3, [r7, #4]
 8001904:	68db      	ldr	r3, [r3, #12]
 8001906:	617b      	str	r3, [r7, #20]
        tmp &= ~(GPIO_PUPDR_PUPD0 << (position * GPIO_PUPDR_PUPD1_Pos));
 8001908:	693b      	ldr	r3, [r7, #16]
 800190a:	005b      	lsls	r3, r3, #1
 800190c:	2203      	movs	r2, #3
 800190e:	409a      	lsls	r2, r3
 8001910:	0013      	movs	r3, r2
 8001912:	43da      	mvns	r2, r3
 8001914:	697b      	ldr	r3, [r7, #20]
 8001916:	4013      	ands	r3, r2
 8001918:	617b      	str	r3, [r7, #20]
        tmp |= ((pGPIO_Init->Pull) << (position * GPIO_PUPDR_PUPD1_Pos));
 800191a:	683b      	ldr	r3, [r7, #0]
 800191c:	689a      	ldr	r2, [r3, #8]
 800191e:	693b      	ldr	r3, [r7, #16]
 8001920:	005b      	lsls	r3, r3, #1
 8001922:	409a      	lsls	r2, r3
 8001924:	0013      	movs	r3, r2
 8001926:	697a      	ldr	r2, [r7, #20]
 8001928:	4313      	orrs	r3, r2
 800192a:	617b      	str	r3, [r7, #20]
        GPIOx->PUPDR = tmp;
 800192c:	687b      	ldr	r3, [r7, #4]
 800192e:	697a      	ldr	r2, [r7, #20]
 8001930:	60da      	str	r2, [r3, #12]
      }

      /*--------------------- EXTI Mode Configuration ------------------------*/
      /* Configure the External Interrupt or event for the current IO */
      if ((pGPIO_Init->Mode & EXTI_MODE) == EXTI_MODE)
 8001932:	683b      	ldr	r3, [r7, #0]
 8001934:	685a      	ldr	r2, [r3, #4]
 8001936:	2380      	movs	r3, #128	@ 0x80
 8001938:	055b      	lsls	r3, r3, #21
 800193a:	4013      	ands	r3, r2
 800193c:	d100      	bne.n	8001940 <HAL_GPIO_Init+0x180>
 800193e:	e098      	b.n	8001a72 <HAL_GPIO_Init+0x2b2>
      {
        tmp = EXTI->EXTICR[position >> 2U];
 8001940:	4a53      	ldr	r2, [pc, #332]	@ (8001a90 <HAL_GPIO_Init+0x2d0>)
 8001942:	693b      	ldr	r3, [r7, #16]
 8001944:	089b      	lsrs	r3, r3, #2
 8001946:	3318      	adds	r3, #24
 8001948:	009b      	lsls	r3, r3, #2
 800194a:	589b      	ldr	r3, [r3, r2]
 800194c:	617b      	str	r3, [r7, #20]
        tmp &= ~((0x0FUL) << ((position & 0x03U) * EXTI_EXTICR1_EXTI1_Pos));
 800194e:	693b      	ldr	r3, [r7, #16]
 8001950:	2203      	movs	r2, #3
 8001952:	4013      	ands	r3, r2
 8001954:	00db      	lsls	r3, r3, #3
 8001956:	220f      	movs	r2, #15
 8001958:	409a      	lsls	r2, r3
 800195a:	0013      	movs	r3, r2
 800195c:	43da      	mvns	r2, r3
 800195e:	697b      	ldr	r3, [r7, #20]
 8001960:	4013      	ands	r3, r2
 8001962:	617b      	str	r3, [r7, #20]
        tmp |= (GPIO_GET_INDEX(GPIOx) << ((position & 0x03U) * EXTI_EXTICR1_EXTI1_Pos));
 8001964:	687a      	ldr	r2, [r7, #4]
 8001966:	23a0      	movs	r3, #160	@ 0xa0
 8001968:	05db      	lsls	r3, r3, #23
 800196a:	429a      	cmp	r2, r3
 800196c:	d019      	beq.n	80019a2 <HAL_GPIO_Init+0x1e2>
 800196e:	687b      	ldr	r3, [r7, #4]
 8001970:	4a48      	ldr	r2, [pc, #288]	@ (8001a94 <HAL_GPIO_Init+0x2d4>)
 8001972:	4293      	cmp	r3, r2
 8001974:	d013      	beq.n	800199e <HAL_GPIO_Init+0x1de>
 8001976:	687b      	ldr	r3, [r7, #4]
 8001978:	4a47      	ldr	r2, [pc, #284]	@ (8001a98 <HAL_GPIO_Init+0x2d8>)
 800197a:	4293      	cmp	r3, r2
 800197c:	d00d      	beq.n	800199a <HAL_GPIO_Init+0x1da>
 800197e:	687b      	ldr	r3, [r7, #4]
 8001980:	4a46      	ldr	r2, [pc, #280]	@ (8001a9c <HAL_GPIO_Init+0x2dc>)
 8001982:	4293      	cmp	r3, r2
 8001984:	d007      	beq.n	8001996 <HAL_GPIO_Init+0x1d6>
 8001986:	687b      	ldr	r3, [r7, #4]
 8001988:	4a45      	ldr	r2, [pc, #276]	@ (8001aa0 <HAL_GPIO_Init+0x2e0>)
 800198a:	4293      	cmp	r3, r2
 800198c:	d101      	bne.n	8001992 <HAL_GPIO_Init+0x1d2>
 800198e:	2305      	movs	r3, #5
 8001990:	e008      	b.n	80019a4 <HAL_GPIO_Init+0x1e4>
 8001992:	2306      	movs	r3, #6
 8001994:	e006      	b.n	80019a4 <HAL_GPIO_Init+0x1e4>
 8001996:	2303      	movs	r3, #3
 8001998:	e004      	b.n	80019a4 <HAL_GPIO_Init+0x1e4>
 800199a:	2302      	movs	r3, #2
 800199c:	e002      	b.n	80019a4 <HAL_GPIO_Init+0x1e4>
 800199e:	2301      	movs	r3, #1
 80019a0:	e000      	b.n	80019a4 <HAL_GPIO_Init+0x1e4>
 80019a2:	2300      	movs	r3, #0
 80019a4:	693a      	ldr	r2, [r7, #16]
 80019a6:	2103      	movs	r1, #3
 80019a8:	400a      	ands	r2, r1
 80019aa:	00d2      	lsls	r2, r2, #3
 80019ac:	4093      	lsls	r3, r2
 80019ae:	697a      	ldr	r2, [r7, #20]
 80019b0:	4313      	orrs	r3, r2
 80019b2:	617b      	str	r3, [r7, #20]
        EXTI->EXTICR[position >> 2U] = tmp;
 80019b4:	4936      	ldr	r1, [pc, #216]	@ (8001a90 <HAL_GPIO_Init+0x2d0>)
 80019b6:	693b      	ldr	r3, [r7, #16]
 80019b8:	089b      	lsrs	r3, r3, #2
 80019ba:	3318      	adds	r3, #24
 80019bc:	009b      	lsls	r3, r3, #2
 80019be:	697a      	ldr	r2, [r7, #20]
 80019c0:	505a      	str	r2, [r3, r1]

        /* Clear EXTI line configuration */
        tmp = EXTI->IMR1;
 80019c2:	4a33      	ldr	r2, [pc, #204]	@ (8001a90 <HAL_GPIO_Init+0x2d0>)
 80019c4:	2380      	movs	r3, #128	@ 0x80
 80019c6:	58d3      	ldr	r3, [r2, r3]
 80019c8:	617b      	str	r3, [r7, #20]
        tmp &= ~((uint32_t)iocurrent);
 80019ca:	68fb      	ldr	r3, [r7, #12]
 80019cc:	43da      	mvns	r2, r3
 80019ce:	697b      	ldr	r3, [r7, #20]
 80019d0:	4013      	ands	r3, r2
 80019d2:	617b      	str	r3, [r7, #20]
        if ((pGPIO_Init->Mode & GPIO_MODE_IT) == GPIO_MODE_IT)
 80019d4:	683b      	ldr	r3, [r7, #0]
 80019d6:	685a      	ldr	r2, [r3, #4]
 80019d8:	2380      	movs	r3, #128	@ 0x80
 80019da:	025b      	lsls	r3, r3, #9
 80019dc:	4013      	ands	r3, r2
 80019de:	d003      	beq.n	80019e8 <HAL_GPIO_Init+0x228>
        {
          tmp |= iocurrent;
 80019e0:	697a      	ldr	r2, [r7, #20]
 80019e2:	68fb      	ldr	r3, [r7, #12]
 80019e4:	4313      	orrs	r3, r2
 80019e6:	617b      	str	r3, [r7, #20]
        }
        EXTI->IMR1 = tmp;
 80019e8:	4929      	ldr	r1, [pc, #164]	@ (8001a90 <HAL_GPIO_Init+0x2d0>)
 80019ea:	2280      	movs	r2, #128	@ 0x80
 80019ec:	697b      	ldr	r3, [r7, #20]
 80019ee:	508b      	str	r3, [r1, r2]

        tmp = EXTI->EMR1;
 80019f0:	4a27      	ldr	r2, [pc, #156]	@ (8001a90 <HAL_GPIO_Init+0x2d0>)
 80019f2:	2384      	movs	r3, #132	@ 0x84
 80019f4:	58d3      	ldr	r3, [r2, r3]
 80019f6:	617b      	str	r3, [r7, #20]
        tmp &= ~((uint32_t)iocurrent);
 80019f8:	68fb      	ldr	r3, [r7, #12]
 80019fa:	43da      	mvns	r2, r3
 80019fc:	697b      	ldr	r3, [r7, #20]
 80019fe:	4013      	ands	r3, r2
 8001a00:	617b      	str	r3, [r7, #20]
        if ((pGPIO_Init->Mode & GPIO_MODE_EVT) == GPIO_MODE_EVT)
 8001a02:	683b      	ldr	r3, [r7, #0]
 8001a04:	685a      	ldr	r2, [r3, #4]
 8001a06:	2380      	movs	r3, #128	@ 0x80
 8001a08:	029b      	lsls	r3, r3, #10
 8001a0a:	4013      	ands	r3, r2
 8001a0c:	d003      	beq.n	8001a16 <HAL_GPIO_Init+0x256>
        {
          tmp |= iocurrent;
 8001a0e:	697a      	ldr	r2, [r7, #20]
 8001a10:	68fb      	ldr	r3, [r7, #12]
 8001a12:	4313      	orrs	r3, r2
 8001a14:	617b      	str	r3, [r7, #20]
        }
        EXTI->EMR1 = tmp;
 8001a16:	491e      	ldr	r1, [pc, #120]	@ (8001a90 <HAL_GPIO_Init+0x2d0>)
 8001a18:	2284      	movs	r2, #132	@ 0x84
 8001a1a:	697b      	ldr	r3, [r7, #20]
 8001a1c:	508b      	str	r3, [r1, r2]

        /* Clear Rising Falling edge configuration */
        tmp = EXTI->RTSR1;
 8001a1e:	4b1c      	ldr	r3, [pc, #112]	@ (8001a90 <HAL_GPIO_Init+0x2d0>)
 8001a20:	681b      	ldr	r3, [r3, #0]
 8001a22:	617b      	str	r3, [r7, #20]
        tmp &= ~((uint32_t)iocurrent);
 8001a24:	68fb      	ldr	r3, [r7, #12]
 8001a26:	43da      	mvns	r2, r3
 8001a28:	697b      	ldr	r3, [r7, #20]
 8001a2a:	4013      	ands	r3, r2
 8001a2c:	617b      	str	r3, [r7, #20]
        if ((pGPIO_Init->Mode & RISING_EDGE) == RISING_EDGE)
 8001a2e:	683b      	ldr	r3, [r7, #0]
 8001a30:	685a      	ldr	r2, [r3, #4]
 8001a32:	2380      	movs	r3, #128	@ 0x80
 8001a34:	035b      	lsls	r3, r3, #13
 8001a36:	4013      	ands	r3, r2
 8001a38:	d003      	beq.n	8001a42 <HAL_GPIO_Init+0x282>
        {
          tmp |= iocurrent;
 8001a3a:	697a      	ldr	r2, [r7, #20]
 8001a3c:	68fb      	ldr	r3, [r7, #12]
 8001a3e:	4313      	orrs	r3, r2
 8001a40:	617b      	str	r3, [r7, #20]
        }
        EXTI->RTSR1 = tmp;
 8001a42:	4b13      	ldr	r3, [pc, #76]	@ (8001a90 <HAL_GPIO_Init+0x2d0>)
 8001a44:	697a      	ldr	r2, [r7, #20]
 8001a46:	601a      	str	r2, [r3, #0]

        tmp = EXTI->FTSR1;
 8001a48:	4b11      	ldr	r3, [pc, #68]	@ (8001a90 <HAL_GPIO_Init+0x2d0>)
 8001a4a:	685b      	ldr	r3, [r3, #4]
 8001a4c:	617b      	str	r3, [r7, #20]
        tmp &= ~((uint32_t)iocurrent);
 8001a4e:	68fb      	ldr	r3, [r7, #12]
 8001a50:	43da      	mvns	r2, r3
 8001a52:	697b      	ldr	r3, [r7, #20]
 8001a54:	4013      	ands	r3, r2
 8001a56:	617b      	str	r3, [r7, #20]
        if ((pGPIO_Init->Mode & FALLING_EDGE) == FALLING_EDGE)
 8001a58:	683b      	ldr	r3, [r7, #0]
 8001a5a:	685a      	ldr	r2, [r3, #4]
 8001a5c:	2380      	movs	r3, #128	@ 0x80
 8001a5e:	039b      	lsls	r3, r3, #14
 8001a60:	4013      	ands	r3, r2
 8001a62:	d003      	beq.n	8001a6c <HAL_GPIO_Init+0x2ac>
        {
          tmp |= iocurrent;
 8001a64:	697a      	ldr	r2, [r7, #20]
 8001a66:	68fb      	ldr	r3, [r7, #12]
 8001a68:	4313      	orrs	r3, r2
 8001a6a:	617b      	str	r3, [r7, #20]
        }
        EXTI->FTSR1 = tmp;
 8001a6c:	4b08      	ldr	r3, [pc, #32]	@ (8001a90 <HAL_GPIO_Init+0x2d0>)
 8001a6e:	697a      	ldr	r2, [r7, #20]
 8001a70:	605a      	str	r2, [r3, #4]
      }
    }

    position++;
 8001a72:	693b      	ldr	r3, [r7, #16]
 8001a74:	3301      	adds	r3, #1
 8001a76:	613b      	str	r3, [r7, #16]
  while (((pGPIO_Init->Pin) >> position) != 0U)
 8001a78:	683b      	ldr	r3, [r7, #0]
 8001a7a:	681a      	ldr	r2, [r3, #0]
 8001a7c:	693b      	ldr	r3, [r7, #16]
 8001a7e:	40da      	lsrs	r2, r3
 8001a80:	1e13      	subs	r3, r2, #0
 8001a82:	d000      	beq.n	8001a86 <HAL_GPIO_Init+0x2c6>
 8001a84:	e6a4      	b.n	80017d0 <HAL_GPIO_Init+0x10>
  }
}
 8001a86:	46c0      	nop			@ (mov r8, r8)
 8001a88:	46c0      	nop			@ (mov r8, r8)
 8001a8a:	46bd      	mov	sp, r7
 8001a8c:	b006      	add	sp, #24
 8001a8e:	bd80      	pop	{r7, pc}
 8001a90:	40021800 	.word	0x40021800
 8001a94:	50000400 	.word	0x50000400
 8001a98:	50000800 	.word	0x50000800
 8001a9c:	50000c00 	.word	0x50000c00
 8001aa0:	50001400 	.word	0x50001400

08001aa4 <HAL_GPIO_WritePin>:
  *            @arg GPIO_PIN_RESET: to clear the port pin
  *            @arg GPIO_PIN_SET: to set the port pin
  * @retval None
  */
void HAL_GPIO_WritePin(GPIO_TypeDef *GPIOx, uint16_t GPIO_Pin, GPIO_PinState PinState)
{
 8001aa4:	b580      	push	{r7, lr}
 8001aa6:	b082      	sub	sp, #8
 8001aa8:	af00      	add	r7, sp, #0
 8001aaa:	6078      	str	r0, [r7, #4]
 8001aac:	0008      	movs	r0, r1
 8001aae:	0011      	movs	r1, r2
 8001ab0:	1cbb      	adds	r3, r7, #2
 8001ab2:	1c02      	adds	r2, r0, #0
 8001ab4:	801a      	strh	r2, [r3, #0]
 8001ab6:	1c7b      	adds	r3, r7, #1
 8001ab8:	1c0a      	adds	r2, r1, #0
 8001aba:	701a      	strb	r2, [r3, #0]
  /* Check the parameters */
  assert_param(IS_GPIO_PIN(GPIO_Pin));
  assert_param(IS_GPIO_PIN_ACTION(PinState));

  if (PinState != GPIO_PIN_RESET)
 8001abc:	1c7b      	adds	r3, r7, #1
 8001abe:	781b      	ldrb	r3, [r3, #0]
 8001ac0:	2b00      	cmp	r3, #0
 8001ac2:	d004      	beq.n	8001ace <HAL_GPIO_WritePin+0x2a>
  {
    GPIOx->BSRR = (uint32_t)GPIO_Pin;
 8001ac4:	1cbb      	adds	r3, r7, #2
 8001ac6:	881a      	ldrh	r2, [r3, #0]
 8001ac8:	687b      	ldr	r3, [r7, #4]
 8001aca:	619a      	str	r2, [r3, #24]
  }
  else
  {
    GPIOx->BRR = (uint32_t)GPIO_Pin;
  }
}
 8001acc:	e003      	b.n	8001ad6 <HAL_GPIO_WritePin+0x32>
    GPIOx->BRR = (uint32_t)GPIO_Pin;
 8001ace:	1cbb      	adds	r3, r7, #2
 8001ad0:	881a      	ldrh	r2, [r3, #0]
 8001ad2:	687b      	ldr	r3, [r7, #4]
 8001ad4:	629a      	str	r2, [r3, #40]	@ 0x28
}
 8001ad6:	46c0      	nop			@ (mov r8, r8)
 8001ad8:	46bd      	mov	sp, r7
 8001ada:	b002      	add	sp, #8
 8001adc:	bd80      	pop	{r7, pc}
	...

08001ae0 <HAL_GPIO_EXTI_IRQHandler>:
  * @brief  Handle EXTI interrupt request.
  * @param  GPIO_Pin Specifies the port pin connected to corresponding EXTI line.
  * @retval None
  */
void HAL_GPIO_EXTI_IRQHandler(uint16_t GPIO_Pin)
{
 8001ae0:	b580      	push	{r7, lr}
 8001ae2:	b082      	sub	sp, #8
 8001ae4:	af00      	add	r7, sp, #0
 8001ae6:	0002      	movs	r2, r0
 8001ae8:	1dbb      	adds	r3, r7, #6
 8001aea:	801a      	strh	r2, [r3, #0]
  /* EXTI line interrupt detected */
  if (__HAL_GPIO_EXTI_GET_RISING_IT(GPIO_Pin) != 0U)
 8001aec:	4b10      	ldr	r3, [pc, #64]	@ (8001b30 <HAL_GPIO_EXTI_IRQHandler+0x50>)
 8001aee:	68db      	ldr	r3, [r3, #12]
 8001af0:	1dba      	adds	r2, r7, #6
 8001af2:	8812      	ldrh	r2, [r2, #0]
 8001af4:	4013      	ands	r3, r2
 8001af6:	d008      	beq.n	8001b0a <HAL_GPIO_EXTI_IRQHandler+0x2a>
  {
    __HAL_GPIO_EXTI_CLEAR_RISING_IT(GPIO_Pin);
 8001af8:	4b0d      	ldr	r3, [pc, #52]	@ (8001b30 <HAL_GPIO_EXTI_IRQHandler+0x50>)
 8001afa:	1dba      	adds	r2, r7, #6
 8001afc:	8812      	ldrh	r2, [r2, #0]
 8001afe:	60da      	str	r2, [r3, #12]
    HAL_GPIO_EXTI_Rising_Callback(GPIO_Pin);
 8001b00:	1dbb      	adds	r3, r7, #6
 8001b02:	881b      	ldrh	r3, [r3, #0]
 8001b04:	0018      	movs	r0, r3
 8001b06:	f000 f815 	bl	8001b34 <HAL_GPIO_EXTI_Rising_Callback>
  }

  if (__HAL_GPIO_EXTI_GET_FALLING_IT(GPIO_Pin) != 0U)
 8001b0a:	4b09      	ldr	r3, [pc, #36]	@ (8001b30 <HAL_GPIO_EXTI_IRQHandler+0x50>)
 8001b0c:	691b      	ldr	r3, [r3, #16]
 8001b0e:	1dba      	adds	r2, r7, #6
 8001b10:	8812      	ldrh	r2, [r2, #0]
 8001b12:	4013      	ands	r3, r2
 8001b14:	d008      	beq.n	8001b28 <HAL_GPIO_EXTI_IRQHandler+0x48>
  {
    __HAL_GPIO_EXTI_CLEAR_FALLING_IT(GPIO_Pin);
 8001b16:	4b06      	ldr	r3, [pc, #24]	@ (8001b30 <HAL_GPIO_EXTI_IRQHandler+0x50>)
 8001b18:	1dba      	adds	r2, r7, #6
 8001b1a:	8812      	ldrh	r2, [r2, #0]
 8001b1c:	611a      	str	r2, [r3, #16]
    HAL_GPIO_EXTI_Falling_Callback(GPIO_Pin);
 8001b1e:	1dbb      	adds	r3, r7, #6
 8001b20:	881b      	ldrh	r3, [r3, #0]
 8001b22:	0018      	movs	r0, r3
 8001b24:	f000 f810 	bl	8001b48 <HAL_GPIO_EXTI_Falling_Callback>
  }
}
 8001b28:	46c0      	nop			@ (mov r8, r8)
 8001b2a:	46bd      	mov	sp, r7
 8001b2c:	b002      	add	sp, #8
 8001b2e:	bd80      	pop	{r7, pc}
 8001b30:	40021800 	.word	0x40021800

08001b34 <HAL_GPIO_EXTI_Rising_Callback>:
  * @brief  EXTI line detection callback.
  * @param  GPIO_Pin Specifies the port pin connected to corresponding EXTI line.
  * @retval None
  */
__weak void HAL_GPIO_EXTI_Rising_Callback(uint16_t GPIO_Pin)
{
 8001b34:	b580      	push	{r7, lr}
 8001b36:	b082      	sub	sp, #8
 8001b38:	af00      	add	r7, sp, #0
 8001b3a:	0002      	movs	r2, r0
 8001b3c:	1dbb      	adds	r3, r7, #6
 8001b3e:	801a      	strh	r2, [r3, #0]
  UNUSED(GPIO_Pin);

  /* NOTE: This function should not be modified, when the callback is needed,
           the HAL_GPIO_EXTI_Rising_Callback could be implemented in the user file
   */
}
 8001b40:	46c0      	nop			@ (mov r8, r8)
 8001b42:	46bd      	mov	sp, r7
 8001b44:	b002      	add	sp, #8
 8001b46:	bd80      	pop	{r7, pc}

08001b48 <HAL_GPIO_EXTI_Falling_Callback>:
  * @brief  EXTI line detection callback.
  * @param  GPIO_Pin Specifies the port pin connected to corresponding EXTI line.
  * @retval None
  */
__weak void HAL_GPIO_EXTI_Falling_Callback(uint16_t GPIO_Pin)
{
 8001b48:	b580      	push	{r7, lr}
 8001b4a:	b082      	sub	sp, #8
 8001b4c:	af00      	add	r7, sp, #0
 8001b4e:	0002      	movs	r2, r0
 8001b50:	1dbb      	adds	r3, r7, #6
 8001b52:	801a      	strh	r2, [r3, #0]
  UNUSED(GPIO_Pin);

  /* NOTE: This function should not be modified, when the callback is needed,
           the HAL_GPIO_EXTI_Falling_Callback could be implemented in the user file
   */
}
 8001b54:	46c0      	nop			@ (mov r8, r8)
 8001b56:	46bd      	mov	sp, r7
 8001b58:	b002      	add	sp, #8
 8001b5a:	bd80      	pop	{r7, pc}

08001b5c <HAL_RCC_OscConfig>:
            must adjust the number of CPU wait states in their application (SystemClock_Config() API)
            before calling the HAL_RCC_OscConfig() API to update the HSI48 clock division factor.
  * @retval HAL status
  */
HAL_StatusTypeDef HAL_RCC_OscConfig(const RCC_OscInitTypeDef  *RCC_OscInitStruct)
{
 8001b5c:	b580      	push	{r7, lr}
 8001b5e:	b086      	sub	sp, #24
 8001b60:	af00      	add	r7, sp, #0
 8001b62:	6078      	str	r0, [r7, #4]
  uint32_t tickstart;
  uint32_t temp_sysclksrc;

  /* Check Null pointer */
  if (RCC_OscInitStruct == NULL)
 8001b64:	687b      	ldr	r3, [r7, #4]
 8001b66:	2b00      	cmp	r3, #0
 8001b68:	d101      	bne.n	8001b6e <HAL_RCC_OscConfig+0x12>
  {
    return HAL_ERROR;
 8001b6a:	2301      	movs	r3, #1
 8001b6c:	e1d0      	b.n	8001f10 <HAL_RCC_OscConfig+0x3b4>

  /* Check the parameters */
  assert_param(IS_RCC_OSCILLATORTYPE(RCC_OscInitStruct->OscillatorType));

  /*------------------------------- HSE Configuration ------------------------*/
  if (((RCC_OscInitStruct->OscillatorType) & RCC_OSCILLATORTYPE_HSE) == RCC_OSCILLATORTYPE_HSE)
 8001b6e:	687b      	ldr	r3, [r7, #4]
 8001b70:	681b      	ldr	r3, [r3, #0]
 8001b72:	2201      	movs	r2, #1
 8001b74:	4013      	ands	r3, r2
 8001b76:	d100      	bne.n	8001b7a <HAL_RCC_OscConfig+0x1e>
 8001b78:	e069      	b.n	8001c4e <HAL_RCC_OscConfig+0xf2>
  {
    /* Check the parameters */
    assert_param(IS_RCC_HSE(RCC_OscInitStruct->HSEState));

    temp_sysclksrc = __HAL_RCC_GET_SYSCLK_SOURCE();
 8001b7a:	4bc8      	ldr	r3, [pc, #800]	@ (8001e9c <HAL_RCC_OscConfig+0x340>)
 8001b7c:	689b      	ldr	r3, [r3, #8]
 8001b7e:	2238      	movs	r2, #56	@ 0x38
 8001b80:	4013      	ands	r3, r2
 8001b82:	617b      	str	r3, [r7, #20]

    /* When the HSE is used as system clock in these cases it is not allowed to be disabled */
    if (temp_sysclksrc == RCC_CFGR_SWS_HSE)
 8001b84:	697b      	ldr	r3, [r7, #20]
 8001b86:	2b08      	cmp	r3, #8
 8001b88:	d105      	bne.n	8001b96 <HAL_RCC_OscConfig+0x3a>
    {
      if (RCC_OscInitStruct->HSEState == RCC_HSE_OFF)
 8001b8a:	687b      	ldr	r3, [r7, #4]
 8001b8c:	685b      	ldr	r3, [r3, #4]
 8001b8e:	2b00      	cmp	r3, #0
 8001b90:	d15d      	bne.n	8001c4e <HAL_RCC_OscConfig+0xf2>
      {
        return HAL_ERROR;
 8001b92:	2301      	movs	r3, #1
 8001b94:	e1bc      	b.n	8001f10 <HAL_RCC_OscConfig+0x3b4>
      }
    }
    else
    {
      /* Set the new HSE configuration ---------------------------------------*/
      __HAL_RCC_HSE_CONFIG(RCC_OscInitStruct->HSEState);
 8001b96:	687b      	ldr	r3, [r7, #4]
 8001b98:	685a      	ldr	r2, [r3, #4]
 8001b9a:	2380      	movs	r3, #128	@ 0x80
 8001b9c:	025b      	lsls	r3, r3, #9
 8001b9e:	429a      	cmp	r2, r3
 8001ba0:	d107      	bne.n	8001bb2 <HAL_RCC_OscConfig+0x56>
 8001ba2:	4bbe      	ldr	r3, [pc, #760]	@ (8001e9c <HAL_RCC_OscConfig+0x340>)
 8001ba4:	681a      	ldr	r2, [r3, #0]
 8001ba6:	4bbd      	ldr	r3, [pc, #756]	@ (8001e9c <HAL_RCC_OscConfig+0x340>)
 8001ba8:	2180      	movs	r1, #128	@ 0x80
 8001baa:	0249      	lsls	r1, r1, #9
 8001bac:	430a      	orrs	r2, r1
 8001bae:	601a      	str	r2, [r3, #0]
 8001bb0:	e020      	b.n	8001bf4 <HAL_RCC_OscConfig+0x98>
 8001bb2:	687b      	ldr	r3, [r7, #4]
 8001bb4:	685a      	ldr	r2, [r3, #4]
 8001bb6:	23a0      	movs	r3, #160	@ 0xa0
 8001bb8:	02db      	lsls	r3, r3, #11
 8001bba:	429a      	cmp	r2, r3
 8001bbc:	d10e      	bne.n	8001bdc <HAL_RCC_OscConfig+0x80>
 8001bbe:	4bb7      	ldr	r3, [pc, #732]	@ (8001e9c <HAL_RCC_OscConfig+0x340>)
 8001bc0:	681a      	ldr	r2, [r3, #0]
 8001bc2:	4bb6      	ldr	r3, [pc, #728]	@ (8001e9c <HAL_RCC_OscConfig+0x340>)
 8001bc4:	2180      	movs	r1, #128	@ 0x80
 8001bc6:	02c9      	lsls	r1, r1, #11
 8001bc8:	430a      	orrs	r2, r1
 8001bca:	601a      	str	r2, [r3, #0]
 8001bcc:	4bb3      	ldr	r3, [pc, #716]	@ (8001e9c <HAL_RCC_OscConfig+0x340>)
 8001bce:	681a      	ldr	r2, [r3, #0]
 8001bd0:	4bb2      	ldr	r3, [pc, #712]	@ (8001e9c <HAL_RCC_OscConfig+0x340>)
 8001bd2:	2180      	movs	r1, #128	@ 0x80
 8001bd4:	0249      	lsls	r1, r1, #9
 8001bd6:	430a      	orrs	r2, r1
 8001bd8:	601a      	str	r2, [r3, #0]
 8001bda:	e00b      	b.n	8001bf4 <HAL_RCC_OscConfig+0x98>
 8001bdc:	4baf      	ldr	r3, [pc, #700]	@ (8001e9c <HAL_RCC_OscConfig+0x340>)
 8001bde:	681a      	ldr	r2, [r3, #0]
 8001be0:	4bae      	ldr	r3, [pc, #696]	@ (8001e9c <HAL_RCC_OscConfig+0x340>)
 8001be2:	49af      	ldr	r1, [pc, #700]	@ (8001ea0 <HAL_RCC_OscConfig+0x344>)
 8001be4:	400a      	ands	r2, r1
 8001be6:	601a      	str	r2, [r3, #0]
 8001be8:	4bac      	ldr	r3, [pc, #688]	@ (8001e9c <HAL_RCC_OscConfig+0x340>)
 8001bea:	681a      	ldr	r2, [r3, #0]
 8001bec:	4bab      	ldr	r3, [pc, #684]	@ (8001e9c <HAL_RCC_OscConfig+0x340>)
 8001bee:	49ad      	ldr	r1, [pc, #692]	@ (8001ea4 <HAL_RCC_OscConfig+0x348>)
 8001bf0:	400a      	ands	r2, r1
 8001bf2:	601a      	str	r2, [r3, #0]

      /* Check the HSE State */
      if (RCC_OscInitStruct->HSEState != RCC_HSE_OFF)
 8001bf4:	687b      	ldr	r3, [r7, #4]
 8001bf6:	685b      	ldr	r3, [r3, #4]
 8001bf8:	2b00      	cmp	r3, #0
 8001bfa:	d014      	beq.n	8001c26 <HAL_RCC_OscConfig+0xca>
      {
        /* Get Start Tick*/
        tickstart = HAL_GetTick();
 8001bfc:	f7ff fcf8 	bl	80015f0 <HAL_GetTick>
 8001c00:	0003      	movs	r3, r0
 8001c02:	613b      	str	r3, [r7, #16]

        /* Wait till HSE is ready */
        while (READ_BIT(RCC->CR, RCC_CR_HSERDY) == 0U)
 8001c04:	e008      	b.n	8001c18 <HAL_RCC_OscConfig+0xbc>
        {
          if ((HAL_GetTick() - tickstart) > RCC_HSE_TIMEOUT_VALUE)
 8001c06:	f7ff fcf3 	bl	80015f0 <HAL_GetTick>
 8001c0a:	0002      	movs	r2, r0
 8001c0c:	693b      	ldr	r3, [r7, #16]
 8001c0e:	1ad3      	subs	r3, r2, r3
 8001c10:	2b64      	cmp	r3, #100	@ 0x64
 8001c12:	d901      	bls.n	8001c18 <HAL_RCC_OscConfig+0xbc>
          {
            return HAL_TIMEOUT;
 8001c14:	2303      	movs	r3, #3
 8001c16:	e17b      	b.n	8001f10 <HAL_RCC_OscConfig+0x3b4>
        while (READ_BIT(RCC->CR, RCC_CR_HSERDY) == 0U)
 8001c18:	4ba0      	ldr	r3, [pc, #640]	@ (8001e9c <HAL_RCC_OscConfig+0x340>)
 8001c1a:	681a      	ldr	r2, [r3, #0]
 8001c1c:	2380      	movs	r3, #128	@ 0x80
 8001c1e:	029b      	lsls	r3, r3, #10
 8001c20:	4013      	ands	r3, r2
 8001c22:	d0f0      	beq.n	8001c06 <HAL_RCC_OscConfig+0xaa>
 8001c24:	e013      	b.n	8001c4e <HAL_RCC_OscConfig+0xf2>
        }
      }
      else
      {
        /* Get Start Tick*/
        tickstart = HAL_GetTick();
 8001c26:	f7ff fce3 	bl	80015f0 <HAL_GetTick>
 8001c2a:	0003      	movs	r3, r0
 8001c2c:	613b      	str	r3, [r7, #16]

        /* Wait till HSE is disabled */
        while (READ_BIT(RCC->CR, RCC_CR_HSERDY) != 0U)
 8001c2e:	e008      	b.n	8001c42 <HAL_RCC_OscConfig+0xe6>
        {
          if ((HAL_GetTick() - tickstart) > RCC_HSE_TIMEOUT_VALUE)
 8001c30:	f7ff fcde 	bl	80015f0 <HAL_GetTick>
 8001c34:	0002      	movs	r2, r0
 8001c36:	693b      	ldr	r3, [r7, #16]
 8001c38:	1ad3      	subs	r3, r2, r3
 8001c3a:	2b64      	cmp	r3, #100	@ 0x64
 8001c3c:	d901      	bls.n	8001c42 <HAL_RCC_OscConfig+0xe6>
          {
            return HAL_TIMEOUT;
 8001c3e:	2303      	movs	r3, #3
 8001c40:	e166      	b.n	8001f10 <HAL_RCC_OscConfig+0x3b4>
        while (READ_BIT(RCC->CR, RCC_CR_HSERDY) != 0U)
 8001c42:	4b96      	ldr	r3, [pc, #600]	@ (8001e9c <HAL_RCC_OscConfig+0x340>)
 8001c44:	681a      	ldr	r2, [r3, #0]
 8001c46:	2380      	movs	r3, #128	@ 0x80
 8001c48:	029b      	lsls	r3, r3, #10
 8001c4a:	4013      	ands	r3, r2
 8001c4c:	d1f0      	bne.n	8001c30 <HAL_RCC_OscConfig+0xd4>
        }
      }
    }
  }
  /*----------------------------- HSI Configuration --------------------------*/
  if (((RCC_OscInitStruct->OscillatorType) & RCC_OSCILLATORTYPE_HSI) == RCC_OSCILLATORTYPE_HSI)
 8001c4e:	687b      	ldr	r3, [r7, #4]
 8001c50:	681b      	ldr	r3, [r3, #0]
 8001c52:	2202      	movs	r2, #2
 8001c54:	4013      	ands	r3, r2
 8001c56:	d100      	bne.n	8001c5a <HAL_RCC_OscConfig+0xfe>
 8001c58:	e086      	b.n	8001d68 <HAL_RCC_OscConfig+0x20c>
    assert_param(IS_RCC_HSI(RCC_OscInitStruct->HSIState));
    assert_param(IS_RCC_HSI_CALIBRATION_VALUE(RCC_OscInitStruct->HSICalibrationValue));
    assert_param(IS_RCC_HSIDIV(RCC_OscInitStruct->HSIDiv));

    /* Check if HSI48 is used as system clock  */
    temp_sysclksrc = __HAL_RCC_GET_SYSCLK_SOURCE();
 8001c5a:	4b90      	ldr	r3, [pc, #576]	@ (8001e9c <HAL_RCC_OscConfig+0x340>)
 8001c5c:	689b      	ldr	r3, [r3, #8]
 8001c5e:	2238      	movs	r2, #56	@ 0x38
 8001c60:	4013      	ands	r3, r2
 8001c62:	617b      	str	r3, [r7, #20]

    if (temp_sysclksrc == RCC_CFGR_SWS_HSI)
 8001c64:	697b      	ldr	r3, [r7, #20]
 8001c66:	2b00      	cmp	r3, #0
 8001c68:	d12f      	bne.n	8001cca <HAL_RCC_OscConfig+0x16e>
    {
      /* When HSI is used as system clock it can not be disabled */
      if (RCC_OscInitStruct->HSIState == RCC_HSI_OFF)
 8001c6a:	687b      	ldr	r3, [r7, #4]
 8001c6c:	68db      	ldr	r3, [r3, #12]
 8001c6e:	2b00      	cmp	r3, #0
 8001c70:	d101      	bne.n	8001c76 <HAL_RCC_OscConfig+0x11a>
      {
        return HAL_ERROR;
 8001c72:	2301      	movs	r3, #1
 8001c74:	e14c      	b.n	8001f10 <HAL_RCC_OscConfig+0x3b4>
      }
      /* Otherwise, just the calibration is allowed */
      else
      {
        /* Adjusts the Internal High Speed oscillator (HSI) calibration value.*/
        __HAL_RCC_HSI_CALIBRATIONVALUE_ADJUST(RCC_OscInitStruct->HSICalibrationValue);
 8001c76:	4b89      	ldr	r3, [pc, #548]	@ (8001e9c <HAL_RCC_OscConfig+0x340>)
 8001c78:	685b      	ldr	r3, [r3, #4]
 8001c7a:	4a8b      	ldr	r2, [pc, #556]	@ (8001ea8 <HAL_RCC_OscConfig+0x34c>)
 8001c7c:	4013      	ands	r3, r2
 8001c7e:	0019      	movs	r1, r3
 8001c80:	687b      	ldr	r3, [r7, #4]
 8001c82:	695b      	ldr	r3, [r3, #20]
 8001c84:	021a      	lsls	r2, r3, #8
 8001c86:	4b85      	ldr	r3, [pc, #532]	@ (8001e9c <HAL_RCC_OscConfig+0x340>)
 8001c88:	430a      	orrs	r2, r1
 8001c8a:	605a      	str	r2, [r3, #4]

        if (temp_sysclksrc == RCC_CFGR_SWS_HSI)
 8001c8c:	697b      	ldr	r3, [r7, #20]
 8001c8e:	2b00      	cmp	r3, #0
 8001c90:	d112      	bne.n	8001cb8 <HAL_RCC_OscConfig+0x15c>
        {
          /* Adjust the HSI48 division factor */
          __HAL_RCC_HSI_CONFIG(RCC_OscInitStruct->HSIDiv);
 8001c92:	4b82      	ldr	r3, [pc, #520]	@ (8001e9c <HAL_RCC_OscConfig+0x340>)
 8001c94:	681b      	ldr	r3, [r3, #0]
 8001c96:	4a85      	ldr	r2, [pc, #532]	@ (8001eac <HAL_RCC_OscConfig+0x350>)
 8001c98:	4013      	ands	r3, r2
 8001c9a:	0019      	movs	r1, r3
 8001c9c:	687b      	ldr	r3, [r7, #4]
 8001c9e:	691a      	ldr	r2, [r3, #16]
 8001ca0:	4b7e      	ldr	r3, [pc, #504]	@ (8001e9c <HAL_RCC_OscConfig+0x340>)
 8001ca2:	430a      	orrs	r2, r1
 8001ca4:	601a      	str	r2, [r3, #0]

          /* Update the SystemCoreClock global variable with HSISYS value  */
          SystemCoreClock = (HSI_VALUE / (1UL << ((READ_BIT(RCC->CR, RCC_CR_HSIDIV)) >> RCC_CR_HSIDIV_Pos)));
 8001ca6:	4b7d      	ldr	r3, [pc, #500]	@ (8001e9c <HAL_RCC_OscConfig+0x340>)
 8001ca8:	681b      	ldr	r3, [r3, #0]
 8001caa:	0adb      	lsrs	r3, r3, #11
 8001cac:	2207      	movs	r2, #7
 8001cae:	4013      	ands	r3, r2
 8001cb0:	4a7f      	ldr	r2, [pc, #508]	@ (8001eb0 <HAL_RCC_OscConfig+0x354>)
 8001cb2:	40da      	lsrs	r2, r3
 8001cb4:	4b7f      	ldr	r3, [pc, #508]	@ (8001eb4 <HAL_RCC_OscConfig+0x358>)
 8001cb6:	601a      	str	r2, [r3, #0]
        }

        /* Adapt Systick interrupt period */
        if (HAL_InitTick(uwTickPrio) != HAL_OK)
 8001cb8:	4b7f      	ldr	r3, [pc, #508]	@ (8001eb8 <HAL_RCC_OscConfig+0x35c>)
 8001cba:	681b      	ldr	r3, [r3, #0]
 8001cbc:	0018      	movs	r0, r3
 8001cbe:	f7ff fc4d 	bl	800155c <HAL_InitTick>
 8001cc2:	1e03      	subs	r3, r0, #0
 8001cc4:	d050      	beq.n	8001d68 <HAL_RCC_OscConfig+0x20c>
        {
          return HAL_ERROR;
 8001cc6:	2301      	movs	r3, #1
 8001cc8:	e122      	b.n	8001f10 <HAL_RCC_OscConfig+0x3b4>
      }
    }
    else
    {
      /* Check the HSI State */
      if (RCC_OscInitStruct->HSIState != RCC_HSI_OFF)
 8001cca:	687b      	ldr	r3, [r7, #4]
 8001ccc:	68db      	ldr	r3, [r3, #12]
 8001cce:	2b00      	cmp	r3, #0
 8001cd0:	d030      	beq.n	8001d34 <HAL_RCC_OscConfig+0x1d8>
      {
        /* Configure the HSI48 division factor */
        __HAL_RCC_HSI_CONFIG(RCC_OscInitStruct->HSIDiv);
 8001cd2:	4b72      	ldr	r3, [pc, #456]	@ (8001e9c <HAL_RCC_OscConfig+0x340>)
 8001cd4:	681b      	ldr	r3, [r3, #0]
 8001cd6:	4a75      	ldr	r2, [pc, #468]	@ (8001eac <HAL_RCC_OscConfig+0x350>)
 8001cd8:	4013      	ands	r3, r2
 8001cda:	0019      	movs	r1, r3
 8001cdc:	687b      	ldr	r3, [r7, #4]
 8001cde:	691a      	ldr	r2, [r3, #16]
 8001ce0:	4b6e      	ldr	r3, [pc, #440]	@ (8001e9c <HAL_RCC_OscConfig+0x340>)
 8001ce2:	430a      	orrs	r2, r1
 8001ce4:	601a      	str	r2, [r3, #0]

        /* Enable the Internal High Speed oscillator (HSI48). */
        __HAL_RCC_HSI_ENABLE();
 8001ce6:	4b6d      	ldr	r3, [pc, #436]	@ (8001e9c <HAL_RCC_OscConfig+0x340>)
 8001ce8:	681a      	ldr	r2, [r3, #0]
 8001cea:	4b6c      	ldr	r3, [pc, #432]	@ (8001e9c <HAL_RCC_OscConfig+0x340>)
 8001cec:	2180      	movs	r1, #128	@ 0x80
 8001cee:	0049      	lsls	r1, r1, #1
 8001cf0:	430a      	orrs	r2, r1
 8001cf2:	601a      	str	r2, [r3, #0]

        /* Get Start Tick*/
        tickstart = HAL_GetTick();
 8001cf4:	f7ff fc7c 	bl	80015f0 <HAL_GetTick>
 8001cf8:	0003      	movs	r3, r0
 8001cfa:	613b      	str	r3, [r7, #16]

        /* Wait till HSI is ready */
        while (READ_BIT(RCC->CR, RCC_CR_HSIRDY) == 0U)
 8001cfc:	e008      	b.n	8001d10 <HAL_RCC_OscConfig+0x1b4>
        {
          if ((HAL_GetTick() - tickstart) > RCC_HSI_TIMEOUT_VALUE)
 8001cfe:	f7ff fc77 	bl	80015f0 <HAL_GetTick>
 8001d02:	0002      	movs	r2, r0
 8001d04:	693b      	ldr	r3, [r7, #16]
 8001d06:	1ad3      	subs	r3, r2, r3
 8001d08:	2b02      	cmp	r3, #2
 8001d0a:	d901      	bls.n	8001d10 <HAL_RCC_OscConfig+0x1b4>
          {
            return HAL_TIMEOUT;
 8001d0c:	2303      	movs	r3, #3
 8001d0e:	e0ff      	b.n	8001f10 <HAL_RCC_OscConfig+0x3b4>
        while (READ_BIT(RCC->CR, RCC_CR_HSIRDY) == 0U)
 8001d10:	4b62      	ldr	r3, [pc, #392]	@ (8001e9c <HAL_RCC_OscConfig+0x340>)
 8001d12:	681a      	ldr	r2, [r3, #0]
 8001d14:	2380      	movs	r3, #128	@ 0x80
 8001d16:	00db      	lsls	r3, r3, #3
 8001d18:	4013      	ands	r3, r2
 8001d1a:	d0f0      	beq.n	8001cfe <HAL_RCC_OscConfig+0x1a2>
          }
        }

        /* Adjusts the Internal High Speed oscillator (HSI) calibration value.*/
        __HAL_RCC_HSI_CALIBRATIONVALUE_ADJUST(RCC_OscInitStruct->HSICalibrationValue);
 8001d1c:	4b5f      	ldr	r3, [pc, #380]	@ (8001e9c <HAL_RCC_OscConfig+0x340>)
 8001d1e:	685b      	ldr	r3, [r3, #4]
 8001d20:	4a61      	ldr	r2, [pc, #388]	@ (8001ea8 <HAL_RCC_OscConfig+0x34c>)
 8001d22:	4013      	ands	r3, r2
 8001d24:	0019      	movs	r1, r3
 8001d26:	687b      	ldr	r3, [r7, #4]
 8001d28:	695b      	ldr	r3, [r3, #20]
 8001d2a:	021a      	lsls	r2, r3, #8
 8001d2c:	4b5b      	ldr	r3, [pc, #364]	@ (8001e9c <HAL_RCC_OscConfig+0x340>)
 8001d2e:	430a      	orrs	r2, r1
 8001d30:	605a      	str	r2, [r3, #4]
 8001d32:	e019      	b.n	8001d68 <HAL_RCC_OscConfig+0x20c>
      }
      else
      {
        /* Disable the Internal High Speed oscillator (HSI48). */
        __HAL_RCC_HSI_DISABLE();
 8001d34:	4b59      	ldr	r3, [pc, #356]	@ (8001e9c <HAL_RCC_OscConfig+0x340>)
 8001d36:	681a      	ldr	r2, [r3, #0]
 8001d38:	4b58      	ldr	r3, [pc, #352]	@ (8001e9c <HAL_RCC_OscConfig+0x340>)
 8001d3a:	4960      	ldr	r1, [pc, #384]	@ (8001ebc <HAL_RCC_OscConfig+0x360>)
 8001d3c:	400a      	ands	r2, r1
 8001d3e:	601a      	str	r2, [r3, #0]

        /* Get Start Tick*/
        tickstart = HAL_GetTick();
 8001d40:	f7ff fc56 	bl	80015f0 <HAL_GetTick>
 8001d44:	0003      	movs	r3, r0
 8001d46:	613b      	str	r3, [r7, #16]

        /* Wait till HSI is disabled */
        while (READ_BIT(RCC->CR, RCC_CR_HSIRDY) != 0U)
 8001d48:	e008      	b.n	8001d5c <HAL_RCC_OscConfig+0x200>
        {
          if ((HAL_GetTick() - tickstart) > RCC_HSI_TIMEOUT_VALUE)
 8001d4a:	f7ff fc51 	bl	80015f0 <HAL_GetTick>
 8001d4e:	0002      	movs	r2, r0
 8001d50:	693b      	ldr	r3, [r7, #16]
 8001d52:	1ad3      	subs	r3, r2, r3
 8001d54:	2b02      	cmp	r3, #2
 8001d56:	d901      	bls.n	8001d5c <HAL_RCC_OscConfig+0x200>
          {
            return HAL_TIMEOUT;
 8001d58:	2303      	movs	r3, #3
 8001d5a:	e0d9      	b.n	8001f10 <HAL_RCC_OscConfig+0x3b4>
        while (READ_BIT(RCC->CR, RCC_CR_HSIRDY) != 0U)
 8001d5c:	4b4f      	ldr	r3, [pc, #316]	@ (8001e9c <HAL_RCC_OscConfig+0x340>)
 8001d5e:	681a      	ldr	r2, [r3, #0]
 8001d60:	2380      	movs	r3, #128	@ 0x80
 8001d62:	00db      	lsls	r3, r3, #3
 8001d64:	4013      	ands	r3, r2
 8001d66:	d1f0      	bne.n	8001d4a <HAL_RCC_OscConfig+0x1ee>
        }
      }
    }
  }
  /*------------------------------ LSI Configuration -------------------------*/
  if (((RCC_OscInitStruct->OscillatorType) & RCC_OSCILLATORTYPE_LSI) == RCC_OSCILLATORTYPE_LSI)
 8001d68:	687b      	ldr	r3, [r7, #4]
 8001d6a:	681b      	ldr	r3, [r3, #0]
 8001d6c:	2208      	movs	r2, #8
 8001d6e:	4013      	ands	r3, r2
 8001d70:	d042      	beq.n	8001df8 <HAL_RCC_OscConfig+0x29c>
  {
    /* Check the parameters */
    assert_param(IS_RCC_LSI(RCC_OscInitStruct->LSIState));

    /* Check if LSI is used as system clock */
    if (__HAL_RCC_GET_SYSCLK_SOURCE() == RCC_CFGR_SWS_LSI)
 8001d72:	4b4a      	ldr	r3, [pc, #296]	@ (8001e9c <HAL_RCC_OscConfig+0x340>)
 8001d74:	689b      	ldr	r3, [r3, #8]
 8001d76:	2238      	movs	r2, #56	@ 0x38
 8001d78:	4013      	ands	r3, r2
 8001d7a:	2b18      	cmp	r3, #24
 8001d7c:	d105      	bne.n	8001d8a <HAL_RCC_OscConfig+0x22e>
    {
      /* When LSI is used as system clock it will not be disabled */
      if (RCC_OscInitStruct->LSIState == RCC_LSI_OFF)
 8001d7e:	687b      	ldr	r3, [r7, #4]
 8001d80:	699b      	ldr	r3, [r3, #24]
 8001d82:	2b00      	cmp	r3, #0
 8001d84:	d138      	bne.n	8001df8 <HAL_RCC_OscConfig+0x29c>
      {
        return HAL_ERROR;
 8001d86:	2301      	movs	r3, #1
 8001d88:	e0c2      	b.n	8001f10 <HAL_RCC_OscConfig+0x3b4>
      }
    }
    else
    {
      /* Check the LSI State */
      if (RCC_OscInitStruct->LSIState != RCC_LSI_OFF)
 8001d8a:	687b      	ldr	r3, [r7, #4]
 8001d8c:	699b      	ldr	r3, [r3, #24]
 8001d8e:	2b00      	cmp	r3, #0
 8001d90:	d019      	beq.n	8001dc6 <HAL_RCC_OscConfig+0x26a>
      {
        /* Enable the Internal Low Speed oscillator (LSI). */
        __HAL_RCC_LSI_ENABLE();
 8001d92:	4b42      	ldr	r3, [pc, #264]	@ (8001e9c <HAL_RCC_OscConfig+0x340>)
 8001d94:	6e1a      	ldr	r2, [r3, #96]	@ 0x60
 8001d96:	4b41      	ldr	r3, [pc, #260]	@ (8001e9c <HAL_RCC_OscConfig+0x340>)
 8001d98:	2101      	movs	r1, #1
 8001d9a:	430a      	orrs	r2, r1
 8001d9c:	661a      	str	r2, [r3, #96]	@ 0x60

        /* Get Start Tick*/
        tickstart = HAL_GetTick();
 8001d9e:	f7ff fc27 	bl	80015f0 <HAL_GetTick>
 8001da2:	0003      	movs	r3, r0
 8001da4:	613b      	str	r3, [r7, #16]

        /* Wait till LSI is ready */
        while (READ_BIT(RCC->CSR2, RCC_CSR2_LSIRDY) == 0U)
 8001da6:	e008      	b.n	8001dba <HAL_RCC_OscConfig+0x25e>
        {
          if ((HAL_GetTick() - tickstart) > RCC_LSI_TIMEOUT_VALUE)
 8001da8:	f7ff fc22 	bl	80015f0 <HAL_GetTick>
 8001dac:	0002      	movs	r2, r0
 8001dae:	693b      	ldr	r3, [r7, #16]
 8001db0:	1ad3      	subs	r3, r2, r3
 8001db2:	2b02      	cmp	r3, #2
 8001db4:	d901      	bls.n	8001dba <HAL_RCC_OscConfig+0x25e>
          {
            return HAL_TIMEOUT;
 8001db6:	2303      	movs	r3, #3
 8001db8:	e0aa      	b.n	8001f10 <HAL_RCC_OscConfig+0x3b4>
        while (READ_BIT(RCC->CSR2, RCC_CSR2_LSIRDY) == 0U)
 8001dba:	4b38      	ldr	r3, [pc, #224]	@ (8001e9c <HAL_RCC_OscConfig+0x340>)
 8001dbc:	6e1b      	ldr	r3, [r3, #96]	@ 0x60
 8001dbe:	2202      	movs	r2, #2
 8001dc0:	4013      	ands	r3, r2
 8001dc2:	d0f1      	beq.n	8001da8 <HAL_RCC_OscConfig+0x24c>
 8001dc4:	e018      	b.n	8001df8 <HAL_RCC_OscConfig+0x29c>
        }
      }
      else
      {
        /* Disable the Internal Low Speed oscillator (LSI). */
        __HAL_RCC_LSI_DISABLE();
 8001dc6:	4b35      	ldr	r3, [pc, #212]	@ (8001e9c <HAL_RCC_OscConfig+0x340>)
 8001dc8:	6e1a      	ldr	r2, [r3, #96]	@ 0x60
 8001dca:	4b34      	ldr	r3, [pc, #208]	@ (8001e9c <HAL_RCC_OscConfig+0x340>)
 8001dcc:	2101      	movs	r1, #1
 8001dce:	438a      	bics	r2, r1
 8001dd0:	661a      	str	r2, [r3, #96]	@ 0x60

        /* Get Start Tick*/
        tickstart = HAL_GetTick();
 8001dd2:	f7ff fc0d 	bl	80015f0 <HAL_GetTick>
 8001dd6:	0003      	movs	r3, r0
 8001dd8:	613b      	str	r3, [r7, #16]

        /* Wait till LSI is disabled */
        while (READ_BIT(RCC->CSR2, RCC_CSR2_LSIRDY) != 0U)
 8001dda:	e008      	b.n	8001dee <HAL_RCC_OscConfig+0x292>
        {
          if ((HAL_GetTick() - tickstart) > RCC_LSI_TIMEOUT_VALUE)
 8001ddc:	f7ff fc08 	bl	80015f0 <HAL_GetTick>
 8001de0:	0002      	movs	r2, r0
 8001de2:	693b      	ldr	r3, [r7, #16]
 8001de4:	1ad3      	subs	r3, r2, r3
 8001de6:	2b02      	cmp	r3, #2
 8001de8:	d901      	bls.n	8001dee <HAL_RCC_OscConfig+0x292>
          {
            return HAL_TIMEOUT;
 8001dea:	2303      	movs	r3, #3
 8001dec:	e090      	b.n	8001f10 <HAL_RCC_OscConfig+0x3b4>
        while (READ_BIT(RCC->CSR2, RCC_CSR2_LSIRDY) != 0U)
 8001dee:	4b2b      	ldr	r3, [pc, #172]	@ (8001e9c <HAL_RCC_OscConfig+0x340>)
 8001df0:	6e1b      	ldr	r3, [r3, #96]	@ 0x60
 8001df2:	2202      	movs	r2, #2
 8001df4:	4013      	ands	r3, r2
 8001df6:	d1f1      	bne.n	8001ddc <HAL_RCC_OscConfig+0x280>
        }
      }
    }
  }
  /*------------------------------ LSE Configuration -------------------------*/
  if (((RCC_OscInitStruct->OscillatorType) & RCC_OSCILLATORTYPE_LSE) == RCC_OSCILLATORTYPE_LSE)
 8001df8:	687b      	ldr	r3, [r7, #4]
 8001dfa:	681b      	ldr	r3, [r3, #0]
 8001dfc:	2204      	movs	r2, #4
 8001dfe:	4013      	ands	r3, r2
 8001e00:	d100      	bne.n	8001e04 <HAL_RCC_OscConfig+0x2a8>
 8001e02:	e084      	b.n	8001f0e <HAL_RCC_OscConfig+0x3b2>
  {
    FlagStatus       pwrclkchanged = RESET;
 8001e04:	230f      	movs	r3, #15
 8001e06:	18fb      	adds	r3, r7, r3
 8001e08:	2200      	movs	r2, #0
 8001e0a:	701a      	strb	r2, [r3, #0]

    /* Check the parameters */
    assert_param(IS_RCC_LSE(RCC_OscInitStruct->LSEState));

    /* When the LSE is used as system clock, it is not allowed disable it */
    if (__HAL_RCC_GET_SYSCLK_SOURCE() == RCC_CFGR_SWS_LSE)
 8001e0c:	4b23      	ldr	r3, [pc, #140]	@ (8001e9c <HAL_RCC_OscConfig+0x340>)
 8001e0e:	689b      	ldr	r3, [r3, #8]
 8001e10:	2238      	movs	r2, #56	@ 0x38
 8001e12:	4013      	ands	r3, r2
 8001e14:	2b20      	cmp	r3, #32
 8001e16:	d106      	bne.n	8001e26 <HAL_RCC_OscConfig+0x2ca>
    {
      if (RCC_OscInitStruct->LSEState == RCC_LSE_OFF)
 8001e18:	687b      	ldr	r3, [r7, #4]
 8001e1a:	689b      	ldr	r3, [r3, #8]
 8001e1c:	2b00      	cmp	r3, #0
 8001e1e:	d000      	beq.n	8001e22 <HAL_RCC_OscConfig+0x2c6>
 8001e20:	e075      	b.n	8001f0e <HAL_RCC_OscConfig+0x3b2>
      {
        return HAL_ERROR;
 8001e22:	2301      	movs	r3, #1
 8001e24:	e074      	b.n	8001f10 <HAL_RCC_OscConfig+0x3b4>
    }
    else
    {
      /* Update LSE configuration in RTC Domain control register    */
      /* Set the new LSE configuration -----------------------------------------*/
      __HAL_RCC_LSE_CONFIG(RCC_OscInitStruct->LSEState);
 8001e26:	687b      	ldr	r3, [r7, #4]
 8001e28:	689b      	ldr	r3, [r3, #8]
 8001e2a:	2b01      	cmp	r3, #1
 8001e2c:	d106      	bne.n	8001e3c <HAL_RCC_OscConfig+0x2e0>
 8001e2e:	4b1b      	ldr	r3, [pc, #108]	@ (8001e9c <HAL_RCC_OscConfig+0x340>)
 8001e30:	6dda      	ldr	r2, [r3, #92]	@ 0x5c
 8001e32:	4b1a      	ldr	r3, [pc, #104]	@ (8001e9c <HAL_RCC_OscConfig+0x340>)
 8001e34:	2101      	movs	r1, #1
 8001e36:	430a      	orrs	r2, r1
 8001e38:	65da      	str	r2, [r3, #92]	@ 0x5c
 8001e3a:	e01c      	b.n	8001e76 <HAL_RCC_OscConfig+0x31a>
 8001e3c:	687b      	ldr	r3, [r7, #4]
 8001e3e:	689b      	ldr	r3, [r3, #8]
 8001e40:	2b05      	cmp	r3, #5
 8001e42:	d10c      	bne.n	8001e5e <HAL_RCC_OscConfig+0x302>
 8001e44:	4b15      	ldr	r3, [pc, #84]	@ (8001e9c <HAL_RCC_OscConfig+0x340>)
 8001e46:	6dda      	ldr	r2, [r3, #92]	@ 0x5c
 8001e48:	4b14      	ldr	r3, [pc, #80]	@ (8001e9c <HAL_RCC_OscConfig+0x340>)
 8001e4a:	2104      	movs	r1, #4
 8001e4c:	430a      	orrs	r2, r1
 8001e4e:	65da      	str	r2, [r3, #92]	@ 0x5c
 8001e50:	4b12      	ldr	r3, [pc, #72]	@ (8001e9c <HAL_RCC_OscConfig+0x340>)
 8001e52:	6dda      	ldr	r2, [r3, #92]	@ 0x5c
 8001e54:	4b11      	ldr	r3, [pc, #68]	@ (8001e9c <HAL_RCC_OscConfig+0x340>)
 8001e56:	2101      	movs	r1, #1
 8001e58:	430a      	orrs	r2, r1
 8001e5a:	65da      	str	r2, [r3, #92]	@ 0x5c
 8001e5c:	e00b      	b.n	8001e76 <HAL_RCC_OscConfig+0x31a>
 8001e5e:	4b0f      	ldr	r3, [pc, #60]	@ (8001e9c <HAL_RCC_OscConfig+0x340>)
 8001e60:	6dda      	ldr	r2, [r3, #92]	@ 0x5c
 8001e62:	4b0e      	ldr	r3, [pc, #56]	@ (8001e9c <HAL_RCC_OscConfig+0x340>)
 8001e64:	2101      	movs	r1, #1
 8001e66:	438a      	bics	r2, r1
 8001e68:	65da      	str	r2, [r3, #92]	@ 0x5c
 8001e6a:	4b0c      	ldr	r3, [pc, #48]	@ (8001e9c <HAL_RCC_OscConfig+0x340>)
 8001e6c:	6dda      	ldr	r2, [r3, #92]	@ 0x5c
 8001e6e:	4b0b      	ldr	r3, [pc, #44]	@ (8001e9c <HAL_RCC_OscConfig+0x340>)
 8001e70:	2104      	movs	r1, #4
 8001e72:	438a      	bics	r2, r1
 8001e74:	65da      	str	r2, [r3, #92]	@ 0x5c

      /* Check the LSE State */
      if (RCC_OscInitStruct->LSEState != RCC_LSE_OFF)
 8001e76:	687b      	ldr	r3, [r7, #4]
 8001e78:	689b      	ldr	r3, [r3, #8]
 8001e7a:	2b00      	cmp	r3, #0
 8001e7c:	d028      	beq.n	8001ed0 <HAL_RCC_OscConfig+0x374>
      {
        /* Get Start Tick*/
        tickstart = HAL_GetTick();
 8001e7e:	f7ff fbb7 	bl	80015f0 <HAL_GetTick>
 8001e82:	0003      	movs	r3, r0
 8001e84:	613b      	str	r3, [r7, #16]

        /* Wait till LSE is ready */
        while (READ_BIT(RCC->CSR1, RCC_CSR1_LSERDY) == 0U)
 8001e86:	e01d      	b.n	8001ec4 <HAL_RCC_OscConfig+0x368>
        {
          if ((HAL_GetTick() - tickstart) > RCC_LSE_TIMEOUT_VALUE)
 8001e88:	f7ff fbb2 	bl	80015f0 <HAL_GetTick>
 8001e8c:	0002      	movs	r2, r0
 8001e8e:	693b      	ldr	r3, [r7, #16]
 8001e90:	1ad3      	subs	r3, r2, r3
 8001e92:	4a0b      	ldr	r2, [pc, #44]	@ (8001ec0 <HAL_RCC_OscConfig+0x364>)
 8001e94:	4293      	cmp	r3, r2
 8001e96:	d915      	bls.n	8001ec4 <HAL_RCC_OscConfig+0x368>
          {
            return HAL_TIMEOUT;
 8001e98:	2303      	movs	r3, #3
 8001e9a:	e039      	b.n	8001f10 <HAL_RCC_OscConfig+0x3b4>
 8001e9c:	40021000 	.word	0x40021000
 8001ea0:	fffeffff 	.word	0xfffeffff
 8001ea4:	fffbffff 	.word	0xfffbffff
 8001ea8:	ffff80ff 	.word	0xffff80ff
 8001eac:	ffffc7ff 	.word	0xffffc7ff
 8001eb0:	02dc6c00 	.word	0x02dc6c00
 8001eb4:	20000000 	.word	0x20000000
 8001eb8:	20000004 	.word	0x20000004
 8001ebc:	fffffeff 	.word	0xfffffeff
 8001ec0:	00001388 	.word	0x00001388
        while (READ_BIT(RCC->CSR1, RCC_CSR1_LSERDY) == 0U)
 8001ec4:	4b14      	ldr	r3, [pc, #80]	@ (8001f18 <HAL_RCC_OscConfig+0x3bc>)
 8001ec6:	6ddb      	ldr	r3, [r3, #92]	@ 0x5c
 8001ec8:	2202      	movs	r2, #2
 8001eca:	4013      	ands	r3, r2
 8001ecc:	d0dc      	beq.n	8001e88 <HAL_RCC_OscConfig+0x32c>
 8001ece:	e013      	b.n	8001ef8 <HAL_RCC_OscConfig+0x39c>
        }
      }
      else
      {
        /* Get Start Tick*/
        tickstart = HAL_GetTick();
 8001ed0:	f7ff fb8e 	bl	80015f0 <HAL_GetTick>
 8001ed4:	0003      	movs	r3, r0
 8001ed6:	613b      	str	r3, [r7, #16]

        /* Wait till LSE is disabled */
        while (READ_BIT(RCC->CSR1, RCC_CSR1_LSERDY) != 0U)
 8001ed8:	e009      	b.n	8001eee <HAL_RCC_OscConfig+0x392>
        {
          if ((HAL_GetTick() - tickstart) > RCC_LSE_TIMEOUT_VALUE)
 8001eda:	f7ff fb89 	bl	80015f0 <HAL_GetTick>
 8001ede:	0002      	movs	r2, r0
 8001ee0:	693b      	ldr	r3, [r7, #16]
 8001ee2:	1ad3      	subs	r3, r2, r3
 8001ee4:	4a0d      	ldr	r2, [pc, #52]	@ (8001f1c <HAL_RCC_OscConfig+0x3c0>)
 8001ee6:	4293      	cmp	r3, r2
 8001ee8:	d901      	bls.n	8001eee <HAL_RCC_OscConfig+0x392>
          {
            return HAL_TIMEOUT;
 8001eea:	2303      	movs	r3, #3
 8001eec:	e010      	b.n	8001f10 <HAL_RCC_OscConfig+0x3b4>
        while (READ_BIT(RCC->CSR1, RCC_CSR1_LSERDY) != 0U)
 8001eee:	4b0a      	ldr	r3, [pc, #40]	@ (8001f18 <HAL_RCC_OscConfig+0x3bc>)
 8001ef0:	6ddb      	ldr	r3, [r3, #92]	@ 0x5c
 8001ef2:	2202      	movs	r2, #2
 8001ef4:	4013      	ands	r3, r2
 8001ef6:	d1f0      	bne.n	8001eda <HAL_RCC_OscConfig+0x37e>
          }
        }
      }

      /* Restore clock configuration if changed */
      if (pwrclkchanged == SET)
 8001ef8:	230f      	movs	r3, #15
 8001efa:	18fb      	adds	r3, r7, r3
 8001efc:	781b      	ldrb	r3, [r3, #0]
 8001efe:	2b01      	cmp	r3, #1
 8001f00:	d105      	bne.n	8001f0e <HAL_RCC_OscConfig+0x3b2>
      {
        __HAL_RCC_PWR_CLK_DISABLE();
 8001f02:	4b05      	ldr	r3, [pc, #20]	@ (8001f18 <HAL_RCC_OscConfig+0x3bc>)
 8001f04:	6bda      	ldr	r2, [r3, #60]	@ 0x3c
 8001f06:	4b04      	ldr	r3, [pc, #16]	@ (8001f18 <HAL_RCC_OscConfig+0x3bc>)
 8001f08:	4905      	ldr	r1, [pc, #20]	@ (8001f20 <HAL_RCC_OscConfig+0x3c4>)
 8001f0a:	400a      	ands	r2, r1
 8001f0c:	63da      	str	r2, [r3, #60]	@ 0x3c
        }
      }
    }
  }
#endif /* RCC_CR_HSIUSB48ON */
  return HAL_OK;
 8001f0e:	2300      	movs	r3, #0
}
 8001f10:	0018      	movs	r0, r3
 8001f12:	46bd      	mov	sp, r7
 8001f14:	b006      	add	sp, #24
 8001f16:	bd80      	pop	{r7, pc}
 8001f18:	40021000 	.word	0x40021000
 8001f1c:	00001388 	.word	0x00001388
 8001f20:	efffffff 	.word	0xefffffff

08001f24 <HAL_RCC_ClockConfig>:
  *         HPRE[3:0] bits to ensure that HCLK not exceed the maximum allowed frequency
  *         (for more details refer to section above "Initialization/de-initialization functions")
  * @retval None
  */
HAL_StatusTypeDef HAL_RCC_ClockConfig(const RCC_ClkInitTypeDef  *RCC_ClkInitStruct, uint32_t FLatency)
{
 8001f24:	b580      	push	{r7, lr}
 8001f26:	b084      	sub	sp, #16
 8001f28:	af00      	add	r7, sp, #0
 8001f2a:	6078      	str	r0, [r7, #4]
 8001f2c:	6039      	str	r1, [r7, #0]
  uint32_t tickstart;

  /* Check Null pointer */
  if (RCC_ClkInitStruct == NULL)
 8001f2e:	687b      	ldr	r3, [r7, #4]
 8001f30:	2b00      	cmp	r3, #0
 8001f32:	d101      	bne.n	8001f38 <HAL_RCC_ClockConfig+0x14>
  {
    return HAL_ERROR;
 8001f34:	2301      	movs	r3, #1
 8001f36:	e0df      	b.n	80020f8 <HAL_RCC_ClockConfig+0x1d4>
  /* To correctly read data from FLASH memory, the number of wait states (LATENCY)
    must be correctly programmed according to the frequency of the FLASH clock
    (HCLK) and the supply voltage of the device. */

  /* Increasing the number of wait states because of higher CPU frequency */
  if (FLatency > __HAL_FLASH_GET_LATENCY())
 8001f38:	4b71      	ldr	r3, [pc, #452]	@ (8002100 <HAL_RCC_ClockConfig+0x1dc>)
 8001f3a:	681b      	ldr	r3, [r3, #0]
 8001f3c:	2207      	movs	r2, #7
 8001f3e:	4013      	ands	r3, r2
 8001f40:	683a      	ldr	r2, [r7, #0]
 8001f42:	429a      	cmp	r2, r3
 8001f44:	d91e      	bls.n	8001f84 <HAL_RCC_ClockConfig+0x60>
  {
    /* Program the new number of wait states to the LATENCY bits in the FLASH_ACR register */
    __HAL_FLASH_SET_LATENCY(FLatency);
 8001f46:	4b6e      	ldr	r3, [pc, #440]	@ (8002100 <HAL_RCC_ClockConfig+0x1dc>)
 8001f48:	681b      	ldr	r3, [r3, #0]
 8001f4a:	2207      	movs	r2, #7
 8001f4c:	4393      	bics	r3, r2
 8001f4e:	0019      	movs	r1, r3
 8001f50:	4b6b      	ldr	r3, [pc, #428]	@ (8002100 <HAL_RCC_ClockConfig+0x1dc>)
 8001f52:	683a      	ldr	r2, [r7, #0]
 8001f54:	430a      	orrs	r2, r1
 8001f56:	601a      	str	r2, [r3, #0]

    /* Check that the new number of wait states is taken into account to access the Flash
    memory by polling the FLASH_ACR register */
    tickstart = HAL_GetTick();
 8001f58:	f7ff fb4a 	bl	80015f0 <HAL_GetTick>
 8001f5c:	0003      	movs	r3, r0
 8001f5e:	60fb      	str	r3, [r7, #12]

    while ((FLASH->ACR & FLASH_ACR_LATENCY) != FLatency)
 8001f60:	e009      	b.n	8001f76 <HAL_RCC_ClockConfig+0x52>
    {
      if ((HAL_GetTick() - tickstart) > RCC_CLOCKSWITCH_TIMEOUT_VALUE)
 8001f62:	f7ff fb45 	bl	80015f0 <HAL_GetTick>
 8001f66:	0002      	movs	r2, r0
 8001f68:	68fb      	ldr	r3, [r7, #12]
 8001f6a:	1ad3      	subs	r3, r2, r3
 8001f6c:	4a65      	ldr	r2, [pc, #404]	@ (8002104 <HAL_RCC_ClockConfig+0x1e0>)
 8001f6e:	4293      	cmp	r3, r2
 8001f70:	d901      	bls.n	8001f76 <HAL_RCC_ClockConfig+0x52>
      {
        return HAL_TIMEOUT;
 8001f72:	2303      	movs	r3, #3
 8001f74:	e0c0      	b.n	80020f8 <HAL_RCC_ClockConfig+0x1d4>
    while ((FLASH->ACR & FLASH_ACR_LATENCY) != FLatency)
 8001f76:	4b62      	ldr	r3, [pc, #392]	@ (8002100 <HAL_RCC_ClockConfig+0x1dc>)
 8001f78:	681b      	ldr	r3, [r3, #0]
 8001f7a:	2207      	movs	r2, #7
 8001f7c:	4013      	ands	r3, r2
 8001f7e:	683a      	ldr	r2, [r7, #0]
 8001f80:	429a      	cmp	r2, r3
 8001f82:	d1ee      	bne.n	8001f62 <HAL_RCC_ClockConfig+0x3e>
      }
    }
  }

  /*-------------------------- HCLK Configuration --------------------------*/
  if (((RCC_ClkInitStruct->ClockType) & RCC_CLOCKTYPE_HCLK) == RCC_CLOCKTYPE_HCLK)
 8001f84:	687b      	ldr	r3, [r7, #4]
 8001f86:	681b      	ldr	r3, [r3, #0]
 8001f88:	2202      	movs	r2, #2
 8001f8a:	4013      	ands	r3, r2
 8001f8c:	d017      	beq.n	8001fbe <HAL_RCC_ClockConfig+0x9a>
  {
    /* Set the highest APB divider in order to ensure that we do not go through
       a non-spec phase whatever we decrease or increase HCLK. */
    if (((RCC_ClkInitStruct->ClockType) & RCC_CLOCKTYPE_PCLK1) == RCC_CLOCKTYPE_PCLK1)
 8001f8e:	687b      	ldr	r3, [r7, #4]
 8001f90:	681b      	ldr	r3, [r3, #0]
 8001f92:	2204      	movs	r2, #4
 8001f94:	4013      	ands	r3, r2
 8001f96:	d008      	beq.n	8001faa <HAL_RCC_ClockConfig+0x86>
    {
      MODIFY_REG(RCC->CFGR, RCC_CFGR_PPRE, RCC_HCLK_DIV16);
 8001f98:	4b5b      	ldr	r3, [pc, #364]	@ (8002108 <HAL_RCC_ClockConfig+0x1e4>)
 8001f9a:	689b      	ldr	r3, [r3, #8]
 8001f9c:	4a5b      	ldr	r2, [pc, #364]	@ (800210c <HAL_RCC_ClockConfig+0x1e8>)
 8001f9e:	401a      	ands	r2, r3
 8001fa0:	4b59      	ldr	r3, [pc, #356]	@ (8002108 <HAL_RCC_ClockConfig+0x1e4>)
 8001fa2:	21b0      	movs	r1, #176	@ 0xb0
 8001fa4:	0109      	lsls	r1, r1, #4
 8001fa6:	430a      	orrs	r2, r1
 8001fa8:	609a      	str	r2, [r3, #8]
    }

    /* Set the new HCLK clock divider */
    assert_param(IS_RCC_HCLK(RCC_ClkInitStruct->AHBCLKDivider));
    MODIFY_REG(RCC->CFGR, RCC_CFGR_HPRE, RCC_ClkInitStruct->AHBCLKDivider);
 8001faa:	4b57      	ldr	r3, [pc, #348]	@ (8002108 <HAL_RCC_ClockConfig+0x1e4>)
 8001fac:	689b      	ldr	r3, [r3, #8]
 8001fae:	4a58      	ldr	r2, [pc, #352]	@ (8002110 <HAL_RCC_ClockConfig+0x1ec>)
 8001fb0:	4013      	ands	r3, r2
 8001fb2:	0019      	movs	r1, r3
 8001fb4:	687b      	ldr	r3, [r7, #4]
 8001fb6:	68da      	ldr	r2, [r3, #12]
 8001fb8:	4b53      	ldr	r3, [pc, #332]	@ (8002108 <HAL_RCC_ClockConfig+0x1e4>)
 8001fba:	430a      	orrs	r2, r1
 8001fbc:	609a      	str	r2, [r3, #8]
  }

  /*------------------------- SYSCLK Configuration ---------------------------*/
  if (((RCC_ClkInitStruct->ClockType) & RCC_CLOCKTYPE_SYSCLK) == RCC_CLOCKTYPE_SYSCLK)
 8001fbe:	687b      	ldr	r3, [r7, #4]
 8001fc0:	681b      	ldr	r3, [r3, #0]
 8001fc2:	2201      	movs	r2, #1
 8001fc4:	4013      	ands	r3, r2
 8001fc6:	d04b      	beq.n	8002060 <HAL_RCC_ClockConfig+0x13c>
#if defined(RCC_CR_SYSDIV)
    MODIFY_REG(RCC->CR, RCC_CR_SYSDIV, RCC_ClkInitStruct->SYSCLKDivider);
#endif /* RCC_CR_SYSDIV */

    /* HSE is selected as System Clock Source */
    if (RCC_ClkInitStruct->SYSCLKSource == RCC_SYSCLKSOURCE_HSE)
 8001fc8:	687b      	ldr	r3, [r7, #4]
 8001fca:	685b      	ldr	r3, [r3, #4]
 8001fcc:	2b01      	cmp	r3, #1
 8001fce:	d107      	bne.n	8001fe0 <HAL_RCC_ClockConfig+0xbc>
    {
      /* Check the HSE ready flag */
      if (READ_BIT(RCC->CR, RCC_CR_HSERDY) == 0U)
 8001fd0:	4b4d      	ldr	r3, [pc, #308]	@ (8002108 <HAL_RCC_ClockConfig+0x1e4>)
 8001fd2:	681a      	ldr	r2, [r3, #0]
 8001fd4:	2380      	movs	r3, #128	@ 0x80
 8001fd6:	029b      	lsls	r3, r3, #10
 8001fd8:	4013      	ands	r3, r2
 8001fda:	d11f      	bne.n	800201c <HAL_RCC_ClockConfig+0xf8>
      {
        return HAL_ERROR;
 8001fdc:	2301      	movs	r3, #1
 8001fde:	e08b      	b.n	80020f8 <HAL_RCC_ClockConfig+0x1d4>
      }
    }
    /* HSI is selected as System Clock Source */
    else if (RCC_ClkInitStruct->SYSCLKSource == RCC_SYSCLKSOURCE_HSI)
 8001fe0:	687b      	ldr	r3, [r7, #4]
 8001fe2:	685b      	ldr	r3, [r3, #4]
 8001fe4:	2b00      	cmp	r3, #0
 8001fe6:	d107      	bne.n	8001ff8 <HAL_RCC_ClockConfig+0xd4>
    {
      /* Check the HSI ready flag */
      if (READ_BIT(RCC->CR, RCC_CR_HSIRDY) == 0U)
 8001fe8:	4b47      	ldr	r3, [pc, #284]	@ (8002108 <HAL_RCC_ClockConfig+0x1e4>)
 8001fea:	681a      	ldr	r2, [r3, #0]
 8001fec:	2380      	movs	r3, #128	@ 0x80
 8001fee:	00db      	lsls	r3, r3, #3
 8001ff0:	4013      	ands	r3, r2
 8001ff2:	d113      	bne.n	800201c <HAL_RCC_ClockConfig+0xf8>
      {
        return HAL_ERROR;
 8001ff4:	2301      	movs	r3, #1
 8001ff6:	e07f      	b.n	80020f8 <HAL_RCC_ClockConfig+0x1d4>
        return HAL_ERROR;
      }
    }
#endif /* RCC_HSI48_SUPPORT */
    /* LSI is selected as System Clock Source */
    else if (RCC_ClkInitStruct->SYSCLKSource == RCC_SYSCLKSOURCE_LSI)
 8001ff8:	687b      	ldr	r3, [r7, #4]
 8001ffa:	685b      	ldr	r3, [r3, #4]
 8001ffc:	2b03      	cmp	r3, #3
 8001ffe:	d106      	bne.n	800200e <HAL_RCC_ClockConfig+0xea>
    {
      /* Check the LSI ready flag */
      if (READ_BIT(RCC->CSR2, RCC_CSR2_LSIRDY) == 0U)
 8002000:	4b41      	ldr	r3, [pc, #260]	@ (8002108 <HAL_RCC_ClockConfig+0x1e4>)
 8002002:	6e1b      	ldr	r3, [r3, #96]	@ 0x60
 8002004:	2202      	movs	r2, #2
 8002006:	4013      	ands	r3, r2
 8002008:	d108      	bne.n	800201c <HAL_RCC_ClockConfig+0xf8>
      {
        return HAL_ERROR;
 800200a:	2301      	movs	r3, #1
 800200c:	e074      	b.n	80020f8 <HAL_RCC_ClockConfig+0x1d4>
    }
    /* LSE is selected as System Clock Source */
    else
    {
      /* Check the LSE ready flag */
      if (READ_BIT(RCC->CSR1, RCC_CSR1_LSERDY) == 0U)
 800200e:	4b3e      	ldr	r3, [pc, #248]	@ (8002108 <HAL_RCC_ClockConfig+0x1e4>)
 8002010:	6ddb      	ldr	r3, [r3, #92]	@ 0x5c
 8002012:	2202      	movs	r2, #2
 8002014:	4013      	ands	r3, r2
 8002016:	d101      	bne.n	800201c <HAL_RCC_ClockConfig+0xf8>
      {
        return HAL_ERROR;
 8002018:	2301      	movs	r3, #1
 800201a:	e06d      	b.n	80020f8 <HAL_RCC_ClockConfig+0x1d4>
      }
    }
    MODIFY_REG(RCC->CFGR, RCC_CFGR_SW, RCC_ClkInitStruct->SYSCLKSource);
 800201c:	4b3a      	ldr	r3, [pc, #232]	@ (8002108 <HAL_RCC_ClockConfig+0x1e4>)
 800201e:	689b      	ldr	r3, [r3, #8]
 8002020:	2207      	movs	r2, #7
 8002022:	4393      	bics	r3, r2
 8002024:	0019      	movs	r1, r3
 8002026:	687b      	ldr	r3, [r7, #4]
 8002028:	685a      	ldr	r2, [r3, #4]
 800202a:	4b37      	ldr	r3, [pc, #220]	@ (8002108 <HAL_RCC_ClockConfig+0x1e4>)
 800202c:	430a      	orrs	r2, r1
 800202e:	609a      	str	r2, [r3, #8]

    /* Get Start Tick*/
    tickstart = HAL_GetTick();
 8002030:	f7ff fade 	bl	80015f0 <HAL_GetTick>
 8002034:	0003      	movs	r3, r0
 8002036:	60fb      	str	r3, [r7, #12]

    while (__HAL_RCC_GET_SYSCLK_SOURCE() != (RCC_ClkInitStruct->SYSCLKSource << RCC_CFGR_SWS_Pos))
 8002038:	e009      	b.n	800204e <HAL_RCC_ClockConfig+0x12a>
    {
      if ((HAL_GetTick() - tickstart) > RCC_CLOCKSWITCH_TIMEOUT_VALUE)
 800203a:	f7ff fad9 	bl	80015f0 <HAL_GetTick>
 800203e:	0002      	movs	r2, r0
 8002040:	68fb      	ldr	r3, [r7, #12]
 8002042:	1ad3      	subs	r3, r2, r3
 8002044:	4a2f      	ldr	r2, [pc, #188]	@ (8002104 <HAL_RCC_ClockConfig+0x1e0>)
 8002046:	4293      	cmp	r3, r2
 8002048:	d901      	bls.n	800204e <HAL_RCC_ClockConfig+0x12a>
      {
        return HAL_TIMEOUT;
 800204a:	2303      	movs	r3, #3
 800204c:	e054      	b.n	80020f8 <HAL_RCC_ClockConfig+0x1d4>
    while (__HAL_RCC_GET_SYSCLK_SOURCE() != (RCC_ClkInitStruct->SYSCLKSource << RCC_CFGR_SWS_Pos))
 800204e:	4b2e      	ldr	r3, [pc, #184]	@ (8002108 <HAL_RCC_ClockConfig+0x1e4>)
 8002050:	689b      	ldr	r3, [r3, #8]
 8002052:	2238      	movs	r2, #56	@ 0x38
 8002054:	401a      	ands	r2, r3
 8002056:	687b      	ldr	r3, [r7, #4]
 8002058:	685b      	ldr	r3, [r3, #4]
 800205a:	00db      	lsls	r3, r3, #3
 800205c:	429a      	cmp	r2, r3
 800205e:	d1ec      	bne.n	800203a <HAL_RCC_ClockConfig+0x116>
      }
    }
  }

  /* Decreasing the number of wait states because of lower CPU frequency */
  if (FLatency < __HAL_FLASH_GET_LATENCY())
 8002060:	4b27      	ldr	r3, [pc, #156]	@ (8002100 <HAL_RCC_ClockConfig+0x1dc>)
 8002062:	681b      	ldr	r3, [r3, #0]
 8002064:	2207      	movs	r2, #7
 8002066:	4013      	ands	r3, r2
 8002068:	683a      	ldr	r2, [r7, #0]
 800206a:	429a      	cmp	r2, r3
 800206c:	d21e      	bcs.n	80020ac <HAL_RCC_ClockConfig+0x188>
  {
    /* Program the new number of wait states to the LATENCY bits in the FLASH_ACR register */
    __HAL_FLASH_SET_LATENCY(FLatency);
 800206e:	4b24      	ldr	r3, [pc, #144]	@ (8002100 <HAL_RCC_ClockConfig+0x1dc>)
 8002070:	681b      	ldr	r3, [r3, #0]
 8002072:	2207      	movs	r2, #7
 8002074:	4393      	bics	r3, r2
 8002076:	0019      	movs	r1, r3
 8002078:	4b21      	ldr	r3, [pc, #132]	@ (8002100 <HAL_RCC_ClockConfig+0x1dc>)
 800207a:	683a      	ldr	r2, [r7, #0]
 800207c:	430a      	orrs	r2, r1
 800207e:	601a      	str	r2, [r3, #0]

    /* Check that the new number of wait states is taken into account to access the Flash
    memory by polling the FLASH_ACR register */
    tickstart = HAL_GetTick();
 8002080:	f7ff fab6 	bl	80015f0 <HAL_GetTick>
 8002084:	0003      	movs	r3, r0
 8002086:	60fb      	str	r3, [r7, #12]

    while ((FLASH->ACR & FLASH_ACR_LATENCY) != FLatency)
 8002088:	e009      	b.n	800209e <HAL_RCC_ClockConfig+0x17a>
    {
      if ((HAL_GetTick() - tickstart) > RCC_CLOCKSWITCH_TIMEOUT_VALUE)
 800208a:	f7ff fab1 	bl	80015f0 <HAL_GetTick>
 800208e:	0002      	movs	r2, r0
 8002090:	68fb      	ldr	r3, [r7, #12]
 8002092:	1ad3      	subs	r3, r2, r3
 8002094:	4a1b      	ldr	r2, [pc, #108]	@ (8002104 <HAL_RCC_ClockConfig+0x1e0>)
 8002096:	4293      	cmp	r3, r2
 8002098:	d901      	bls.n	800209e <HAL_RCC_ClockConfig+0x17a>
      {
        return HAL_TIMEOUT;
 800209a:	2303      	movs	r3, #3
 800209c:	e02c      	b.n	80020f8 <HAL_RCC_ClockConfig+0x1d4>
    while ((FLASH->ACR & FLASH_ACR_LATENCY) != FLatency)
 800209e:	4b18      	ldr	r3, [pc, #96]	@ (8002100 <HAL_RCC_ClockConfig+0x1dc>)
 80020a0:	681b      	ldr	r3, [r3, #0]
 80020a2:	2207      	movs	r2, #7
 80020a4:	4013      	ands	r3, r2
 80020a6:	683a      	ldr	r2, [r7, #0]
 80020a8:	429a      	cmp	r2, r3
 80020aa:	d1ee      	bne.n	800208a <HAL_RCC_ClockConfig+0x166>
      }
    }
  }

  /*-------------------------- PCLK1 Configuration ---------------------------*/
  if (((RCC_ClkInitStruct->ClockType) & RCC_CLOCKTYPE_PCLK1) == RCC_CLOCKTYPE_PCLK1)
 80020ac:	687b      	ldr	r3, [r7, #4]
 80020ae:	681b      	ldr	r3, [r3, #0]
 80020b0:	2204      	movs	r2, #4
 80020b2:	4013      	ands	r3, r2
 80020b4:	d009      	beq.n	80020ca <HAL_RCC_ClockConfig+0x1a6>
  {
    assert_param(IS_RCC_PCLK(RCC_ClkInitStruct->APB1CLKDivider));
    MODIFY_REG(RCC->CFGR, RCC_CFGR_PPRE, RCC_ClkInitStruct->APB1CLKDivider);
 80020b6:	4b14      	ldr	r3, [pc, #80]	@ (8002108 <HAL_RCC_ClockConfig+0x1e4>)
 80020b8:	689b      	ldr	r3, [r3, #8]
 80020ba:	4a16      	ldr	r2, [pc, #88]	@ (8002114 <HAL_RCC_ClockConfig+0x1f0>)
 80020bc:	4013      	ands	r3, r2
 80020be:	0019      	movs	r1, r3
 80020c0:	687b      	ldr	r3, [r7, #4]
 80020c2:	691a      	ldr	r2, [r3, #16]
 80020c4:	4b10      	ldr	r3, [pc, #64]	@ (8002108 <HAL_RCC_ClockConfig+0x1e4>)
 80020c6:	430a      	orrs	r2, r1
 80020c8:	609a      	str	r2, [r3, #8]
  }

  /* Update the SystemCoreClock global variable */
  SystemCoreClock = (HAL_RCC_GetSysClockFreq() >> ((AHBPrescTable[(RCC->CFGR & RCC_CFGR_HPRE) \
 80020ca:	f000 f82b 	bl	8002124 <HAL_RCC_GetSysClockFreq>
 80020ce:	0001      	movs	r1, r0
 80020d0:	4b0d      	ldr	r3, [pc, #52]	@ (8002108 <HAL_RCC_ClockConfig+0x1e4>)
 80020d2:	689b      	ldr	r3, [r3, #8]
                                                                  >> RCC_CFGR_HPRE_Pos]) & 0x1FU));
 80020d4:	0a1b      	lsrs	r3, r3, #8
 80020d6:	220f      	movs	r2, #15
 80020d8:	401a      	ands	r2, r3
  SystemCoreClock = (HAL_RCC_GetSysClockFreq() >> ((AHBPrescTable[(RCC->CFGR & RCC_CFGR_HPRE) \
 80020da:	4b0f      	ldr	r3, [pc, #60]	@ (8002118 <HAL_RCC_ClockConfig+0x1f4>)
 80020dc:	0092      	lsls	r2, r2, #2
 80020de:	58d3      	ldr	r3, [r2, r3]
                                                                  >> RCC_CFGR_HPRE_Pos]) & 0x1FU));
 80020e0:	221f      	movs	r2, #31
 80020e2:	4013      	ands	r3, r2
  SystemCoreClock = (HAL_RCC_GetSysClockFreq() >> ((AHBPrescTable[(RCC->CFGR & RCC_CFGR_HPRE) \
 80020e4:	000a      	movs	r2, r1
 80020e6:	40da      	lsrs	r2, r3
 80020e8:	4b0c      	ldr	r3, [pc, #48]	@ (800211c <HAL_RCC_ClockConfig+0x1f8>)
 80020ea:	601a      	str	r2, [r3, #0]

  /* Configure the source of time base considering new system clocks settings*/
  return HAL_InitTick(uwTickPrio);
 80020ec:	4b0c      	ldr	r3, [pc, #48]	@ (8002120 <HAL_RCC_ClockConfig+0x1fc>)
 80020ee:	681b      	ldr	r3, [r3, #0]
 80020f0:	0018      	movs	r0, r3
 80020f2:	f7ff fa33 	bl	800155c <HAL_InitTick>
 80020f6:	0003      	movs	r3, r0
}
 80020f8:	0018      	movs	r0, r3
 80020fa:	46bd      	mov	sp, r7
 80020fc:	b004      	add	sp, #16
 80020fe:	bd80      	pop	{r7, pc}
 8002100:	40022000 	.word	0x40022000
 8002104:	00001388 	.word	0x00001388
 8002108:	40021000 	.word	0x40021000
 800210c:	ffff84ff 	.word	0xffff84ff
 8002110:	fffff0ff 	.word	0xfffff0ff
 8002114:	ffff8fff 	.word	0xffff8fff
 8002118:	08003f88 	.word	0x08003f88
 800211c:	20000000 	.word	0x20000000
 8002120:	20000004 	.word	0x20000004

08002124 <HAL_RCC_GetSysClockFreq>:
  *
  *
  * @retval SYSCLK frequency
  */
uint32_t HAL_RCC_GetSysClockFreq(void)
{
 8002124:	b580      	push	{r7, lr}
 8002126:	b082      	sub	sp, #8
 8002128:	af00      	add	r7, sp, #0
  uint32_t sysclockfreq;
#if defined(RCC_CR_SYSDIV)
  uint32_t sysclockdiv = (uint32_t)(((RCC->CR & RCC_CR_SYSDIV) >> RCC_CR_SYSDIV_Pos) + 1U);
#endif /* RCC_CR_SYSDIV */

  if (__HAL_RCC_GET_SYSCLK_SOURCE() == RCC_CFGR_SWS_HSI)
 800212a:	4b1c      	ldr	r3, [pc, #112]	@ (800219c <HAL_RCC_GetSysClockFreq+0x78>)
 800212c:	689b      	ldr	r3, [r3, #8]
 800212e:	2238      	movs	r2, #56	@ 0x38
 8002130:	4013      	ands	r3, r2
 8002132:	d10f      	bne.n	8002154 <HAL_RCC_GetSysClockFreq+0x30>
  {
    /* HSISYS can be derived for HSI48 */
    hsidiv = (1UL << ((READ_BIT(RCC->CR, RCC_CR_HSIDIV)) >> RCC_CR_HSIDIV_Pos));
 8002134:	4b19      	ldr	r3, [pc, #100]	@ (800219c <HAL_RCC_GetSysClockFreq+0x78>)
 8002136:	681b      	ldr	r3, [r3, #0]
 8002138:	0adb      	lsrs	r3, r3, #11
 800213a:	2207      	movs	r2, #7
 800213c:	4013      	ands	r3, r2
 800213e:	2201      	movs	r2, #1
 8002140:	409a      	lsls	r2, r3
 8002142:	0013      	movs	r3, r2
 8002144:	603b      	str	r3, [r7, #0]

    /* HSI used as system clock source */
    sysclockfreq = (HSI_VALUE / hsidiv);
 8002146:	6839      	ldr	r1, [r7, #0]
 8002148:	4815      	ldr	r0, [pc, #84]	@ (80021a0 <HAL_RCC_GetSysClockFreq+0x7c>)
 800214a:	f7fd ffdd 	bl	8000108 <__udivsi3>
 800214e:	0003      	movs	r3, r0
 8002150:	607b      	str	r3, [r7, #4]
 8002152:	e01e      	b.n	8002192 <HAL_RCC_GetSysClockFreq+0x6e>
  }
  else if (__HAL_RCC_GET_SYSCLK_SOURCE() == RCC_CFGR_SWS_HSE)
 8002154:	4b11      	ldr	r3, [pc, #68]	@ (800219c <HAL_RCC_GetSysClockFreq+0x78>)
 8002156:	689b      	ldr	r3, [r3, #8]
 8002158:	2238      	movs	r2, #56	@ 0x38
 800215a:	4013      	ands	r3, r2
 800215c:	2b08      	cmp	r3, #8
 800215e:	d102      	bne.n	8002166 <HAL_RCC_GetSysClockFreq+0x42>
  {
    /* HSE used as system clock source */
    sysclockfreq = HSE_VALUE;
 8002160:	4b0f      	ldr	r3, [pc, #60]	@ (80021a0 <HAL_RCC_GetSysClockFreq+0x7c>)
 8002162:	607b      	str	r3, [r7, #4]
 8002164:	e015      	b.n	8002192 <HAL_RCC_GetSysClockFreq+0x6e>
  }
  else if (__HAL_RCC_GET_SYSCLK_SOURCE() == RCC_CFGR_SWS_LSE)
 8002166:	4b0d      	ldr	r3, [pc, #52]	@ (800219c <HAL_RCC_GetSysClockFreq+0x78>)
 8002168:	689b      	ldr	r3, [r3, #8]
 800216a:	2238      	movs	r2, #56	@ 0x38
 800216c:	4013      	ands	r3, r2
 800216e:	2b20      	cmp	r3, #32
 8002170:	d103      	bne.n	800217a <HAL_RCC_GetSysClockFreq+0x56>
  {
    /* LSE used as system clock source */
    sysclockfreq = LSE_VALUE;
 8002172:	2380      	movs	r3, #128	@ 0x80
 8002174:	021b      	lsls	r3, r3, #8
 8002176:	607b      	str	r3, [r7, #4]
 8002178:	e00b      	b.n	8002192 <HAL_RCC_GetSysClockFreq+0x6e>
  }
  else if (__HAL_RCC_GET_SYSCLK_SOURCE() == RCC_CFGR_SWS_LSI)
 800217a:	4b08      	ldr	r3, [pc, #32]	@ (800219c <HAL_RCC_GetSysClockFreq+0x78>)
 800217c:	689b      	ldr	r3, [r3, #8]
 800217e:	2238      	movs	r2, #56	@ 0x38
 8002180:	4013      	ands	r3, r2
 8002182:	2b18      	cmp	r3, #24
 8002184:	d103      	bne.n	800218e <HAL_RCC_GetSysClockFreq+0x6a>
  {
    /* LSI used as system clock source */
    sysclockfreq = LSI_VALUE;
 8002186:	23fa      	movs	r3, #250	@ 0xfa
 8002188:	01db      	lsls	r3, r3, #7
 800218a:	607b      	str	r3, [r7, #4]
 800218c:	e001      	b.n	8002192 <HAL_RCC_GetSysClockFreq+0x6e>
    sysclockfreq = HSI48_VALUE;
  }
#endif /* RCC_HSI48_SUPPORT */
  else
  {
    sysclockfreq = 0U;
 800218e:	2300      	movs	r3, #0
 8002190:	607b      	str	r3, [r7, #4]
  }
#if defined(RCC_CR_SYSDIV)
  sysclockfreq = sysclockfreq / sysclockdiv;
#endif /* RCC_CR_SYSDIV */
  return sysclockfreq;
 8002192:	687b      	ldr	r3, [r7, #4]
}
 8002194:	0018      	movs	r0, r3
 8002196:	46bd      	mov	sp, r7
 8002198:	b002      	add	sp, #8
 800219a:	bd80      	pop	{r7, pc}
 800219c:	40021000 	.word	0x40021000
 80021a0:	02dc6c00 	.word	0x02dc6c00

080021a4 <QF_int_disable_>:
// Additionally, the function also asserts that the interrupts are
// NOT disabled upon the entry to the function, which means that
// this interrupt management policy CANNOT nest.
__attribute__ ((naked, weak))
void QF_int_disable_(void) {
__asm volatile (
 80021a4:	f3ef 8010 	mrs	r0, PRIMASK
 80021a8:	b672      	cpsid	i
 80021aa:	2800      	cmp	r0, #0
 80021ac:	d100      	bne.n	80021b0 <QF_int_disable_error>
 80021ae:	4770      	bx	lr

080021b0 <QF_int_disable_error>:
 80021b0:	4802      	ldr	r0, [pc, #8]	@ (80021bc <QF_int_disable_error+0xc>)
 80021b2:	2164      	movs	r1, #100	@ 0x64
 80021b4:	4a02      	ldr	r2, [pc, #8]	@ (80021c0 <QF_int_disable_error+0x10>)
 80021b6:	4710      	bx	r2
    "  LDR     r0,=QF_port_module_ \n"
    "  MOVS    r1,#100          \n"
    "  LDR     r2,=Q_onError    \n"
    "  BX      r2               \n"
    );
}
 80021b8:	46c0      	nop			@ (mov r8, r8)
 80021ba:	0000      	.short	0x0000
 80021bc:	08004040 	.word	0x08004040
 80021c0:	080003a9 	.word	0x080003a9

080021c4 <QF_int_enable_>:
// Additionally, the function also asserts that the interrupts ARE
// disabled upon the entry to the function, which means that
// this interrupt management policy CANNOT nest.
__attribute__ ((naked, weak))
void QF_int_enable_(void) {
__asm volatile (
 80021c4:	f3ef 8010 	mrs	r0, PRIMASK
 80021c8:	2800      	cmp	r0, #0
 80021ca:	d001      	beq.n	80021d0 <QF_int_enable_error>
 80021cc:	b662      	cpsie	i
 80021ce:	4770      	bx	lr

080021d0 <QF_int_enable_error>:
 80021d0:	4802      	ldr	r0, [pc, #8]	@ (80021dc <QF_int_enable_error+0xc>)
 80021d2:	2165      	movs	r1, #101	@ 0x65
 80021d4:	4a02      	ldr	r2, [pc, #8]	@ (80021e0 <QF_int_enable_error+0x10>)
 80021d6:	4710      	bx	r2
    "  LDR     r0,=QF_port_module_ \n"
    "  MOVS    r1,#101          \n"
    "  LDR     r2,=Q_onError    \n"
    "  BX      r2               \n"
    );
}
 80021d8:	46c0      	nop			@ (mov r8, r8)
 80021da:	0000      	.short	0x0000
 80021dc:	08004040 	.word	0x08004040
 80021e0:	080003a9 	.word	0x080003a9

080021e4 <QF_crit_entry_>:
// Additionally, the function also asserts that the interrupts are
// NOT disabled upon the entry to the function, which means that
// this critical section CANNOT nest.
__attribute__ ((naked, weak))
void QF_crit_entry_(void) {
__asm volatile (
 80021e4:	f3ef 8010 	mrs	r0, PRIMASK
 80021e8:	b672      	cpsid	i
 80021ea:	2800      	cmp	r0, #0
 80021ec:	d100      	bne.n	80021f0 <QF_crit_entry_error>
 80021ee:	4770      	bx	lr

080021f0 <QF_crit_entry_error>:
 80021f0:	4802      	ldr	r0, [pc, #8]	@ (80021fc <QF_crit_entry_error+0xc>)
 80021f2:	216e      	movs	r1, #110	@ 0x6e
 80021f4:	4a02      	ldr	r2, [pc, #8]	@ (8002200 <QF_crit_entry_error+0x10>)
 80021f6:	4710      	bx	r2
    "  LDR     r0,=QF_port_module_ \n"
    "  MOVS    r1,#110          \n"
    "  LDR     r2,=Q_onError    \n"
    "  BX      r2               \n"
    );
}
 80021f8:	46c0      	nop			@ (mov r8, r8)
 80021fa:	0000      	.short	0x0000
 80021fc:	08004040 	.word	0x08004040
 8002200:	080003a9 	.word	0x080003a9

08002204 <QF_crit_exit_>:
// Additionally, the function also asserts that the interrupts ARE
// disabled upon the entry to the function, which means that
// this critical section CANNOT nest.
__attribute__ ((naked, weak))
void QF_crit_exit_(void) {
__asm volatile (
 8002204:	f3ef 8010 	mrs	r0, PRIMASK
 8002208:	2800      	cmp	r0, #0
 800220a:	d001      	beq.n	8002210 <QF_crit_exit_error>
 800220c:	b662      	cpsie	i
 800220e:	4770      	bx	lr

08002210 <QF_crit_exit_error>:
 8002210:	4802      	ldr	r0, [pc, #8]	@ (800221c <QF_crit_exit_error+0xc>)
 8002212:	216f      	movs	r1, #111	@ 0x6f
 8002214:	4a02      	ldr	r2, [pc, #8]	@ (8002220 <QF_crit_exit_error+0x10>)
 8002216:	4710      	bx	r2
    "  LDR     r0,=QF_port_module_ \n"
    "  MOVS    r1,#111          \n"
    "  LDR     r2,=Q_onError    \n"
    "  BX      r2               \n"
    );
}
 8002218:	46c0      	nop			@ (mov r8, r8)
 800221a:	0000      	.short	0x0000
 800221c:	08004040 	.word	0x08004040
 8002220:	080003a9 	.word	0x080003a9

08002224 <QK_init>:
// application programmer forgets to explicitly set priorities of all
// "kernel aware" interrupts.
//
// NOTE: The IRQ priorities established in QK_init() can be later changed
// by the application-level code.
void QK_init(void) {
 8002224:	b580      	push	{r7, lr}
 8002226:	af00      	add	r7, sp, #0
    }

#endif                  //--------- use BASEPRI for critical section

    // SCB_SYSPRI[2]: PendSV set to priority 0xFF (lowest)
    SCB_SYSPRI[2] = (SCB_SYSPRI[2] | (0xFFU << 16U));
 8002228:	4b04      	ldr	r3, [pc, #16]	@ (800223c <QK_init+0x18>)
 800222a:	681a      	ldr	r2, [r3, #0]
 800222c:	4b03      	ldr	r3, [pc, #12]	@ (800223c <QK_init+0x18>)
 800222e:	21ff      	movs	r1, #255	@ 0xff
 8002230:	0409      	lsls	r1, r1, #16
 8002232:	430a      	orrs	r2, r1
 8002234:	601a      	str	r2, [r3, #0]
    SCB_CPACR = (SCB_CPACR | ((3UL << 20U) | (3UL << 22U)));

    // FPU automatic state preservation (ASPEN) lazy stacking (LSPEN)
    FPU_FPCCR = (FPU_FPCCR | (1U << 30U) | (1U << 31U));
#endif                  //--------- VFP available
}
 8002236:	46c0      	nop			@ (mov r8, r8)
 8002238:	46bd      	mov	sp, r7
 800223a:	bd80      	pop	{r7, pc}
 800223c:	e000ed20 	.word	0xe000ed20

08002240 <PendSV_Handler>:
// The inline GNU assembler does not accept mnemonics MOVS, LSRS and ADDS,
// but for ARMv6-M the mnemonics MOV, LSR and ADD always set the condition
// flags in the PSR.
__attribute__ ((naked, optimize("-fno-stack-protector")))
void PendSV_Handler(void) {
__asm volatile (
 8002240:	b501      	push	{r0, lr}
 8002242:	4808      	ldr	r0, [pc, #32]	@ (8002264 <PendSV_Handler+0x24>)
 8002244:	4780      	blx	r0
 8002246:	4a08      	ldr	r2, [pc, #32]	@ (8002268 <PendSV_Handler+0x28>)
 8002248:	2101      	movs	r1, #1
 800224a:	06c9      	lsls	r1, r1, #27
 800224c:	6011      	str	r1, [r2, #0]
 800224e:	08cb      	lsrs	r3, r1, #3
 8002250:	4a06      	ldr	r2, [pc, #24]	@ (800226c <PendSV_Handler+0x2c>)
 8002252:	3a01      	subs	r2, #1
 8002254:	4906      	ldr	r1, [pc, #24]	@ (8002270 <PendSV_Handler+0x30>)
 8002256:	b088      	sub	sp, #32
 8002258:	a805      	add	r0, sp, #20
 800225a:	c00e      	stmia	r0!, {r1, r2, r3}
 800225c:	2006      	movs	r0, #6
 800225e:	43c0      	mvns	r0, r0
 8002260:	4700      	bx	r0
#if (__ARM_ARCH != 6)   //--------- if ARMv7-M and higher...
    "  DSB                      \n" // ARM Erratum 838869
#endif                  //--------- ARMv7-M and higher
    "  BX      r0               \n" // exception-return to the QK activator
    );
}
 8002262:	46c0      	nop			@ (mov r8, r8)
 8002264:	080021a5 	.word	0x080021a5
 8002268:	e000ed04 	.word	0xe000ed04
 800226c:	08003c29 	.word	0x08003c29
 8002270:	08002275 	.word	0x08002275

08002274 <QK_thread_ret>:
// The inline GNU assembler does not accept mnemonics MOVS, LSRS and ADDS,
// but for ARMv6-M the mnemonics MOV, LSR and ADD always set the condition
// flags in the PSR.
__attribute__ ((naked, used))
void QK_thread_ret(void) {
    __asm volatile (
 8002274:	4805      	ldr	r0, [pc, #20]	@ (800228c <QK_thread_ret+0x18>)
 8002276:	2101      	movs	r1, #1
 8002278:	07c9      	lsls	r1, r1, #31
 800227a:	6001      	str	r1, [r0, #0]
 800227c:	4804      	ldr	r0, [pc, #16]	@ (8002290 <QK_thread_ret+0x1c>)
 800227e:	4780      	blx	r0
 8002280:	4804      	ldr	r0, [pc, #16]	@ (8002294 <QK_thread_ret+0x20>)
 8002282:	2179      	movs	r1, #121	@ 0x79
 8002284:	4a04      	ldr	r2, [pc, #16]	@ (8002298 <QK_thread_ret+0x24>)
 8002286:	4710      	bx	r2
    "  LDR     r0,=QF_port_module_ \n"
    "  MOV     r1,#121          \n"
    "  LDR     r2,=Q_onError    \n"
    "  BX      r2               \n"
    );
}
 8002288:	46c0      	nop			@ (mov r8, r8)
 800228a:	0000      	.short	0x0000
 800228c:	e000ed04 	.word	0xe000ed04
 8002290:	080021a5 	.word	0x080021a5
 8002294:	08004040 	.word	0x08004040
 8002298:	080003a9 	.word	0x080003a9

0800229c <NMI_Handler>:
#else                   //--------- IRQ NOT defined, use the NMI (default)

// NOTE: The NMI_Handler() is entered with interrupts still DISABLED!
__attribute__ ((naked))
void NMI_Handler(void) {
__asm volatile (
 800229c:	b008      	add	sp, #32
 800229e:	4802      	ldr	r0, [pc, #8]	@ (80022a8 <NMI_Handler+0xc>)
 80022a0:	4780      	blx	r0
 80022a2:	bd01      	pop	{r0, pc}
    // it is NOT used to used to return from the exception. (See POP {r0,pc})
#endif                  //--------- interrupt disabling with PRIMASK
    "  POP     {r0,pc}          \n" // pop stack aligner and EXC_RETURN to pc
    );
    // NOTE: this causes exception-return to the preempted *thread* context
}
 80022a4:	46c0      	nop			@ (mov r8, r8)
 80022a6:	0000      	.short	0x0000
 80022a8:	080021c5 	.word	0x080021c5

080022ac <QF_qlog2>:
// but for ARMv6-M the mnemonics MOV, LSR and ADD always set the condition
// flags in the PSR.
__attribute__ ((naked, optimize("-fno-stack-protector")))
uint_fast8_t QF_qlog2(uint32_t x) {
    Q_UNUSED_PAR(x);
__asm volatile (
 80022ac:	2100      	movs	r1, #0
 80022ae:	0c02      	lsrs	r2, r0, #16
 80022b0:	d001      	beq.n	80022b6 <QF_qlog2_1>
 80022b2:	2110      	movs	r1, #16
 80022b4:	1c10      	adds	r0, r2, #0

080022b6 <QF_qlog2_1>:
 80022b6:	0a02      	lsrs	r2, r0, #8
 80022b8:	d001      	beq.n	80022be <QF_qlog2_2>
 80022ba:	3108      	adds	r1, #8
 80022bc:	1c10      	adds	r0, r2, #0

080022be <QF_qlog2_2>:
 80022be:	0902      	lsrs	r2, r0, #4
 80022c0:	d001      	beq.n	80022c6 <QF_qlog2_3>
 80022c2:	3104      	adds	r1, #4
 80022c4:	1c10      	adds	r0, r2, #0

080022c6 <QF_qlog2_3>:
 80022c6:	4a07      	ldr	r2, [pc, #28]	@ (80022e4 <QF_qlog2_LUT+0x14>)
 80022c8:	5c10      	ldrb	r0, [r2, r0]
 80022ca:	1808      	adds	r0, r1, r0
 80022cc:	4770      	bx	lr
 80022ce:	46c0      	nop			@ (mov r8, r8)

080022d0 <QF_qlog2_LUT>:
 80022d0:	02020100 	.word	0x02020100
 80022d4:	03030303 	.word	0x03030303
 80022d8:	04040404 	.word	0x04040404
 80022dc:	04040404 	.word	0x04040404
    "  BX      lr               \n"
    "  .align                   \n"
    "QF_qlog2_LUT:              \n"
    "  .byte 0, 1, 2, 2, 3, 3, 3, 3, 4, 4, 4, 4, 4, 4, 4, 4"
    );
}
 80022e0:	46c0      	nop			@ (mov r8, r8)
 80022e2:	0018      	movs	r0, r3
 80022e4:	080022d0 	.word	0x080022d0

080022e8 <QHsm_ctor>:

//============================================================================
//! @protected @memberof QHsm
void QHsm_ctor(QHsm * const me,
    QStateHandler const initial)
{
 80022e8:	b580      	push	{r7, lr}
 80022ea:	b082      	sub	sp, #8
 80022ec:	af00      	add	r7, sp, #0
 80022ee:	6078      	str	r0, [r7, #4]
 80022f0:	6039      	str	r1, [r7, #0]
        &QHsm_dispatch_,
        &QHsm_isIn_,
        &QHsm_getStateHandler_
    };
    // no need to call the superclass' constructor QAsm_ctor() here
    me->super.vptr      = &vtable; // QHsm class' VTABLE
 80022f2:	687b      	ldr	r3, [r7, #4]
 80022f4:	4a05      	ldr	r2, [pc, #20]	@ (800230c <QHsm_ctor+0x24>)
 80022f6:	601a      	str	r2, [r3, #0]
    me->super.state.fun = Q_STATE_CAST(&QHsm_top); // the current state (top)
 80022f8:	687b      	ldr	r3, [r7, #4]
 80022fa:	4a05      	ldr	r2, [pc, #20]	@ (8002310 <QHsm_ctor+0x28>)
 80022fc:	605a      	str	r2, [r3, #4]
    me->super.temp.fun  = initial; // the initial tran. handler
 80022fe:	687b      	ldr	r3, [r7, #4]
 8002300:	683a      	ldr	r2, [r7, #0]
 8002302:	609a      	str	r2, [r3, #8]
}
 8002304:	46c0      	nop			@ (mov r8, r8)
 8002306:	46bd      	mov	sp, r7
 8002308:	b002      	add	sp, #8
 800230a:	bd80      	pop	{r7, pc}
 800230c:	08004070 	.word	0x08004070
 8002310:	08002315 	.word	0x08002315

08002314 <QHsm_top>:

//............................................................................
//! @protected @memberof QHsm
QState QHsm_top(QHsm const * const me, QEvt const * const e) {
 8002314:	b580      	push	{r7, lr}
 8002316:	b082      	sub	sp, #8
 8002318:	af00      	add	r7, sp, #0
 800231a:	6078      	str	r0, [r7, #4]
 800231c:	6039      	str	r1, [r7, #0]
    // the top state handler implementation
    Q_UNUSED_PAR(me);
    Q_UNUSED_PAR(e);
    return Q_RET_IGNORED; // the top state ignores all events
 800231e:	2305      	movs	r3, #5
}
 8002320:	0018      	movs	r0, r3
 8002322:	46bd      	mov	sp, r7
 8002324:	b002      	add	sp, #8
 8002326:	bd80      	pop	{r7, pc}

08002328 <QHsm_init_>:
//............................................................................
//! @private @memberof QHsm
void QHsm_init_(QAsm * const me,
    void const * const e,
    uint_fast8_t const qsId)
{
 8002328:	b590      	push	{r4, r7, lr}
 800232a:	b08f      	sub	sp, #60	@ 0x3c
 800232c:	af00      	add	r7, sp, #0
 800232e:	60f8      	str	r0, [r7, #12]
 8002330:	60b9      	str	r1, [r7, #8]
 8002332:	607a      	str	r2, [r7, #4]
    }
#else
    Q_UNUSED_PAR(qsId);
#endif // Q_SPY

    QStateHandler const s = me->state.fun; // current state
 8002334:	68fb      	ldr	r3, [r7, #12]
 8002336:	685b      	ldr	r3, [r3, #4]
 8002338:	633b      	str	r3, [r7, #48]	@ 0x30

    // current state must be initialized to QHsm_top in QHsm_ctor()
    Q_REQUIRE_LOCAL(200, s == Q_STATE_CAST(&QHsm_top));
 800233a:	6b3a      	ldr	r2, [r7, #48]	@ 0x30
 800233c:	4b3a      	ldr	r3, [pc, #232]	@ (8002428 <QHsm_init_+0x100>)
 800233e:	429a      	cmp	r2, r3
 8002340:	d006      	beq.n	8002350 <QHsm_init_+0x28>
 8002342:	f7ff ff4f 	bl	80021e4 <QF_crit_entry_>
 8002346:	4b39      	ldr	r3, [pc, #228]	@ (800242c <QHsm_init_+0x104>)
 8002348:	21c8      	movs	r1, #200	@ 0xc8
 800234a:	0018      	movs	r0, r3
 800234c:	f7fe f82c 	bl	80003a8 <Q_onError>

    // temp contains the top-most initial tran. handler, which must be valid
    Q_REQUIRE_LOCAL(210, me->temp.fun != Q_STATE_CAST(0));
 8002350:	68fb      	ldr	r3, [r7, #12]
 8002352:	689b      	ldr	r3, [r3, #8]
 8002354:	2b00      	cmp	r3, #0
 8002356:	d106      	bne.n	8002366 <QHsm_init_+0x3e>
 8002358:	f7ff ff44 	bl	80021e4 <QF_crit_entry_>
 800235c:	4b33      	ldr	r3, [pc, #204]	@ (800242c <QHsm_init_+0x104>)
 800235e:	21d2      	movs	r1, #210	@ 0xd2
 8002360:	0018      	movs	r0, r3
 8002362:	f7fe f821 	bl	80003a8 <Q_onError>

    // execute the top-most initial tran.
    QState const r = (*me->temp.fun)(me, Q_EVT_CAST(QEvt));
 8002366:	68fb      	ldr	r3, [r7, #12]
 8002368:	689b      	ldr	r3, [r3, #8]
 800236a:	68b9      	ldr	r1, [r7, #8]
 800236c:	68fa      	ldr	r2, [r7, #12]
 800236e:	0010      	movs	r0, r2
 8002370:	4798      	blx	r3
 8002372:	0003      	movs	r3, r0
 8002374:	62fb      	str	r3, [r7, #44]	@ 0x2c

    // the top-most initial tran. must be taken
    Q_ASSERT_LOCAL(240, r == Q_RET_TRAN);
 8002376:	6afb      	ldr	r3, [r7, #44]	@ 0x2c
 8002378:	2b03      	cmp	r3, #3
 800237a:	d006      	beq.n	800238a <QHsm_init_+0x62>
 800237c:	f7ff ff32 	bl	80021e4 <QF_crit_entry_>
 8002380:	4b2a      	ldr	r3, [pc, #168]	@ (800242c <QHsm_init_+0x104>)
 8002382:	21f0      	movs	r1, #240	@ 0xf0
 8002384:	0018      	movs	r0, r3
 8002386:	f7fe f80f 	bl	80003a8 <Q_onError>

    // the top-most initial tran. must set the target in temp
    Q_ASSERT_LOCAL(250, me->temp.fun != Q_STATE_CAST(0));
 800238a:	68fb      	ldr	r3, [r7, #12]
 800238c:	689b      	ldr	r3, [r3, #8]
 800238e:	2b00      	cmp	r3, #0
 8002390:	d106      	bne.n	80023a0 <QHsm_init_+0x78>
 8002392:	f7ff ff27 	bl	80021e4 <QF_crit_entry_>
 8002396:	4b25      	ldr	r3, [pc, #148]	@ (800242c <QHsm_init_+0x104>)
 8002398:	21fa      	movs	r1, #250	@ 0xfa
 800239a:	0018      	movs	r0, r3
 800239c:	f7fe f804 	bl	80003a8 <Q_onError>
    QS_TRAN_SEG_(QS_QEP_STATE_INIT, s, me->temp.fun); // output QS record

    // drill down into the state hierarchy with initial transitions...
    QStateHandler path[QHSM_MAX_NEST_DEPTH_]; // entry path array

    int_fast8_t ip = -1; // path index & fixed loop bound (one below [0])
 80023a0:	2301      	movs	r3, #1
 80023a2:	425b      	negs	r3, r3
 80023a4:	637b      	str	r3, [r7, #52]	@ 0x34
    do {
        ++ip;
 80023a6:	6b7b      	ldr	r3, [r7, #52]	@ 0x34
 80023a8:	3301      	adds	r3, #1
 80023aa:	637b      	str	r3, [r7, #52]	@ 0x34

        // the entry path index must not overflow the allocated array
        Q_INVARIANT_LOCAL(260, ip < QHSM_MAX_NEST_DEPTH_);
 80023ac:	6b7b      	ldr	r3, [r7, #52]	@ 0x34
 80023ae:	2b05      	cmp	r3, #5
 80023b0:	dd08      	ble.n	80023c4 <QHsm_init_+0x9c>
 80023b2:	f7ff ff17 	bl	80021e4 <QF_crit_entry_>
 80023b6:	2382      	movs	r3, #130	@ 0x82
 80023b8:	005a      	lsls	r2, r3, #1
 80023ba:	4b1c      	ldr	r3, [pc, #112]	@ (800242c <QHsm_init_+0x104>)
 80023bc:	0011      	movs	r1, r2
 80023be:	0018      	movs	r0, r3
 80023c0:	f7fd fff2 	bl	80003a8 <Q_onError>

        // the initial tran. must set target in temp
        Q_ASSERT_LOCAL(270, me->temp.fun != Q_STATE_CAST(0));
 80023c4:	68fb      	ldr	r3, [r7, #12]
 80023c6:	689b      	ldr	r3, [r3, #8]
 80023c8:	2b00      	cmp	r3, #0
 80023ca:	d108      	bne.n	80023de <QHsm_init_+0xb6>
 80023cc:	f7ff ff0a 	bl	80021e4 <QF_crit_entry_>
 80023d0:	2387      	movs	r3, #135	@ 0x87
 80023d2:	005a      	lsls	r2, r3, #1
 80023d4:	4b15      	ldr	r3, [pc, #84]	@ (800242c <QHsm_init_+0x104>)
 80023d6:	0011      	movs	r1, r2
 80023d8:	0018      	movs	r0, r3
 80023da:	f7fd ffe5 	bl	80003a8 <Q_onError>

        path[ip] = me->temp.fun; // store the entry path
 80023de:	68fb      	ldr	r3, [r7, #12]
 80023e0:	6899      	ldr	r1, [r3, #8]
 80023e2:	2414      	movs	r4, #20
 80023e4:	193b      	adds	r3, r7, r4
 80023e6:	6b7a      	ldr	r2, [r7, #52]	@ 0x34
 80023e8:	0092      	lsls	r2, r2, #2
 80023ea:	50d1      	str	r1, [r2, r3]

        // find the superstate of 'm_temp.fun', ignore result
        (void)(*me->temp.fun)(me, &l_resEvt_[Q_EMPTY_SIG]);
 80023ec:	68fb      	ldr	r3, [r7, #12]
 80023ee:	689b      	ldr	r3, [r3, #8]
 80023f0:	490f      	ldr	r1, [pc, #60]	@ (8002430 <QHsm_init_+0x108>)
 80023f2:	68fa      	ldr	r2, [r7, #12]
 80023f4:	0010      	movs	r0, r2
 80023f6:	4798      	blx	r3
    } while (me->temp.fun != s);
 80023f8:	68fb      	ldr	r3, [r7, #12]
 80023fa:	689b      	ldr	r3, [r3, #8]
 80023fc:	6b3a      	ldr	r2, [r7, #48]	@ 0x30
 80023fe:	429a      	cmp	r2, r3
 8002400:	d1d1      	bne.n	80023a6 <QHsm_init_+0x7e>

    // enter the target (possibly recursively) by initial trans.
    QHsm_enter_target_(me, &path[0], ip, qsId);
 8002402:	687b      	ldr	r3, [r7, #4]
 8002404:	6b7a      	ldr	r2, [r7, #52]	@ 0x34
 8002406:	1939      	adds	r1, r7, r4
 8002408:	68f8      	ldr	r0, [r7, #12]
 800240a:	f000 f9dd 	bl	80027c8 <QHsm_enter_target_>

    QS_TOP_INIT_(QS_QEP_INIT_TRAN, path[0]); // output QS record

    me->state.fun = path[0]; // change the current active state
 800240e:	193b      	adds	r3, r7, r4
 8002410:	681a      	ldr	r2, [r3, #0]
 8002412:	68fb      	ldr	r3, [r7, #12]
 8002414:	605a      	str	r2, [r3, #4]
#ifndef Q_UNSAFE
    // establish stable state configuration
    me->temp.uint = QP_DIS_UPDATE(uintptr_t, me->state.uint);
 8002416:	68fb      	ldr	r3, [r7, #12]
 8002418:	685b      	ldr	r3, [r3, #4]
 800241a:	43da      	mvns	r2, r3
 800241c:	68fb      	ldr	r3, [r7, #12]
 800241e:	609a      	str	r2, [r3, #8]
#else
    Q_UNUSED_PAR(r);
#endif
}
 8002420:	46c0      	nop			@ (mov r8, r8)
 8002422:	46bd      	mov	sp, r7
 8002424:	b00f      	add	sp, #60	@ 0x3c
 8002426:	bd90      	pop	{r4, r7, pc}
 8002428:	08002315 	.word	0x08002315
 800242c:	08004048 	.word	0x08004048
 8002430:	08004050 	.word	0x08004050

08002434 <QHsm_dispatch_>:
//............................................................................
//! @private @memberof QHsm
void QHsm_dispatch_(QAsm * const me,
    QEvt const * const e,
    uint_fast8_t const qsId)
{
 8002434:	b590      	push	{r4, r7, lr}
 8002436:	b08f      	sub	sp, #60	@ 0x3c
 8002438:	af00      	add	r7, sp, #0
 800243a:	60f8      	str	r0, [r7, #12]
 800243c:	60b9      	str	r1, [r7, #8]
 800243e:	607a      	str	r2, [r7, #4]
    Q_UNUSED_PAR(qsId);
#endif

    // this state machine must be in a stable state configuration
    // NOTE: stable state configuration is established after every RTC step.
    Q_INVARIANT_LOCAL(300,
 8002440:	68fb      	ldr	r3, [r7, #12]
 8002442:	685a      	ldr	r2, [r3, #4]
 8002444:	68fb      	ldr	r3, [r7, #12]
 8002446:	689b      	ldr	r3, [r3, #8]
 8002448:	43db      	mvns	r3, r3
 800244a:	429a      	cmp	r2, r3
 800244c:	d008      	beq.n	8002460 <QHsm_dispatch_+0x2c>
 800244e:	f7ff fec9 	bl	80021e4 <QF_crit_entry_>
 8002452:	2396      	movs	r3, #150	@ 0x96
 8002454:	005a      	lsls	r2, r3, #1
 8002456:	4b55      	ldr	r3, [pc, #340]	@ (80025ac <QHsm_dispatch_+0x178>)
 8002458:	0011      	movs	r1, r2
 800245a:	0018      	movs	r0, r3
 800245c:	f7fd ffa4 	bl	80003a8 <Q_onError>
        QP_DIS_VERIFY(uintptr_t, me->state.uint, me->temp.uint));

    // the event to be dispatched must be valid
    Q_REQUIRE_LOCAL(310, e != (QEvt *)0);
 8002460:	68bb      	ldr	r3, [r7, #8]
 8002462:	2b00      	cmp	r3, #0
 8002464:	d108      	bne.n	8002478 <QHsm_dispatch_+0x44>
 8002466:	f7ff febd 	bl	80021e4 <QF_crit_entry_>
 800246a:	239b      	movs	r3, #155	@ 0x9b
 800246c:	005a      	lsls	r2, r3, #1
 800246e:	4b4f      	ldr	r3, [pc, #316]	@ (80025ac <QHsm_dispatch_+0x178>)
 8002470:	0011      	movs	r1, r2
 8002472:	0018      	movs	r0, r3
 8002474:	f7fd ff98 	bl	80003a8 <Q_onError>

    QStateHandler s = me->state.fun; // current state
 8002478:	68fb      	ldr	r3, [r7, #12]
 800247a:	685b      	ldr	r3, [r3, #4]
 800247c:	62bb      	str	r3, [r7, #40]	@ 0x28
    QS_CRIT_STAT
    QS_TRAN0_(QS_QEP_DISPATCH, s); // output QS record

    // process the event hierarchically...
    QStateHandler path[QHSM_MAX_NEST_DEPTH_]; // entry path array
    me->temp.fun = s;
 800247e:	68fb      	ldr	r3, [r7, #12]
 8002480:	6aba      	ldr	r2, [r7, #40]	@ 0x28
 8002482:	609a      	str	r2, [r3, #8]
    QState r; // state handler return value
    int_fast8_t ip = QHSM_MAX_NEST_DEPTH_; // path index & fixed loop bound
 8002484:	2306      	movs	r3, #6
 8002486:	633b      	str	r3, [r7, #48]	@ 0x30
    do {
        --ip;
 8002488:	6b3b      	ldr	r3, [r7, #48]	@ 0x30
 800248a:	3b01      	subs	r3, #1
 800248c:	633b      	str	r3, [r7, #48]	@ 0x30

        // the entry path index must stay in range of the path[] array
        Q_INVARIANT_LOCAL(340, ip >= 0);
 800248e:	6b3b      	ldr	r3, [r7, #48]	@ 0x30
 8002490:	2b00      	cmp	r3, #0
 8002492:	da08      	bge.n	80024a6 <QHsm_dispatch_+0x72>
 8002494:	f7ff fea6 	bl	80021e4 <QF_crit_entry_>
 8002498:	23aa      	movs	r3, #170	@ 0xaa
 800249a:	005a      	lsls	r2, r3, #1
 800249c:	4b43      	ldr	r3, [pc, #268]	@ (80025ac <QHsm_dispatch_+0x178>)
 800249e:	0011      	movs	r1, r2
 80024a0:	0018      	movs	r0, r3
 80024a2:	f7fd ff81 	bl	80003a8 <Q_onError>

        s = me->temp.fun; // set s to the superstate set previously
 80024a6:	68fb      	ldr	r3, [r7, #12]
 80024a8:	689b      	ldr	r3, [r3, #8]
 80024aa:	62bb      	str	r3, [r7, #40]	@ 0x28
        path[ip] = s; // store the path to potential tran. source
 80024ac:	2310      	movs	r3, #16
 80024ae:	18fb      	adds	r3, r7, r3
 80024b0:	6b3a      	ldr	r2, [r7, #48]	@ 0x30
 80024b2:	0092      	lsls	r2, r2, #2
 80024b4:	6ab9      	ldr	r1, [r7, #40]	@ 0x28
 80024b6:	50d1      	str	r1, [r2, r3]

        r = (*s)(me, e); // try to handle event e in state s
 80024b8:	68b9      	ldr	r1, [r7, #8]
 80024ba:	68fa      	ldr	r2, [r7, #12]
 80024bc:	6abb      	ldr	r3, [r7, #40]	@ 0x28
 80024be:	0010      	movs	r0, r2
 80024c0:	4798      	blx	r3
 80024c2:	0003      	movs	r3, r0
 80024c4:	637b      	str	r3, [r7, #52]	@ 0x34

        if (r == Q_RET_UNHANDLED) { // unhandled due to a guard?
 80024c6:	6b7b      	ldr	r3, [r7, #52]	@ 0x34
 80024c8:	2b01      	cmp	r3, #1
 80024ca:	d106      	bne.n	80024da <QHsm_dispatch_+0xa6>
            QS_TRAN_ACT_(QS_QEP_UNHANDLED, s); // output QS record

            // find the superstate of 's'
            r = (*s)(me, &l_resEvt_[Q_EMPTY_SIG]);
 80024cc:	4938      	ldr	r1, [pc, #224]	@ (80025b0 <QHsm_dispatch_+0x17c>)
 80024ce:	68fa      	ldr	r2, [r7, #12]
 80024d0:	6abb      	ldr	r3, [r7, #40]	@ 0x28
 80024d2:	0010      	movs	r0, r2
 80024d4:	4798      	blx	r3
 80024d6:	0003      	movs	r3, r0
 80024d8:	637b      	str	r3, [r7, #52]	@ 0x34
        }
    } while (r == Q_RET_SUPER); // loop as long as superstate returned
 80024da:	6b7b      	ldr	r3, [r7, #52]	@ 0x34
 80024dc:	2b00      	cmp	r3, #0
 80024de:	d0d3      	beq.n	8002488 <QHsm_dispatch_+0x54>

    if (r == Q_RET_IGNORED) { // was event e ignored?
 80024e0:	6b7b      	ldr	r3, [r7, #52]	@ 0x34
 80024e2:	2b05      	cmp	r3, #5
 80024e4:	d059      	beq.n	800259a <QHsm_dispatch_+0x166>
        QS_TRAN0_(QS_QEP_IGNORED, me->state.fun); // output QS record
    }
    else if (r == Q_RET_HANDLED) { // did the last handler handle event e?
 80024e6:	6b7b      	ldr	r3, [r7, #52]	@ 0x34
 80024e8:	2b02      	cmp	r3, #2
 80024ea:	d056      	beq.n	800259a <QHsm_dispatch_+0x166>
        QS_TRAN0_(QS_QEP_INTERN_TRAN, s); // output QS record
    }
    else if ((r == Q_RET_TRAN) || (r == Q_RET_TRAN_HIST)) { // tran. taken?
 80024ec:	6b7b      	ldr	r3, [r7, #52]	@ 0x34
 80024ee:	2b03      	cmp	r3, #3
 80024f0:	d002      	beq.n	80024f8 <QHsm_dispatch_+0xc4>
 80024f2:	6b7b      	ldr	r3, [r7, #52]	@ 0x34
 80024f4:	2b04      	cmp	r3, #4
 80024f6:	d147      	bne.n	8002588 <QHsm_dispatch_+0x154>
        // tran. must set temp to the target state
        Q_ASSERT_LOCAL(350, me->temp.fun != Q_STATE_CAST(0));
 80024f8:	68fb      	ldr	r3, [r7, #12]
 80024fa:	689b      	ldr	r3, [r3, #8]
 80024fc:	2b00      	cmp	r3, #0
 80024fe:	d108      	bne.n	8002512 <QHsm_dispatch_+0xde>
 8002500:	f7ff fe70 	bl	80021e4 <QF_crit_entry_>
 8002504:	23af      	movs	r3, #175	@ 0xaf
 8002506:	005a      	lsls	r2, r3, #1
 8002508:	4b28      	ldr	r3, [pc, #160]	@ (80025ac <QHsm_dispatch_+0x178>)
 800250a:	0011      	movs	r1, r2
 800250c:	0018      	movs	r0, r3
 800250e:	f7fd ff4b 	bl	80003a8 <Q_onError>
        if (r == Q_RET_TRAN_HIST) { // tran. to history?
            QS_TRAN_SEG_(QS_QEP_TRAN_HIST, s, me->temp.fun);//output QS record
        }
#endif

        path[0] = me->temp.fun; // save tran. target in path[0]
 8002512:	68fb      	ldr	r3, [r7, #12]
 8002514:	689a      	ldr	r2, [r3, #8]
 8002516:	2310      	movs	r3, #16
 8002518:	18fb      	adds	r3, r7, r3
 800251a:	601a      	str	r2, [r3, #0]

        // exit current state to tran. source...
        for (int_fast8_t iq = QHSM_MAX_NEST_DEPTH_ - 1; iq > ip; --iq) {
 800251c:	2305      	movs	r3, #5
 800251e:	62fb      	str	r3, [r7, #44]	@ 0x2c
 8002520:	e00b      	b.n	800253a <QHsm_dispatch_+0x106>
            // exit from 'path[iq]'
            if ((*path[iq])(me, &l_resEvt_[Q_EXIT_SIG]) == Q_RET_HANDLED) {
 8002522:	2310      	movs	r3, #16
 8002524:	18fb      	adds	r3, r7, r3
 8002526:	6afa      	ldr	r2, [r7, #44]	@ 0x2c
 8002528:	0092      	lsls	r2, r2, #2
 800252a:	58d3      	ldr	r3, [r2, r3]
 800252c:	4921      	ldr	r1, [pc, #132]	@ (80025b4 <QHsm_dispatch_+0x180>)
 800252e:	68fa      	ldr	r2, [r7, #12]
 8002530:	0010      	movs	r0, r2
 8002532:	4798      	blx	r3
        for (int_fast8_t iq = QHSM_MAX_NEST_DEPTH_ - 1; iq > ip; --iq) {
 8002534:	6afb      	ldr	r3, [r7, #44]	@ 0x2c
 8002536:	3b01      	subs	r3, #1
 8002538:	62fb      	str	r3, [r7, #44]	@ 0x2c
 800253a:	6afa      	ldr	r2, [r7, #44]	@ 0x2c
 800253c:	6b3b      	ldr	r3, [r7, #48]	@ 0x30
 800253e:	429a      	cmp	r2, r3
 8002540:	dcef      	bgt.n	8002522 <QHsm_dispatch_+0xee>
                QS_STATE_ACT_(QS_QEP_STATE_EXIT, path[iq]); //output QS record
            }
        }
        path[2] = s; // save tran. source
 8002542:	2410      	movs	r4, #16
 8002544:	193b      	adds	r3, r7, r4
 8002546:	6aba      	ldr	r2, [r7, #40]	@ 0x28
 8002548:	609a      	str	r2, [r3, #8]

        // take the tran...
        ip = QHsm_tran_simple_(me, &path[0], qsId); // try simple tran. first
 800254a:	687a      	ldr	r2, [r7, #4]
 800254c:	1939      	adds	r1, r7, r4
 800254e:	68fb      	ldr	r3, [r7, #12]
 8002550:	0018      	movs	r0, r3
 8002552:	f000 f831 	bl	80025b8 <QHsm_tran_simple_>
 8002556:	0003      	movs	r3, r0
 8002558:	633b      	str	r3, [r7, #48]	@ 0x30
        if (ip < -1) { // not a simple tran.?
 800255a:	6b3b      	ldr	r3, [r7, #48]	@ 0x30
 800255c:	3301      	adds	r3, #1
 800255e:	da07      	bge.n	8002570 <QHsm_dispatch_+0x13c>
            ip = QHsm_tran_complex_(me, &path[0], qsId);
 8002560:	687a      	ldr	r2, [r7, #4]
 8002562:	1939      	adds	r1, r7, r4
 8002564:	68fb      	ldr	r3, [r7, #12]
 8002566:	0018      	movs	r0, r3
 8002568:	f000 f896 	bl	8002698 <QHsm_tran_complex_>
 800256c:	0003      	movs	r3, r0
 800256e:	633b      	str	r3, [r7, #48]	@ 0x30
        }

        // enter the target (possibly recursively) by initial trans.
        QHsm_enter_target_(me, &path[0], ip, qsId);
 8002570:	687b      	ldr	r3, [r7, #4]
 8002572:	6b3a      	ldr	r2, [r7, #48]	@ 0x30
 8002574:	2410      	movs	r4, #16
 8002576:	1939      	adds	r1, r7, r4
 8002578:	68f8      	ldr	r0, [r7, #12]
 800257a:	f000 f925 	bl	80027c8 <QHsm_enter_target_>
        QS_TRAN_END_(QS_QEP_TRAN, s, path[0]); // output QS record

        me->state.fun = path[0]; // change the current active state
 800257e:	193b      	adds	r3, r7, r4
 8002580:	681a      	ldr	r2, [r3, #0]
 8002582:	68fb      	ldr	r3, [r7, #12]
 8002584:	605a      	str	r2, [r3, #4]
 8002586:	e008      	b.n	800259a <QHsm_dispatch_+0x166>
    }
    else {
        Q_ERROR_LOCAL(360); // last state handler returned impossible value
 8002588:	f7ff fe2c 	bl	80021e4 <QF_crit_entry_>
 800258c:	23b4      	movs	r3, #180	@ 0xb4
 800258e:	005a      	lsls	r2, r3, #1
 8002590:	4b06      	ldr	r3, [pc, #24]	@ (80025ac <QHsm_dispatch_+0x178>)
 8002592:	0011      	movs	r1, r2
 8002594:	0018      	movs	r0, r3
 8002596:	f7fd ff07 	bl	80003a8 <Q_onError>
    }

#ifndef Q_UNSAFE
    // establish stable state configuration
    me->temp.uint = QP_DIS_UPDATE(uintptr_t, me->state.uint);
 800259a:	68fb      	ldr	r3, [r7, #12]
 800259c:	685b      	ldr	r3, [r3, #4]
 800259e:	43da      	mvns	r2, r3
 80025a0:	68fb      	ldr	r3, [r7, #12]
 80025a2:	609a      	str	r2, [r3, #8]
#endif
}
 80025a4:	46c0      	nop			@ (mov r8, r8)
 80025a6:	46bd      	mov	sp, r7
 80025a8:	b00f      	add	sp, #60	@ 0x3c
 80025aa:	bd90      	pop	{r4, r7, pc}
 80025ac:	08004048 	.word	0x08004048
 80025b0:	08004050 	.word	0x08004050
 80025b4:	08004060 	.word	0x08004060

080025b8 <QHsm_tran_simple_>:
//! @private @memberof QHsm
static int_fast8_t QHsm_tran_simple_(
    QAsm * const me,
    QStateHandler * const path,
    uint_fast8_t const qsId)
{
 80025b8:	b580      	push	{r7, lr}
 80025ba:	b088      	sub	sp, #32
 80025bc:	af00      	add	r7, sp, #0
 80025be:	60f8      	str	r0, [r7, #12]
 80025c0:	60b9      	str	r1, [r7, #8]
 80025c2:	607a      	str	r2, [r7, #4]
#ifndef Q_SPY
    Q_UNUSED_PAR(qsId);
#endif

    QStateHandler t = path[0];       // target
 80025c4:	68bb      	ldr	r3, [r7, #8]
 80025c6:	681b      	ldr	r3, [r3, #0]
 80025c8:	61bb      	str	r3, [r7, #24]
    QStateHandler const s = path[2]; // source
 80025ca:	68bb      	ldr	r3, [r7, #8]
 80025cc:	689b      	ldr	r3, [r3, #8]
 80025ce:	617b      	str	r3, [r7, #20]
    int_fast8_t ip = 0; // assume to enter the target
 80025d0:	2300      	movs	r3, #0
 80025d2:	61fb      	str	r3, [r7, #28]
    QS_CRIT_STAT

    // (a) check source==target (tran. to self)...
    if (s == t) {
 80025d4:	697a      	ldr	r2, [r7, #20]
 80025d6:	69bb      	ldr	r3, [r7, #24]
 80025d8:	429a      	cmp	r2, r3
 80025da:	d105      	bne.n	80025e8 <QHsm_tran_simple_+0x30>
        // exit source 's' (external tran. semantics)
        if ((*s)(me, &l_resEvt_[Q_EXIT_SIG]) == Q_RET_HANDLED) {
 80025dc:	492b      	ldr	r1, [pc, #172]	@ (800268c <QHsm_tran_simple_+0xd4>)
 80025de:	68fa      	ldr	r2, [r7, #12]
 80025e0:	697b      	ldr	r3, [r7, #20]
 80025e2:	0010      	movs	r0, r2
 80025e4:	4798      	blx	r3
 80025e6:	e04c      	b.n	8002682 <QHsm_tran_simple_+0xca>
            QS_STATE_ACT_(QS_QEP_STATE_EXIT, s); // output QS record
        }
    }
    else { // not a tran. to self
        // find superstate of target in 't'
        QState const r =(*t)(me, &l_resEvt_[Q_EMPTY_SIG]);
 80025e8:	4929      	ldr	r1, [pc, #164]	@ (8002690 <QHsm_tran_simple_+0xd8>)
 80025ea:	68fa      	ldr	r2, [r7, #12]
 80025ec:	69bb      	ldr	r3, [r7, #24]
 80025ee:	0010      	movs	r0, r2
 80025f0:	4798      	blx	r3
 80025f2:	0003      	movs	r3, r0
 80025f4:	613b      	str	r3, [r7, #16]

        // state handler t must return the superstate for Q_EMPTY_SIG
        Q_ASSERT_LOCAL(440, r == Q_RET_SUPER);
 80025f6:	693b      	ldr	r3, [r7, #16]
 80025f8:	2b00      	cmp	r3, #0
 80025fa:	d008      	beq.n	800260e <QHsm_tran_simple_+0x56>
 80025fc:	f7ff fdf2 	bl	80021e4 <QF_crit_entry_>
 8002600:	23dc      	movs	r3, #220	@ 0xdc
 8002602:	005a      	lsls	r2, r3, #1
 8002604:	4b23      	ldr	r3, [pc, #140]	@ (8002694 <QHsm_tran_simple_+0xdc>)
 8002606:	0011      	movs	r1, r2
 8002608:	0018      	movs	r0, r3
 800260a:	f7fd fecd 	bl	80003a8 <Q_onError>

        // state handler t must set temp to the superstate
        Q_ASSERT_LOCAL(450, me->temp.fun != Q_STATE_CAST(0));
 800260e:	68fb      	ldr	r3, [r7, #12]
 8002610:	689b      	ldr	r3, [r3, #8]
 8002612:	2b00      	cmp	r3, #0
 8002614:	d108      	bne.n	8002628 <QHsm_tran_simple_+0x70>
 8002616:	f7ff fde5 	bl	80021e4 <QF_crit_entry_>
 800261a:	23e1      	movs	r3, #225	@ 0xe1
 800261c:	005a      	lsls	r2, r3, #1
 800261e:	4b1d      	ldr	r3, [pc, #116]	@ (8002694 <QHsm_tran_simple_+0xdc>)
 8002620:	0011      	movs	r1, r2
 8002622:	0018      	movs	r0, r3
 8002624:	f7fd fec0 	bl	80003a8 <Q_onError>
#ifdef Q_UNSAFE
        Q_UNUSED_PAR(r);
#endif

        // (b) check source==target->super...
        t = me->temp.fun;
 8002628:	68fb      	ldr	r3, [r7, #12]
 800262a:	689b      	ldr	r3, [r3, #8]
 800262c:	61bb      	str	r3, [r7, #24]
        if (s != t) {
 800262e:	697a      	ldr	r2, [r7, #20]
 8002630:	69bb      	ldr	r3, [r7, #24]
 8002632:	429a      	cmp	r2, r3
 8002634:	d025      	beq.n	8002682 <QHsm_tran_simple_+0xca>
            // find superstate of source 's', ignore the result
            (void)(*s)(me, &l_resEvt_[Q_EMPTY_SIG]);
 8002636:	4916      	ldr	r1, [pc, #88]	@ (8002690 <QHsm_tran_simple_+0xd8>)
 8002638:	68fa      	ldr	r2, [r7, #12]
 800263a:	697b      	ldr	r3, [r7, #20]
 800263c:	0010      	movs	r0, r2
 800263e:	4798      	blx	r3

            // (c) check source->super==target->super...
            if (me->temp.fun == t) {
 8002640:	68fb      	ldr	r3, [r7, #12]
 8002642:	689b      	ldr	r3, [r3, #8]
 8002644:	69ba      	ldr	r2, [r7, #24]
 8002646:	429a      	cmp	r2, r3
 8002648:	d105      	bne.n	8002656 <QHsm_tran_simple_+0x9e>
                // exit source 's'
                if ((*s)(me, &l_resEvt_[Q_EXIT_SIG]) == Q_RET_HANDLED) {
 800264a:	4910      	ldr	r1, [pc, #64]	@ (800268c <QHsm_tran_simple_+0xd4>)
 800264c:	68fa      	ldr	r2, [r7, #12]
 800264e:	697b      	ldr	r3, [r7, #20]
 8002650:	0010      	movs	r0, r2
 8002652:	4798      	blx	r3
 8002654:	e015      	b.n	8002682 <QHsm_tran_simple_+0xca>
                    QS_STATE_ACT_(QS_QEP_STATE_EXIT, s); // output QS record
                }
            }
            // (d) check source->super==target...
            else if (me->temp.fun == path[0]) {
 8002656:	68fb      	ldr	r3, [r7, #12]
 8002658:	689a      	ldr	r2, [r3, #8]
 800265a:	68bb      	ldr	r3, [r7, #8]
 800265c:	681b      	ldr	r3, [r3, #0]
 800265e:	429a      	cmp	r2, r3
 8002660:	d108      	bne.n	8002674 <QHsm_tran_simple_+0xbc>
                // exit source 's'
                if ((*s)(me, &l_resEvt_[Q_EXIT_SIG]) == Q_RET_HANDLED) {
 8002662:	490a      	ldr	r1, [pc, #40]	@ (800268c <QHsm_tran_simple_+0xd4>)
 8002664:	68fa      	ldr	r2, [r7, #12]
 8002666:	697b      	ldr	r3, [r7, #20]
 8002668:	0010      	movs	r0, r2
 800266a:	4798      	blx	r3
                    QS_STATE_ACT_(QS_QEP_STATE_EXIT, s); // output QS record
                }
                ip = -1; // set entry path index not to enter the target
 800266c:	2301      	movs	r3, #1
 800266e:	425b      	negs	r3, r3
 8002670:	61fb      	str	r3, [r7, #28]
 8002672:	e006      	b.n	8002682 <QHsm_tran_simple_+0xca>
            }
            else {
                path[1] = t; // save the superstate of target
 8002674:	68bb      	ldr	r3, [r7, #8]
 8002676:	3304      	adds	r3, #4
 8002678:	69ba      	ldr	r2, [r7, #24]
 800267a:	601a      	str	r2, [r3, #0]
                ip = -2; // cause execution of QHsm_tran_complex_()
 800267c:	2302      	movs	r3, #2
 800267e:	425b      	negs	r3, r3
 8002680:	61fb      	str	r3, [r7, #28]
            }
        }
    }
    // return: # levels in path[] for QHsm_enter_target_()
    // or indication to call QHsm_tran_complex_()
    return ip;
 8002682:	69fb      	ldr	r3, [r7, #28]
}
 8002684:	0018      	movs	r0, r3
 8002686:	46bd      	mov	sp, r7
 8002688:	b008      	add	sp, #32
 800268a:	bd80      	pop	{r7, pc}
 800268c:	08004060 	.word	0x08004060
 8002690:	08004050 	.word	0x08004050
 8002694:	08004048 	.word	0x08004048

08002698 <QHsm_tran_complex_>:
//............................................................................
//! @private @memberof QHsm
static int_fast8_t QHsm_tran_complex_(QAsm * const me,
    QStateHandler * const path,
    uint_fast8_t const qsId)
{
 8002698:	b580      	push	{r7, lr}
 800269a:	b08a      	sub	sp, #40	@ 0x28
 800269c:	af00      	add	r7, sp, #0
 800269e:	60f8      	str	r0, [r7, #12]
 80026a0:	60b9      	str	r1, [r7, #8]
 80026a2:	607a      	str	r2, [r7, #4]
#ifndef Q_SPY
    Q_UNUSED_PAR(qsId);
#endif

    QStateHandler s = path[2];             // tran. source
 80026a4:	68bb      	ldr	r3, [r7, #8]
 80026a6:	689b      	ldr	r3, [r3, #8]
 80026a8:	627b      	str	r3, [r7, #36]	@ 0x24
    QStateHandler const ss = me->temp.fun; // source->super
 80026aa:	68fb      	ldr	r3, [r7, #12]
 80026ac:	689b      	ldr	r3, [r3, #8]
 80026ae:	617b      	str	r3, [r7, #20]
    me->temp.fun = path[1];                // target->super
 80026b0:	68bb      	ldr	r3, [r7, #8]
 80026b2:	685a      	ldr	r2, [r3, #4]
 80026b4:	68fb      	ldr	r3, [r7, #12]
 80026b6:	609a      	str	r2, [r3, #8]
    int_fast8_t iq = 0; // assume that LCA is NOT found
 80026b8:	2300      	movs	r3, #0
 80026ba:	623b      	str	r3, [r7, #32]
    QState r;

    // (e) check rest of source == target->super->super...
    // and store the target entry path along the way
    int_fast8_t ip = 0; // path index & fixed loop bound (one below [1])
 80026bc:	2300      	movs	r3, #0
 80026be:	61bb      	str	r3, [r7, #24]
    do {
        ++ip;
 80026c0:	69bb      	ldr	r3, [r7, #24]
 80026c2:	3301      	adds	r3, #1
 80026c4:	61bb      	str	r3, [r7, #24]

        // the entry path index must stay in range of the path[] array
        Q_INVARIANT_LOCAL(540, ip < QHSM_MAX_NEST_DEPTH_);
 80026c6:	69bb      	ldr	r3, [r7, #24]
 80026c8:	2b05      	cmp	r3, #5
 80026ca:	dd08      	ble.n	80026de <QHsm_tran_complex_+0x46>
 80026cc:	f7ff fd8a 	bl	80021e4 <QF_crit_entry_>
 80026d0:	2387      	movs	r3, #135	@ 0x87
 80026d2:	009a      	lsls	r2, r3, #2
 80026d4:	4b39      	ldr	r3, [pc, #228]	@ (80027bc <QHsm_tran_complex_+0x124>)
 80026d6:	0011      	movs	r1, r2
 80026d8:	0018      	movs	r0, r3
 80026da:	f7fd fe65 	bl	80003a8 <Q_onError>

        path[ip] = me->temp.fun; // store temp in the entry path array
 80026de:	69bb      	ldr	r3, [r7, #24]
 80026e0:	009b      	lsls	r3, r3, #2
 80026e2:	68ba      	ldr	r2, [r7, #8]
 80026e4:	18d3      	adds	r3, r2, r3
 80026e6:	68fa      	ldr	r2, [r7, #12]
 80026e8:	6892      	ldr	r2, [r2, #8]
 80026ea:	601a      	str	r2, [r3, #0]

        // find superstate of 'm_temp.fun'
        r = (*me->temp.fun)(me, &l_resEvt_[Q_EMPTY_SIG]);
 80026ec:	68fb      	ldr	r3, [r7, #12]
 80026ee:	689b      	ldr	r3, [r3, #8]
 80026f0:	4933      	ldr	r1, [pc, #204]	@ (80027c0 <QHsm_tran_complex_+0x128>)
 80026f2:	68fa      	ldr	r2, [r7, #12]
 80026f4:	0010      	movs	r0, r2
 80026f6:	4798      	blx	r3
 80026f8:	0003      	movs	r3, r0
 80026fa:	61fb      	str	r3, [r7, #28]
        if (me->temp.fun == s) { // is temp the LCA?
 80026fc:	68fb      	ldr	r3, [r7, #12]
 80026fe:	689b      	ldr	r3, [r3, #8]
 8002700:	6a7a      	ldr	r2, [r7, #36]	@ 0x24
 8002702:	429a      	cmp	r2, r3
 8002704:	d102      	bne.n	800270c <QHsm_tran_complex_+0x74>
            iq = 1; // indicate that LCA is found
 8002706:	2301      	movs	r3, #1
 8002708:	623b      	str	r3, [r7, #32]
            break;
 800270a:	e002      	b.n	8002712 <QHsm_tran_complex_+0x7a>
        }
    } while (r == Q_RET_SUPER); // loop as long as superstate reached
 800270c:	69fb      	ldr	r3, [r7, #28]
 800270e:	2b00      	cmp	r3, #0
 8002710:	d0d6      	beq.n	80026c0 <QHsm_tran_complex_+0x28>

    if (iq == 0) { // the LCA not found yet?
 8002712:	6a3b      	ldr	r3, [r7, #32]
 8002714:	2b00      	cmp	r3, #0
 8002716:	d14c      	bne.n	80027b2 <QHsm_tran_complex_+0x11a>
        QS_CRIT_STAT

#ifndef Q_SPY
        // exit the source 's', ignore the result
        (void)(*s)(me, &l_resEvt_[Q_EXIT_SIG]);
 8002718:	492a      	ldr	r1, [pc, #168]	@ (80027c4 <QHsm_tran_complex_+0x12c>)
 800271a:	68fa      	ldr	r2, [r7, #12]
 800271c:	6a7b      	ldr	r3, [r7, #36]	@ 0x24
 800271e:	0010      	movs	r0, r2
 8002720:	4798      	blx	r3
        }
#endif // def Q_SPY

        // (f) check the rest of
        // source->super... == target->super->super...
        s = ss; // source->super
 8002722:	697b      	ldr	r3, [r7, #20]
 8002724:	627b      	str	r3, [r7, #36]	@ 0x24
        r = Q_RET_IGNORED; // assume that the LCA NOT found
 8002726:	2305      	movs	r3, #5
 8002728:	61fb      	str	r3, [r7, #28]
        iq = ip; // outside for(;;) to comply with MC:2023 R14.2
 800272a:	69bb      	ldr	r3, [r7, #24]
 800272c:	623b      	str	r3, [r7, #32]
        for (; iq >= 0; --iq) {
 800272e:	e010      	b.n	8002752 <QHsm_tran_complex_+0xba>
            if (s == path[iq]) { // is this the LCA?
 8002730:	6a3b      	ldr	r3, [r7, #32]
 8002732:	009b      	lsls	r3, r3, #2
 8002734:	68ba      	ldr	r2, [r7, #8]
 8002736:	18d3      	adds	r3, r2, r3
 8002738:	681b      	ldr	r3, [r3, #0]
 800273a:	6a7a      	ldr	r2, [r7, #36]	@ 0x24
 800273c:	429a      	cmp	r2, r3
 800273e:	d105      	bne.n	800274c <QHsm_tran_complex_+0xb4>
                r = Q_RET_HANDLED; // indicate the LCA found
 8002740:	2302      	movs	r3, #2
 8002742:	61fb      	str	r3, [r7, #28]
                ip = iq - 1; // do not enter the LCA
 8002744:	6a3b      	ldr	r3, [r7, #32]
 8002746:	3b01      	subs	r3, #1
 8002748:	61bb      	str	r3, [r7, #24]
                break;
 800274a:	e005      	b.n	8002758 <QHsm_tran_complex_+0xc0>
        for (; iq >= 0; --iq) {
 800274c:	6a3b      	ldr	r3, [r7, #32]
 800274e:	3b01      	subs	r3, #1
 8002750:	623b      	str	r3, [r7, #32]
 8002752:	6a3b      	ldr	r3, [r7, #32]
 8002754:	2b00      	cmp	r3, #0
 8002756:	daeb      	bge.n	8002730 <QHsm_tran_complex_+0x98>
            }
        }

        if (r != Q_RET_HANDLED) { // the LCA still not found?
 8002758:	69fb      	ldr	r3, [r7, #28]
 800275a:	2b02      	cmp	r3, #2
 800275c:	d029      	beq.n	80027b2 <QHsm_tran_complex_+0x11a>
            // (g) check each source->super->...
            // for each target->super...
            do {
                // exit from 's'
                if ((*s)(me, &l_resEvt_[Q_EXIT_SIG]) == Q_RET_HANDLED) {
 800275e:	4919      	ldr	r1, [pc, #100]	@ (80027c4 <QHsm_tran_complex_+0x12c>)
 8002760:	68fa      	ldr	r2, [r7, #12]
 8002762:	6a7b      	ldr	r3, [r7, #36]	@ 0x24
 8002764:	0010      	movs	r0, r2
 8002766:	4798      	blx	r3
 8002768:	0003      	movs	r3, r0
 800276a:	2b02      	cmp	r3, #2
 800276c:	d104      	bne.n	8002778 <QHsm_tran_complex_+0xe0>
                    QS_STATE_ACT_(QS_QEP_STATE_EXIT, s);
                    // find superstate of 's', ignore the result
                    (void)(*s)(me, &l_resEvt_[Q_EMPTY_SIG]);
 800276e:	4914      	ldr	r1, [pc, #80]	@ (80027c0 <QHsm_tran_complex_+0x128>)
 8002770:	68fa      	ldr	r2, [r7, #12]
 8002772:	6a7b      	ldr	r3, [r7, #36]	@ 0x24
 8002774:	0010      	movs	r0, r2
 8002776:	4798      	blx	r3
                }
                s = me->temp.fun; // set to super of s
 8002778:	68fb      	ldr	r3, [r7, #12]
 800277a:	689b      	ldr	r3, [r3, #8]
 800277c:	627b      	str	r3, [r7, #36]	@ 0x24
                // NOTE: loop bounded per invariant:540
                iq = ip; // outside for(;;) to comply with MC:2023 R14.2
 800277e:	69bb      	ldr	r3, [r7, #24]
 8002780:	623b      	str	r3, [r7, #32]
                for (; iq >= 0; --iq) {
 8002782:	e010      	b.n	80027a6 <QHsm_tran_complex_+0x10e>
                    if (s == path[iq]) { // is this the LCA?
 8002784:	6a3b      	ldr	r3, [r7, #32]
 8002786:	009b      	lsls	r3, r3, #2
 8002788:	68ba      	ldr	r2, [r7, #8]
 800278a:	18d3      	adds	r3, r2, r3
 800278c:	681b      	ldr	r3, [r3, #0]
 800278e:	6a7a      	ldr	r2, [r7, #36]	@ 0x24
 8002790:	429a      	cmp	r2, r3
 8002792:	d105      	bne.n	80027a0 <QHsm_tran_complex_+0x108>
                        ip = iq - 1; // indicate not to enter the LCA
 8002794:	6a3b      	ldr	r3, [r7, #32]
 8002796:	3b01      	subs	r3, #1
 8002798:	61bb      	str	r3, [r7, #24]
                        r = Q_RET_HANDLED; // cause break from outer loop
 800279a:	2302      	movs	r3, #2
 800279c:	61fb      	str	r3, [r7, #28]
                        break;
 800279e:	e005      	b.n	80027ac <QHsm_tran_complex_+0x114>
                for (; iq >= 0; --iq) {
 80027a0:	6a3b      	ldr	r3, [r7, #32]
 80027a2:	3b01      	subs	r3, #1
 80027a4:	623b      	str	r3, [r7, #32]
 80027a6:	6a3b      	ldr	r3, [r7, #32]
 80027a8:	2b00      	cmp	r3, #0
 80027aa:	daeb      	bge.n	8002784 <QHsm_tran_complex_+0xec>
                    }
                }
            } while (r != Q_RET_HANDLED);
 80027ac:	69fb      	ldr	r3, [r7, #28]
 80027ae:	2b02      	cmp	r3, #2
 80027b0:	d1d5      	bne.n	800275e <QHsm_tran_complex_+0xc6>
        }
    }
    // # levels in path[] for QHsm_enter_target_()
    return ip;
 80027b2:	69bb      	ldr	r3, [r7, #24]
}
 80027b4:	0018      	movs	r0, r3
 80027b6:	46bd      	mov	sp, r7
 80027b8:	b00a      	add	sp, #40	@ 0x28
 80027ba:	bd80      	pop	{r7, pc}
 80027bc:	08004048 	.word	0x08004048
 80027c0:	08004050 	.word	0x08004050
 80027c4:	08004060 	.word	0x08004060

080027c8 <QHsm_enter_target_>:
//! @private @memberof QHsm
static void QHsm_enter_target_(QAsm * const me,
    QStateHandler * const path,
    int_fast8_t const depth,
    uint_fast8_t const qsId)
{
 80027c8:	b580      	push	{r7, lr}
 80027ca:	b088      	sub	sp, #32
 80027cc:	af00      	add	r7, sp, #0
 80027ce:	60f8      	str	r0, [r7, #12]
 80027d0:	60b9      	str	r1, [r7, #8]
 80027d2:	607a      	str	r2, [r7, #4]
 80027d4:	603b      	str	r3, [r7, #0]
#ifndef Q_SPY
    Q_UNUSED_PAR(qsId);
#endif

    QS_CRIT_STAT
    int_fast8_t ip = depth;
 80027d6:	687b      	ldr	r3, [r7, #4]
 80027d8:	61fb      	str	r3, [r7, #28]
    // execute entry actions from LCA to tran target...
    for (; ip >= 0; --ip) {
 80027da:	e00b      	b.n	80027f4 <QHsm_enter_target_+0x2c>
        // enter 'path[ip]'
        if ((*path[ip])(me, &l_resEvt_[Q_ENTRY_SIG]) == Q_RET_HANDLED) {
 80027dc:	69fb      	ldr	r3, [r7, #28]
 80027de:	009b      	lsls	r3, r3, #2
 80027e0:	68ba      	ldr	r2, [r7, #8]
 80027e2:	18d3      	adds	r3, r2, r3
 80027e4:	681b      	ldr	r3, [r3, #0]
 80027e6:	4936      	ldr	r1, [pc, #216]	@ (80028c0 <QHsm_enter_target_+0xf8>)
 80027e8:	68fa      	ldr	r2, [r7, #12]
 80027ea:	0010      	movs	r0, r2
 80027ec:	4798      	blx	r3
    for (; ip >= 0; --ip) {
 80027ee:	69fb      	ldr	r3, [r7, #28]
 80027f0:	3b01      	subs	r3, #1
 80027f2:	61fb      	str	r3, [r7, #28]
 80027f4:	69fb      	ldr	r3, [r7, #28]
 80027f6:	2b00      	cmp	r3, #0
 80027f8:	daf0      	bge.n	80027dc <QHsm_enter_target_+0x14>
            QS_STATE_ACT_(QS_QEP_STATE_ENTRY, path[ip]);
        }
    }
    QStateHandler t = path[0]; // tran. target
 80027fa:	68bb      	ldr	r3, [r7, #8]
 80027fc:	681b      	ldr	r3, [r3, #0]
 80027fe:	61bb      	str	r3, [r7, #24]

    // drill into the target hierarchy with nested initial trans...

    // take initial tran in 't'
    while ((*t)(me, &l_resEvt_[Q_INIT_SIG]) == Q_RET_TRAN) { // tran. taken?
 8002800:	e050      	b.n	80028a4 <QHsm_enter_target_+0xdc>
        // temp holds the target of initial tran. and must be valid
        Q_ASSERT_LOCAL(650, me->temp.fun != Q_STATE_CAST(0));
 8002802:	68fb      	ldr	r3, [r7, #12]
 8002804:	689b      	ldr	r3, [r3, #8]
 8002806:	2b00      	cmp	r3, #0
 8002808:	d107      	bne.n	800281a <QHsm_enter_target_+0x52>
 800280a:	f7ff fceb 	bl	80021e4 <QF_crit_entry_>
 800280e:	4a2d      	ldr	r2, [pc, #180]	@ (80028c4 <QHsm_enter_target_+0xfc>)
 8002810:	4b2d      	ldr	r3, [pc, #180]	@ (80028c8 <QHsm_enter_target_+0x100>)
 8002812:	0011      	movs	r1, r2
 8002814:	0018      	movs	r0, r3
 8002816:	f7fd fdc7 	bl	80003a8 <Q_onError>

        QS_TRAN_SEG_(QS_QEP_STATE_INIT, t, me->temp.fun); // output QS record

        // find superstate of initial tran. target...
        ip = -1; // entry path index and fixed loop bound (one below [0])
 800281a:	2301      	movs	r3, #1
 800281c:	425b      	negs	r3, r3
 800281e:	61fb      	str	r3, [r7, #28]
        do {
            ++ip;
 8002820:	69fb      	ldr	r3, [r7, #28]
 8002822:	3301      	adds	r3, #1
 8002824:	61fb      	str	r3, [r7, #28]
            // the entry path index must stay in range of the path[] array
            Q_INVARIANT_LOCAL(660, ip < QHSM_MAX_NEST_DEPTH_);
 8002826:	69fb      	ldr	r3, [r7, #28]
 8002828:	2b05      	cmp	r3, #5
 800282a:	dd08      	ble.n	800283e <QHsm_enter_target_+0x76>
 800282c:	f7ff fcda 	bl	80021e4 <QF_crit_entry_>
 8002830:	23a5      	movs	r3, #165	@ 0xa5
 8002832:	009a      	lsls	r2, r3, #2
 8002834:	4b24      	ldr	r3, [pc, #144]	@ (80028c8 <QHsm_enter_target_+0x100>)
 8002836:	0011      	movs	r1, r2
 8002838:	0018      	movs	r0, r3
 800283a:	f7fd fdb5 	bl	80003a8 <Q_onError>

            path[ip] = me->temp.fun; // store the entry path
 800283e:	69fb      	ldr	r3, [r7, #28]
 8002840:	009b      	lsls	r3, r3, #2
 8002842:	68ba      	ldr	r2, [r7, #8]
 8002844:	18d3      	adds	r3, r2, r3
 8002846:	68fa      	ldr	r2, [r7, #12]
 8002848:	6892      	ldr	r2, [r2, #8]
 800284a:	601a      	str	r2, [r3, #0]

            // find superstate of 'temp.fun'
            QState const r = (*me->temp.fun)(me, &l_resEvt_[Q_EMPTY_SIG]);
 800284c:	68fb      	ldr	r3, [r7, #12]
 800284e:	689b      	ldr	r3, [r3, #8]
 8002850:	491e      	ldr	r1, [pc, #120]	@ (80028cc <QHsm_enter_target_+0x104>)
 8002852:	68fa      	ldr	r2, [r7, #12]
 8002854:	0010      	movs	r0, r2
 8002856:	4798      	blx	r3
 8002858:	0003      	movs	r3, r0
 800285a:	617b      	str	r3, [r7, #20]

            // the temp superstate handler must return superstate
            Q_ASSERT_LOCAL(680, r == Q_RET_SUPER);
 800285c:	697b      	ldr	r3, [r7, #20]
 800285e:	2b00      	cmp	r3, #0
 8002860:	d008      	beq.n	8002874 <QHsm_enter_target_+0xac>
 8002862:	f7ff fcbf 	bl	80021e4 <QF_crit_entry_>
 8002866:	23aa      	movs	r3, #170	@ 0xaa
 8002868:	009a      	lsls	r2, r3, #2
 800286a:	4b17      	ldr	r3, [pc, #92]	@ (80028c8 <QHsm_enter_target_+0x100>)
 800286c:	0011      	movs	r1, r2
 800286e:	0018      	movs	r0, r3
 8002870:	f7fd fd9a 	bl	80003a8 <Q_onError>
#ifdef Q_UNSAFE
            Q_UNUSED_PAR(r);
#endif
        } while (me->temp.fun != t); //loop as long as tran.target not reached
 8002874:	68fb      	ldr	r3, [r7, #12]
 8002876:	689b      	ldr	r3, [r3, #8]
 8002878:	69ba      	ldr	r2, [r7, #24]
 800287a:	429a      	cmp	r2, r3
 800287c:	d1d0      	bne.n	8002820 <QHsm_enter_target_+0x58>

        // retrace the entry path in reverse (correct) order...
        for (; ip >= 0; --ip) {
 800287e:	e00b      	b.n	8002898 <QHsm_enter_target_+0xd0>
            // enter 'path[ip]'
            if ((*path[ip])(me, &l_resEvt_[Q_ENTRY_SIG]) == Q_RET_HANDLED) {
 8002880:	69fb      	ldr	r3, [r7, #28]
 8002882:	009b      	lsls	r3, r3, #2
 8002884:	68ba      	ldr	r2, [r7, #8]
 8002886:	18d3      	adds	r3, r2, r3
 8002888:	681b      	ldr	r3, [r3, #0]
 800288a:	490d      	ldr	r1, [pc, #52]	@ (80028c0 <QHsm_enter_target_+0xf8>)
 800288c:	68fa      	ldr	r2, [r7, #12]
 800288e:	0010      	movs	r0, r2
 8002890:	4798      	blx	r3
        for (; ip >= 0; --ip) {
 8002892:	69fb      	ldr	r3, [r7, #28]
 8002894:	3b01      	subs	r3, #1
 8002896:	61fb      	str	r3, [r7, #28]
 8002898:	69fb      	ldr	r3, [r7, #28]
 800289a:	2b00      	cmp	r3, #0
 800289c:	daf0      	bge.n	8002880 <QHsm_enter_target_+0xb8>
                QS_STATE_ACT_(QS_QEP_STATE_ENTRY, path[ip]);//output QS record
            }
        }
        t = path[0]; // tran. target becomes the new source
 800289e:	68bb      	ldr	r3, [r7, #8]
 80028a0:	681b      	ldr	r3, [r3, #0]
 80028a2:	61bb      	str	r3, [r7, #24]
    while ((*t)(me, &l_resEvt_[Q_INIT_SIG]) == Q_RET_TRAN) { // tran. taken?
 80028a4:	490a      	ldr	r1, [pc, #40]	@ (80028d0 <QHsm_enter_target_+0x108>)
 80028a6:	68fa      	ldr	r2, [r7, #12]
 80028a8:	69bb      	ldr	r3, [r7, #24]
 80028aa:	0010      	movs	r0, r2
 80028ac:	4798      	blx	r3
 80028ae:	0003      	movs	r3, r0
 80028b0:	2b03      	cmp	r3, #3
 80028b2:	d0a6      	beq.n	8002802 <QHsm_enter_target_+0x3a>
    }
}
 80028b4:	46c0      	nop			@ (mov r8, r8)
 80028b6:	46c0      	nop			@ (mov r8, r8)
 80028b8:	46bd      	mov	sp, r7
 80028ba:	b008      	add	sp, #32
 80028bc:	bd80      	pop	{r7, pc}
 80028be:	46c0      	nop			@ (mov r8, r8)
 80028c0:	08004058 	.word	0x08004058
 80028c4:	0000028a 	.word	0x0000028a
 80028c8:	08004048 	.word	0x08004048
 80028cc:	08004050 	.word	0x08004050
 80028d0:	08004068 	.word	0x08004068

080028d4 <QHsm_isIn_>:

//............................................................................
//! @private @memberof QHsm
bool QHsm_isIn_(QAsm * const me,
    QStateHandler const stateHndl)
{
 80028d4:	b580      	push	{r7, lr}
 80028d6:	b086      	sub	sp, #24
 80028d8:	af00      	add	r7, sp, #0
 80028da:	6078      	str	r0, [r7, #4]
 80028dc:	6039      	str	r1, [r7, #0]
    // this state machine must be in a stable state configuration
    // NOTE: stable state configuration is established after every RTC step.
    Q_INVARIANT_LOCAL(700,
 80028de:	687b      	ldr	r3, [r7, #4]
 80028e0:	685a      	ldr	r2, [r3, #4]
 80028e2:	687b      	ldr	r3, [r7, #4]
 80028e4:	689b      	ldr	r3, [r3, #8]
 80028e6:	43db      	mvns	r3, r3
 80028e8:	429a      	cmp	r2, r3
 80028ea:	d008      	beq.n	80028fe <QHsm_isIn_+0x2a>
 80028ec:	f7ff fc7a 	bl	80021e4 <QF_crit_entry_>
 80028f0:	23af      	movs	r3, #175	@ 0xaf
 80028f2:	009a      	lsls	r2, r3, #2
 80028f4:	4b16      	ldr	r3, [pc, #88]	@ (8002950 <QHsm_isIn_+0x7c>)
 80028f6:	0011      	movs	r1, r2
 80028f8:	0018      	movs	r0, r3
 80028fa:	f7fd fd55 	bl	80003a8 <Q_onError>
        QP_DIS_VERIFY(uintptr_t, me->state.uint, me->temp.uint));

    bool inState = false; // assume that this HSM is NOT in 'stateHndl'
 80028fe:	2317      	movs	r3, #23
 8002900:	18fb      	adds	r3, r7, r3
 8002902:	2200      	movs	r2, #0
 8002904:	701a      	strb	r2, [r3, #0]

    // scan the state hierarchy bottom-up
    QStateHandler s = me->state.fun;
 8002906:	687b      	ldr	r3, [r7, #4]
 8002908:	685b      	ldr	r3, [r3, #4]
 800290a:	613b      	str	r3, [r7, #16]
    QState r;
    do {
        if (s == stateHndl) { // do the states match?
 800290c:	693a      	ldr	r2, [r7, #16]
 800290e:	683b      	ldr	r3, [r7, #0]
 8002910:	429a      	cmp	r2, r3
 8002912:	d104      	bne.n	800291e <QHsm_isIn_+0x4a>
            inState = true;  // 'true' means that match found
 8002914:	2317      	movs	r3, #23
 8002916:	18fb      	adds	r3, r7, r3
 8002918:	2201      	movs	r2, #1
 800291a:	701a      	strb	r2, [r3, #0]
            break; // break out of the for-loop
 800291c:	e00c      	b.n	8002938 <QHsm_isIn_+0x64>
        }

        // find superstate of 's'
        r = (*s)(me, &l_resEvt_[Q_EMPTY_SIG]);
 800291e:	490d      	ldr	r1, [pc, #52]	@ (8002954 <QHsm_isIn_+0x80>)
 8002920:	687a      	ldr	r2, [r7, #4]
 8002922:	693b      	ldr	r3, [r7, #16]
 8002924:	0010      	movs	r0, r2
 8002926:	4798      	blx	r3
 8002928:	0003      	movs	r3, r0
 800292a:	60fb      	str	r3, [r7, #12]
        s = me->temp.fun;
 800292c:	687b      	ldr	r3, [r7, #4]
 800292e:	689b      	ldr	r3, [r3, #8]
 8002930:	613b      	str	r3, [r7, #16]
    } while (r == Q_RET_SUPER);
 8002932:	68fb      	ldr	r3, [r7, #12]
 8002934:	2b00      	cmp	r3, #0
 8002936:	d0e9      	beq.n	800290c <QHsm_isIn_+0x38>

#ifndef Q_UNSAFE
    // restore the invariant (stable state configuration)
    me->temp.uint = QP_DIS_UPDATE(uintptr_t, me->state.uint);
 8002938:	687b      	ldr	r3, [r7, #4]
 800293a:	685b      	ldr	r3, [r3, #4]
 800293c:	43da      	mvns	r2, r3
 800293e:	687b      	ldr	r3, [r7, #4]
 8002940:	609a      	str	r2, [r3, #8]
#endif
    return inState; // return the status
 8002942:	2317      	movs	r3, #23
 8002944:	18fb      	adds	r3, r7, r3
 8002946:	781b      	ldrb	r3, [r3, #0]
}
 8002948:	0018      	movs	r0, r3
 800294a:	46bd      	mov	sp, r7
 800294c:	b006      	add	sp, #24
 800294e:	bd80      	pop	{r7, pc}
 8002950:	08004048 	.word	0x08004048
 8002954:	08004050 	.word	0x08004050

08002958 <QHsm_getStateHandler_>:
    return me->super.state.fun;
}

//............................................................................
//! @private @memberof QHsm
QStateHandler QHsm_getStateHandler_(QAsm const * const me) {
 8002958:	b580      	push	{r7, lr}
 800295a:	b082      	sub	sp, #8
 800295c:	af00      	add	r7, sp, #0
 800295e:	6078      	str	r0, [r7, #4]
    // NOTE: this function does NOT apply critical section, so it can
    // be safely called from an already established critical section.
    return me->state.fun;
 8002960:	687b      	ldr	r3, [r7, #4]
 8002962:	685b      	ldr	r3, [r3, #4]
}
 8002964:	0018      	movs	r0, r3
 8002966:	46bd      	mov	sp, r7
 8002968:	b002      	add	sp, #8
 800296a:	bd80      	pop	{r7, pc}

0800296c <QEvt_ctor>:
// QP version string embedded in the binary image
char const QP_versionStr[24] = "QP/C " QP_VERSION_STR;

//----------------------------------------------------------------------------
//! @public @memberof QEvt
void QEvt_ctor(QEvt * const me, enum_t const sig) {
 800296c:	b580      	push	{r7, lr}
 800296e:	b082      	sub	sp, #8
 8002970:	af00      	add	r7, sp, #0
 8002972:	6078      	str	r0, [r7, #4]
 8002974:	6039      	str	r1, [r7, #0]
    me->sig      = (QSignal)sig;
 8002976:	683b      	ldr	r3, [r7, #0]
 8002978:	b29a      	uxth	r2, r3
 800297a:	687b      	ldr	r3, [r7, #4]
 800297c:	801a      	strh	r2, [r3, #0]
    me->poolNum_ = 0x00U; // not a pool event
 800297e:	687b      	ldr	r3, [r7, #4]
 8002980:	2200      	movs	r2, #0
 8002982:	709a      	strb	r2, [r3, #2]
    me->refCtr_  = 0xE0U; // use as an "event marker"
 8002984:	687b      	ldr	r3, [r7, #4]
 8002986:	22e0      	movs	r2, #224	@ 0xe0
 8002988:	70da      	strb	r2, [r3, #3]
}
 800298a:	46c0      	nop			@ (mov r8, r8)
 800298c:	46bd      	mov	sp, r7
 800298e:	b002      	add	sp, #8
 8002990:	bd80      	pop	{r7, pc}
	...

08002994 <QEvt_refCtr_inc_>:
    Q_UNUSED_PAR(dummy);
    return me;
}
//............................................................................
//! @private @memberof QEvt
void QEvt_refCtr_inc_(QEvt const * const me) {
 8002994:	b580      	push	{r7, lr}
 8002996:	b084      	sub	sp, #16
 8002998:	af00      	add	r7, sp, #0
 800299a:	6078      	str	r0, [r7, #4]
    // NOTE: this function must be called *inside* a critical section

    // the event reference count must not exceed the number of AOs
    // in the system plus each AO possibly holding one event reference
    Q_REQUIRE_INCRIT(200, me->refCtr_ < (QF_MAX_ACTIVE + QF_MAX_ACTIVE));
 800299c:	687b      	ldr	r3, [r7, #4]
 800299e:	78db      	ldrb	r3, [r3, #3]
 80029a0:	2b3f      	cmp	r3, #63	@ 0x3f
 80029a2:	d904      	bls.n	80029ae <QEvt_refCtr_inc_+0x1a>
 80029a4:	4b08      	ldr	r3, [pc, #32]	@ (80029c8 <QEvt_refCtr_inc_+0x34>)
 80029a6:	21c8      	movs	r1, #200	@ 0xc8
 80029a8:	0018      	movs	r0, r3
 80029aa:	f7fd fcfd 	bl	80003a8 <Q_onError>

    QEvt * const mut_me = (QEvt*)me; // cast 'const' away
 80029ae:	687b      	ldr	r3, [r7, #4]
 80029b0:	60fb      	str	r3, [r7, #12]
    ++mut_me->refCtr_;
 80029b2:	68fb      	ldr	r3, [r7, #12]
 80029b4:	78db      	ldrb	r3, [r3, #3]
 80029b6:	3301      	adds	r3, #1
 80029b8:	b2da      	uxtb	r2, r3
 80029ba:	68fb      	ldr	r3, [r7, #12]
 80029bc:	70da      	strb	r2, [r3, #3]
}
 80029be:	46c0      	nop			@ (mov r8, r8)
 80029c0:	46bd      	mov	sp, r7
 80029c2:	b004      	add	sp, #16
 80029c4:	bd80      	pop	{r7, pc}
 80029c6:	46c0      	nop			@ (mov r8, r8)
 80029c8:	08004080 	.word	0x08004080

080029cc <QEvt_refCtr_dec_>:
//............................................................................
//! @private @memberof QEvt
void QEvt_refCtr_dec_(QEvt const * const me) {
 80029cc:	b580      	push	{r7, lr}
 80029ce:	b084      	sub	sp, #16
 80029d0:	af00      	add	r7, sp, #0
 80029d2:	6078      	str	r0, [r7, #4]
    // NOTE: this function must be called inside a critical section
    QEvt * const mut_me = (QEvt*)me; // cast 'const' away
 80029d4:	687b      	ldr	r3, [r7, #4]
 80029d6:	60fb      	str	r3, [r7, #12]
    --mut_me->refCtr_;
 80029d8:	68fb      	ldr	r3, [r7, #12]
 80029da:	78db      	ldrb	r3, [r3, #3]
 80029dc:	3b01      	subs	r3, #1
 80029de:	b2da      	uxtb	r2, r3
 80029e0:	68fb      	ldr	r3, [r7, #12]
 80029e2:	70da      	strb	r2, [r3, #3]
}
 80029e4:	46c0      	nop			@ (mov r8, r8)
 80029e6:	46bd      	mov	sp, r7
 80029e8:	b004      	add	sp, #16
 80029ea:	bd80      	pop	{r7, pc}

080029ec <QActive_post_>:
//! @private @memberof QActive
bool QActive_post_(QActive * const me,
    QEvt const * const e,
    uint_fast16_t const margin,
    void const * const sender)
{
 80029ec:	b580      	push	{r7, lr}
 80029ee:	b086      	sub	sp, #24
 80029f0:	af00      	add	r7, sp, #0
 80029f2:	60f8      	str	r0, [r7, #12]
 80029f4:	60b9      	str	r1, [r7, #8]
 80029f6:	607a      	str	r2, [r7, #4]
 80029f8:	603b      	str	r3, [r7, #0]
    }
#endif // (Q_UTEST != 0)
#endif // def Q_UTEST

    QF_CRIT_STAT
    QF_CRIT_ENTRY();
 80029fa:	f7ff fbf3 	bl	80021e4 <QF_crit_entry_>

    // the event to post must not be NULL
    Q_REQUIRE_INCRIT(100, e != (QEvt *)0);
 80029fe:	68bb      	ldr	r3, [r7, #8]
 8002a00:	2b00      	cmp	r3, #0
 8002a02:	d104      	bne.n	8002a0e <QActive_post_+0x22>
 8002a04:	4b25      	ldr	r3, [pc, #148]	@ (8002a9c <QActive_post_+0xb0>)
 8002a06:	2164      	movs	r1, #100	@ 0x64
 8002a08:	0018      	movs	r0, r3
 8002a0a:	f7fd fccd 	bl	80003a8 <Q_onError>

    QEQueueCtr const nFree = me->eQueue.nFree; // get member into temporary
 8002a0e:	2116      	movs	r1, #22
 8002a10:	187b      	adds	r3, r7, r1
 8002a12:	68fa      	ldr	r2, [r7, #12]
 8002a14:	7fd2      	ldrb	r2, [r2, #31]
 8002a16:	701a      	strb	r2, [r3, #0]

    bool status = (nFree > 0U);
 8002a18:	2017      	movs	r0, #23
 8002a1a:	183b      	adds	r3, r7, r0
 8002a1c:	187a      	adds	r2, r7, r1
 8002a1e:	7812      	ldrb	r2, [r2, #0]
 8002a20:	1e51      	subs	r1, r2, #1
 8002a22:	418a      	sbcs	r2, r1
 8002a24:	701a      	strb	r2, [r3, #0]
    if (margin == QF_NO_MARGIN) { // no margin requested?
 8002a26:	687b      	ldr	r3, [r7, #4]
 8002a28:	4a1d      	ldr	r2, [pc, #116]	@ (8002aa0 <QActive_post_+0xb4>)
 8002a2a:	4293      	cmp	r3, r2
 8002a2c:	d108      	bne.n	8002a40 <QActive_post_+0x54>
        // queue must not overflow
        Q_ASSERT_INCRIT(130, status);
 8002a2e:	183b      	adds	r3, r7, r0
 8002a30:	781b      	ldrb	r3, [r3, #0]
 8002a32:	2b00      	cmp	r3, #0
 8002a34:	d10f      	bne.n	8002a56 <QActive_post_+0x6a>
 8002a36:	4b19      	ldr	r3, [pc, #100]	@ (8002a9c <QActive_post_+0xb0>)
 8002a38:	2182      	movs	r1, #130	@ 0x82
 8002a3a:	0018      	movs	r0, r3
 8002a3c:	f7fd fcb4 	bl	80003a8 <Q_onError>
    }
    else {
        status = (nFree > (QEQueueCtr)margin);
 8002a40:	687b      	ldr	r3, [r7, #4]
 8002a42:	b2d9      	uxtb	r1, r3
 8002a44:	2317      	movs	r3, #23
 8002a46:	18fb      	adds	r3, r7, r3
 8002a48:	2216      	movs	r2, #22
 8002a4a:	18ba      	adds	r2, r7, r2
 8002a4c:	7812      	ldrb	r2, [r2, #0]
 8002a4e:	4291      	cmp	r1, r2
 8002a50:	4192      	sbcs	r2, r2
 8002a52:	4252      	negs	r2, r2
 8002a54:	701a      	strb	r2, [r3, #0]
    }

#if (QF_MAX_EPOOL > 0U)
    if (e->poolNum_ != 0U) { // is it a mutable event?
 8002a56:	68bb      	ldr	r3, [r7, #8]
 8002a58:	789b      	ldrb	r3, [r3, #2]
 8002a5a:	2b00      	cmp	r3, #0
 8002a5c:	d003      	beq.n	8002a66 <QActive_post_+0x7a>
        QEvt_refCtr_inc_(e); // increment the reference counter
 8002a5e:	68bb      	ldr	r3, [r7, #8]
 8002a60:	0018      	movs	r0, r3
 8002a62:	f7ff ff97 	bl	8002994 <QEvt_refCtr_inc_>
    }
#endif // (QF_MAX_EPOOL > 0U)

    if (status) { // can post the event?
 8002a66:	2317      	movs	r3, #23
 8002a68:	18fb      	adds	r3, r7, r3
 8002a6a:	781b      	ldrb	r3, [r3, #0]
 8002a6c:	2b00      	cmp	r3, #0
 8002a6e:	d008      	beq.n	8002a82 <QActive_post_+0x96>
        QActive_postFIFO_(me, e, sender);
 8002a70:	683a      	ldr	r2, [r7, #0]
 8002a72:	68b9      	ldr	r1, [r7, #8]
 8002a74:	68fb      	ldr	r3, [r7, #12]
 8002a76:	0018      	movs	r0, r3
 8002a78:	f000 f884 	bl	8002b84 <QActive_postFIFO_>
            QF_CRIT_EXIT();
            QS_onTestPost(sender, me, e, true); // QUTest callback
            QF_CRIT_ENTRY();
        }
#endif // def Q_UTEST
        QF_CRIT_EXIT();
 8002a7c:	f7ff fbc2 	bl	8002204 <QF_crit_exit_>
 8002a80:	e005      	b.n	8002a8e <QActive_post_+0xa2>
            QS_onTestPost(sender, me, e, status); // QUTEst callback
            QF_CRIT_ENTRY();
        }
#endif // def Q_USTEST

        QF_CRIT_EXIT();
 8002a82:	f7ff fbbf 	bl	8002204 <QF_crit_exit_>

#if (QF_MAX_EPOOL > 0U)
        QF_gc(e); // recycle the event to avoid a leak
 8002a86:	68bb      	ldr	r3, [r7, #8]
 8002a88:	0018      	movs	r0, r3
 8002a8a:	f000 f9c3 	bl	8002e14 <QF_gc>
#endif // (QF_MAX_EPOOL > 0U)
    }

    return status;
 8002a8e:	2317      	movs	r3, #23
 8002a90:	18fb      	adds	r3, r7, r3
 8002a92:	781b      	ldrb	r3, [r3, #0]
}
 8002a94:	0018      	movs	r0, r3
 8002a96:	46bd      	mov	sp, r7
 8002a98:	b006      	add	sp, #24
 8002a9a:	bd80      	pop	{r7, pc}
 8002a9c:	08004088 	.word	0x08004088
 8002aa0:	0000ffff 	.word	0x0000ffff

08002aa4 <QActive_get_>:
    QF_CRIT_EXIT();
}

//............................................................................
//! @private @memberof QActive
QEvt const * QActive_get_(QActive * const me) {
 8002aa4:	b580      	push	{r7, lr}
 8002aa6:	b086      	sub	sp, #24
 8002aa8:	af00      	add	r7, sp, #0
 8002aaa:	6078      	str	r0, [r7, #4]
    QF_CRIT_STAT
    QF_CRIT_ENTRY();
 8002aac:	f7ff fb9a 	bl	80021e4 <QF_crit_entry_>
    // wait for event to arrive directly (depends on QP port)
    // NOTE: might use assertion-IDs 400-409
    QACTIVE_EQUEUE_WAIT_(me);

    // always remove event from the front
    QEvt const * const e = me->eQueue.frontEvt;
 8002ab0:	687b      	ldr	r3, [r7, #4]
 8002ab2:	695b      	ldr	r3, [r3, #20]
 8002ab4:	613b      	str	r3, [r7, #16]

    // the queue must NOT be empty
    Q_REQUIRE_INCRIT(310, e != (QEvt *)0);
 8002ab6:	693b      	ldr	r3, [r7, #16]
 8002ab8:	2b00      	cmp	r3, #0
 8002aba:	d106      	bne.n	8002aca <QActive_get_+0x26>
 8002abc:	239b      	movs	r3, #155	@ 0x9b
 8002abe:	005a      	lsls	r2, r3, #1
 8002ac0:	4b2f      	ldr	r3, [pc, #188]	@ (8002b80 <QActive_get_+0xdc>)
 8002ac2:	0011      	movs	r1, r2
 8002ac4:	0018      	movs	r0, r3
 8002ac6:	f7fd fc6f 	bl	80003a8 <Q_onError>

    QEQueueCtr nFree = me->eQueue.nFree; // get member into temporary
 8002aca:	210f      	movs	r1, #15
 8002acc:	187b      	adds	r3, r7, r1
 8002ace:	687a      	ldr	r2, [r7, #4]
 8002ad0:	7fd2      	ldrb	r2, [r2, #31]
 8002ad2:	701a      	strb	r2, [r3, #0]

    ++nFree; // one more free event in the queue
 8002ad4:	187b      	adds	r3, r7, r1
 8002ad6:	187a      	adds	r2, r7, r1
 8002ad8:	7812      	ldrb	r2, [r2, #0]
 8002ada:	3201      	adds	r2, #1
 8002adc:	701a      	strb	r2, [r3, #0]
    me->eQueue.nFree = nFree; // update the # free
 8002ade:	687b      	ldr	r3, [r7, #4]
 8002ae0:	187a      	adds	r2, r7, r1
 8002ae2:	7812      	ldrb	r2, [r2, #0]
 8002ae4:	77da      	strb	r2, [r3, #31]

    if (nFree <= me->eQueue.end) { // any events in the ring buffer?
 8002ae6:	687b      	ldr	r3, [r7, #4]
 8002ae8:	7f1b      	ldrb	r3, [r3, #28]
 8002aea:	187a      	adds	r2, r7, r1
 8002aec:	7812      	ldrb	r2, [r2, #0]
 8002aee:	429a      	cmp	r2, r3
 8002af0:	d82d      	bhi.n	8002b4e <QActive_get_+0xaa>

        // remove event from the tail
        QEQueueCtr tail = me->eQueue.tail; // get member into temporary
 8002af2:	2117      	movs	r1, #23
 8002af4:	187b      	adds	r3, r7, r1
 8002af6:	687a      	ldr	r2, [r7, #4]
 8002af8:	7f92      	ldrb	r2, [r2, #30]
 8002afa:	701a      	strb	r2, [r3, #0]

        QEvt const * const frontEvt = me->eQueue.ring[tail];
 8002afc:	687b      	ldr	r3, [r7, #4]
 8002afe:	699a      	ldr	r2, [r3, #24]
 8002b00:	187b      	adds	r3, r7, r1
 8002b02:	781b      	ldrb	r3, [r3, #0]
 8002b04:	009b      	lsls	r3, r3, #2
 8002b06:	18d3      	adds	r3, r2, r3
 8002b08:	681b      	ldr	r3, [r3, #0]
 8002b0a:	60bb      	str	r3, [r7, #8]

        // the event queue must not be empty (frontEvt != NULL)
        Q_ASSERT_INCRIT(350, frontEvt != (QEvt *)0);
 8002b0c:	68bb      	ldr	r3, [r7, #8]
 8002b0e:	2b00      	cmp	r3, #0
 8002b10:	d106      	bne.n	8002b20 <QActive_get_+0x7c>
 8002b12:	23af      	movs	r3, #175	@ 0xaf
 8002b14:	005a      	lsls	r2, r3, #1
 8002b16:	4b1a      	ldr	r3, [pc, #104]	@ (8002b80 <QActive_get_+0xdc>)
 8002b18:	0011      	movs	r1, r2
 8002b1a:	0018      	movs	r0, r3
 8002b1c:	f7fd fc44 	bl	80003a8 <Q_onError>
            QS_OBJ_PRE(me);      // this active object
            QS_2U8_PRE(e->poolNum_, e->refCtr_);
            QS_EQC_PRE(nFree);   // # free entries
        QS_END_PRE()

        me->eQueue.frontEvt = frontEvt; // update the original
 8002b20:	687b      	ldr	r3, [r7, #4]
 8002b22:	68ba      	ldr	r2, [r7, #8]
 8002b24:	615a      	str	r2, [r3, #20]
        if (tail == 0U) { // need to wrap the tail?
 8002b26:	2217      	movs	r2, #23
 8002b28:	18bb      	adds	r3, r7, r2
 8002b2a:	781b      	ldrb	r3, [r3, #0]
 8002b2c:	2b00      	cmp	r3, #0
 8002b2e:	d103      	bne.n	8002b38 <QActive_get_+0x94>
            tail = me->eQueue.end;
 8002b30:	18bb      	adds	r3, r7, r2
 8002b32:	687a      	ldr	r2, [r7, #4]
 8002b34:	7f12      	ldrb	r2, [r2, #28]
 8002b36:	701a      	strb	r2, [r3, #0]
        }
        --tail; // advance the tail (counter-clockwise)
 8002b38:	2117      	movs	r1, #23
 8002b3a:	187b      	adds	r3, r7, r1
 8002b3c:	187a      	adds	r2, r7, r1
 8002b3e:	7812      	ldrb	r2, [r2, #0]
 8002b40:	3a01      	subs	r2, #1
 8002b42:	701a      	strb	r2, [r3, #0]
        me->eQueue.tail = tail; // update the original
 8002b44:	687b      	ldr	r3, [r7, #4]
 8002b46:	187a      	adds	r2, r7, r1
 8002b48:	7812      	ldrb	r2, [r2, #0]
 8002b4a:	779a      	strb	r2, [r3, #30]
 8002b4c:	e011      	b.n	8002b72 <QActive_get_+0xce>
    }
    else {
        me->eQueue.frontEvt = (QEvt *)0; // queue becomes empty
 8002b4e:	687b      	ldr	r3, [r7, #4]
 8002b50:	2200      	movs	r2, #0
 8002b52:	615a      	str	r2, [r3, #20]

        // all entries in the queue must be free (+1 for fronEvt)
        Q_ASSERT_INCRIT(360, nFree == (me->eQueue.end + 1U));
 8002b54:	230f      	movs	r3, #15
 8002b56:	18fb      	adds	r3, r7, r3
 8002b58:	781a      	ldrb	r2, [r3, #0]
 8002b5a:	687b      	ldr	r3, [r7, #4]
 8002b5c:	7f1b      	ldrb	r3, [r3, #28]
 8002b5e:	3301      	adds	r3, #1
 8002b60:	429a      	cmp	r2, r3
 8002b62:	d006      	beq.n	8002b72 <QActive_get_+0xce>
 8002b64:	23b4      	movs	r3, #180	@ 0xb4
 8002b66:	005a      	lsls	r2, r3, #1
 8002b68:	4b05      	ldr	r3, [pc, #20]	@ (8002b80 <QActive_get_+0xdc>)
 8002b6a:	0011      	movs	r1, r2
 8002b6c:	0018      	movs	r0, r3
 8002b6e:	f7fd fc1b 	bl	80003a8 <Q_onError>
            QS_OBJ_PRE(me);      // this active object
            QS_2U8_PRE(e->poolNum_, e->refCtr_);
        QS_END_PRE()
    }

    QF_CRIT_EXIT();
 8002b72:	f7ff fb47 	bl	8002204 <QF_crit_exit_>

    return e;
 8002b76:	693b      	ldr	r3, [r7, #16]
}
 8002b78:	0018      	movs	r0, r3
 8002b7a:	46bd      	mov	sp, r7
 8002b7c:	b006      	add	sp, #24
 8002b7e:	bd80      	pop	{r7, pc}
 8002b80:	08004088 	.word	0x08004088

08002b84 <QActive_postFIFO_>:
//............................................................................
//! @private @memberof QActive
static void QActive_postFIFO_(QActive * const me,
    QEvt const * const e,
    void const * const sender)
{
 8002b84:	b580      	push	{r7, lr}
 8002b86:	b086      	sub	sp, #24
 8002b88:	af00      	add	r7, sp, #0
 8002b8a:	60f8      	str	r0, [r7, #12]
 8002b8c:	60b9      	str	r1, [r7, #8]
 8002b8e:	607a      	str	r2, [r7, #4]
    // NOTE: this helper function is called *inside* critical section
#ifndef Q_SPY
    Q_UNUSED_PAR(sender);
#endif

    QEQueueCtr nFree = me->eQueue.nFree; // get member into temporary
 8002b90:	2116      	movs	r1, #22
 8002b92:	187b      	adds	r3, r7, r1
 8002b94:	68fa      	ldr	r2, [r7, #12]
 8002b96:	7fd2      	ldrb	r2, [r2, #31]
 8002b98:	701a      	strb	r2, [r3, #0]

    --nFree; // one free entry just used up
 8002b9a:	187b      	adds	r3, r7, r1
 8002b9c:	187a      	adds	r2, r7, r1
 8002b9e:	7812      	ldrb	r2, [r2, #0]
 8002ba0:	3a01      	subs	r2, #1
 8002ba2:	701a      	strb	r2, [r3, #0]
    me->eQueue.nFree = nFree; // update the original
 8002ba4:	68fb      	ldr	r3, [r7, #12]
 8002ba6:	187a      	adds	r2, r7, r1
 8002ba8:	7812      	ldrb	r2, [r2, #0]
 8002baa:	77da      	strb	r2, [r3, #31]
    if (me->eQueue.nMin > nFree) {
 8002bac:	68fb      	ldr	r3, [r7, #12]
 8002bae:	2220      	movs	r2, #32
 8002bb0:	5c9b      	ldrb	r3, [r3, r2]
 8002bb2:	187a      	adds	r2, r7, r1
 8002bb4:	7812      	ldrb	r2, [r2, #0]
 8002bb6:	429a      	cmp	r2, r3
 8002bb8:	d204      	bcs.n	8002bc4 <QActive_postFIFO_+0x40>
        me->eQueue.nMin = nFree; // update minimum so far
 8002bba:	68fb      	ldr	r3, [r7, #12]
 8002bbc:	187a      	adds	r2, r7, r1
 8002bbe:	2120      	movs	r1, #32
 8002bc0:	7812      	ldrb	r2, [r2, #0]
 8002bc2:	545a      	strb	r2, [r3, r1]
        QS_2U8_PRE(e->poolNum_, e->refCtr_);
        QS_EQC_PRE(nFree);    // # free entries
        QS_EQC_PRE(me->eQueue.nMin); // min # free entries
    QS_END_PRE()

    if (me->eQueue.frontEvt == (QEvt *)0) { // is the queue empty?
 8002bc4:	68fb      	ldr	r3, [r7, #12]
 8002bc6:	695b      	ldr	r3, [r3, #20]
 8002bc8:	2b00      	cmp	r3, #0
 8002bca:	d117      	bne.n	8002bfc <QActive_postFIFO_+0x78>
        me->eQueue.frontEvt = e; // deliver event directly
 8002bcc:	68fb      	ldr	r3, [r7, #12]
 8002bce:	68ba      	ldr	r2, [r7, #8]
 8002bd0:	615a      	str	r2, [r3, #20]
        }
        else { // basic thread (AO)
            QACTIVE_EQUEUE_SIGNAL_(me); // signal the Active Object
        }
#else
        QACTIVE_EQUEUE_SIGNAL_(me); // signal the Active Object
 8002bd2:	68fb      	ldr	r3, [r7, #12]
 8002bd4:	7b1b      	ldrb	r3, [r3, #12]
 8002bd6:	001a      	movs	r2, r3
 8002bd8:	4b1a      	ldr	r3, [pc, #104]	@ (8002c44 <QActive_postFIFO_+0xc0>)
 8002bda:	0011      	movs	r1, r2
 8002bdc:	0018      	movs	r0, r3
 8002bde:	f000 fd38 	bl	8003652 <QPSet_insert>
#define QK_ISR_CONTEXT_()     (QK_get_IPSR() != 0U)

__attribute__((always_inline))
static inline uint32_t QK_get_IPSR(void) {
    uint32_t regIPSR;
    __asm volatile ("mrs %0,ipsr" : "=r" (regIPSR));
 8002be2:	f3ef 8305 	mrs	r3, IPSR
 8002be6:	613b      	str	r3, [r7, #16]
    return regIPSR;
 8002be8:	693b      	ldr	r3, [r7, #16]
 8002bea:	2b00      	cmp	r3, #0
 8002bec:	d125      	bne.n	8002c3a <QActive_postFIFO_+0xb6>
 8002bee:	f000 ffa3 	bl	8003b38 <QK_sched_>
 8002bf2:	1e03      	subs	r3, r0, #0
 8002bf4:	d021      	beq.n	8002c3a <QActive_postFIFO_+0xb6>
 8002bf6:	f001 f817 	bl	8003c28 <QK_activate_>
        }
        --head; // advance the head (counter-clockwise)

        me->eQueue.head = head; // update the original
    }
}
 8002bfa:	e01e      	b.n	8002c3a <QActive_postFIFO_+0xb6>
        QEQueueCtr head = me->eQueue.head; // get member into temporary
 8002bfc:	2117      	movs	r1, #23
 8002bfe:	187b      	adds	r3, r7, r1
 8002c00:	68fa      	ldr	r2, [r7, #12]
 8002c02:	7f52      	ldrb	r2, [r2, #29]
 8002c04:	701a      	strb	r2, [r3, #0]
        me->eQueue.ring[head] = e; // insert e into buffer
 8002c06:	68fb      	ldr	r3, [r7, #12]
 8002c08:	699a      	ldr	r2, [r3, #24]
 8002c0a:	187b      	adds	r3, r7, r1
 8002c0c:	781b      	ldrb	r3, [r3, #0]
 8002c0e:	009b      	lsls	r3, r3, #2
 8002c10:	18d3      	adds	r3, r2, r3
 8002c12:	68ba      	ldr	r2, [r7, #8]
 8002c14:	601a      	str	r2, [r3, #0]
        if (head == 0U) { // need to wrap the head?
 8002c16:	187b      	adds	r3, r7, r1
 8002c18:	781b      	ldrb	r3, [r3, #0]
 8002c1a:	2b00      	cmp	r3, #0
 8002c1c:	d103      	bne.n	8002c26 <QActive_postFIFO_+0xa2>
            head = me->eQueue.end;
 8002c1e:	187b      	adds	r3, r7, r1
 8002c20:	68fa      	ldr	r2, [r7, #12]
 8002c22:	7f12      	ldrb	r2, [r2, #28]
 8002c24:	701a      	strb	r2, [r3, #0]
        --head; // advance the head (counter-clockwise)
 8002c26:	2117      	movs	r1, #23
 8002c28:	187b      	adds	r3, r7, r1
 8002c2a:	187a      	adds	r2, r7, r1
 8002c2c:	7812      	ldrb	r2, [r2, #0]
 8002c2e:	3a01      	subs	r2, #1
 8002c30:	701a      	strb	r2, [r3, #0]
        me->eQueue.head = head; // update the original
 8002c32:	68fb      	ldr	r3, [r7, #12]
 8002c34:	187a      	adds	r2, r7, r1
 8002c36:	7812      	ldrb	r2, [r2, #0]
 8002c38:	775a      	strb	r2, [r3, #29]
}
 8002c3a:	46c0      	nop			@ (mov r8, r8)
 8002c3c:	46bd      	mov	sp, r7
 8002c3e:	b006      	add	sp, #24
 8002c40:	bd80      	pop	{r7, pc}
 8002c42:	46c0      	nop			@ (mov r8, r8)
 8002c44:	2000041c 	.word	0x2000041c

08002c48 <QF_poolInit>:
//! @static @public @memberof QF
void QF_poolInit(
    void * const poolSto,
    uint_fast32_t const poolSize,
    uint_fast16_t const evtSize)
{
 8002c48:	b590      	push	{r4, r7, lr}
 8002c4a:	b087      	sub	sp, #28
 8002c4c:	af00      	add	r7, sp, #0
 8002c4e:	60f8      	str	r0, [r7, #12]
 8002c50:	60b9      	str	r1, [r7, #8]
 8002c52:	607a      	str	r2, [r7, #4]
    uint8_t const poolNum = QF_priv_.maxPool_;
 8002c54:	2417      	movs	r4, #23
 8002c56:	193b      	adds	r3, r7, r4
 8002c58:	4a21      	ldr	r2, [pc, #132]	@ (8002ce0 <QF_poolInit+0x98>)
 8002c5a:	213c      	movs	r1, #60	@ 0x3c
 8002c5c:	5c52      	ldrb	r2, [r2, r1]
 8002c5e:	701a      	strb	r2, [r3, #0]

    QF_CRIT_STAT
    QF_CRIT_ENTRY();
 8002c60:	f7ff fac0 	bl	80021e4 <QF_crit_entry_>

    // the maximum of initialized pools so far must be in the configured range
    Q_REQUIRE_INCRIT(100, poolNum < QF_MAX_EPOOL);
 8002c64:	193b      	adds	r3, r7, r4
 8002c66:	781b      	ldrb	r3, [r3, #0]
 8002c68:	2b02      	cmp	r3, #2
 8002c6a:	d904      	bls.n	8002c76 <QF_poolInit+0x2e>
 8002c6c:	4b1d      	ldr	r3, [pc, #116]	@ (8002ce4 <QF_poolInit+0x9c>)
 8002c6e:	2164      	movs	r1, #100	@ 0x64
 8002c70:	0018      	movs	r0, r3
 8002c72:	f7fd fb99 	bl	80003a8 <Q_onError>

    if (poolNum > 0U) { // any event pools already initialized?
 8002c76:	2217      	movs	r2, #23
 8002c78:	18bb      	adds	r3, r7, r2
 8002c7a:	781b      	ldrb	r3, [r3, #0]
 8002c7c:	2b00      	cmp	r3, #0
 8002c7e:	d013      	beq.n	8002ca8 <QF_poolInit+0x60>
        // the last initialized event pool must have event size smaller
        // than the one just being initialized
        // NOTE: QF event pools must be initialized in the increasing order
        // of their event sizes
        Q_REQUIRE_INCRIT(110,
 8002c80:	18bb      	adds	r3, r7, r2
 8002c82:	781b      	ldrb	r3, [r3, #0]
 8002c84:	1e5a      	subs	r2, r3, #1
 8002c86:	4916      	ldr	r1, [pc, #88]	@ (8002ce0 <QF_poolInit+0x98>)
 8002c88:	0013      	movs	r3, r2
 8002c8a:	009b      	lsls	r3, r3, #2
 8002c8c:	189b      	adds	r3, r3, r2
 8002c8e:	009b      	lsls	r3, r3, #2
 8002c90:	18cb      	adds	r3, r1, r3
 8002c92:	330c      	adds	r3, #12
 8002c94:	881b      	ldrh	r3, [r3, #0]
 8002c96:	001a      	movs	r2, r3
 8002c98:	687b      	ldr	r3, [r7, #4]
 8002c9a:	4293      	cmp	r3, r2
 8002c9c:	d804      	bhi.n	8002ca8 <QF_poolInit+0x60>
 8002c9e:	4b11      	ldr	r3, [pc, #68]	@ (8002ce4 <QF_poolInit+0x9c>)
 8002ca0:	216e      	movs	r1, #110	@ 0x6e
 8002ca2:	0018      	movs	r0, r3
 8002ca4:	f7fd fb80 	bl	80003a8 <Q_onError>
            QF_EPOOL_EVENT_SIZE_(QF_priv_.ePool_[poolNum - 1U]) < evtSize);
    }
    QF_priv_.maxPool_ = poolNum + 1U; // one more pool
 8002ca8:	2417      	movs	r4, #23
 8002caa:	193b      	adds	r3, r7, r4
 8002cac:	781b      	ldrb	r3, [r3, #0]
 8002cae:	3301      	adds	r3, #1
 8002cb0:	b2d9      	uxtb	r1, r3
 8002cb2:	4b0b      	ldr	r3, [pc, #44]	@ (8002ce0 <QF_poolInit+0x98>)
 8002cb4:	223c      	movs	r2, #60	@ 0x3c
 8002cb6:	5499      	strb	r1, [r3, r2]

    QF_CRIT_EXIT();
 8002cb8:	f7ff faa4 	bl	8002204 <QF_crit_exit_>

    // perform the port-dependent initialization of the event-pool
    QF_EPOOL_INIT_(QF_priv_.ePool_[poolNum], poolSto, poolSize, evtSize);
 8002cbc:	193b      	adds	r3, r7, r4
 8002cbe:	781a      	ldrb	r2, [r3, #0]
 8002cc0:	0013      	movs	r3, r2
 8002cc2:	009b      	lsls	r3, r3, #2
 8002cc4:	189b      	adds	r3, r3, r2
 8002cc6:	009b      	lsls	r3, r3, #2
 8002cc8:	4a05      	ldr	r2, [pc, #20]	@ (8002ce0 <QF_poolInit+0x98>)
 8002cca:	1898      	adds	r0, r3, r2
 8002ccc:	687b      	ldr	r3, [r7, #4]
 8002cce:	68ba      	ldr	r2, [r7, #8]
 8002cd0:	68f9      	ldr	r1, [r7, #12]
 8002cd2:	f000 f901 	bl	8002ed8 <QMPool_init>
        // replace the "?" with the one-digit pool number (1-based)
        obj_name[7] = (uint8_t)((uint8_t)'0' + QF_priv_.maxPool_);
        QS_obj_dict_pre_(&QF_priv_.ePool_[poolNum], (char const *)obj_name);
    }
#endif // Q_SPY
}
 8002cd6:	46c0      	nop			@ (mov r8, r8)
 8002cd8:	46bd      	mov	sp, r7
 8002cda:	b007      	add	sp, #28
 8002cdc:	bd90      	pop	{r4, r7, pc}
 8002cde:	46c0      	nop			@ (mov r8, r8)
 8002ce0:	200003c0 	.word	0x200003c0
 8002ce4:	08004090 	.word	0x08004090

08002ce8 <QF_newX_>:
//! @static @private @memberof QF
QEvt * QF_newX_(
    uint_fast16_t const evtSize,
    uint_fast16_t const margin,
    enum_t const sig)
{
 8002ce8:	b590      	push	{r4, r7, lr}
 8002cea:	b087      	sub	sp, #28
 8002cec:	af00      	add	r7, sp, #0
 8002cee:	60f8      	str	r0, [r7, #12]
 8002cf0:	60b9      	str	r1, [r7, #8]
 8002cf2:	607a      	str	r2, [r7, #4]
    QF_CRIT_STAT
    QF_CRIT_ENTRY();
 8002cf4:	f7ff fa76 	bl	80021e4 <QF_crit_entry_>

    uint8_t const maxPool = QF_priv_.maxPool_;
 8002cf8:	2016      	movs	r0, #22
 8002cfa:	183b      	adds	r3, r7, r0
 8002cfc:	4a40      	ldr	r2, [pc, #256]	@ (8002e00 <QF_newX_+0x118>)
 8002cfe:	213c      	movs	r1, #60	@ 0x3c
 8002d00:	5c52      	ldrb	r2, [r2, r1]
 8002d02:	701a      	strb	r2, [r3, #0]

    // the maximum count of initialized pools must be in configured range
    Q_REQUIRE_INCRIT(610, maxPool <= QF_MAX_EPOOL);
 8002d04:	183b      	adds	r3, r7, r0
 8002d06:	781b      	ldrb	r3, [r3, #0]
 8002d08:	2b03      	cmp	r3, #3
 8002d0a:	d905      	bls.n	8002d18 <QF_newX_+0x30>
 8002d0c:	4a3d      	ldr	r2, [pc, #244]	@ (8002e04 <QF_newX_+0x11c>)
 8002d0e:	4b3e      	ldr	r3, [pc, #248]	@ (8002e08 <QF_newX_+0x120>)
 8002d10:	0011      	movs	r1, r2
 8002d12:	0018      	movs	r0, r3
 8002d14:	f7fd fb48 	bl	80003a8 <Q_onError>

    // find the pool that fits the requested event size...
    uint8_t poolNum = 0U; // zero-based poolNum initially
 8002d18:	2317      	movs	r3, #23
 8002d1a:	18fb      	adds	r3, r7, r3
 8002d1c:	2200      	movs	r2, #0
 8002d1e:	701a      	strb	r2, [r3, #0]
    for (; poolNum < maxPool; ++poolNum) {
 8002d20:	e013      	b.n	8002d4a <QF_newX_+0x62>
        // call port-specific operation for the event-size in a given pool
        if (evtSize <= QF_EPOOL_EVENT_SIZE_(QF_priv_.ePool_[poolNum])) {
 8002d22:	2017      	movs	r0, #23
 8002d24:	183b      	adds	r3, r7, r0
 8002d26:	781a      	ldrb	r2, [r3, #0]
 8002d28:	4935      	ldr	r1, [pc, #212]	@ (8002e00 <QF_newX_+0x118>)
 8002d2a:	0013      	movs	r3, r2
 8002d2c:	009b      	lsls	r3, r3, #2
 8002d2e:	189b      	adds	r3, r3, r2
 8002d30:	009b      	lsls	r3, r3, #2
 8002d32:	18cb      	adds	r3, r1, r3
 8002d34:	330c      	adds	r3, #12
 8002d36:	881b      	ldrh	r3, [r3, #0]
 8002d38:	001a      	movs	r2, r3
 8002d3a:	68fb      	ldr	r3, [r7, #12]
 8002d3c:	4293      	cmp	r3, r2
 8002d3e:	d90d      	bls.n	8002d5c <QF_newX_+0x74>
    for (; poolNum < maxPool; ++poolNum) {
 8002d40:	183b      	adds	r3, r7, r0
 8002d42:	183a      	adds	r2, r7, r0
 8002d44:	7812      	ldrb	r2, [r2, #0]
 8002d46:	3201      	adds	r2, #1
 8002d48:	701a      	strb	r2, [r3, #0]
 8002d4a:	2317      	movs	r3, #23
 8002d4c:	18fa      	adds	r2, r7, r3
 8002d4e:	2316      	movs	r3, #22
 8002d50:	18fb      	adds	r3, r7, r3
 8002d52:	7812      	ldrb	r2, [r2, #0]
 8002d54:	781b      	ldrb	r3, [r3, #0]
 8002d56:	429a      	cmp	r2, r3
 8002d58:	d3e3      	bcc.n	8002d22 <QF_newX_+0x3a>
 8002d5a:	e000      	b.n	8002d5e <QF_newX_+0x76>
            break; // event pool found
 8002d5c:	46c0      	nop			@ (mov r8, r8)
        }
    }

    // event pool must be found, which means that the reqeusted event size
    // fits in one of the initialized pools
    Q_ASSERT_INCRIT(620, poolNum < maxPool);
 8002d5e:	2317      	movs	r3, #23
 8002d60:	18fa      	adds	r2, r7, r3
 8002d62:	2316      	movs	r3, #22
 8002d64:	18fb      	adds	r3, r7, r3
 8002d66:	7812      	ldrb	r2, [r2, #0]
 8002d68:	781b      	ldrb	r3, [r3, #0]
 8002d6a:	429a      	cmp	r2, r3
 8002d6c:	d306      	bcc.n	8002d7c <QF_newX_+0x94>
 8002d6e:	239b      	movs	r3, #155	@ 0x9b
 8002d70:	009a      	lsls	r2, r3, #2
 8002d72:	4b25      	ldr	r3, [pc, #148]	@ (8002e08 <QF_newX_+0x120>)
 8002d74:	0011      	movs	r1, r2
 8002d76:	0018      	movs	r0, r3
 8002d78:	f7fd fb16 	bl	80003a8 <Q_onError>

    ++poolNum; // convert to 1-based poolNum
 8002d7c:	2417      	movs	r4, #23
 8002d7e:	193b      	adds	r3, r7, r4
 8002d80:	193a      	adds	r2, r7, r4
 8002d82:	7812      	ldrb	r2, [r2, #0]
 8002d84:	3201      	adds	r2, #1
 8002d86:	701a      	strb	r2, [r3, #0]

    QF_CRIT_EXIT();
 8002d88:	f7ff fa3c 	bl	8002204 <QF_crit_exit_>
#ifdef Q_SPY
    QF_EPOOL_GET_(QF_priv_.ePool_[poolNum - 1U], e,
                  ((margin != QF_NO_MARGIN) ? margin : 0U),
                  QS_ID_EP + poolNum);
#else
    QF_EPOOL_GET_(QF_priv_.ePool_[poolNum - 1U], e,
 8002d8c:	193b      	adds	r3, r7, r4
 8002d8e:	781b      	ldrb	r3, [r3, #0]
 8002d90:	1e5a      	subs	r2, r3, #1
 8002d92:	0013      	movs	r3, r2
 8002d94:	009b      	lsls	r3, r3, #2
 8002d96:	189b      	adds	r3, r3, r2
 8002d98:	009b      	lsls	r3, r3, #2
 8002d9a:	4a19      	ldr	r2, [pc, #100]	@ (8002e00 <QF_newX_+0x118>)
 8002d9c:	1898      	adds	r0, r3, r2
 8002d9e:	68bb      	ldr	r3, [r7, #8]
 8002da0:	4a1a      	ldr	r2, [pc, #104]	@ (8002e0c <QF_newX_+0x124>)
 8002da2:	4293      	cmp	r3, r2
 8002da4:	d001      	beq.n	8002daa <QF_newX_+0xc2>
 8002da6:	68bb      	ldr	r3, [r7, #8]
 8002da8:	e000      	b.n	8002dac <QF_newX_+0xc4>
 8002daa:	2300      	movs	r3, #0
 8002dac:	2200      	movs	r2, #0
 8002dae:	0019      	movs	r1, r3
 8002db0:	f000 f91e 	bl	8002ff0 <QMPool_get>
 8002db4:	0003      	movs	r3, r0
 8002db6:	613b      	str	r3, [r7, #16]
                  ((margin != QF_NO_MARGIN) ? margin : 0U), 0U);
#endif

    if (e != (QEvt *)0) { // was e allocated correctly?
 8002db8:	693b      	ldr	r3, [r7, #16]
 8002dba:	2b00      	cmp	r3, #0
 8002dbc:	d00c      	beq.n	8002dd8 <QF_newX_+0xf0>
        e->sig      = (QSignal)sig; // set the signal
 8002dbe:	687b      	ldr	r3, [r7, #4]
 8002dc0:	b29a      	uxth	r2, r3
 8002dc2:	693b      	ldr	r3, [r7, #16]
 8002dc4:	801a      	strh	r2, [r3, #0]
        e->poolNum_ = poolNum;
 8002dc6:	693b      	ldr	r3, [r7, #16]
 8002dc8:	2217      	movs	r2, #23
 8002dca:	18ba      	adds	r2, r7, r2
 8002dcc:	7812      	ldrb	r2, [r2, #0]
 8002dce:	709a      	strb	r2, [r3, #2]
        e->refCtr_  = 0U; // reference count starts at 0
 8002dd0:	693b      	ldr	r3, [r7, #16]
 8002dd2:	2200      	movs	r2, #0
 8002dd4:	70da      	strb	r2, [r3, #3]
 8002dd6:	e00d      	b.n	8002df4 <QF_newX_+0x10c>
        QS_END_PRE()
        QS_CRIT_EXIT();
    }
    else { // event was not allocated

        QF_CRIT_ENTRY();
 8002dd8:	f7ff fa04 	bl	80021e4 <QF_crit_entry_>
        // This assertion means that the event allocation failed,
        // and this failure cannot be tolerated. The most frequent
        // reason is an event leak in the application.
        Q_ASSERT_INCRIT(630, margin != QF_NO_MARGIN);
 8002ddc:	68bb      	ldr	r3, [r7, #8]
 8002dde:	4a0b      	ldr	r2, [pc, #44]	@ (8002e0c <QF_newX_+0x124>)
 8002de0:	4293      	cmp	r3, r2
 8002de2:	d105      	bne.n	8002df0 <QF_newX_+0x108>
 8002de4:	4a0a      	ldr	r2, [pc, #40]	@ (8002e10 <QF_newX_+0x128>)
 8002de6:	4b08      	ldr	r3, [pc, #32]	@ (8002e08 <QF_newX_+0x120>)
 8002de8:	0011      	movs	r1, r2
 8002dea:	0018      	movs	r0, r3
 8002dec:	f7fd fadc 	bl	80003a8 <Q_onError>
            QS_TIME_PRE();        // timestamp
            QS_EVS_PRE(evtSize);  // the size of the event
            QS_SIG_PRE(sig);      // the signal of the event
        QS_END_PRE()

        QF_CRIT_EXIT();
 8002df0:	f7ff fa08 	bl	8002204 <QF_crit_exit_>
    }

    // if we can't tolerate failed allocation (margin != QF_NO_MARGIN),
    // the returned event e is guaranteed to be valid (not NULL).
    return e;
 8002df4:	693b      	ldr	r3, [r7, #16]
}
 8002df6:	0018      	movs	r0, r3
 8002df8:	46bd      	mov	sp, r7
 8002dfa:	b007      	add	sp, #28
 8002dfc:	bd90      	pop	{r4, r7, pc}
 8002dfe:	46c0      	nop			@ (mov r8, r8)
 8002e00:	200003c0 	.word	0x200003c0
 8002e04:	00000262 	.word	0x00000262
 8002e08:	08004090 	.word	0x08004090
 8002e0c:	0000ffff 	.word	0x0000ffff
 8002e10:	00000276 	.word	0x00000276

08002e14 <QF_gc>:

//............................................................................
//! @static @public @memberof QF
void QF_gc(QEvt const * const e) {
 8002e14:	b580      	push	{r7, lr}
 8002e16:	b084      	sub	sp, #16
 8002e18:	af00      	add	r7, sp, #0
 8002e1a:	6078      	str	r0, [r7, #4]
    QF_CRIT_STAT
    QF_CRIT_ENTRY();
 8002e1c:	f7ff f9e2 	bl	80021e4 <QF_crit_entry_>

    // the collected event must be valid
    Q_REQUIRE_INCRIT(700, e != (QEvt *)0);
 8002e20:	687b      	ldr	r3, [r7, #4]
 8002e22:	2b00      	cmp	r3, #0
 8002e24:	d106      	bne.n	8002e34 <QF_gc+0x20>
 8002e26:	23af      	movs	r3, #175	@ 0xaf
 8002e28:	009a      	lsls	r2, r3, #2
 8002e2a:	4b28      	ldr	r3, [pc, #160]	@ (8002ecc <QF_gc+0xb8>)
 8002e2c:	0011      	movs	r1, r2
 8002e2e:	0018      	movs	r0, r3
 8002e30:	f7fd faba 	bl	80003a8 <Q_onError>

    uint8_t const poolNum = (uint8_t)e->poolNum_;
 8002e34:	210f      	movs	r1, #15
 8002e36:	187b      	adds	r3, r7, r1
 8002e38:	687a      	ldr	r2, [r7, #4]
 8002e3a:	7892      	ldrb	r2, [r2, #2]
 8002e3c:	701a      	strb	r2, [r3, #0]
    if (poolNum != 0U) { // is it a pool event (mutable)?
 8002e3e:	187b      	adds	r3, r7, r1
 8002e40:	781b      	ldrb	r3, [r3, #0]
 8002e42:	2b00      	cmp	r3, #0
 8002e44:	d03b      	beq.n	8002ebe <QF_gc+0xaa>

        if (e->refCtr_ > 1U) { // isn't this the last reference?
 8002e46:	687b      	ldr	r3, [r7, #4]
 8002e48:	78db      	ldrb	r3, [r3, #3]
 8002e4a:	2b01      	cmp	r3, #1
 8002e4c:	d906      	bls.n	8002e5c <QF_gc+0x48>
                QS_TIME_PRE();       // timestamp
                QS_SIG_PRE(e->sig);  // the signal of the event
                QS_2U8_PRE(poolNum, e->refCtr_);
            QS_END_PRE()

            QEvt_refCtr_dec_(e); // decrement the ref counter
 8002e4e:	687b      	ldr	r3, [r7, #4]
 8002e50:	0018      	movs	r0, r3
 8002e52:	f7ff fdbb 	bl	80029cc <QEvt_refCtr_dec_>

            QF_CRIT_EXIT();
 8002e56:	f7ff f9d5 	bl	8002204 <QF_crit_exit_>
        }
    }
    else {
        QF_CRIT_EXIT();
    }
}
 8002e5a:	e032      	b.n	8002ec2 <QF_gc+0xae>
            uint8_t const maxPool = QF_priv_.maxPool_;
 8002e5c:	200e      	movs	r0, #14
 8002e5e:	183b      	adds	r3, r7, r0
 8002e60:	4a1b      	ldr	r2, [pc, #108]	@ (8002ed0 <QF_gc+0xbc>)
 8002e62:	213c      	movs	r1, #60	@ 0x3c
 8002e64:	5c52      	ldrb	r2, [r2, r1]
 8002e66:	701a      	strb	r2, [r3, #0]
            Q_ASSERT_INCRIT(740, maxPool <= QF_MAX_EPOOL);
 8002e68:	183b      	adds	r3, r7, r0
 8002e6a:	781b      	ldrb	r3, [r3, #0]
 8002e6c:	2b03      	cmp	r3, #3
 8002e6e:	d906      	bls.n	8002e7e <QF_gc+0x6a>
 8002e70:	23b9      	movs	r3, #185	@ 0xb9
 8002e72:	009a      	lsls	r2, r3, #2
 8002e74:	4b15      	ldr	r3, [pc, #84]	@ (8002ecc <QF_gc+0xb8>)
 8002e76:	0011      	movs	r1, r2
 8002e78:	0018      	movs	r0, r3
 8002e7a:	f7fd fa95 	bl	80003a8 <Q_onError>
            Q_ASSERT_INCRIT(750, poolNum <= maxPool);
 8002e7e:	230f      	movs	r3, #15
 8002e80:	18fa      	adds	r2, r7, r3
 8002e82:	230e      	movs	r3, #14
 8002e84:	18fb      	adds	r3, r7, r3
 8002e86:	7812      	ldrb	r2, [r2, #0]
 8002e88:	781b      	ldrb	r3, [r3, #0]
 8002e8a:	429a      	cmp	r2, r3
 8002e8c:	d905      	bls.n	8002e9a <QF_gc+0x86>
 8002e8e:	4a11      	ldr	r2, [pc, #68]	@ (8002ed4 <QF_gc+0xc0>)
 8002e90:	4b0e      	ldr	r3, [pc, #56]	@ (8002ecc <QF_gc+0xb8>)
 8002e92:	0011      	movs	r1, r2
 8002e94:	0018      	movs	r0, r3
 8002e96:	f7fd fa87 	bl	80003a8 <Q_onError>
            QF_CRIT_EXIT();
 8002e9a:	f7ff f9b3 	bl	8002204 <QF_crit_exit_>
            QF_EPOOL_PUT_(QF_priv_.ePool_[poolNum - 1U], (QEvt *)e, 0U);
 8002e9e:	230f      	movs	r3, #15
 8002ea0:	18fb      	adds	r3, r7, r3
 8002ea2:	781b      	ldrb	r3, [r3, #0]
 8002ea4:	1e5a      	subs	r2, r3, #1
 8002ea6:	0013      	movs	r3, r2
 8002ea8:	009b      	lsls	r3, r3, #2
 8002eaa:	189b      	adds	r3, r3, r2
 8002eac:	009b      	lsls	r3, r3, #2
 8002eae:	4a08      	ldr	r2, [pc, #32]	@ (8002ed0 <QF_gc+0xbc>)
 8002eb0:	189b      	adds	r3, r3, r2
 8002eb2:	6879      	ldr	r1, [r7, #4]
 8002eb4:	2200      	movs	r2, #0
 8002eb6:	0018      	movs	r0, r3
 8002eb8:	f000 f91e 	bl	80030f8 <QMPool_put>
}
 8002ebc:	e001      	b.n	8002ec2 <QF_gc+0xae>
        QF_CRIT_EXIT();
 8002ebe:	f7ff f9a1 	bl	8002204 <QF_crit_exit_>
}
 8002ec2:	46c0      	nop			@ (mov r8, r8)
 8002ec4:	46bd      	mov	sp, r7
 8002ec6:	b004      	add	sp, #16
 8002ec8:	bd80      	pop	{r7, pc}
 8002eca:	46c0      	nop			@ (mov r8, r8)
 8002ecc:	08004090 	.word	0x08004090
 8002ed0:	200003c0 	.word	0x200003c0
 8002ed4:	000002ee 	.word	0x000002ee

08002ed8 <QMPool_init>:
//! @public @memberof QMPool
void QMPool_init(QMPool * const me,
    void * const poolSto,
    uint_fast32_t const poolSize,
    uint_fast16_t const blockSize)
{
 8002ed8:	b580      	push	{r7, lr}
 8002eda:	b088      	sub	sp, #32
 8002edc:	af00      	add	r7, sp, #0
 8002ede:	60f8      	str	r0, [r7, #12]
 8002ee0:	60b9      	str	r1, [r7, #8]
 8002ee2:	607a      	str	r2, [r7, #4]
 8002ee4:	603b      	str	r3, [r7, #0]
    QF_CRIT_STAT
    QF_CRIT_ENTRY();
 8002ee6:	f7ff f97d 	bl	80021e4 <QF_crit_entry_>

    // the pool storage must be provided
    Q_REQUIRE_INCRIT(100, poolSto != (void *)0);
 8002eea:	68bb      	ldr	r3, [r7, #8]
 8002eec:	2b00      	cmp	r3, #0
 8002eee:	d104      	bne.n	8002efa <QMPool_init+0x22>
 8002ef0:	4b3d      	ldr	r3, [pc, #244]	@ (8002fe8 <QMPool_init+0x110>)
 8002ef2:	2164      	movs	r1, #100	@ 0x64
 8002ef4:	0018      	movs	r0, r3
 8002ef6:	f7fd fa57 	bl	80003a8 <Q_onError>

    me->start    = (void * *)poolSto;
 8002efa:	68fb      	ldr	r3, [r7, #12]
 8002efc:	68ba      	ldr	r2, [r7, #8]
 8002efe:	601a      	str	r2, [r3, #0]
    me->freeHead = me->start;
 8002f00:	68fb      	ldr	r3, [r7, #12]
 8002f02:	681a      	ldr	r2, [r3, #0]
 8002f04:	68fb      	ldr	r3, [r7, #12]
 8002f06:	609a      	str	r2, [r3, #8]

    // find # free links in a memory block, see NOTE1
    me->blockSize = (QMPoolSize)(2U * sizeof(void *));
 8002f08:	68fb      	ldr	r3, [r7, #12]
 8002f0a:	2208      	movs	r2, #8
 8002f0c:	819a      	strh	r2, [r3, #12]
    uint_fast16_t index = 2U; // index of the next block
 8002f0e:	2302      	movs	r3, #2
 8002f10:	61fb      	str	r3, [r7, #28]
    while (me->blockSize < (QMPoolSize)blockSize) {
 8002f12:	e008      	b.n	8002f26 <QMPool_init+0x4e>
        me->blockSize += (QMPoolSize)sizeof(void *);
 8002f14:	68fb      	ldr	r3, [r7, #12]
 8002f16:	899b      	ldrh	r3, [r3, #12]
 8002f18:	3304      	adds	r3, #4
 8002f1a:	b29a      	uxth	r2, r3
 8002f1c:	68fb      	ldr	r3, [r7, #12]
 8002f1e:	819a      	strh	r2, [r3, #12]
        ++index;
 8002f20:	69fb      	ldr	r3, [r7, #28]
 8002f22:	3301      	adds	r3, #1
 8002f24:	61fb      	str	r3, [r7, #28]
    while (me->blockSize < (QMPoolSize)blockSize) {
 8002f26:	68fb      	ldr	r3, [r7, #12]
 8002f28:	899a      	ldrh	r2, [r3, #12]
 8002f2a:	683b      	ldr	r3, [r7, #0]
 8002f2c:	b29b      	uxth	r3, r3
 8002f2e:	429a      	cmp	r2, r3
 8002f30:	d3f0      	bcc.n	8002f14 <QMPool_init+0x3c>
    }

    // the pool buffer must fit at least one rounded-up block
    Q_ASSERT_INCRIT(110, poolSize >= me->blockSize);
 8002f32:	68fb      	ldr	r3, [r7, #12]
 8002f34:	899b      	ldrh	r3, [r3, #12]
 8002f36:	001a      	movs	r2, r3
 8002f38:	687b      	ldr	r3, [r7, #4]
 8002f3a:	4293      	cmp	r3, r2
 8002f3c:	d204      	bcs.n	8002f48 <QMPool_init+0x70>
 8002f3e:	4b2a      	ldr	r3, [pc, #168]	@ (8002fe8 <QMPool_init+0x110>)
 8002f40:	216e      	movs	r1, #110	@ 0x6e
 8002f42:	0018      	movs	r0, r3
 8002f44:	f7fd fa30 	bl	80003a8 <Q_onError>

    // start at the head of the free list
    void * *pfb = me->freeHead; // pointer to free block
 8002f48:	68fb      	ldr	r3, [r7, #12]
 8002f4a:	689b      	ldr	r3, [r3, #8]
 8002f4c:	61bb      	str	r3, [r7, #24]
    uint32_t nTot = 1U; // the last block already in the list
 8002f4e:	2301      	movs	r3, #1
 8002f50:	617b      	str	r3, [r7, #20]

    // chain all blocks together in a free-list...
    for (uint_fast32_t size = poolSize - me->blockSize;
 8002f52:	68fb      	ldr	r3, [r7, #12]
 8002f54:	899b      	ldrh	r3, [r3, #12]
 8002f56:	001a      	movs	r2, r3
 8002f58:	687b      	ldr	r3, [r7, #4]
 8002f5a:	1a9b      	subs	r3, r3, r2
 8002f5c:	613b      	str	r3, [r7, #16]
 8002f5e:	e016      	b.n	8002f8e <QMPool_init+0xb6>
         size >= (uint_fast32_t)me->blockSize;
         size -= (uint_fast32_t)me->blockSize)
    {
        pfb[0] = &pfb[index]; // set the next link to next free block
 8002f60:	69fb      	ldr	r3, [r7, #28]
 8002f62:	009b      	lsls	r3, r3, #2
 8002f64:	69ba      	ldr	r2, [r7, #24]
 8002f66:	18d2      	adds	r2, r2, r3
 8002f68:	69bb      	ldr	r3, [r7, #24]
 8002f6a:	601a      	str	r2, [r3, #0]
#ifndef Q_UNSAFE
        pfb[1] = pfb[0]; // update Duplicate Storage (NOT inverted)
 8002f6c:	69bb      	ldr	r3, [r7, #24]
 8002f6e:	3304      	adds	r3, #4
 8002f70:	69ba      	ldr	r2, [r7, #24]
 8002f72:	6812      	ldr	r2, [r2, #0]
 8002f74:	601a      	str	r2, [r3, #0]
#endif
        pfb = (void * *)pfb[0]; // advance to the next block
 8002f76:	69bb      	ldr	r3, [r7, #24]
 8002f78:	681b      	ldr	r3, [r3, #0]
 8002f7a:	61bb      	str	r3, [r7, #24]
        ++nTot; // one more free block in the pool
 8002f7c:	697b      	ldr	r3, [r7, #20]
 8002f7e:	3301      	adds	r3, #1
 8002f80:	617b      	str	r3, [r7, #20]
         size -= (uint_fast32_t)me->blockSize)
 8002f82:	68fb      	ldr	r3, [r7, #12]
 8002f84:	899b      	ldrh	r3, [r3, #12]
 8002f86:	001a      	movs	r2, r3
 8002f88:	693b      	ldr	r3, [r7, #16]
 8002f8a:	1a9b      	subs	r3, r3, r2
 8002f8c:	613b      	str	r3, [r7, #16]
         size >= (uint_fast32_t)me->blockSize;
 8002f8e:	68fb      	ldr	r3, [r7, #12]
 8002f90:	899b      	ldrh	r3, [r3, #12]
 8002f92:	001a      	movs	r2, r3
 8002f94:	693b      	ldr	r3, [r7, #16]
 8002f96:	4293      	cmp	r3, r2
 8002f98:	d2e2      	bcs.n	8002f60 <QMPool_init+0x88>
    }
    pfb[0] = (void *)0; // the last link points to NULL
 8002f9a:	69bb      	ldr	r3, [r7, #24]
 8002f9c:	2200      	movs	r2, #0
 8002f9e:	601a      	str	r2, [r3, #0]

    // the total number of blocks must fit in the configured dynamic range
#if (QF_MPOOL_CTR_SIZE == 1U)
    Q_ASSERT_INCRIT(160, nTot < 0xFFU);
#elif (QF_MPOOL_CTR_SIZE == 2U)
    Q_ASSERT_INCRIT(160, nTot < 0xFFFFU);
 8002fa0:	697b      	ldr	r3, [r7, #20]
 8002fa2:	4a12      	ldr	r2, [pc, #72]	@ (8002fec <QMPool_init+0x114>)
 8002fa4:	4293      	cmp	r3, r2
 8002fa6:	d904      	bls.n	8002fb2 <QMPool_init+0xda>
 8002fa8:	4b0f      	ldr	r3, [pc, #60]	@ (8002fe8 <QMPool_init+0x110>)
 8002faa:	21a0      	movs	r1, #160	@ 0xa0
 8002fac:	0018      	movs	r0, r3
 8002fae:	f7fd f9fb 	bl	80003a8 <Q_onError>
#endif

    me->nTot  = (QMPoolCtr)nTot;
 8002fb2:	697b      	ldr	r3, [r7, #20]
 8002fb4:	b29a      	uxth	r2, r3
 8002fb6:	68fb      	ldr	r3, [r7, #12]
 8002fb8:	81da      	strh	r2, [r3, #14]
    me->nFree = me->nTot; // all blocks are free
 8002fba:	68fb      	ldr	r3, [r7, #12]
 8002fbc:	89da      	ldrh	r2, [r3, #14]
 8002fbe:	68fb      	ldr	r3, [r7, #12]
 8002fc0:	821a      	strh	r2, [r3, #16]
    me->end   = pfb;      // the last block in this pool
 8002fc2:	68fb      	ldr	r3, [r7, #12]
 8002fc4:	69ba      	ldr	r2, [r7, #24]
 8002fc6:	605a      	str	r2, [r3, #4]
    me->nMin  = me->nTot; // the minimum # free blocks
 8002fc8:	68fb      	ldr	r3, [r7, #12]
 8002fca:	89da      	ldrh	r2, [r3, #14]
 8002fcc:	68fb      	ldr	r3, [r7, #12]
 8002fce:	825a      	strh	r2, [r3, #18]

#ifndef Q_UNSAFE
    pfb[1] = pfb[0]; // update Duplicate Storage (NOT inverted)
 8002fd0:	69bb      	ldr	r3, [r7, #24]
 8002fd2:	3304      	adds	r3, #4
 8002fd4:	69ba      	ldr	r2, [r7, #24]
 8002fd6:	6812      	ldr	r2, [r2, #0]
 8002fd8:	601a      	str	r2, [r3, #0]
#endif

    QF_CRIT_EXIT();
 8002fda:	f7ff f913 	bl	8002204 <QF_crit_exit_>
}
 8002fde:	46c0      	nop			@ (mov r8, r8)
 8002fe0:	46bd      	mov	sp, r7
 8002fe2:	b008      	add	sp, #32
 8002fe4:	bd80      	pop	{r7, pc}
 8002fe6:	46c0      	nop			@ (mov r8, r8)
 8002fe8:	08004098 	.word	0x08004098
 8002fec:	0000fffe 	.word	0x0000fffe

08002ff0 <QMPool_get>:
//............................................................................
//! @public @memberof QMPool
void * QMPool_get(QMPool * const me,
    uint_fast16_t const margin,
    uint_fast8_t const qsId)
{
 8002ff0:	b580      	push	{r7, lr}
 8002ff2:	b088      	sub	sp, #32
 8002ff4:	af00      	add	r7, sp, #0
 8002ff6:	60f8      	str	r0, [r7, #12]
 8002ff8:	60b9      	str	r1, [r7, #8]
 8002ffa:	607a      	str	r2, [r7, #4]
#ifndef Q_SPY
    Q_UNUSED_PAR(qsId);
#endif

    QF_CRIT_STAT
    QF_CRIT_ENTRY();
 8002ffc:	f7ff f8f2 	bl	80021e4 <QF_crit_entry_>

    // get members into temporaries
    void * *pfb     = me->freeHead; // pointer to free block
 8003000:	68fb      	ldr	r3, [r7, #12]
 8003002:	689b      	ldr	r3, [r3, #8]
 8003004:	61fb      	str	r3, [r7, #28]
    QMPoolCtr nFree = me->nFree;    // get member into temporary
 8003006:	211a      	movs	r1, #26
 8003008:	187b      	adds	r3, r7, r1
 800300a:	68fa      	ldr	r2, [r7, #12]
 800300c:	8a12      	ldrh	r2, [r2, #16]
 800300e:	801a      	strh	r2, [r3, #0]

    // have more free blocks than the requested margin?
    if (nFree > (QMPoolCtr)margin) {
 8003010:	68bb      	ldr	r3, [r7, #8]
 8003012:	b29b      	uxth	r3, r3
 8003014:	187a      	adds	r2, r7, r1
 8003016:	8812      	ldrh	r2, [r2, #0]
 8003018:	429a      	cmp	r2, r3
 800301a:	d961      	bls.n	80030e0 <QMPool_get+0xf0>
        // the free block pointer must be valid
        Q_ASSERT_INCRIT(330, pfb != (void * *)0);
 800301c:	69fb      	ldr	r3, [r7, #28]
 800301e:	2b00      	cmp	r3, #0
 8003020:	d106      	bne.n	8003030 <QMPool_get+0x40>
 8003022:	23a5      	movs	r3, #165	@ 0xa5
 8003024:	005a      	lsls	r2, r3, #1
 8003026:	4b33      	ldr	r3, [pc, #204]	@ (80030f4 <QMPool_get+0x104>)
 8003028:	0011      	movs	r1, r2
 800302a:	0018      	movs	r0, r3
 800302c:	f7fd f9bc 	bl	80003a8 <Q_onError>

        // fast temporary
        void * * const pfb_next = (void * *)pfb[0];
 8003030:	69fb      	ldr	r3, [r7, #28]
 8003032:	681b      	ldr	r3, [r3, #0]
 8003034:	617b      	str	r3, [r7, #20]

        // the free block must have integrity (Duplicate Storage, NOT inverted)
        Q_INVARIANT_INCRIT(342, pfb_next == pfb[1]);
 8003036:	69fb      	ldr	r3, [r7, #28]
 8003038:	3304      	adds	r3, #4
 800303a:	681b      	ldr	r3, [r3, #0]
 800303c:	697a      	ldr	r2, [r7, #20]
 800303e:	429a      	cmp	r2, r3
 8003040:	d006      	beq.n	8003050 <QMPool_get+0x60>
 8003042:	23ab      	movs	r3, #171	@ 0xab
 8003044:	005a      	lsls	r2, r3, #1
 8003046:	4b2b      	ldr	r3, [pc, #172]	@ (80030f4 <QMPool_get+0x104>)
 8003048:	0011      	movs	r1, r2
 800304a:	0018      	movs	r0, r3
 800304c:	f7fd f9ac 	bl	80003a8 <Q_onError>

        --nFree; // one less free block
 8003050:	211a      	movs	r1, #26
 8003052:	187b      	adds	r3, r7, r1
 8003054:	187a      	adds	r2, r7, r1
 8003056:	8812      	ldrh	r2, [r2, #0]
 8003058:	3a01      	subs	r2, #1
 800305a:	801a      	strh	r2, [r3, #0]
        if (nFree == 0U) { // is the pool becoming empty?
 800305c:	187b      	adds	r3, r7, r1
 800305e:	881b      	ldrh	r3, [r3, #0]
 8003060:	2b00      	cmp	r3, #0
 8003062:	d110      	bne.n	8003086 <QMPool_get+0x96>
            // pool is becoming empty, so the next free block must be NULL
            Q_ASSERT_INCRIT(350, pfb_next == (void * *)0);
 8003064:	697b      	ldr	r3, [r7, #20]
 8003066:	2b00      	cmp	r3, #0
 8003068:	d006      	beq.n	8003078 <QMPool_get+0x88>
 800306a:	23af      	movs	r3, #175	@ 0xaf
 800306c:	005a      	lsls	r2, r3, #1
 800306e:	4b21      	ldr	r3, [pc, #132]	@ (80030f4 <QMPool_get+0x104>)
 8003070:	0011      	movs	r1, r2
 8003072:	0018      	movs	r0, r3
 8003074:	f7fd f998 	bl	80003a8 <Q_onError>

            me->nFree = 0U; // no more free blocks
 8003078:	68fb      	ldr	r3, [r7, #12]
 800307a:	2200      	movs	r2, #0
 800307c:	821a      	strh	r2, [r3, #16]
            me->nMin  = 0U; // remember that the pool got empty
 800307e:	68fb      	ldr	r3, [r7, #12]
 8003080:	2200      	movs	r2, #0
 8003082:	825a      	strh	r2, [r3, #18]
 8003084:	e01f      	b.n	80030c6 <QMPool_get+0xd6>
        }
        else { // the pool is NOT empty

            // the next free-block pointer must be in range
            Q_ASSERT_INCRIT(360,
 8003086:	68fb      	ldr	r3, [r7, #12]
 8003088:	681b      	ldr	r3, [r3, #0]
 800308a:	697a      	ldr	r2, [r7, #20]
 800308c:	429a      	cmp	r2, r3
 800308e:	d304      	bcc.n	800309a <QMPool_get+0xaa>
 8003090:	68fb      	ldr	r3, [r7, #12]
 8003092:	685b      	ldr	r3, [r3, #4]
 8003094:	697a      	ldr	r2, [r7, #20]
 8003096:	429a      	cmp	r2, r3
 8003098:	d906      	bls.n	80030a8 <QMPool_get+0xb8>
 800309a:	23b4      	movs	r3, #180	@ 0xb4
 800309c:	005a      	lsls	r2, r3, #1
 800309e:	4b15      	ldr	r3, [pc, #84]	@ (80030f4 <QMPool_get+0x104>)
 80030a0:	0011      	movs	r1, r2
 80030a2:	0018      	movs	r0, r3
 80030a4:	f7fd f980 	bl	80003a8 <Q_onError>
                (me->start <= pfb_next) && (pfb_next <= me->end));

            me->nFree = nFree; // update the original
 80030a8:	68fb      	ldr	r3, [r7, #12]
 80030aa:	211a      	movs	r1, #26
 80030ac:	187a      	adds	r2, r7, r1
 80030ae:	8812      	ldrh	r2, [r2, #0]
 80030b0:	821a      	strh	r2, [r3, #16]
            if (me->nMin > nFree) { // is this the new minimum?
 80030b2:	68fb      	ldr	r3, [r7, #12]
 80030b4:	8a5b      	ldrh	r3, [r3, #18]
 80030b6:	187a      	adds	r2, r7, r1
 80030b8:	8812      	ldrh	r2, [r2, #0]
 80030ba:	429a      	cmp	r2, r3
 80030bc:	d203      	bcs.n	80030c6 <QMPool_get+0xd6>
                me->nMin = nFree; // remember the minimum so far
 80030be:	68fb      	ldr	r3, [r7, #12]
 80030c0:	187a      	adds	r2, r7, r1
 80030c2:	8812      	ldrh	r2, [r2, #0]
 80030c4:	825a      	strh	r2, [r3, #18]
            }
        }

        me->freeHead = pfb_next; // set the head to the next free block
 80030c6:	68fb      	ldr	r3, [r7, #12]
 80030c8:	697a      	ldr	r2, [r7, #20]
 80030ca:	609a      	str	r2, [r3, #8]

        // change the allocated block contents so that it is different
        // than a free block inside the pool.
        pfb[0] = &me->end[1]; // invalid location beyond the end
 80030cc:	68fb      	ldr	r3, [r7, #12]
 80030ce:	685b      	ldr	r3, [r3, #4]
 80030d0:	1d1a      	adds	r2, r3, #4
 80030d2:	69fb      	ldr	r3, [r7, #28]
 80030d4:	601a      	str	r2, [r3, #0]
#ifndef Q_UNSAFE
        pfb[1] = (void *)0; // invalidate the Duplicate Storage
 80030d6:	69fb      	ldr	r3, [r7, #28]
 80030d8:	3304      	adds	r3, #4
 80030da:	2200      	movs	r2, #0
 80030dc:	601a      	str	r2, [r3, #0]
 80030de:	e001      	b.n	80030e4 <QMPool_get+0xf4>
            QS_MPC_PRE(nFree);     // # free blocks in the pool
            QS_MPC_PRE(me->nMin);  // min # free blocks ever in the pool
        QS_END_PRE()
    }
    else { // don't have enough free blocks at this point
        pfb = (void * *)0;
 80030e0:	2300      	movs	r3, #0
 80030e2:	61fb      	str	r3, [r7, #28]
            QS_MPC_PRE(nFree);     // # free blocks in the pool
            QS_MPC_PRE(margin);    // the requested margin
        QS_END_PRE()
    }

    QF_CRIT_EXIT();
 80030e4:	f7ff f88e 	bl	8002204 <QF_crit_exit_>

    return (void *)pfb; // return the block or NULL
 80030e8:	69fb      	ldr	r3, [r7, #28]
}
 80030ea:	0018      	movs	r0, r3
 80030ec:	46bd      	mov	sp, r7
 80030ee:	b008      	add	sp, #32
 80030f0:	bd80      	pop	{r7, pc}
 80030f2:	46c0      	nop			@ (mov r8, r8)
 80030f4:	08004098 	.word	0x08004098

080030f8 <QMPool_put>:
//............................................................................
//! @public @memberof QMPool
void QMPool_put(QMPool * const me,
    void * const block,
    uint_fast8_t const qsId)
{
 80030f8:	b580      	push	{r7, lr}
 80030fa:	b088      	sub	sp, #32
 80030fc:	af00      	add	r7, sp, #0
 80030fe:	60f8      	str	r0, [r7, #12]
 8003100:	60b9      	str	r1, [r7, #8]
 8003102:	607a      	str	r2, [r7, #4]
#ifndef Q_SPY
    Q_UNUSED_PAR(qsId);
#endif

    void * * const pfb = (void * *)block; // ptr to free block
 8003104:	68bb      	ldr	r3, [r7, #8]
 8003106:	61fb      	str	r3, [r7, #28]

    QF_CRIT_STAT
    QF_CRIT_ENTRY();
 8003108:	f7ff f86c 	bl	80021e4 <QF_crit_entry_>

    // the block returned to the pool must be valid
    Q_REQUIRE_INCRIT(400, pfb != (void * *)0);
 800310c:	69fb      	ldr	r3, [r7, #28]
 800310e:	2b00      	cmp	r3, #0
 8003110:	d106      	bne.n	8003120 <QMPool_put+0x28>
 8003112:	23c8      	movs	r3, #200	@ 0xc8
 8003114:	005a      	lsls	r2, r3, #1
 8003116:	4b29      	ldr	r3, [pc, #164]	@ (80031bc <QMPool_put+0xc4>)
 8003118:	0011      	movs	r1, r2
 800311a:	0018      	movs	r0, r3
 800311c:	f7fd f944 	bl	80003a8 <Q_onError>

    // the block must be in range of this pool (block from a different pool?)
    Q_REQUIRE_INCRIT(410, (me->start <= pfb) && (pfb <= me->end));
 8003120:	68fb      	ldr	r3, [r7, #12]
 8003122:	681b      	ldr	r3, [r3, #0]
 8003124:	69fa      	ldr	r2, [r7, #28]
 8003126:	429a      	cmp	r2, r3
 8003128:	d304      	bcc.n	8003134 <QMPool_put+0x3c>
 800312a:	68fb      	ldr	r3, [r7, #12]
 800312c:	685b      	ldr	r3, [r3, #4]
 800312e:	69fa      	ldr	r2, [r7, #28]
 8003130:	429a      	cmp	r2, r3
 8003132:	d906      	bls.n	8003142 <QMPool_put+0x4a>
 8003134:	23cd      	movs	r3, #205	@ 0xcd
 8003136:	005a      	lsls	r2, r3, #1
 8003138:	4b20      	ldr	r3, [pc, #128]	@ (80031bc <QMPool_put+0xc4>)
 800313a:	0011      	movs	r1, r2
 800313c:	0018      	movs	r0, r3
 800313e:	f7fd f933 	bl	80003a8 <Q_onError>

    // the block must NOT be in the pool already (double free?)
    // NOTE: a block in the pool already matches the duplicate storage,
    // so the block not in the pool must NOT match the Duplicate Storage
    Q_INVARIANT_INCRIT(422, pfb[0] != pfb[1]);
 8003142:	69fb      	ldr	r3, [r7, #28]
 8003144:	681a      	ldr	r2, [r3, #0]
 8003146:	69fb      	ldr	r3, [r7, #28]
 8003148:	3304      	adds	r3, #4
 800314a:	681b      	ldr	r3, [r3, #0]
 800314c:	429a      	cmp	r2, r3
 800314e:	d106      	bne.n	800315e <QMPool_put+0x66>
 8003150:	23d3      	movs	r3, #211	@ 0xd3
 8003152:	005a      	lsls	r2, r3, #1
 8003154:	4b19      	ldr	r3, [pc, #100]	@ (80031bc <QMPool_put+0xc4>)
 8003156:	0011      	movs	r1, r2
 8003158:	0018      	movs	r0, r3
 800315a:	f7fd f925 	bl	80003a8 <Q_onError>

    // get members into temporaries
    void * * const freeHead = me->freeHead;
 800315e:	68fb      	ldr	r3, [r7, #12]
 8003160:	689b      	ldr	r3, [r3, #8]
 8003162:	61bb      	str	r3, [r7, #24]
    QMPoolCtr nFree = me->nFree;
 8003164:	2116      	movs	r1, #22
 8003166:	187b      	adds	r3, r7, r1
 8003168:	68fa      	ldr	r2, [r7, #12]
 800316a:	8a12      	ldrh	r2, [r2, #16]
 800316c:	801a      	strh	r2, [r3, #0]

    // the number of free blocks must be below the total because
    // one more block is just being returned to the pool
    Q_REQUIRE_INCRIT(450, nFree < me->nTot);
 800316e:	68fb      	ldr	r3, [r7, #12]
 8003170:	89db      	ldrh	r3, [r3, #14]
 8003172:	187a      	adds	r2, r7, r1
 8003174:	8812      	ldrh	r2, [r2, #0]
 8003176:	429a      	cmp	r2, r3
 8003178:	d306      	bcc.n	8003188 <QMPool_put+0x90>
 800317a:	23e1      	movs	r3, #225	@ 0xe1
 800317c:	005a      	lsls	r2, r3, #1
 800317e:	4b0f      	ldr	r3, [pc, #60]	@ (80031bc <QMPool_put+0xc4>)
 8003180:	0011      	movs	r1, r2
 8003182:	0018      	movs	r0, r3
 8003184:	f7fd f910 	bl	80003a8 <Q_onError>

    ++nFree; // one more free block in this pool
 8003188:	2116      	movs	r1, #22
 800318a:	187b      	adds	r3, r7, r1
 800318c:	187a      	adds	r2, r7, r1
 800318e:	8812      	ldrh	r2, [r2, #0]
 8003190:	3201      	adds	r2, #1
 8003192:	801a      	strh	r2, [r3, #0]

    me->freeHead = pfb; // set as new head of the free list
 8003194:	68fb      	ldr	r3, [r7, #12]
 8003196:	69fa      	ldr	r2, [r7, #28]
 8003198:	609a      	str	r2, [r3, #8]
    me->nFree    = nFree;
 800319a:	68fb      	ldr	r3, [r7, #12]
 800319c:	187a      	adds	r2, r7, r1
 800319e:	8812      	ldrh	r2, [r2, #0]
 80031a0:	821a      	strh	r2, [r3, #16]
    pfb[0]       = freeHead; // link into the list
 80031a2:	69fb      	ldr	r3, [r7, #28]
 80031a4:	69ba      	ldr	r2, [r7, #24]
 80031a6:	601a      	str	r2, [r3, #0]
#ifndef Q_UNSAFE
    pfb[1] = freeHead;  // update Duplicate Storage (NOT inverted)
 80031a8:	69fb      	ldr	r3, [r7, #28]
 80031aa:	3304      	adds	r3, #4
 80031ac:	69ba      	ldr	r2, [r7, #24]
 80031ae:	601a      	str	r2, [r3, #0]
        QS_TIME_PRE();         // timestamp
        QS_OBJ_PRE(me);        // this memory pool
        QS_MPC_PRE(nFree);     // the # free blocks in the pool
    QS_END_PRE()

    QF_CRIT_EXIT();
 80031b0:	f7ff f828 	bl	8002204 <QF_crit_exit_>
}
 80031b4:	46c0      	nop			@ (mov r8, r8)
 80031b6:	46bd      	mov	sp, r7
 80031b8:	b008      	add	sp, #32
 80031ba:	bd80      	pop	{r7, pc}
 80031bc:	08004098 	.word	0x08004098

080031c0 <QActive_psInit>:
//............................................................................
//! @static @public @memberof QActive
void QActive_psInit(
    QSubscrList * const subscrSto,
    enum_t const maxSignal)
{
 80031c0:	b580      	push	{r7, lr}
 80031c2:	b084      	sub	sp, #16
 80031c4:	af00      	add	r7, sp, #0
 80031c6:	6078      	str	r0, [r7, #4]
 80031c8:	6039      	str	r1, [r7, #0]
    // provided subscSto must be valid
    Q_REQUIRE_INCRIT(100, subscrSto != (QSubscrList *)0);
 80031ca:	687b      	ldr	r3, [r7, #4]
 80031cc:	2b00      	cmp	r3, #0
 80031ce:	d104      	bne.n	80031da <QActive_psInit+0x1a>
 80031d0:	4b14      	ldr	r3, [pc, #80]	@ (8003224 <QActive_psInit+0x64>)
 80031d2:	2164      	movs	r1, #100	@ 0x64
 80031d4:	0018      	movs	r0, r3
 80031d6:	f7fd f8e7 	bl	80003a8 <Q_onError>

    // provided maximum of subscribed signals must be >= Q_USER_SIG
    Q_REQUIRE_INCRIT(110, maxSignal >= Q_USER_SIG);
 80031da:	683b      	ldr	r3, [r7, #0]
 80031dc:	2b03      	cmp	r3, #3
 80031de:	dc04      	bgt.n	80031ea <QActive_psInit+0x2a>
 80031e0:	4b10      	ldr	r3, [pc, #64]	@ (8003224 <QActive_psInit+0x64>)
 80031e2:	216e      	movs	r1, #110	@ 0x6e
 80031e4:	0018      	movs	r0, r3
 80031e6:	f7fd f8df 	bl	80003a8 <Q_onError>

    QActive_subscrList_   = subscrSto;
 80031ea:	4b0f      	ldr	r3, [pc, #60]	@ (8003228 <QActive_psInit+0x68>)
 80031ec:	687a      	ldr	r2, [r7, #4]
 80031ee:	601a      	str	r2, [r3, #0]
    QActive_maxPubSignal_ = (QSignal)maxSignal;
 80031f0:	683b      	ldr	r3, [r7, #0]
 80031f2:	b29a      	uxth	r2, r3
 80031f4:	4b0d      	ldr	r3, [pc, #52]	@ (800322c <QActive_psInit+0x6c>)
 80031f6:	801a      	strh	r2, [r3, #0]

    // initialize all signals in the subscriber list...
    for (enum_t sig = 0; sig < maxSignal; ++sig) {
 80031f8:	2300      	movs	r3, #0
 80031fa:	60fb      	str	r3, [r7, #12]
 80031fc:	e009      	b.n	8003212 <QActive_psInit+0x52>
        QPSet_setEmpty(&subscrSto[sig].set); // no subscibers to this signal
 80031fe:	68fb      	ldr	r3, [r7, #12]
 8003200:	009b      	lsls	r3, r3, #2
 8003202:	687a      	ldr	r2, [r7, #4]
 8003204:	18d3      	adds	r3, r2, r3
 8003206:	0018      	movs	r0, r3
 8003208:	f000 f9fe 	bl	8003608 <QPSet_setEmpty>
    for (enum_t sig = 0; sig < maxSignal; ++sig) {
 800320c:	68fb      	ldr	r3, [r7, #12]
 800320e:	3301      	adds	r3, #1
 8003210:	60fb      	str	r3, [r7, #12]
 8003212:	68fa      	ldr	r2, [r7, #12]
 8003214:	683b      	ldr	r3, [r7, #0]
 8003216:	429a      	cmp	r2, r3
 8003218:	dbf1      	blt.n	80031fe <QActive_psInit+0x3e>
    }
}
 800321a:	46c0      	nop			@ (mov r8, r8)
 800321c:	46c0      	nop			@ (mov r8, r8)
 800321e:	46bd      	mov	sp, r7
 8003220:	b004      	add	sp, #16
 8003222:	bd80      	pop	{r7, pc}
 8003224:	080040a0 	.word	0x080040a0
 8003228:	20000334 	.word	0x20000334
 800322c:	20000338 	.word	0x20000338

08003230 <QActive_publish_>:
//! @static @private @memberof QActive
void QActive_publish_(
    QEvt const * const e,
    void const * const sender,
    uint_fast8_t const qsId)
{
 8003230:	b590      	push	{r4, r7, lr}
 8003232:	b087      	sub	sp, #28
 8003234:	af00      	add	r7, sp, #0
 8003236:	60f8      	str	r0, [r7, #12]
 8003238:	60b9      	str	r1, [r7, #8]
 800323a:	607a      	str	r2, [r7, #4]
    Q_UNUSED_PAR(sender);
    Q_UNUSED_PAR(qsId);
#endif

    QF_CRIT_STAT
    QF_CRIT_ENTRY();
 800323c:	f7fe ffd2 	bl	80021e4 <QF_crit_entry_>

    // the published event must be valid
    Q_REQUIRE_INCRIT(200, e != (QEvt *)0);
 8003240:	68fb      	ldr	r3, [r7, #12]
 8003242:	2b00      	cmp	r3, #0
 8003244:	d104      	bne.n	8003250 <QActive_publish_+0x20>
 8003246:	4b1e      	ldr	r3, [pc, #120]	@ (80032c0 <QActive_publish_+0x90>)
 8003248:	21c8      	movs	r1, #200	@ 0xc8
 800324a:	0018      	movs	r0, r3
 800324c:	f7fd f8ac 	bl	80003a8 <Q_onError>

    QSignal const sig = (QSignal)e->sig;
 8003250:	2116      	movs	r1, #22
 8003252:	187b      	adds	r3, r7, r1
 8003254:	68fa      	ldr	r2, [r7, #12]
 8003256:	8812      	ldrh	r2, [r2, #0]
 8003258:	801a      	strh	r2, [r3, #0]

    // published event signal must not exceed the maximum
    Q_REQUIRE_INCRIT(240, sig < QActive_maxPubSignal_);
 800325a:	4b1a      	ldr	r3, [pc, #104]	@ (80032c4 <QActive_publish_+0x94>)
 800325c:	881b      	ldrh	r3, [r3, #0]
 800325e:	187a      	adds	r2, r7, r1
 8003260:	8812      	ldrh	r2, [r2, #0]
 8003262:	429a      	cmp	r2, r3
 8003264:	d304      	bcc.n	8003270 <QActive_publish_+0x40>
 8003266:	4b16      	ldr	r3, [pc, #88]	@ (80032c0 <QActive_publish_+0x90>)
 8003268:	21f0      	movs	r1, #240	@ 0xf0
 800326a:	0018      	movs	r0, r3
 800326c:	f7fd f89c 	bl	80003a8 <Q_onError>

    // make a local, modifiable copy of the subscriber set
    QPSet subscrSet = QActive_subscrList_[sig].set;
 8003270:	4b15      	ldr	r3, [pc, #84]	@ (80032c8 <QActive_publish_+0x98>)
 8003272:	681a      	ldr	r2, [r3, #0]
 8003274:	2316      	movs	r3, #22
 8003276:	18fb      	adds	r3, r7, r3
 8003278:	881b      	ldrh	r3, [r3, #0]
 800327a:	009b      	lsls	r3, r3, #2
 800327c:	18d3      	adds	r3, r2, r3
 800327e:	681b      	ldr	r3, [r3, #0]
 8003280:	613b      	str	r3, [r7, #16]
        QS_OBJ_PRE(sender);     // the sender object
        QS_SIG_PRE(sig);        // the signal of the event
        QS_2U8_PRE(e->poolNum_, e->refCtr_);
    QS_END_PRE()

    if (e->poolNum_ != 0U) { // is it a mutable event?
 8003282:	68fb      	ldr	r3, [r7, #12]
 8003284:	789b      	ldrb	r3, [r3, #2]
 8003286:	2b00      	cmp	r3, #0
 8003288:	d003      	beq.n	8003292 <QActive_publish_+0x62>
        // prevent premature recycling of the event while multicasting is
        // still in progress. The garbage collector step (QF_gc()) at the
        // end of the function decrements the reference counter and recycles
        // the event if the counter drops to zero. This covers the case when
        // event was published without any subscribers.
        QEvt_refCtr_inc_(e);
 800328a:	68fb      	ldr	r3, [r7, #12]
 800328c:	0018      	movs	r0, r3
 800328e:	f7ff fb81 	bl	8002994 <QEvt_refCtr_inc_>
    }

    QF_CRIT_EXIT();
 8003292:	f7fe ffb7 	bl	8002204 <QF_crit_exit_>

    if (QPSet_notEmpty(&subscrSet)) { // any subscribers?
 8003296:	2410      	movs	r4, #16
 8003298:	193b      	adds	r3, r7, r4
 800329a:	0018      	movs	r0, r3
 800329c:	f000 f9cc 	bl	8003638 <QPSet_notEmpty>
 80032a0:	1e03      	subs	r3, r0, #0
 80032a2:	d005      	beq.n	80032b0 <QActive_publish_+0x80>
        QActive_multicast_(&subscrSet, e, sender); // multicast to all
 80032a4:	68ba      	ldr	r2, [r7, #8]
 80032a6:	68f9      	ldr	r1, [r7, #12]
 80032a8:	193b      	adds	r3, r7, r4
 80032aa:	0018      	movs	r0, r3
 80032ac:	f000 f80e 	bl	80032cc <QActive_multicast_>

    // The following garbage collection step decrements the reference counter
    // and recycles the event if the counter drops to zero. This covers both
    // cases when the event was published with or without any subscribers.
#if (QF_MAX_EPOOL > 0U)
    QF_gc(e); // recycle the event to avoid a leak
 80032b0:	68fb      	ldr	r3, [r7, #12]
 80032b2:	0018      	movs	r0, r3
 80032b4:	f7ff fdae 	bl	8002e14 <QF_gc>
#endif
}
 80032b8:	46c0      	nop			@ (mov r8, r8)
 80032ba:	46bd      	mov	sp, r7
 80032bc:	b007      	add	sp, #28
 80032be:	bd90      	pop	{r4, r7, pc}
 80032c0:	080040a0 	.word	0x080040a0
 80032c4:	20000338 	.word	0x20000338
 80032c8:	20000334 	.word	0x20000334

080032cc <QActive_multicast_>:
//! @private @memberof QActive
static void QActive_multicast_(
    QPSet * const subscrSet,
    QEvt const * const e,
    void const * const sender)
{
 80032cc:	b590      	push	{r4, r7, lr}
 80032ce:	b089      	sub	sp, #36	@ 0x24
 80032d0:	af00      	add	r7, sp, #0
 80032d2:	60f8      	str	r0, [r7, #12]
 80032d4:	60b9      	str	r1, [r7, #8]
 80032d6:	607a      	str	r2, [r7, #4]
#ifndef Q_SPY
    Q_UNUSED_PAR(sender);
#endif

    // highest-prio subscriber ('subscrSet' guaranteed to be NOT empty)
    uint8_t p = (uint8_t)QPSet_findMax(subscrSet);
 80032d8:	68fb      	ldr	r3, [r7, #12]
 80032da:	0018      	movs	r0, r3
 80032dc:	f000 f9e0 	bl	80036a0 <QPSet_findMax>
 80032e0:	0002      	movs	r2, r0
 80032e2:	241f      	movs	r4, #31
 80032e4:	193b      	adds	r3, r7, r4
 80032e6:	701a      	strb	r2, [r3, #0]

    QF_CRIT_STAT
    QF_CRIT_ENTRY();
 80032e8:	f7fe ff7c 	bl	80021e4 <QF_crit_entry_>

    // p != 0 is guaranteed as the result of QPSet_findMax()
    Q_ASSERT_INCRIT(300, p <= QF_MAX_ACTIVE);
 80032ec:	193b      	adds	r3, r7, r4
 80032ee:	781b      	ldrb	r3, [r3, #0]
 80032f0:	2b20      	cmp	r3, #32
 80032f2:	d906      	bls.n	8003302 <QActive_multicast_+0x36>
 80032f4:	2396      	movs	r3, #150	@ 0x96
 80032f6:	005a      	lsls	r2, r3, #1
 80032f8:	4b32      	ldr	r3, [pc, #200]	@ (80033c4 <QActive_multicast_+0xf8>)
 80032fa:	0011      	movs	r1, r2
 80032fc:	0018      	movs	r0, r3
 80032fe:	f7fd f853 	bl	80003a8 <Q_onError>
    QActive *a = QActive_registry_[p];
 8003302:	231f      	movs	r3, #31
 8003304:	18fb      	adds	r3, r7, r3
 8003306:	781a      	ldrb	r2, [r3, #0]
 8003308:	4b2f      	ldr	r3, [pc, #188]	@ (80033c8 <QActive_multicast_+0xfc>)
 800330a:	0092      	lsls	r2, r2, #2
 800330c:	58d3      	ldr	r3, [r2, r3]
 800330e:	61bb      	str	r3, [r7, #24]

    // the active object must be registered (started)
    Q_ASSERT_INCRIT(310, a != (QActive *)0);
 8003310:	69bb      	ldr	r3, [r7, #24]
 8003312:	2b00      	cmp	r3, #0
 8003314:	d106      	bne.n	8003324 <QActive_multicast_+0x58>
 8003316:	239b      	movs	r3, #155	@ 0x9b
 8003318:	005a      	lsls	r2, r3, #1
 800331a:	4b2a      	ldr	r3, [pc, #168]	@ (80033c4 <QActive_multicast_+0xf8>)
 800331c:	0011      	movs	r1, r2
 800331e:	0018      	movs	r0, r3
 8003320:	f7fd f842 	bl	80003a8 <Q_onError>

    QF_CRIT_EXIT();
 8003324:	f7fe ff6e 	bl	8002204 <QF_crit_exit_>
    __asm volatile ("mrs %0,ipsr" : "=r" (regIPSR));
 8003328:	f3ef 8305 	mrs	r3, IPSR
 800332c:	613b      	str	r3, [r7, #16]
    return regIPSR;
 800332e:	693b      	ldr	r3, [r7, #16]

    QF_SCHED_STAT_
    QF_SCHED_LOCK_(p); // lock the scheduler up to AO's prio
 8003330:	2b00      	cmp	r3, #0
 8003332:	d002      	beq.n	800333a <QActive_multicast_+0x6e>
 8003334:	23ff      	movs	r3, #255	@ 0xff
 8003336:	617b      	str	r3, [r7, #20]
 8003338:	e007      	b.n	800334a <QActive_multicast_+0x7e>
 800333a:	231f      	movs	r3, #31
 800333c:	18fb      	adds	r3, r7, r3
 800333e:	781b      	ldrb	r3, [r3, #0]
 8003340:	0018      	movs	r0, r3
 8003342:	f000 fb97 	bl	8003a74 <QK_schedLock>
 8003346:	0003      	movs	r3, r0
 8003348:	617b      	str	r3, [r7, #20]
    // QF_MAX_ACTIVE elements (rounded up to the nearest 8), which are
    // removed one by one at every pass.
    for (;;) { // loop over all subscribers

        // QACTIVE_POST() asserts internally if the queue overflows
        QACTIVE_POST(a, e, sender);
 800334a:	4a20      	ldr	r2, [pc, #128]	@ (80033cc <QActive_multicast_+0x100>)
 800334c:	68b9      	ldr	r1, [r7, #8]
 800334e:	69b8      	ldr	r0, [r7, #24]
 8003350:	2300      	movs	r3, #0
 8003352:	f7ff fb4b 	bl	80029ec <QActive_post_>

        QPSet_remove(subscrSet, p); // remove the handled subscriber
 8003356:	241f      	movs	r4, #31
 8003358:	193b      	adds	r3, r7, r4
 800335a:	781a      	ldrb	r2, [r3, #0]
 800335c:	68fb      	ldr	r3, [r7, #12]
 800335e:	0011      	movs	r1, r2
 8003360:	0018      	movs	r0, r3
 8003362:	f000 f989 	bl	8003678 <QPSet_remove>
        if (QPSet_isEmpty(subscrSet)) {  // no more subscribers?
 8003366:	68fb      	ldr	r3, [r7, #12]
 8003368:	0018      	movs	r0, r3
 800336a:	f000 f958 	bl	800361e <QPSet_isEmpty>
 800336e:	1e03      	subs	r3, r0, #0
 8003370:	d11b      	bne.n	80033aa <QActive_multicast_+0xde>
            break;
        }

        // find the next highest-prio subscriber
        p = (uint8_t)QPSet_findMax(subscrSet);
 8003372:	68fb      	ldr	r3, [r7, #12]
 8003374:	0018      	movs	r0, r3
 8003376:	f000 f993 	bl	80036a0 <QPSet_findMax>
 800337a:	0002      	movs	r2, r0
 800337c:	193b      	adds	r3, r7, r4
 800337e:	701a      	strb	r2, [r3, #0]

        QF_CRIT_ENTRY();
 8003380:	f7fe ff30 	bl	80021e4 <QF_crit_entry_>

        a = QActive_registry_[p];
 8003384:	193b      	adds	r3, r7, r4
 8003386:	781a      	ldrb	r2, [r3, #0]
 8003388:	4b0f      	ldr	r3, [pc, #60]	@ (80033c8 <QActive_multicast_+0xfc>)
 800338a:	0092      	lsls	r2, r2, #2
 800338c:	58d3      	ldr	r3, [r2, r3]
 800338e:	61bb      	str	r3, [r7, #24]

        // the AO must be registered with the framework
        Q_ASSERT_INCRIT(340, a != (QActive *)0);
 8003390:	69bb      	ldr	r3, [r7, #24]
 8003392:	2b00      	cmp	r3, #0
 8003394:	d106      	bne.n	80033a4 <QActive_multicast_+0xd8>
 8003396:	23aa      	movs	r3, #170	@ 0xaa
 8003398:	005a      	lsls	r2, r3, #1
 800339a:	4b0a      	ldr	r3, [pc, #40]	@ (80033c4 <QActive_multicast_+0xf8>)
 800339c:	0011      	movs	r1, r2
 800339e:	0018      	movs	r0, r3
 80033a0:	f7fd f802 	bl	80003a8 <Q_onError>

        QF_CRIT_EXIT();
 80033a4:	f7fe ff2e 	bl	8002204 <QF_crit_exit_>
        QACTIVE_POST(a, e, sender);
 80033a8:	e7cf      	b.n	800334a <QActive_multicast_+0x7e>
            break;
 80033aa:	46c0      	nop			@ (mov r8, r8)
    }

    QF_SCHED_UNLOCK_(); // unlock the scheduler
 80033ac:	697b      	ldr	r3, [r7, #20]
 80033ae:	2bff      	cmp	r3, #255	@ 0xff
 80033b0:	d003      	beq.n	80033ba <QActive_multicast_+0xee>
 80033b2:	697b      	ldr	r3, [r7, #20]
 80033b4:	0018      	movs	r0, r3
 80033b6:	f000 fb8b 	bl	8003ad0 <QK_schedUnlock>
}
 80033ba:	46c0      	nop			@ (mov r8, r8)
 80033bc:	46bd      	mov	sp, r7
 80033be:	b009      	add	sp, #36	@ 0x24
 80033c0:	bd90      	pop	{r4, r7, pc}
 80033c2:	46c0      	nop			@ (mov r8, r8)
 80033c4:	080040a0 	.word	0x080040a0
 80033c8:	2000033c 	.word	0x2000033c
 80033cc:	0000ffff 	.word	0x0000ffff

080033d0 <QActive_subscribe>:

//............................................................................
//! @protected @memberof QActive
void QActive_subscribe(QActive const * const me,
    enum_t const sig)
{
 80033d0:	b580      	push	{r7, lr}
 80033d2:	b084      	sub	sp, #16
 80033d4:	af00      	add	r7, sp, #0
 80033d6:	6078      	str	r0, [r7, #4]
 80033d8:	6039      	str	r1, [r7, #0]
    QF_CRIT_STAT
    QF_CRIT_ENTRY();
 80033da:	f7fe ff03 	bl	80021e4 <QF_crit_entry_>

    uint8_t const p = me->prio;
 80033de:	210f      	movs	r1, #15
 80033e0:	187b      	adds	r3, r7, r1
 80033e2:	687a      	ldr	r2, [r7, #4]
 80033e4:	7b12      	ldrb	r2, [r2, #12]
 80033e6:	701a      	strb	r2, [r3, #0]

    // the AO's prio. must be in range
    Q_REQUIRE_INCRIT(420, (0U < p) && (p <= QF_MAX_ACTIVE));
 80033e8:	000a      	movs	r2, r1
 80033ea:	18bb      	adds	r3, r7, r2
 80033ec:	781b      	ldrb	r3, [r3, #0]
 80033ee:	2b00      	cmp	r3, #0
 80033f0:	d003      	beq.n	80033fa <QActive_subscribe+0x2a>
 80033f2:	18bb      	adds	r3, r7, r2
 80033f4:	781b      	ldrb	r3, [r3, #0]
 80033f6:	2b20      	cmp	r3, #32
 80033f8:	d906      	bls.n	8003408 <QActive_subscribe+0x38>
 80033fa:	23d2      	movs	r3, #210	@ 0xd2
 80033fc:	005a      	lsls	r2, r3, #1
 80033fe:	4b1f      	ldr	r3, [pc, #124]	@ (800347c <QActive_subscribe+0xac>)
 8003400:	0011      	movs	r1, r2
 8003402:	0018      	movs	r0, r3
 8003404:	f7fc ffd0 	bl	80003a8 <Q_onError>

    // the subscriber AO must be registered (started)
    Q_REQUIRE_INCRIT(440, me == QActive_registry_[p]);
 8003408:	230f      	movs	r3, #15
 800340a:	18fb      	adds	r3, r7, r3
 800340c:	781a      	ldrb	r2, [r3, #0]
 800340e:	4b1c      	ldr	r3, [pc, #112]	@ (8003480 <QActive_subscribe+0xb0>)
 8003410:	0092      	lsls	r2, r2, #2
 8003412:	58d3      	ldr	r3, [r2, r3]
 8003414:	687a      	ldr	r2, [r7, #4]
 8003416:	429a      	cmp	r2, r3
 8003418:	d006      	beq.n	8003428 <QActive_subscribe+0x58>
 800341a:	23dc      	movs	r3, #220	@ 0xdc
 800341c:	005a      	lsls	r2, r3, #1
 800341e:	4b17      	ldr	r3, [pc, #92]	@ (800347c <QActive_subscribe+0xac>)
 8003420:	0011      	movs	r1, r2
 8003422:	0018      	movs	r0, r3
 8003424:	f7fc ffc0 	bl	80003a8 <Q_onError>

    // the sig parameter must not overlap reserved signals
    Q_REQUIRE_INCRIT(460, sig >= Q_USER_SIG);
 8003428:	683b      	ldr	r3, [r7, #0]
 800342a:	2b03      	cmp	r3, #3
 800342c:	dc06      	bgt.n	800343c <QActive_subscribe+0x6c>
 800342e:	23e6      	movs	r3, #230	@ 0xe6
 8003430:	005a      	lsls	r2, r3, #1
 8003432:	4b12      	ldr	r3, [pc, #72]	@ (800347c <QActive_subscribe+0xac>)
 8003434:	0011      	movs	r1, r2
 8003436:	0018      	movs	r0, r3
 8003438:	f7fc ffb6 	bl	80003a8 <Q_onError>

    // the subscribed signal must be below the maximum of published signals
    Q_REQUIRE_INCRIT(480, (QSignal)sig < QActive_maxPubSignal_);
 800343c:	683b      	ldr	r3, [r7, #0]
 800343e:	b29a      	uxth	r2, r3
 8003440:	4b10      	ldr	r3, [pc, #64]	@ (8003484 <QActive_subscribe+0xb4>)
 8003442:	881b      	ldrh	r3, [r3, #0]
 8003444:	429a      	cmp	r2, r3
 8003446:	d306      	bcc.n	8003456 <QActive_subscribe+0x86>
 8003448:	23f0      	movs	r3, #240	@ 0xf0
 800344a:	005a      	lsls	r2, r3, #1
 800344c:	4b0b      	ldr	r3, [pc, #44]	@ (800347c <QActive_subscribe+0xac>)
 800344e:	0011      	movs	r1, r2
 8003450:	0018      	movs	r0, r3
 8003452:	f7fc ffa9 	bl	80003a8 <Q_onError>
        QS_SIG_PRE(sig);  // the signal of this event
        QS_OBJ_PRE(me);   // this active object
    QS_END_PRE()

    // insert the AO's prio. into the subscriber set for the signal
    QPSet_insert(&QActive_subscrList_[sig].set, p);
 8003456:	4b0c      	ldr	r3, [pc, #48]	@ (8003488 <QActive_subscribe+0xb8>)
 8003458:	681a      	ldr	r2, [r3, #0]
 800345a:	683b      	ldr	r3, [r7, #0]
 800345c:	009b      	lsls	r3, r3, #2
 800345e:	18d3      	adds	r3, r2, r3
 8003460:	001a      	movs	r2, r3
 8003462:	230f      	movs	r3, #15
 8003464:	18fb      	adds	r3, r7, r3
 8003466:	781b      	ldrb	r3, [r3, #0]
 8003468:	0019      	movs	r1, r3
 800346a:	0010      	movs	r0, r2
 800346c:	f000 f8f1 	bl	8003652 <QPSet_insert>

    QF_CRIT_EXIT();
 8003470:	f7fe fec8 	bl	8002204 <QF_crit_exit_>
}
 8003474:	46c0      	nop			@ (mov r8, r8)
 8003476:	46bd      	mov	sp, r7
 8003478:	b004      	add	sp, #16
 800347a:	bd80      	pop	{r7, pc}
 800347c:	080040a0 	.word	0x080040a0
 8003480:	2000033c 	.word	0x2000033c
 8003484:	20000338 	.word	0x20000338
 8003488:	20000334 	.word	0x20000334

0800348c <QActive_ctor>:

//----------------------------------------------------------------------------
//! @protected @memberof QActive
void QActive_ctor(QActive * const me,
    QStateHandler const initial)
{
 800348c:	b580      	push	{r7, lr}
 800348e:	b082      	sub	sp, #8
 8003490:	af00      	add	r7, sp, #0
 8003492:	6078      	str	r0, [r7, #4]
 8003494:	6039      	str	r1, [r7, #0]
    // NOTE: QActive indirectly inherits the abstract QAsm base class,
    // but it will delegate the state machine behavior to the QHsm class,
    // so the following initiaization is identical as in QHsm ctor:
    QHsm_ctor((QHsm *)(me), initial);
 8003496:	683a      	ldr	r2, [r7, #0]
 8003498:	687b      	ldr	r3, [r7, #4]
 800349a:	0011      	movs	r1, r2
 800349c:	0018      	movs	r0, r3
 800349e:	f7fe ff23 	bl	80022e8 <QHsm_ctor>
        &QHsm_init_,
        &QHsm_dispatch_,
        &QHsm_isIn_,
        &QHsm_getStateHandler_
    };
    me->super.vptr = &vtable; // hook vptr to QActive vtable
 80034a2:	687b      	ldr	r3, [r7, #4]
 80034a4:	4a02      	ldr	r2, [pc, #8]	@ (80034b0 <QActive_ctor+0x24>)
 80034a6:	601a      	str	r2, [r3, #0]
}
 80034a8:	46c0      	nop			@ (mov r8, r8)
 80034aa:	46bd      	mov	sp, r7
 80034ac:	b002      	add	sp, #8
 80034ae:	bd80      	pop	{r7, pc}
 80034b0:	080040b0 	.word	0x080040b0

080034b4 <QActive_register_>:

//............................................................................
//! @private @memberof QActive
void QActive_register_(QActive * const me) {
 80034b4:	b580      	push	{r7, lr}
 80034b6:	b084      	sub	sp, #16
 80034b8:	af00      	add	r7, sp, #0
 80034ba:	6078      	str	r0, [r7, #4]
    QF_CRIT_STAT
    QF_CRIT_ENTRY();
 80034bc:	f7fe fe92 	bl	80021e4 <QF_crit_entry_>

    if (me->pthre == 0U) { // preemption-threshold not defined?
 80034c0:	687b      	ldr	r3, [r7, #4]
 80034c2:	7b5b      	ldrb	r3, [r3, #13]
 80034c4:	2b00      	cmp	r3, #0
 80034c6:	d103      	bne.n	80034d0 <QActive_register_+0x1c>
        me->pthre = me->prio; // apply the default
 80034c8:	687b      	ldr	r3, [r7, #4]
 80034ca:	7b1a      	ldrb	r2, [r3, #12]
 80034cc:	687b      	ldr	r3, [r7, #4]
 80034ce:	735a      	strb	r2, [r3, #13]
    }

    // AO's prio. must be in range
    Q_REQUIRE_INCRIT(100, (0U < me->prio) && (me->prio <= QF_MAX_ACTIVE));
 80034d0:	687b      	ldr	r3, [r7, #4]
 80034d2:	7b1b      	ldrb	r3, [r3, #12]
 80034d4:	2b00      	cmp	r3, #0
 80034d6:	d003      	beq.n	80034e0 <QActive_register_+0x2c>
 80034d8:	687b      	ldr	r3, [r7, #4]
 80034da:	7b1b      	ldrb	r3, [r3, #12]
 80034dc:	2b20      	cmp	r3, #32
 80034de:	d904      	bls.n	80034ea <QActive_register_+0x36>
 80034e0:	4b47      	ldr	r3, [pc, #284]	@ (8003600 <QActive_register_+0x14c>)
 80034e2:	2164      	movs	r1, #100	@ 0x64
 80034e4:	0018      	movs	r0, r3
 80034e6:	f7fc ff5f 	bl	80003a8 <Q_onError>

    // the AO must NOT be registered already
    Q_REQUIRE_INCRIT(110, QActive_registry_[me->prio] == (QActive *)0);
 80034ea:	687b      	ldr	r3, [r7, #4]
 80034ec:	7b1b      	ldrb	r3, [r3, #12]
 80034ee:	001a      	movs	r2, r3
 80034f0:	4b44      	ldr	r3, [pc, #272]	@ (8003604 <QActive_register_+0x150>)
 80034f2:	0092      	lsls	r2, r2, #2
 80034f4:	58d3      	ldr	r3, [r2, r3]
 80034f6:	2b00      	cmp	r3, #0
 80034f8:	d004      	beq.n	8003504 <QActive_register_+0x50>
 80034fa:	4b41      	ldr	r3, [pc, #260]	@ (8003600 <QActive_register_+0x14c>)
 80034fc:	216e      	movs	r1, #110	@ 0x6e
 80034fe:	0018      	movs	r0, r3
 8003500:	f7fc ff52 	bl	80003a8 <Q_onError>

    // the AO's prio. must not exceed the preemption threshold
    Q_REQUIRE_INCRIT(130, me->prio <= me->pthre);
 8003504:	687b      	ldr	r3, [r7, #4]
 8003506:	7b1a      	ldrb	r2, [r3, #12]
 8003508:	687b      	ldr	r3, [r7, #4]
 800350a:	7b5b      	ldrb	r3, [r3, #13]
 800350c:	429a      	cmp	r2, r3
 800350e:	d904      	bls.n	800351a <QActive_register_+0x66>
 8003510:	4b3b      	ldr	r3, [pc, #236]	@ (8003600 <QActive_register_+0x14c>)
 8003512:	2182      	movs	r1, #130	@ 0x82
 8003514:	0018      	movs	r0, r3
 8003516:	f7fc ff47 	bl	80003a8 <Q_onError>

#ifndef Q_UNSAFE
    uint8_t prev_thre = me->pthre;
 800351a:	230f      	movs	r3, #15
 800351c:	18fb      	adds	r3, r7, r3
 800351e:	687a      	ldr	r2, [r7, #4]
 8003520:	7b52      	ldrb	r2, [r2, #13]
 8003522:	701a      	strb	r2, [r3, #0]
    uint8_t next_thre = me->pthre;
 8003524:	230e      	movs	r3, #14
 8003526:	18fb      	adds	r3, r7, r3
 8003528:	687a      	ldr	r2, [r7, #4]
 800352a:	7b52      	ldrb	r2, [r2, #13]
 800352c:	701a      	strb	r2, [r3, #0]

    for (uint8_t p = me->prio - 1U; p > 0U; --p) {
 800352e:	687b      	ldr	r3, [r7, #4]
 8003530:	7b1a      	ldrb	r2, [r3, #12]
 8003532:	230d      	movs	r3, #13
 8003534:	18fb      	adds	r3, r7, r3
 8003536:	3a01      	subs	r2, #1
 8003538:	701a      	strb	r2, [r3, #0]
 800353a:	e017      	b.n	800356c <QActive_register_+0xb8>
        if (QActive_registry_[p] != (QActive *)0) {
 800353c:	210d      	movs	r1, #13
 800353e:	187b      	adds	r3, r7, r1
 8003540:	781a      	ldrb	r2, [r3, #0]
 8003542:	4b30      	ldr	r3, [pc, #192]	@ (8003604 <QActive_register_+0x150>)
 8003544:	0092      	lsls	r2, r2, #2
 8003546:	58d3      	ldr	r3, [r2, r3]
 8003548:	2b00      	cmp	r3, #0
 800354a:	d009      	beq.n	8003560 <QActive_register_+0xac>
            prev_thre = QActive_registry_[p]->pthre;
 800354c:	187b      	adds	r3, r7, r1
 800354e:	781a      	ldrb	r2, [r3, #0]
 8003550:	4b2c      	ldr	r3, [pc, #176]	@ (8003604 <QActive_register_+0x150>)
 8003552:	0092      	lsls	r2, r2, #2
 8003554:	58d2      	ldr	r2, [r2, r3]
 8003556:	230f      	movs	r3, #15
 8003558:	18fb      	adds	r3, r7, r3
 800355a:	7b52      	ldrb	r2, [r2, #13]
 800355c:	701a      	strb	r2, [r3, #0]
            break;
 800355e:	e00a      	b.n	8003576 <QActive_register_+0xc2>
    for (uint8_t p = me->prio - 1U; p > 0U; --p) {
 8003560:	220d      	movs	r2, #13
 8003562:	18bb      	adds	r3, r7, r2
 8003564:	18ba      	adds	r2, r7, r2
 8003566:	7812      	ldrb	r2, [r2, #0]
 8003568:	3a01      	subs	r2, #1
 800356a:	701a      	strb	r2, [r3, #0]
 800356c:	230d      	movs	r3, #13
 800356e:	18fb      	adds	r3, r7, r3
 8003570:	781b      	ldrb	r3, [r3, #0]
 8003572:	2b00      	cmp	r3, #0
 8003574:	d1e2      	bne.n	800353c <QActive_register_+0x88>
        }
    }
    for (uint8_t p = me->prio + 1U; p <= QF_MAX_ACTIVE; ++p) {
 8003576:	687b      	ldr	r3, [r7, #4]
 8003578:	7b1a      	ldrb	r2, [r3, #12]
 800357a:	230c      	movs	r3, #12
 800357c:	18fb      	adds	r3, r7, r3
 800357e:	3201      	adds	r2, #1
 8003580:	701a      	strb	r2, [r3, #0]
 8003582:	e017      	b.n	80035b4 <QActive_register_+0x100>
        if (QActive_registry_[p] != (QActive *)0) {
 8003584:	210c      	movs	r1, #12
 8003586:	187b      	adds	r3, r7, r1
 8003588:	781a      	ldrb	r2, [r3, #0]
 800358a:	4b1e      	ldr	r3, [pc, #120]	@ (8003604 <QActive_register_+0x150>)
 800358c:	0092      	lsls	r2, r2, #2
 800358e:	58d3      	ldr	r3, [r2, r3]
 8003590:	2b00      	cmp	r3, #0
 8003592:	d009      	beq.n	80035a8 <QActive_register_+0xf4>
            next_thre = QActive_registry_[p]->pthre;
 8003594:	187b      	adds	r3, r7, r1
 8003596:	781a      	ldrb	r2, [r3, #0]
 8003598:	4b1a      	ldr	r3, [pc, #104]	@ (8003604 <QActive_register_+0x150>)
 800359a:	0092      	lsls	r2, r2, #2
 800359c:	58d2      	ldr	r2, [r2, r3]
 800359e:	230e      	movs	r3, #14
 80035a0:	18fb      	adds	r3, r7, r3
 80035a2:	7b52      	ldrb	r2, [r2, #13]
 80035a4:	701a      	strb	r2, [r3, #0]
            break;
 80035a6:	e00a      	b.n	80035be <QActive_register_+0x10a>
    for (uint8_t p = me->prio + 1U; p <= QF_MAX_ACTIVE; ++p) {
 80035a8:	220c      	movs	r2, #12
 80035aa:	18bb      	adds	r3, r7, r2
 80035ac:	18ba      	adds	r2, r7, r2
 80035ae:	7812      	ldrb	r2, [r2, #0]
 80035b0:	3201      	adds	r2, #1
 80035b2:	701a      	strb	r2, [r3, #0]
 80035b4:	230c      	movs	r3, #12
 80035b6:	18fb      	adds	r3, r7, r3
 80035b8:	781b      	ldrb	r3, [r3, #0]
 80035ba:	2b20      	cmp	r3, #32
 80035bc:	d9e2      	bls.n	8003584 <QActive_register_+0xd0>
        }
    }

    // the preemption threshold of this AO must be between
    // preemption threshold of the previous AO and next AO
    Q_ASSERT_INCRIT(160,
 80035be:	687b      	ldr	r3, [r7, #4]
 80035c0:	7b5b      	ldrb	r3, [r3, #13]
 80035c2:	220f      	movs	r2, #15
 80035c4:	18ba      	adds	r2, r7, r2
 80035c6:	7812      	ldrb	r2, [r2, #0]
 80035c8:	429a      	cmp	r2, r3
 80035ca:	d806      	bhi.n	80035da <QActive_register_+0x126>
 80035cc:	687b      	ldr	r3, [r7, #4]
 80035ce:	7b5b      	ldrb	r3, [r3, #13]
 80035d0:	220e      	movs	r2, #14
 80035d2:	18ba      	adds	r2, r7, r2
 80035d4:	7812      	ldrb	r2, [r2, #0]
 80035d6:	429a      	cmp	r2, r3
 80035d8:	d204      	bcs.n	80035e4 <QActive_register_+0x130>
 80035da:	4b09      	ldr	r3, [pc, #36]	@ (8003600 <QActive_register_+0x14c>)
 80035dc:	21a0      	movs	r1, #160	@ 0xa0
 80035de:	0018      	movs	r0, r3
 80035e0:	f7fc fee2 	bl	80003a8 <Q_onError>
        (prev_thre <= me->pthre) && (me->pthre <= next_thre));

#endif // Q_UNSAFE

    // register the AO at the QF-prio.
    QActive_registry_[me->prio] = me;
 80035e4:	687b      	ldr	r3, [r7, #4]
 80035e6:	7b1b      	ldrb	r3, [r3, #12]
 80035e8:	001a      	movs	r2, r3
 80035ea:	4b06      	ldr	r3, [pc, #24]	@ (8003604 <QActive_register_+0x150>)
 80035ec:	0092      	lsls	r2, r2, #2
 80035ee:	6879      	ldr	r1, [r7, #4]
 80035f0:	50d1      	str	r1, [r2, r3]

    QF_CRIT_EXIT();
 80035f2:	f7fe fe07 	bl	8002204 <QF_crit_exit_>
}
 80035f6:	46c0      	nop			@ (mov r8, r8)
 80035f8:	46bd      	mov	sp, r7
 80035fa:	b004      	add	sp, #16
 80035fc:	bd80      	pop	{r7, pc}
 80035fe:	46c0      	nop			@ (mov r8, r8)
 8003600:	080040a8 	.word	0x080040a8
 8003604:	2000033c 	.word	0x2000033c

08003608 <QPSet_setEmpty>:
}
#endif // ndef QF_LOG2

//----------------------------------------------------------------------------
//! @public @memberof QPSet
void QPSet_setEmpty(QPSet * const me) {
 8003608:	b580      	push	{r7, lr}
 800360a:	b082      	sub	sp, #8
 800360c:	af00      	add	r7, sp, #0
 800360e:	6078      	str	r0, [r7, #4]
    me->bits0 = 0U; // clear bitmask for elements 1..32
 8003610:	687b      	ldr	r3, [r7, #4]
 8003612:	2200      	movs	r2, #0
 8003614:	601a      	str	r2, [r3, #0]
#if (QF_MAX_ACTIVE > 32)
    me->bits1 = 0U; // clear bitmask for elements 33..64
#endif
}
 8003616:	46c0      	nop			@ (mov r8, r8)
 8003618:	46bd      	mov	sp, r7
 800361a:	b002      	add	sp, #8
 800361c:	bd80      	pop	{r7, pc}

0800361e <QPSet_isEmpty>:
//............................................................................
//! @public @memberof QPSet
bool QPSet_isEmpty(QPSet const * const me) {
 800361e:	b580      	push	{r7, lr}
 8003620:	b082      	sub	sp, #8
 8003622:	af00      	add	r7, sp, #0
 8003624:	6078      	str	r0, [r7, #4]
#if (QF_MAX_ACTIVE <= 32U)
    return (me->bits0 == 0U);  // check only bitmask for elements 1..32
 8003626:	687b      	ldr	r3, [r7, #4]
 8003628:	681b      	ldr	r3, [r3, #0]
 800362a:	425a      	negs	r2, r3
 800362c:	4153      	adcs	r3, r2
 800362e:	b2db      	uxtb	r3, r3
#else
    return (me->bits0 == 0U)   // bitmask for elements 1..32 empty?
           ? (me->bits1 == 0U) // check bitmask for for elements 33..64
           : false;             // the set is NOT empty
#endif
}
 8003630:	0018      	movs	r0, r3
 8003632:	46bd      	mov	sp, r7
 8003634:	b002      	add	sp, #8
 8003636:	bd80      	pop	{r7, pc}

08003638 <QPSet_notEmpty>:
//............................................................................
//! @public @memberof QPSet
bool QPSet_notEmpty(QPSet const * const me) {
 8003638:	b580      	push	{r7, lr}
 800363a:	b082      	sub	sp, #8
 800363c:	af00      	add	r7, sp, #0
 800363e:	6078      	str	r0, [r7, #4]
#if (QF_MAX_ACTIVE <= 32U)
    return (me->bits0 != 0U);   // check only bitmask for elements 1..32
 8003640:	687b      	ldr	r3, [r7, #4]
 8003642:	681b      	ldr	r3, [r3, #0]
 8003644:	1e5a      	subs	r2, r3, #1
 8003646:	4193      	sbcs	r3, r2
 8003648:	b2db      	uxtb	r3, r3
#else
    return (me->bits0 != 0U)    // bitmask for elements 1..32 empty?
           ? true                // the set is NOT empty
           : (me->bits1 != 0U); // check bitmask for for elements 33..64
#endif
}
 800364a:	0018      	movs	r0, r3
 800364c:	46bd      	mov	sp, r7
 800364e:	b002      	add	sp, #8
 8003650:	bd80      	pop	{r7, pc}

08003652 <QPSet_insert>:
        : ((me->bits1 & ((QPSetBits)1U << (n - 33U))) != 0U);
#endif
}
//............................................................................
//! @public @memberof QPSet
void QPSet_insert(QPSet * const me, uint_fast8_t const n) {
 8003652:	b580      	push	{r7, lr}
 8003654:	b082      	sub	sp, #8
 8003656:	af00      	add	r7, sp, #0
 8003658:	6078      	str	r0, [r7, #4]
 800365a:	6039      	str	r1, [r7, #0]
#if (QF_MAX_ACTIVE <= 32U)
    // set the bit only in bitmask for elements 1..32
    me->bits0 = (me->bits0 | ((QPSetBits)1U << (n - 1U)));
 800365c:	687b      	ldr	r3, [r7, #4]
 800365e:	681a      	ldr	r2, [r3, #0]
 8003660:	683b      	ldr	r3, [r7, #0]
 8003662:	3b01      	subs	r3, #1
 8003664:	2101      	movs	r1, #1
 8003666:	4099      	lsls	r1, r3
 8003668:	000b      	movs	r3, r1
 800366a:	431a      	orrs	r2, r3
 800366c:	687b      	ldr	r3, [r7, #4]
 800366e:	601a      	str	r2, [r3, #0]
    }
    else { // set the bit in the bitmask for for elements 33..64
        me->bits1 = (me->bits1 | ((QPSetBits)1U << (n - 33U)));
    }
#endif
}
 8003670:	46c0      	nop			@ (mov r8, r8)
 8003672:	46bd      	mov	sp, r7
 8003674:	b002      	add	sp, #8
 8003676:	bd80      	pop	{r7, pc}

08003678 <QPSet_remove>:
//............................................................................
//! @public @memberof QPSet
void QPSet_remove(QPSet * const me, uint_fast8_t const n) {
 8003678:	b580      	push	{r7, lr}
 800367a:	b082      	sub	sp, #8
 800367c:	af00      	add	r7, sp, #0
 800367e:	6078      	str	r0, [r7, #4]
 8003680:	6039      	str	r1, [r7, #0]
#if (QF_MAX_ACTIVE <= 32U)
    // clear the bit only in bitmask for elements 1..32
    me->bits0 = (me->bits0 & (QPSetBits)(~((QPSetBits)1U << (n - 1U))));
 8003682:	687b      	ldr	r3, [r7, #4]
 8003684:	681b      	ldr	r3, [r3, #0]
 8003686:	683a      	ldr	r2, [r7, #0]
 8003688:	3a01      	subs	r2, #1
 800368a:	2101      	movs	r1, #1
 800368c:	4091      	lsls	r1, r2
 800368e:	000a      	movs	r2, r1
 8003690:	43d2      	mvns	r2, r2
 8003692:	401a      	ands	r2, r3
 8003694:	687b      	ldr	r3, [r7, #4]
 8003696:	601a      	str	r2, [r3, #0]
    }
    else { // clear the bit in the bitmask for for elements 33..64
        (me->bits1 = (me->bits1 & ~((QPSetBits)1U << (n - 33U))));
    }
#endif
}
 8003698:	46c0      	nop			@ (mov r8, r8)
 800369a:	46bd      	mov	sp, r7
 800369c:	b002      	add	sp, #8
 800369e:	bd80      	pop	{r7, pc}

080036a0 <QPSet_findMax>:
//............................................................................
//! @public @memberof QPSet
uint_fast8_t QPSet_findMax(QPSet const * const me) {
 80036a0:	b580      	push	{r7, lr}
 80036a2:	b082      	sub	sp, #8
 80036a4:	af00      	add	r7, sp, #0
 80036a6:	6078      	str	r0, [r7, #4]
#if (QF_MAX_ACTIVE <= 32U)
    // check only the bitmask for elements 1..32
    return QF_LOG2(me->bits0);
 80036a8:	687b      	ldr	r3, [r7, #4]
 80036aa:	681b      	ldr	r3, [r3, #0]
 80036ac:	0018      	movs	r0, r3
 80036ae:	f7fe fdfd 	bl	80022ac <QF_qlog2>
 80036b2:	0003      	movs	r3, r0
#else
    return (me->bits1 != 0U) // bitmask for elements 32..64 not empty?
        ? (32U + QF_LOG2(me->bits1)) // 32 + log2(bits 33..64)
        : (QF_LOG2(me->bits0));      // log2(bits 1..32)
#endif
}
 80036b4:	0018      	movs	r0, r3
 80036b6:	46bd      	mov	sp, r7
 80036b8:	b002      	add	sp, #8
 80036ba:	bd80      	pop	{r7, pc}

080036bc <QEQueue_init>:
//............................................................................
//! @public @memberof QEQueue
void QEQueue_init(QEQueue * const me,
    struct QEvt const * * const qSto,
    uint_fast16_t const qLen)
{
 80036bc:	b580      	push	{r7, lr}
 80036be:	b084      	sub	sp, #16
 80036c0:	af00      	add	r7, sp, #0
 80036c2:	60f8      	str	r0, [r7, #12]
 80036c4:	60b9      	str	r1, [r7, #8]
 80036c6:	607a      	str	r2, [r7, #4]
    QF_CRIT_STAT
    QF_CRIT_ENTRY();
 80036c8:	f7fe fd8c 	bl	80021e4 <QF_crit_entry_>

#if (QF_EQUEUE_CTR_SIZE == 1U)
    // the qLen paramter must not exceed the dynamic range of uint8_t
    Q_REQUIRE_INCRIT(10, qLen < 0xFFU);
 80036cc:	687b      	ldr	r3, [r7, #4]
 80036ce:	2bfe      	cmp	r3, #254	@ 0xfe
 80036d0:	d904      	bls.n	80036dc <QEQueue_init+0x20>
 80036d2:	4b14      	ldr	r3, [pc, #80]	@ (8003724 <QEQueue_init+0x68>)
 80036d4:	210a      	movs	r1, #10
 80036d6:	0018      	movs	r0, r3
 80036d8:	f7fc fe66 	bl	80003a8 <Q_onError>
#endif

    me->frontEvt = (QEvt *)0; // no events in the queue
 80036dc:	68fb      	ldr	r3, [r7, #12]
 80036de:	2200      	movs	r2, #0
 80036e0:	601a      	str	r2, [r3, #0]
    me->ring     = qSto;      // the beginning of the ring buffer
 80036e2:	68fb      	ldr	r3, [r7, #12]
 80036e4:	68ba      	ldr	r2, [r7, #8]
 80036e6:	605a      	str	r2, [r3, #4]
    me->end      = (QEQueueCtr)qLen; // index of the last element
 80036e8:	687b      	ldr	r3, [r7, #4]
 80036ea:	b2da      	uxtb	r2, r3
 80036ec:	68fb      	ldr	r3, [r7, #12]
 80036ee:	721a      	strb	r2, [r3, #8]
    if (qLen > 0U) { // queue buffer storage provided?
 80036f0:	687b      	ldr	r3, [r7, #4]
 80036f2:	2b00      	cmp	r3, #0
 80036f4:	d005      	beq.n	8003702 <QEQueue_init+0x46>
        me->head = 0U; // head index: for removing events
 80036f6:	68fb      	ldr	r3, [r7, #12]
 80036f8:	2200      	movs	r2, #0
 80036fa:	725a      	strb	r2, [r3, #9]
        me->tail = 0U; // tail index: for inserting events
 80036fc:	68fb      	ldr	r3, [r7, #12]
 80036fe:	2200      	movs	r2, #0
 8003700:	729a      	strb	r2, [r3, #10]
    }
    me->nFree    = (QEQueueCtr)(qLen + 1U); // +1 for frontEvt
 8003702:	687b      	ldr	r3, [r7, #4]
 8003704:	b2db      	uxtb	r3, r3
 8003706:	3301      	adds	r3, #1
 8003708:	b2da      	uxtb	r2, r3
 800370a:	68fb      	ldr	r3, [r7, #12]
 800370c:	72da      	strb	r2, [r3, #11]
    me->nMin     = me->nFree; // minimum so far
 800370e:	68fb      	ldr	r3, [r7, #12]
 8003710:	7ada      	ldrb	r2, [r3, #11]
 8003712:	68fb      	ldr	r3, [r7, #12]
 8003714:	731a      	strb	r2, [r3, #12]

    QF_CRIT_EXIT();
 8003716:	f7fe fd75 	bl	8002204 <QF_crit_exit_>
}
 800371a:	46c0      	nop			@ (mov r8, r8)
 800371c:	46bd      	mov	sp, r7
 800371e:	b004      	add	sp, #16
 8003720:	bd80      	pop	{r7, pc}
 8003722:	46c0      	nop			@ (mov r8, r8)
 8003724:	080040c0 	.word	0x080040c0

08003728 <QTimeEvt_ctorX>:
//! @public @memberof QTimeEvt
void QTimeEvt_ctorX(QTimeEvt * const me,
    QActive * const act,
    enum_t const sig,
    uint_fast8_t const tickRate)
{
 8003728:	b580      	push	{r7, lr}
 800372a:	b084      	sub	sp, #16
 800372c:	af00      	add	r7, sp, #0
 800372e:	60f8      	str	r0, [r7, #12]
 8003730:	60b9      	str	r1, [r7, #8]
 8003732:	607a      	str	r2, [r7, #4]
 8003734:	603b      	str	r3, [r7, #0]
    QF_CRIT_STAT
    QF_CRIT_ENTRY();
 8003736:	f7fe fd55 	bl	80021e4 <QF_crit_entry_>

    // the signal must be != 0, but other reserved signals are allowed
    Q_REQUIRE_INCRIT(300, sig != 0);
 800373a:	687b      	ldr	r3, [r7, #4]
 800373c:	2b00      	cmp	r3, #0
 800373e:	d106      	bne.n	800374e <QTimeEvt_ctorX+0x26>
 8003740:	2396      	movs	r3, #150	@ 0x96
 8003742:	005a      	lsls	r2, r3, #1
 8003744:	4b18      	ldr	r3, [pc, #96]	@ (80037a8 <QTimeEvt_ctorX+0x80>)
 8003746:	0011      	movs	r1, r2
 8003748:	0018      	movs	r0, r3
 800374a:	f7fc fe2d 	bl	80003a8 <Q_onError>

    // the tick rate must be in the configured range
    Q_REQUIRE_INCRIT(310, tickRate < QF_MAX_TICK_RATE);
 800374e:	683b      	ldr	r3, [r7, #0]
 8003750:	2b00      	cmp	r3, #0
 8003752:	d006      	beq.n	8003762 <QTimeEvt_ctorX+0x3a>
 8003754:	239b      	movs	r3, #155	@ 0x9b
 8003756:	005a      	lsls	r2, r3, #1
 8003758:	4b13      	ldr	r3, [pc, #76]	@ (80037a8 <QTimeEvt_ctorX+0x80>)
 800375a:	0011      	movs	r1, r2
 800375c:	0018      	movs	r0, r3
 800375e:	f7fc fe23 	bl	80003a8 <Q_onError>
    QF_CRIT_EXIT();
 8003762:	f7fe fd4f 	bl	8002204 <QF_crit_exit_>

    QEvt_ctor(&me->super, sig); // the superclass' ctor
 8003766:	68fb      	ldr	r3, [r7, #12]
 8003768:	687a      	ldr	r2, [r7, #4]
 800376a:	0011      	movs	r1, r2
 800376c:	0018      	movs	r0, r3
 800376e:	f7ff f8fd 	bl	800296c <QEvt_ctor>

    me->super.refCtr_ = 0U; // adjust from QEvt_ctor(sig)
 8003772:	68fb      	ldr	r3, [r7, #12]
 8003774:	2200      	movs	r2, #0
 8003776:	70da      	strb	r2, [r3, #3]
    me->next     = (QTimeEvt *)0;
 8003778:	68fb      	ldr	r3, [r7, #12]
 800377a:	2200      	movs	r2, #0
 800377c:	609a      	str	r2, [r3, #8]
    me->act      = act; // might be NULL for a time-event head
 800377e:	68fb      	ldr	r3, [r7, #12]
 8003780:	68ba      	ldr	r2, [r7, #8]
 8003782:	60da      	str	r2, [r3, #12]
    me->ctr      = 0U;
 8003784:	68fb      	ldr	r3, [r7, #12]
 8003786:	2200      	movs	r2, #0
 8003788:	611a      	str	r2, [r3, #16]
    me->interval = 0U;
 800378a:	68fb      	ldr	r3, [r7, #12]
 800378c:	2200      	movs	r2, #0
 800378e:	615a      	str	r2, [r3, #20]
    me->tickRate = (uint8_t)tickRate;
 8003790:	683b      	ldr	r3, [r7, #0]
 8003792:	b2da      	uxtb	r2, r3
 8003794:	68fb      	ldr	r3, [r7, #12]
 8003796:	761a      	strb	r2, [r3, #24]
    me->flags    = 0U;
 8003798:	68fb      	ldr	r3, [r7, #12]
 800379a:	2200      	movs	r2, #0
 800379c:	765a      	strb	r2, [r3, #25]
}
 800379e:	46c0      	nop			@ (mov r8, r8)
 80037a0:	46bd      	mov	sp, r7
 80037a2:	b004      	add	sp, #16
 80037a4:	bd80      	pop	{r7, pc}
 80037a6:	46c0      	nop			@ (mov r8, r8)
 80037a8:	080040c8 	.word	0x080040c8

080037ac <QTimeEvt_armX>:
//............................................................................
//! @public @memberof QTimeEvt
void QTimeEvt_armX(QTimeEvt * const me,
    uint32_t const nTicks,
    uint32_t const interval)
{
 80037ac:	b580      	push	{r7, lr}
 80037ae:	b086      	sub	sp, #24
 80037b0:	af00      	add	r7, sp, #0
 80037b2:	60f8      	str	r0, [r7, #12]
 80037b4:	60b9      	str	r1, [r7, #8]
 80037b6:	607a      	str	r2, [r7, #4]
    QF_CRIT_STAT
    QF_CRIT_ENTRY();
 80037b8:	f7fe fd14 	bl	80021e4 <QF_crit_entry_>
    Q_REQUIRE_INCRIT(400, nTicks   < 0xFFFFU);
    Q_REQUIRE_INCRIT(410, interval < 0xFFFFU);
#endif

#ifndef Q_UNSAFE
    QTimeEvtCtr const ctr = me->ctr;
 80037bc:	68fb      	ldr	r3, [r7, #12]
 80037be:	691b      	ldr	r3, [r3, #16]
 80037c0:	617b      	str	r3, [r7, #20]
#endif

    uint8_t const tickRate = me->tickRate;
 80037c2:	2313      	movs	r3, #19
 80037c4:	18fb      	adds	r3, r7, r3
 80037c6:	68fa      	ldr	r2, [r7, #12]
 80037c8:	7e12      	ldrb	r2, [r2, #24]
 80037ca:	701a      	strb	r2, [r3, #0]

    // nTicks must be != 0 for arming a time event
    Q_REQUIRE_INCRIT(440, nTicks != 0U);
 80037cc:	68bb      	ldr	r3, [r7, #8]
 80037ce:	2b00      	cmp	r3, #0
 80037d0:	d106      	bne.n	80037e0 <QTimeEvt_armX+0x34>
 80037d2:	23dc      	movs	r3, #220	@ 0xdc
 80037d4:	005a      	lsls	r2, r3, #1
 80037d6:	4b2b      	ldr	r3, [pc, #172]	@ (8003884 <QTimeEvt_armX+0xd8>)
 80037d8:	0011      	movs	r1, r2
 80037da:	0018      	movs	r0, r3
 80037dc:	f7fc fde4 	bl	80003a8 <Q_onError>

    // the time event must not be already armed
    Q_REQUIRE_INCRIT(450, ctr == 0U);
 80037e0:	697b      	ldr	r3, [r7, #20]
 80037e2:	2b00      	cmp	r3, #0
 80037e4:	d006      	beq.n	80037f4 <QTimeEvt_armX+0x48>
 80037e6:	23e1      	movs	r3, #225	@ 0xe1
 80037e8:	005a      	lsls	r2, r3, #1
 80037ea:	4b26      	ldr	r3, [pc, #152]	@ (8003884 <QTimeEvt_armX+0xd8>)
 80037ec:	0011      	movs	r1, r2
 80037ee:	0018      	movs	r0, r3
 80037f0:	f7fc fdda 	bl	80003a8 <Q_onError>

    // the AO associated with this time event must be valid
    Q_REQUIRE_INCRIT(460, me->act != (void *)0);
 80037f4:	68fb      	ldr	r3, [r7, #12]
 80037f6:	68db      	ldr	r3, [r3, #12]
 80037f8:	2b00      	cmp	r3, #0
 80037fa:	d106      	bne.n	800380a <QTimeEvt_armX+0x5e>
 80037fc:	23e6      	movs	r3, #230	@ 0xe6
 80037fe:	005a      	lsls	r2, r3, #1
 8003800:	4b20      	ldr	r3, [pc, #128]	@ (8003884 <QTimeEvt_armX+0xd8>)
 8003802:	0011      	movs	r1, r2
 8003804:	0018      	movs	r0, r3
 8003806:	f7fc fdcf 	bl	80003a8 <Q_onError>

    // the tick rate of this time event must be in range
    Q_REQUIRE_INCRIT(470, tickRate < QF_MAX_TICK_RATE);
 800380a:	2313      	movs	r3, #19
 800380c:	18fb      	adds	r3, r7, r3
 800380e:	781b      	ldrb	r3, [r3, #0]
 8003810:	2b00      	cmp	r3, #0
 8003812:	d006      	beq.n	8003822 <QTimeEvt_armX+0x76>
 8003814:	23eb      	movs	r3, #235	@ 0xeb
 8003816:	005a      	lsls	r2, r3, #1
 8003818:	4b1a      	ldr	r3, [pc, #104]	@ (8003884 <QTimeEvt_armX+0xd8>)
 800381a:	0011      	movs	r1, r2
 800381c:	0018      	movs	r0, r3
 800381e:	f7fc fdc3 	bl	80003a8 <Q_onError>

    me->ctr = (QTimeEvtCtr)nTicks;
 8003822:	68fb      	ldr	r3, [r7, #12]
 8003824:	68ba      	ldr	r2, [r7, #8]
 8003826:	611a      	str	r2, [r3, #16]
    me->interval = (QTimeEvtCtr)interval;
 8003828:	68fb      	ldr	r3, [r7, #12]
 800382a:	687a      	ldr	r2, [r7, #4]
 800382c:	615a      	str	r2, [r3, #20]

    // is the time event unlinked?
    // NOTE: For the duration of a single clock tick of the specified tick
    // rate a time event can be disarmed and yet still linked into the list
    // because un-linking is performed exclusively in QTimeEvt_tick_().
    if ((me->flags & QTE_FLAG_IS_LINKED) == 0U) {
 800382e:	68fb      	ldr	r3, [r7, #12]
 8003830:	7e5b      	ldrb	r3, [r3, #25]
 8003832:	b25b      	sxtb	r3, r3
 8003834:	2b00      	cmp	r3, #0
 8003836:	db1f      	blt.n	8003878 <QTimeEvt_armX+0xcc>
        // Only later, inside QTimeEvt_tick_(), the "freshly armed"
        // list is appended to the main list of armed time events based on
        // timeEvtHead_[tickRate].next. Again, this is to keep any
        // changes to the main list exclusively inside QTimeEvt_tick_().

        me->flags |= QTE_FLAG_IS_LINKED; // mark as linked
 8003838:	68fb      	ldr	r3, [r7, #12]
 800383a:	7e5b      	ldrb	r3, [r3, #25]
 800383c:	2280      	movs	r2, #128	@ 0x80
 800383e:	4252      	negs	r2, r2
 8003840:	4313      	orrs	r3, r2
 8003842:	b2da      	uxtb	r2, r3
 8003844:	68fb      	ldr	r3, [r7, #12]
 8003846:	765a      	strb	r2, [r3, #25]
        me->next = (QTimeEvt *)QTimeEvt_timeEvtHead_[tickRate].act;
 8003848:	2013      	movs	r0, #19
 800384a:	183b      	adds	r3, r7, r0
 800384c:	781a      	ldrb	r2, [r3, #0]
 800384e:	490e      	ldr	r1, [pc, #56]	@ (8003888 <QTimeEvt_armX+0xdc>)
 8003850:	0013      	movs	r3, r2
 8003852:	00db      	lsls	r3, r3, #3
 8003854:	1a9b      	subs	r3, r3, r2
 8003856:	009b      	lsls	r3, r3, #2
 8003858:	18cb      	adds	r3, r1, r3
 800385a:	330c      	adds	r3, #12
 800385c:	681a      	ldr	r2, [r3, #0]
 800385e:	68fb      	ldr	r3, [r7, #12]
 8003860:	609a      	str	r2, [r3, #8]
        QTimeEvt_timeEvtHead_[tickRate].act = me;
 8003862:	183b      	adds	r3, r7, r0
 8003864:	781a      	ldrb	r2, [r3, #0]
 8003866:	4908      	ldr	r1, [pc, #32]	@ (8003888 <QTimeEvt_armX+0xdc>)
 8003868:	0013      	movs	r3, r2
 800386a:	00db      	lsls	r3, r3, #3
 800386c:	1a9b      	subs	r3, r3, r2
 800386e:	009b      	lsls	r3, r3, #2
 8003870:	18cb      	adds	r3, r1, r3
 8003872:	330c      	adds	r3, #12
 8003874:	68fa      	ldr	r2, [r7, #12]
 8003876:	601a      	str	r2, [r3, #0]
        QS_TEC_PRE(nTicks);   // the # ticks
        QS_TEC_PRE(interval); // the interval
        QS_U8_PRE(tickRate);  // tick rate
    QS_END_PRE()

    QF_CRIT_EXIT();
 8003878:	f7fe fcc4 	bl	8002204 <QF_crit_exit_>
}
 800387c:	46c0      	nop			@ (mov r8, r8)
 800387e:	46bd      	mov	sp, r7
 8003880:	b006      	add	sp, #24
 8003882:	bd80      	pop	{r7, pc}
 8003884:	080040c8 	.word	0x080040c8
 8003888:	20000400 	.word	0x20000400

0800388c <QTimeEvt_disarm>:

//............................................................................
//! @public @memberof QTimeEvt
bool QTimeEvt_disarm(QTimeEvt * const me) {
 800388c:	b580      	push	{r7, lr}
 800388e:	b084      	sub	sp, #16
 8003890:	af00      	add	r7, sp, #0
 8003892:	6078      	str	r0, [r7, #4]
    QF_CRIT_STAT
    QF_CRIT_ENTRY();
 8003894:	f7fe fca6 	bl	80021e4 <QF_crit_entry_>

    QTimeEvtCtr const ctr = me->ctr; // move member into temporary
 8003898:	687b      	ldr	r3, [r7, #4]
 800389a:	691b      	ldr	r3, [r3, #16]
 800389c:	60bb      	str	r3, [r7, #8]
#ifdef Q_SPY
    uint_fast8_t const qsId = QACTIVE_CAST_(me->act)->prio;
#endif

    // was the time event actually armed?
    bool wasArmed = false;
 800389e:	210f      	movs	r1, #15
 80038a0:	187b      	adds	r3, r7, r1
 80038a2:	2200      	movs	r2, #0
 80038a4:	701a      	strb	r2, [r3, #0]
    if (ctr != 0U) {
 80038a6:	68bb      	ldr	r3, [r7, #8]
 80038a8:	2b00      	cmp	r3, #0
 80038aa:	d00d      	beq.n	80038c8 <QTimeEvt_disarm+0x3c>
        wasArmed = true;
 80038ac:	187b      	adds	r3, r7, r1
 80038ae:	2201      	movs	r2, #1
 80038b0:	701a      	strb	r2, [r3, #0]
        me->flags |= QTE_FLAG_WAS_DISARMED;
 80038b2:	687b      	ldr	r3, [r7, #4]
 80038b4:	7e5b      	ldrb	r3, [r3, #25]
 80038b6:	2240      	movs	r2, #64	@ 0x40
 80038b8:	4313      	orrs	r3, r2
 80038ba:	b2da      	uxtb	r2, r3
 80038bc:	687b      	ldr	r3, [r7, #4]
 80038be:	765a      	strb	r2, [r3, #25]
        me->ctr = 0U; // schedule removal from the list
 80038c0:	687b      	ldr	r3, [r7, #4]
 80038c2:	2200      	movs	r2, #0
 80038c4:	611a      	str	r2, [r3, #16]
 80038c6:	e006      	b.n	80038d6 <QTimeEvt_disarm+0x4a>
            QS_TEC_PRE(me->interval); // the interval
            QS_U8_PRE(me->tickRate);  // tick rate
        QS_END_PRE()
    }
    else { // the time event was already disarmed automatically
        me->flags &= (uint8_t)(~QTE_FLAG_WAS_DISARMED & 0xFFU);
 80038c8:	687b      	ldr	r3, [r7, #4]
 80038ca:	7e5b      	ldrb	r3, [r3, #25]
 80038cc:	2240      	movs	r2, #64	@ 0x40
 80038ce:	4393      	bics	r3, r2
 80038d0:	b2da      	uxtb	r2, r3
 80038d2:	687b      	ldr	r3, [r7, #4]
 80038d4:	765a      	strb	r2, [r3, #25]
            QS_OBJ_PRE(me->act);      // the target AO
            QS_U8_PRE(me->tickRate);  // tick rate
        QS_END_PRE()
    }

    QF_CRIT_EXIT();
 80038d6:	f7fe fc95 	bl	8002204 <QF_crit_exit_>

    return wasArmed;
 80038da:	230f      	movs	r3, #15
 80038dc:	18fb      	adds	r3, r7, r3
 80038de:	781b      	ldrb	r3, [r3, #0]
}
 80038e0:	0018      	movs	r0, r3
 80038e2:	46bd      	mov	sp, r7
 80038e4:	b004      	add	sp, #16
 80038e6:	bd80      	pop	{r7, pc}

080038e8 <QTimeEvt_tick_>:
//............................................................................
//! @static @private @memberof QTimeEvt
void QTimeEvt_tick_(
    uint_fast8_t const tickRate,
    void const * const sender)
{
 80038e8:	b580      	push	{r7, lr}
 80038ea:	b086      	sub	sp, #24
 80038ec:	af00      	add	r7, sp, #0
 80038ee:	6078      	str	r0, [r7, #4]
 80038f0:	6039      	str	r1, [r7, #0]
#ifndef Q_SPY
    Q_UNUSED_PAR(sender);
#endif

    QF_CRIT_STAT
    QF_CRIT_ENTRY();
 80038f2:	f7fe fc77 	bl	80021e4 <QF_crit_entry_>

    // the tick rate of this time event must be in range
    Q_REQUIRE_INCRIT(800, tickRate < Q_DIM(QTimeEvt_timeEvtHead_));
 80038f6:	687b      	ldr	r3, [r7, #4]
 80038f8:	2b00      	cmp	r3, #0
 80038fa:	d006      	beq.n	800390a <QTimeEvt_tick_+0x22>
 80038fc:	23c8      	movs	r3, #200	@ 0xc8
 80038fe:	009a      	lsls	r2, r3, #2
 8003900:	4b35      	ldr	r3, [pc, #212]	@ (80039d8 <QTimeEvt_tick_+0xf0>)
 8003902:	0011      	movs	r1, r2
 8003904:	0018      	movs	r0, r3
 8003906:	f7fc fd4f 	bl	80003a8 <Q_onError>

    QTimeEvt *prev = &QTimeEvt_timeEvtHead_[tickRate];
 800390a:	687a      	ldr	r2, [r7, #4]
 800390c:	0013      	movs	r3, r2
 800390e:	00db      	lsls	r3, r3, #3
 8003910:	1a9b      	subs	r3, r3, r2
 8003912:	009b      	lsls	r3, r3, #2
 8003914:	4a31      	ldr	r2, [pc, #196]	@ (80039dc <QTimeEvt_tick_+0xf4>)
 8003916:	189b      	adds	r3, r3, r2
 8003918:	617b      	str	r3, [r7, #20]
    QS_END_PRE()
#endif

    // scan the linked-list of time events at this tick rate...
    for (;;) {
        QTimeEvt *te = prev->next; // advance down the time evt. list
 800391a:	697b      	ldr	r3, [r7, #20]
 800391c:	689b      	ldr	r3, [r3, #8]
 800391e:	613b      	str	r3, [r7, #16]

        if (te == (QTimeEvt *)0) { // end of the list?
 8003920:	693b      	ldr	r3, [r7, #16]
 8003922:	2b00      	cmp	r3, #0
 8003924:	d119      	bne.n	800395a <QTimeEvt_tick_+0x72>
            // set 'te' to the the newly-armed linked list
            te = QTimeEvt_timeEvtHead_[tickRate].act;
 8003926:	492d      	ldr	r1, [pc, #180]	@ (80039dc <QTimeEvt_tick_+0xf4>)
 8003928:	687a      	ldr	r2, [r7, #4]
 800392a:	0013      	movs	r3, r2
 800392c:	00db      	lsls	r3, r3, #3
 800392e:	1a9b      	subs	r3, r3, r2
 8003930:	009b      	lsls	r3, r3, #2
 8003932:	18cb      	adds	r3, r1, r3
 8003934:	330c      	adds	r3, #12
 8003936:	681b      	ldr	r3, [r3, #0]
 8003938:	613b      	str	r3, [r7, #16]
            if (te == (void *)0) { // no newly-armed time events?
 800393a:	693b      	ldr	r3, [r7, #16]
 800393c:	2b00      	cmp	r3, #0
 800393e:	d044      	beq.n	80039ca <QTimeEvt_tick_+0xe2>
                break; // terminate the loop
            }

            prev->next = te;
 8003940:	697b      	ldr	r3, [r7, #20]
 8003942:	693a      	ldr	r2, [r7, #16]
 8003944:	609a      	str	r2, [r3, #8]
            QTimeEvt_timeEvtHead_[tickRate].act = (void *)0;
 8003946:	4925      	ldr	r1, [pc, #148]	@ (80039dc <QTimeEvt_tick_+0xf4>)
 8003948:	687a      	ldr	r2, [r7, #4]
 800394a:	0013      	movs	r3, r2
 800394c:	00db      	lsls	r3, r3, #3
 800394e:	1a9b      	subs	r3, r3, r2
 8003950:	009b      	lsls	r3, r3, #2
 8003952:	18cb      	adds	r3, r1, r3
 8003954:	330c      	adds	r3, #12
 8003956:	2200      	movs	r2, #0
 8003958:	601a      	str	r2, [r3, #0]
        }

        QTimeEvtCtr ctr = te->ctr; // move member into temporary
 800395a:	693b      	ldr	r3, [r7, #16]
 800395c:	691b      	ldr	r3, [r3, #16]
 800395e:	60fb      	str	r3, [r7, #12]

        if (ctr == 0U) { // time event scheduled for removal?
 8003960:	68fb      	ldr	r3, [r7, #12]
 8003962:	2b00      	cmp	r3, #0
 8003964:	d10d      	bne.n	8003982 <QTimeEvt_tick_+0x9a>
            prev->next = te->next;
 8003966:	693b      	ldr	r3, [r7, #16]
 8003968:	689a      	ldr	r2, [r3, #8]
 800396a:	697b      	ldr	r3, [r7, #20]
 800396c:	609a      	str	r2, [r3, #8]

            // mark time event 'te' as NOT linked
            te->flags &= (uint8_t)(~QTE_FLAG_IS_LINKED & 0xFFU);
 800396e:	693b      	ldr	r3, [r7, #16]
 8003970:	7e5b      	ldrb	r3, [r3, #25]
 8003972:	227f      	movs	r2, #127	@ 0x7f
 8003974:	4013      	ands	r3, r2
 8003976:	b2da      	uxtb	r2, r3
 8003978:	693b      	ldr	r3, [r7, #16]
 800397a:	765a      	strb	r2, [r3, #25]
            // do NOT advance the prev pointer
            QF_CRIT_EXIT(); // exit crit. section to reduce latency
 800397c:	f7fe fc42 	bl	8002204 <QF_crit_exit_>
 8003980:	e020      	b.n	80039c4 <QTimeEvt_tick_+0xdc>
        }
        else if (ctr == 1U) { // is time event about to expire?
 8003982:	68fb      	ldr	r3, [r7, #12]
 8003984:	2b01      	cmp	r3, #1
 8003986:	d113      	bne.n	80039b0 <QTimeEvt_tick_+0xc8>
            QActive * const act = (QActive *)te->act;
 8003988:	693b      	ldr	r3, [r7, #16]
 800398a:	68db      	ldr	r3, [r3, #12]
 800398c:	60bb      	str	r3, [r7, #8]
            prev = QTimeEvt_expire_(te, prev, act, tickRate);
 800398e:	687b      	ldr	r3, [r7, #4]
 8003990:	68ba      	ldr	r2, [r7, #8]
 8003992:	6979      	ldr	r1, [r7, #20]
 8003994:	6938      	ldr	r0, [r7, #16]
 8003996:	f000 f845 	bl	8003a24 <QTimeEvt_expire_>
 800399a:	0003      	movs	r3, r0
 800399c:	617b      	str	r3, [r7, #20]

                // QACTIVE_POST() asserts if the queue overflows
                QACTIVE_POST(act, &te->super, sender);
            }
#else // not QXK
            QF_CRIT_EXIT(); // exit crit. section before posting
 800399e:	f7fe fc31 	bl	8002204 <QF_crit_exit_>

            // QACTIVE_POST() asserts if the queue overflows
            QACTIVE_POST(act, &te->super, sender);
 80039a2:	6939      	ldr	r1, [r7, #16]
 80039a4:	4a0e      	ldr	r2, [pc, #56]	@ (80039e0 <QTimeEvt_tick_+0xf8>)
 80039a6:	68b8      	ldr	r0, [r7, #8]
 80039a8:	2300      	movs	r3, #0
 80039aa:	f7ff f81f 	bl	80029ec <QActive_post_>
 80039ae:	e009      	b.n	80039c4 <QTimeEvt_tick_+0xdc>
#endif
        }
        else { // time event keeps timing out
            --ctr; // decrement the tick counter
 80039b0:	68fb      	ldr	r3, [r7, #12]
 80039b2:	3b01      	subs	r3, #1
 80039b4:	60fb      	str	r3, [r7, #12]
            te->ctr = ctr; // update the member original
 80039b6:	693b      	ldr	r3, [r7, #16]
 80039b8:	68fa      	ldr	r2, [r7, #12]
 80039ba:	611a      	str	r2, [r3, #16]

            prev = te; // advance to this time event
 80039bc:	693b      	ldr	r3, [r7, #16]
 80039be:	617b      	str	r3, [r7, #20]
            QF_CRIT_EXIT(); // exit crit. section to reduce latency
 80039c0:	f7fe fc20 	bl	8002204 <QF_crit_exit_>
        }
        QF_CRIT_ENTRY(); // re-enter crit. section to continue the loop
 80039c4:	f7fe fc0e 	bl	80021e4 <QF_crit_entry_>
    for (;;) {
 80039c8:	e7a7      	b.n	800391a <QTimeEvt_tick_+0x32>
                break; // terminate the loop
 80039ca:	46c0      	nop			@ (mov r8, r8)
    }
    QF_CRIT_EXIT();
 80039cc:	f7fe fc1a 	bl	8002204 <QF_crit_exit_>
}
 80039d0:	46c0      	nop			@ (mov r8, r8)
 80039d2:	46bd      	mov	sp, r7
 80039d4:	b006      	add	sp, #24
 80039d6:	bd80      	pop	{r7, pc}
 80039d8:	080040c8 	.word	0x080040c8
 80039dc:	20000400 	.word	0x20000400
 80039e0:	0000ffff 	.word	0x0000ffff

080039e4 <QTimeEvt_init>:
    return me->ctr;
}

//............................................................................
//! @static @private @memberof QTimeEvt
void QTimeEvt_init(void) {
 80039e4:	b580      	push	{r7, lr}
 80039e6:	b082      	sub	sp, #8
 80039e8:	af00      	add	r7, sp, #0
    // call ctors for time event heads for all configured tick rates
    for (uint_fast8_t tickRate = 0U;
 80039ea:	2300      	movs	r3, #0
 80039ec:	607b      	str	r3, [r7, #4]
 80039ee:	e00e      	b.n	8003a0e <QTimeEvt_init+0x2a>
         tickRate < Q_DIM(QTimeEvt_timeEvtHead_);
         ++tickRate)
    {
        // time event head has invalid AO and Q_USER_SIG as signal
        QTimeEvt_ctorX(&QTimeEvt_timeEvtHead_[tickRate],
 80039f0:	687a      	ldr	r2, [r7, #4]
 80039f2:	0013      	movs	r3, r2
 80039f4:	00db      	lsls	r3, r3, #3
 80039f6:	1a9b      	subs	r3, r3, r2
 80039f8:	009b      	lsls	r3, r3, #2
 80039fa:	4a09      	ldr	r2, [pc, #36]	@ (8003a20 <QTimeEvt_init+0x3c>)
 80039fc:	1898      	adds	r0, r3, r2
 80039fe:	687b      	ldr	r3, [r7, #4]
 8003a00:	2204      	movs	r2, #4
 8003a02:	2100      	movs	r1, #0
 8003a04:	f7ff fe90 	bl	8003728 <QTimeEvt_ctorX>
         ++tickRate)
 8003a08:	687b      	ldr	r3, [r7, #4]
 8003a0a:	3301      	adds	r3, #1
 8003a0c:	607b      	str	r3, [r7, #4]
         tickRate < Q_DIM(QTimeEvt_timeEvtHead_);
 8003a0e:	687b      	ldr	r3, [r7, #4]
 8003a10:	2b00      	cmp	r3, #0
 8003a12:	d0ed      	beq.n	80039f0 <QTimeEvt_init+0xc>
                       (QActive *)0, Q_USER_SIG, tickRate);
    }
}
 8003a14:	46c0      	nop			@ (mov r8, r8)
 8003a16:	46c0      	nop			@ (mov r8, r8)
 8003a18:	46bd      	mov	sp, r7
 8003a1a:	b002      	add	sp, #8
 8003a1c:	bd80      	pop	{r7, pc}
 8003a1e:	46c0      	nop			@ (mov r8, r8)
 8003a20:	20000400 	.word	0x20000400

08003a24 <QTimeEvt_expire_>:
//! @private @memberof QTimeEvt
QTimeEvt * QTimeEvt_expire_(QTimeEvt * const me,
    QTimeEvt * const prev_link,
    QActive const * const act,
    uint_fast8_t const tickRate)
{
 8003a24:	b580      	push	{r7, lr}
 8003a26:	b086      	sub	sp, #24
 8003a28:	af00      	add	r7, sp, #0
 8003a2a:	60f8      	str	r0, [r7, #12]
 8003a2c:	60b9      	str	r1, [r7, #8]
 8003a2e:	607a      	str	r2, [r7, #4]
 8003a30:	603b      	str	r3, [r7, #0]
#ifndef Q_SPY
    Q_UNUSED_PAR(act);
    Q_UNUSED_PAR(tickRate);
#endif

    QTimeEvt *prev = prev_link;
 8003a32:	68bb      	ldr	r3, [r7, #8]
 8003a34:	617b      	str	r3, [r7, #20]
    if (me->interval != 0U) { // periodic time evt?
 8003a36:	68fb      	ldr	r3, [r7, #12]
 8003a38:	695b      	ldr	r3, [r3, #20]
 8003a3a:	2b00      	cmp	r3, #0
 8003a3c:	d006      	beq.n	8003a4c <QTimeEvt_expire_+0x28>
        me->ctr = me->interval; // rearm the time event
 8003a3e:	68fb      	ldr	r3, [r7, #12]
 8003a40:	695a      	ldr	r2, [r3, #20]
 8003a42:	68fb      	ldr	r3, [r7, #12]
 8003a44:	611a      	str	r2, [r3, #16]
        prev = me; // advance to this time event
 8003a46:	68fb      	ldr	r3, [r7, #12]
 8003a48:	617b      	str	r3, [r7, #20]
 8003a4a:	e00d      	b.n	8003a68 <QTimeEvt_expire_+0x44>
    }
    else { // one-shot time event: automatically disarm
        me->ctr = 0U;
 8003a4c:	68fb      	ldr	r3, [r7, #12]
 8003a4e:	2200      	movs	r2, #0
 8003a50:	611a      	str	r2, [r3, #16]
        prev->next = me->next;
 8003a52:	68fb      	ldr	r3, [r7, #12]
 8003a54:	689a      	ldr	r2, [r3, #8]
 8003a56:	697b      	ldr	r3, [r7, #20]
 8003a58:	609a      	str	r2, [r3, #8]

        // mark this time event as NOT linked
        me->flags &= (uint8_t)(~QTE_FLAG_IS_LINKED & 0xFFU);
 8003a5a:	68fb      	ldr	r3, [r7, #12]
 8003a5c:	7e5b      	ldrb	r3, [r3, #25]
 8003a5e:	227f      	movs	r2, #127	@ 0x7f
 8003a60:	4013      	ands	r3, r2
 8003a62:	b2da      	uxtb	r2, r3
 8003a64:	68fb      	ldr	r3, [r7, #12]
 8003a66:	765a      	strb	r2, [r3, #25]
        QS_SIG_PRE(me->super.sig);// signal of this time event
        QS_OBJ_PRE(act);          // the target AO
        QS_U8_PRE(tickRate);      // tick rate
    QS_END_PRE()

    return prev;
 8003a68:	697b      	ldr	r3, [r7, #20]
}
 8003a6a:	0018      	movs	r0, r3
 8003a6c:	46bd      	mov	sp, r7
 8003a6e:	b006      	add	sp, #24
 8003a70:	bd80      	pop	{r7, pc}
	...

08003a74 <QK_schedLock>:
//............................................................................
QK_Attr QK_priv_;

//............................................................................
//! @static @public @memberof QK
QSchedStatus QK_schedLock(uint8_t const ceiling) {
 8003a74:	b580      	push	{r7, lr}
 8003a76:	b084      	sub	sp, #16
 8003a78:	af00      	add	r7, sp, #0
 8003a7a:	0002      	movs	r2, r0
 8003a7c:	1dfb      	adds	r3, r7, #7
 8003a7e:	701a      	strb	r2, [r3, #0]
    QF_CRIT_STAT
    QF_CRIT_ENTRY();
 8003a80:	f7fe fbb0 	bl	80021e4 <QF_crit_entry_>
    __asm volatile ("mrs %0,ipsr" : "=r" (regIPSR));
 8003a84:	f3ef 8305 	mrs	r3, IPSR
 8003a88:	60bb      	str	r3, [r7, #8]
    return regIPSR;
 8003a8a:	68bb      	ldr	r3, [r7, #8]

    // scheduler should never be locked inside an ISR
    Q_REQUIRE_INCRIT(100, !QK_ISR_CONTEXT_());
 8003a8c:	2b00      	cmp	r3, #0
 8003a8e:	d004      	beq.n	8003a9a <QK_schedLock+0x26>
 8003a90:	4b0d      	ldr	r3, [pc, #52]	@ (8003ac8 <QK_schedLock+0x54>)
 8003a92:	2164      	movs	r1, #100	@ 0x64
 8003a94:	0018      	movs	r0, r3
 8003a96:	f7fc fc87 	bl	80003a8 <Q_onError>

    QSchedStatus stat = 0xFFU; // assume scheduler NOT locked
 8003a9a:	23ff      	movs	r3, #255	@ 0xff
 8003a9c:	60fb      	str	r3, [r7, #12]
    if (ceiling > QK_priv_.lockCeil) { // increasing the lock ceiling?
 8003a9e:	4b0b      	ldr	r3, [pc, #44]	@ (8003acc <QK_schedLock+0x58>)
 8003aa0:	79db      	ldrb	r3, [r3, #7]
 8003aa2:	1dfa      	adds	r2, r7, #7
 8003aa4:	7812      	ldrb	r2, [r2, #0]
 8003aa6:	429a      	cmp	r2, r3
 8003aa8:	d906      	bls.n	8003ab8 <QK_schedLock+0x44>
            // the previous lock ceiling & new lock ceiling
            QS_2U8_PRE(QK_priv_.lockCeil, ceiling);
        QS_END_PRE()

        // previous status of the lock
        stat = (QSchedStatus)QK_priv_.lockCeil;
 8003aaa:	4b08      	ldr	r3, [pc, #32]	@ (8003acc <QK_schedLock+0x58>)
 8003aac:	79db      	ldrb	r3, [r3, #7]
 8003aae:	60fb      	str	r3, [r7, #12]

        // new status of the lock
        QK_priv_.lockCeil = (uint8_t)ceiling;
 8003ab0:	4b06      	ldr	r3, [pc, #24]	@ (8003acc <QK_schedLock+0x58>)
 8003ab2:	1dfa      	adds	r2, r7, #7
 8003ab4:	7812      	ldrb	r2, [r2, #0]
 8003ab6:	71da      	strb	r2, [r3, #7]
    }
    QF_CRIT_EXIT();
 8003ab8:	f7fe fba4 	bl	8002204 <QF_crit_exit_>

    return stat; // return the status to be saved in a stack variable
 8003abc:	68fb      	ldr	r3, [r7, #12]
}
 8003abe:	0018      	movs	r0, r3
 8003ac0:	46bd      	mov	sp, r7
 8003ac2:	b004      	add	sp, #16
 8003ac4:	bd80      	pop	{r7, pc}
 8003ac6:	46c0      	nop			@ (mov r8, r8)
 8003ac8:	080040d0 	.word	0x080040d0
 8003acc:	2000041c 	.word	0x2000041c

08003ad0 <QK_schedUnlock>:

//............................................................................
//! @static @public @memberof QK
void QK_schedUnlock(QSchedStatus const prevCeil) {
 8003ad0:	b580      	push	{r7, lr}
 8003ad2:	b084      	sub	sp, #16
 8003ad4:	af00      	add	r7, sp, #0
 8003ad6:	6078      	str	r0, [r7, #4]
    // has the scheduler been actually locked by the last QK_schedLock()?
    if (prevCeil != 0xFFU) {
 8003ad8:	687b      	ldr	r3, [r7, #4]
 8003ada:	2bff      	cmp	r3, #255	@ 0xff
 8003adc:	d023      	beq.n	8003b26 <QK_schedUnlock+0x56>
        QF_CRIT_STAT
        QF_CRIT_ENTRY();
 8003ade:	f7fe fb81 	bl	80021e4 <QF_crit_entry_>
    __asm volatile ("mrs %0,ipsr" : "=r" (regIPSR));
 8003ae2:	f3ef 8305 	mrs	r3, IPSR
 8003ae6:	60fb      	str	r3, [r7, #12]
    return regIPSR;
 8003ae8:	68fb      	ldr	r3, [r7, #12]

        // scheduler should never be unlocked inside an ISR
        Q_REQUIRE_INCRIT(200, !QK_ISR_CONTEXT_());
 8003aea:	2b00      	cmp	r3, #0
 8003aec:	d004      	beq.n	8003af8 <QK_schedUnlock+0x28>
 8003aee:	4b10      	ldr	r3, [pc, #64]	@ (8003b30 <QK_schedUnlock+0x60>)
 8003af0:	21c8      	movs	r1, #200	@ 0xc8
 8003af2:	0018      	movs	r0, r3
 8003af4:	f7fc fc58 	bl	80003a8 <Q_onError>

        // the current lock-ceiling must be higher than the previous ceiling
        Q_REQUIRE_INCRIT(220, QK_priv_.lockCeil > prevCeil);
 8003af8:	4b0e      	ldr	r3, [pc, #56]	@ (8003b34 <QK_schedUnlock+0x64>)
 8003afa:	79db      	ldrb	r3, [r3, #7]
 8003afc:	001a      	movs	r2, r3
 8003afe:	687b      	ldr	r3, [r7, #4]
 8003b00:	4293      	cmp	r3, r2
 8003b02:	d304      	bcc.n	8003b0e <QK_schedUnlock+0x3e>
 8003b04:	4b0a      	ldr	r3, [pc, #40]	@ (8003b30 <QK_schedUnlock+0x60>)
 8003b06:	21dc      	movs	r1, #220	@ 0xdc
 8003b08:	0018      	movs	r0, r3
 8003b0a:	f7fc fc4d 	bl	80003a8 <Q_onError>
            // current lock ceiling (old), previous lock ceiling (new)
            QS_2U8_PRE(QK_priv_.lockCeil, (uint8_t)prevCeil);
        QS_END_PRE()

        // restore the previous lock ceiling
        QK_priv_.lockCeil = (uint8_t)prevCeil;
 8003b0e:	687b      	ldr	r3, [r7, #4]
 8003b10:	b2da      	uxtb	r2, r3
 8003b12:	4b08      	ldr	r3, [pc, #32]	@ (8003b34 <QK_schedUnlock+0x64>)
 8003b14:	71da      	strb	r2, [r3, #7]

        // find if any AOs should be run after unlocking the scheduler
        if (QK_sched_() != 0U) { // preemption needed?
 8003b16:	f000 f80f 	bl	8003b38 <QK_sched_>
 8003b1a:	1e03      	subs	r3, r0, #0
 8003b1c:	d001      	beq.n	8003b22 <QK_schedUnlock+0x52>
            QK_activate_(); // activate any unlocked AOs
 8003b1e:	f000 f883 	bl	8003c28 <QK_activate_>
        }

        QF_CRIT_EXIT();
 8003b22:	f7fe fb6f 	bl	8002204 <QF_crit_exit_>
    }
}
 8003b26:	46c0      	nop			@ (mov r8, r8)
 8003b28:	46bd      	mov	sp, r7
 8003b2a:	b004      	add	sp, #16
 8003b2c:	bd80      	pop	{r7, pc}
 8003b2e:	46c0      	nop			@ (mov r8, r8)
 8003b30:	080040d0 	.word	0x080040d0
 8003b34:	2000041c 	.word	0x2000041c

08003b38 <QK_sched_>:

//............................................................................
//! @static @private @memberof QK
uint_fast8_t QK_sched_(void) {
 8003b38:	b580      	push	{r7, lr}
 8003b3a:	b082      	sub	sp, #8
 8003b3c:	af00      	add	r7, sp, #0
    // NOTE: this function is entered with interrupts DISABLED

    uint8_t p = 0U; // assume NO activation needed
 8003b3e:	1dfb      	adds	r3, r7, #7
 8003b40:	2200      	movs	r2, #0
 8003b42:	701a      	strb	r2, [r3, #0]
    if (QPSet_notEmpty(&QK_priv_.readySet)) {
 8003b44:	4b15      	ldr	r3, [pc, #84]	@ (8003b9c <QK_sched_+0x64>)
 8003b46:	0018      	movs	r0, r3
 8003b48:	f7ff fd76 	bl	8003638 <QPSet_notEmpty>
 8003b4c:	1e03      	subs	r3, r0, #0
 8003b4e:	d01e      	beq.n	8003b8e <QK_sched_+0x56>
        // find the highest-prio AO with non-empty event queue
        p = (uint8_t)QPSet_findMax(&QK_priv_.readySet);
 8003b50:	4b12      	ldr	r3, [pc, #72]	@ (8003b9c <QK_sched_+0x64>)
 8003b52:	0018      	movs	r0, r3
 8003b54:	f7ff fda4 	bl	80036a0 <QPSet_findMax>
 8003b58:	0002      	movs	r2, r0
 8003b5a:	1dfb      	adds	r3, r7, #7
 8003b5c:	701a      	strb	r2, [r3, #0]

        // is the AO's prio. below the active preemption-threshold?
        if (p <= QK_priv_.actThre) {
 8003b5e:	4b0f      	ldr	r3, [pc, #60]	@ (8003b9c <QK_sched_+0x64>)
 8003b60:	799b      	ldrb	r3, [r3, #6]
 8003b62:	1dfa      	adds	r2, r7, #7
 8003b64:	7812      	ldrb	r2, [r2, #0]
 8003b66:	429a      	cmp	r2, r3
 8003b68:	d803      	bhi.n	8003b72 <QK_sched_+0x3a>
            p = 0U; // no activation needed
 8003b6a:	1dfb      	adds	r3, r7, #7
 8003b6c:	2200      	movs	r2, #0
 8003b6e:	701a      	strb	r2, [r3, #0]
 8003b70:	e00d      	b.n	8003b8e <QK_sched_+0x56>
        }
        else {
            // is the AO's prio. below the lock-ceiling?
            if (p <= QK_priv_.lockCeil) {
 8003b72:	4b0a      	ldr	r3, [pc, #40]	@ (8003b9c <QK_sched_+0x64>)
 8003b74:	79db      	ldrb	r3, [r3, #7]
 8003b76:	1dfa      	adds	r2, r7, #7
 8003b78:	7812      	ldrb	r2, [r2, #0]
 8003b7a:	429a      	cmp	r2, r3
 8003b7c:	d803      	bhi.n	8003b86 <QK_sched_+0x4e>
                p = 0U; // no activation needed
 8003b7e:	1dfb      	adds	r3, r7, #7
 8003b80:	2200      	movs	r2, #0
 8003b82:	701a      	strb	r2, [r3, #0]
 8003b84:	e003      	b.n	8003b8e <QK_sched_+0x56>
            }
            else {
                QK_priv_.nextPrio = p; // next AO to run
 8003b86:	4b05      	ldr	r3, [pc, #20]	@ (8003b9c <QK_sched_+0x64>)
 8003b88:	1dfa      	adds	r2, r7, #7
 8003b8a:	7812      	ldrb	r2, [r2, #0]
 8003b8c:	715a      	strb	r2, [r3, #5]
            }
        }
    }

    return p; // the next priority or 0
 8003b8e:	1dfb      	adds	r3, r7, #7
 8003b90:	781b      	ldrb	r3, [r3, #0]
}
 8003b92:	0018      	movs	r0, r3
 8003b94:	46bd      	mov	sp, r7
 8003b96:	b002      	add	sp, #8
 8003b98:	bd80      	pop	{r7, pc}
 8003b9a:	46c0      	nop			@ (mov r8, r8)
 8003b9c:	2000041c 	.word	0x2000041c

08003ba0 <QK_sched_act_>:
//............................................................................
//! @static @private @memberof QK
uint_fast8_t QK_sched_act_(
    QActive const * const act,
    uint_fast8_t const pthre_in)
{
 8003ba0:	b580      	push	{r7, lr}
 8003ba2:	b084      	sub	sp, #16
 8003ba4:	af00      	add	r7, sp, #0
 8003ba6:	6078      	str	r0, [r7, #4]
 8003ba8:	6039      	str	r1, [r7, #0]
    // NOTE: this function is entered with interrupts DISABLED

    uint8_t p = act->prio;
 8003baa:	210f      	movs	r1, #15
 8003bac:	187b      	adds	r3, r7, r1
 8003bae:	687a      	ldr	r2, [r7, #4]
 8003bb0:	7b12      	ldrb	r2, [r2, #12]
 8003bb2:	701a      	strb	r2, [r3, #0]
    if (act->eQueue.frontEvt == (QEvt *)0) { // empty queue?
 8003bb4:	687b      	ldr	r3, [r7, #4]
 8003bb6:	695b      	ldr	r3, [r3, #20]
 8003bb8:	2b00      	cmp	r3, #0
 8003bba:	d106      	bne.n	8003bca <QK_sched_act_+0x2a>
        QPSet_remove(&QK_priv_.readySet, p);
 8003bbc:	187b      	adds	r3, r7, r1
 8003bbe:	781a      	ldrb	r2, [r3, #0]
 8003bc0:	4b18      	ldr	r3, [pc, #96]	@ (8003c24 <QK_sched_act_+0x84>)
 8003bc2:	0011      	movs	r1, r2
 8003bc4:	0018      	movs	r0, r3
 8003bc6:	f7ff fd57 	bl	8003678 <QPSet_remove>
    }

    if (QPSet_isEmpty(&QK_priv_.readySet)) { // no AOs ready to run?
 8003bca:	4b16      	ldr	r3, [pc, #88]	@ (8003c24 <QK_sched_act_+0x84>)
 8003bcc:	0018      	movs	r0, r3
 8003bce:	f7ff fd26 	bl	800361e <QPSet_isEmpty>
 8003bd2:	1e03      	subs	r3, r0, #0
 8003bd4:	d004      	beq.n	8003be0 <QK_sched_act_+0x40>
        p = 0U; // no activation needed
 8003bd6:	230f      	movs	r3, #15
 8003bd8:	18fb      	adds	r3, r7, r3
 8003bda:	2200      	movs	r2, #0
 8003bdc:	701a      	strb	r2, [r3, #0]
 8003bde:	e01a      	b.n	8003c16 <QK_sched_act_+0x76>
    }
    else {
        // find new highest-prio AO ready to run...
        p = (uint8_t)QPSet_findMax(&QK_priv_.readySet);
 8003be0:	4b10      	ldr	r3, [pc, #64]	@ (8003c24 <QK_sched_act_+0x84>)
 8003be2:	0018      	movs	r0, r3
 8003be4:	f7ff fd5c 	bl	80036a0 <QPSet_findMax>
 8003be8:	0002      	movs	r2, r0
 8003bea:	210f      	movs	r1, #15
 8003bec:	187b      	adds	r3, r7, r1
 8003bee:	701a      	strb	r2, [r3, #0]
        // NOTE: p is guaranteed to be <= QF_MAX_ACTIVE

        // is the new prio. below the initial preemption-threshold?
        if (p <= pthre_in) {
 8003bf0:	187b      	adds	r3, r7, r1
 8003bf2:	781b      	ldrb	r3, [r3, #0]
 8003bf4:	683a      	ldr	r2, [r7, #0]
 8003bf6:	429a      	cmp	r2, r3
 8003bf8:	d303      	bcc.n	8003c02 <QK_sched_act_+0x62>
            p = 0U; // no activation needed
 8003bfa:	187b      	adds	r3, r7, r1
 8003bfc:	2200      	movs	r2, #0
 8003bfe:	701a      	strb	r2, [r3, #0]
 8003c00:	e009      	b.n	8003c16 <QK_sched_act_+0x76>
        }
        else {
            // is the AO's prio. below the lock preemption-threshold?
            if (p <= QK_priv_.lockCeil) {
 8003c02:	4b08      	ldr	r3, [pc, #32]	@ (8003c24 <QK_sched_act_+0x84>)
 8003c04:	79db      	ldrb	r3, [r3, #7]
 8003c06:	210f      	movs	r1, #15
 8003c08:	187a      	adds	r2, r7, r1
 8003c0a:	7812      	ldrb	r2, [r2, #0]
 8003c0c:	429a      	cmp	r2, r3
 8003c0e:	d802      	bhi.n	8003c16 <QK_sched_act_+0x76>
                p = 0U; // no activation needed
 8003c10:	187b      	adds	r3, r7, r1
 8003c12:	2200      	movs	r2, #0
 8003c14:	701a      	strb	r2, [r3, #0]
            }
        }
    }

    return p;
 8003c16:	230f      	movs	r3, #15
 8003c18:	18fb      	adds	r3, r7, r3
 8003c1a:	781b      	ldrb	r3, [r3, #0]
}
 8003c1c:	0018      	movs	r0, r3
 8003c1e:	46bd      	mov	sp, r7
 8003c20:	b004      	add	sp, #16
 8003c22:	bd80      	pop	{r7, pc}
 8003c24:	2000041c 	.word	0x2000041c

08003c28 <QK_activate_>:

//............................................................................
//! @static @private @memberof QK
void QK_activate_(void) {
 8003c28:	b5b0      	push	{r4, r5, r7, lr}
 8003c2a:	b086      	sub	sp, #24
 8003c2c:	af00      	add	r7, sp, #0
    // NOTE: this function is entered with interrupts DISABLED

    uint8_t const prio_in = QK_priv_.actPrio; // save initial prio.
 8003c2e:	2315      	movs	r3, #21
 8003c30:	18fb      	adds	r3, r7, r3
 8003c32:	4a4e      	ldr	r2, [pc, #312]	@ (8003d6c <QK_activate_+0x144>)
 8003c34:	7912      	ldrb	r2, [r2, #4]
 8003c36:	701a      	strb	r2, [r3, #0]
    uint8_t p = QK_priv_.nextPrio; // next prio to run
 8003c38:	2117      	movs	r1, #23
 8003c3a:	187b      	adds	r3, r7, r1
 8003c3c:	4a4b      	ldr	r2, [pc, #300]	@ (8003d6c <QK_activate_+0x144>)
 8003c3e:	7952      	ldrb	r2, [r2, #5]
 8003c40:	701a      	strb	r2, [r3, #0]

    // the activated AO's prio must be in range and cannot be 0 (idle thread)
    Q_REQUIRE_INCRIT(520, (0U < p) && (p <= QF_MAX_ACTIVE));
 8003c42:	000a      	movs	r2, r1
 8003c44:	18bb      	adds	r3, r7, r2
 8003c46:	781b      	ldrb	r3, [r3, #0]
 8003c48:	2b00      	cmp	r3, #0
 8003c4a:	d003      	beq.n	8003c54 <QK_activate_+0x2c>
 8003c4c:	18bb      	adds	r3, r7, r2
 8003c4e:	781b      	ldrb	r3, [r3, #0]
 8003c50:	2b20      	cmp	r3, #32
 8003c52:	d906      	bls.n	8003c62 <QK_activate_+0x3a>
 8003c54:	2382      	movs	r3, #130	@ 0x82
 8003c56:	009a      	lsls	r2, r3, #2
 8003c58:	4b45      	ldr	r3, [pc, #276]	@ (8003d70 <QK_activate_+0x148>)
 8003c5a:	0011      	movs	r1, r2
 8003c5c:	0018      	movs	r0, r3
 8003c5e:	f7fc fba3 	bl	80003a8 <Q_onError>

    // the initial prio. must be lower than the activated AO's prio.
    Q_REQUIRE_INCRIT(530, prio_in < p);
 8003c62:	2315      	movs	r3, #21
 8003c64:	18fa      	adds	r2, r7, r3
 8003c66:	2317      	movs	r3, #23
 8003c68:	18fb      	adds	r3, r7, r3
 8003c6a:	7812      	ldrb	r2, [r2, #0]
 8003c6c:	781b      	ldrb	r3, [r3, #0]
 8003c6e:	429a      	cmp	r2, r3
 8003c70:	d305      	bcc.n	8003c7e <QK_activate_+0x56>
 8003c72:	4a40      	ldr	r2, [pc, #256]	@ (8003d74 <QK_activate_+0x14c>)
 8003c74:	4b3e      	ldr	r3, [pc, #248]	@ (8003d70 <QK_activate_+0x148>)
 8003c76:	0011      	movs	r1, r2
 8003c78:	0018      	movs	r0, r3
 8003c7a:	f7fc fb95 	bl	80003a8 <Q_onError>

#if (defined QF_ON_CONTEXT_SW) || (defined Q_SPY)
    uint8_t pprev = prio_in;
#endif // QF_ON_CONTEXT_SW || Q_SPY

    QK_priv_.nextPrio = 0U; // clear for the next time
 8003c7e:	4b3b      	ldr	r3, [pc, #236]	@ (8003d6c <QK_activate_+0x144>)
 8003c80:	2200      	movs	r2, #0
 8003c82:	715a      	strb	r2, [r3, #5]

    uint8_t pthre_in = 0U; // assume preempting the idle thread
 8003c84:	2316      	movs	r3, #22
 8003c86:	18fb      	adds	r3, r7, r3
 8003c88:	2200      	movs	r2, #0
 8003c8a:	701a      	strb	r2, [r3, #0]
    if (prio_in > 0U) { // preempting a regular thread (NOT the idle thread)?
 8003c8c:	2215      	movs	r2, #21
 8003c8e:	18bb      	adds	r3, r7, r2
 8003c90:	781b      	ldrb	r3, [r3, #0]
 8003c92:	2b00      	cmp	r3, #0
 8003c94:	d014      	beq.n	8003cc0 <QK_activate_+0x98>
        QActive const * const a = QActive_registry_[prio_in];
 8003c96:	18bb      	adds	r3, r7, r2
 8003c98:	781a      	ldrb	r2, [r3, #0]
 8003c9a:	4b37      	ldr	r3, [pc, #220]	@ (8003d78 <QK_activate_+0x150>)
 8003c9c:	0092      	lsls	r2, r2, #2
 8003c9e:	58d3      	ldr	r3, [r2, r3]
 8003ca0:	613b      	str	r3, [r7, #16]

        // the AO must be registered at prio. prio_in
        Q_ASSERT_INCRIT(540, a != (QActive *)0);
 8003ca2:	693b      	ldr	r3, [r7, #16]
 8003ca4:	2b00      	cmp	r3, #0
 8003ca6:	d106      	bne.n	8003cb6 <QK_activate_+0x8e>
 8003ca8:	2387      	movs	r3, #135	@ 0x87
 8003caa:	009a      	lsls	r2, r3, #2
 8003cac:	4b30      	ldr	r3, [pc, #192]	@ (8003d70 <QK_activate_+0x148>)
 8003cae:	0011      	movs	r1, r2
 8003cb0:	0018      	movs	r0, r3
 8003cb2:	f7fc fb79 	bl	80003a8 <Q_onError>

        pthre_in = a->pthre;
 8003cb6:	2316      	movs	r3, #22
 8003cb8:	18fb      	adds	r3, r7, r3
 8003cba:	693a      	ldr	r2, [r7, #16]
 8003cbc:	7b52      	ldrb	r2, [r2, #13]
 8003cbe:	701a      	strb	r2, [r3, #0]
    }

    // loop until no more ready-to-run AOs of higher pthre than the initial
    do  {
        QActive * const a = QActive_registry_[p];
 8003cc0:	2317      	movs	r3, #23
 8003cc2:	18fb      	adds	r3, r7, r3
 8003cc4:	781a      	ldrb	r2, [r3, #0]
 8003cc6:	4b2c      	ldr	r3, [pc, #176]	@ (8003d78 <QK_activate_+0x150>)
 8003cc8:	0092      	lsls	r2, r2, #2
 8003cca:	58d3      	ldr	r3, [r2, r3]
 8003ccc:	60fb      	str	r3, [r7, #12]

        // the AO must be registered at prio. p
        Q_ASSERT_INCRIT(570, a != (QActive *)0);
 8003cce:	68fb      	ldr	r3, [r7, #12]
 8003cd0:	2b00      	cmp	r3, #0
 8003cd2:	d105      	bne.n	8003ce0 <QK_activate_+0xb8>
 8003cd4:	4a29      	ldr	r2, [pc, #164]	@ (8003d7c <QK_activate_+0x154>)
 8003cd6:	4b26      	ldr	r3, [pc, #152]	@ (8003d70 <QK_activate_+0x148>)
 8003cd8:	0011      	movs	r1, r2
 8003cda:	0018      	movs	r0, r3
 8003cdc:	f7fc fb64 	bl	80003a8 <Q_onError>
        uint8_t const pthre = a->pthre;
 8003ce0:	210b      	movs	r1, #11
 8003ce2:	187b      	adds	r3, r7, r1
 8003ce4:	68fa      	ldr	r2, [r7, #12]
 8003ce6:	7b52      	ldrb	r2, [r2, #13]
 8003ce8:	701a      	strb	r2, [r3, #0]

        // set new active prio. and preemption-threshold
        QK_priv_.actPrio = p;
 8003cea:	4b20      	ldr	r3, [pc, #128]	@ (8003d6c <QK_activate_+0x144>)
 8003cec:	2417      	movs	r4, #23
 8003cee:	193a      	adds	r2, r7, r4
 8003cf0:	7812      	ldrb	r2, [r2, #0]
 8003cf2:	711a      	strb	r2, [r3, #4]
        QK_priv_.actThre = pthre;
 8003cf4:	4b1d      	ldr	r3, [pc, #116]	@ (8003d6c <QK_activate_+0x144>)
 8003cf6:	187a      	adds	r2, r7, r1
 8003cf8:	7812      	ldrb	r2, [r2, #0]
 8003cfa:	719a      	strb	r2, [r3, #6]

            pprev = p; // update previous prio.
        }
#endif // QF_ON_CONTEXT_SW || Q_SPY

        QF_INT_ENABLE(); // unconditionally enable interrupts
 8003cfc:	f7fe fa62 	bl	80021c4 <QF_int_enable_>

        QEvt const * const e = QActive_get_(a);
 8003d00:	68fb      	ldr	r3, [r7, #12]
 8003d02:	0018      	movs	r0, r3
 8003d04:	f7fe fece 	bl	8002aa4 <QActive_get_>
 8003d08:	0003      	movs	r3, r0
 8003d0a:	607b      	str	r3, [r7, #4]
        // NOTE QActive_get_() performs QF_MEM_APP() before return

        // dispatch event (virtual call)
        (*a->super.vptr->dispatch)(&a->super, e, p);
 8003d0c:	68fb      	ldr	r3, [r7, #12]
 8003d0e:	681b      	ldr	r3, [r3, #0]
 8003d10:	685b      	ldr	r3, [r3, #4]
 8003d12:	68f8      	ldr	r0, [r7, #12]
 8003d14:	193a      	adds	r2, r7, r4
 8003d16:	7812      	ldrb	r2, [r2, #0]
 8003d18:	6879      	ldr	r1, [r7, #4]
 8003d1a:	4798      	blx	r3
#if (QF_MAX_EPOOL > 0U)
        QF_gc(e);
 8003d1c:	687b      	ldr	r3, [r7, #4]
 8003d1e:	0018      	movs	r0, r3
 8003d20:	f7ff f878 	bl	8002e14 <QF_gc>
#endif

        // determine the next highest-prio. AO ready to run...
        QF_INT_DISABLE(); // unconditionally disable interrupts
 8003d24:	f7fe fa3e 	bl	80021a4 <QF_int_disable_>

        // schedule next AO
        p = (uint8_t)QK_sched_act_(a, pthre_in);
 8003d28:	2516      	movs	r5, #22
 8003d2a:	197b      	adds	r3, r7, r5
 8003d2c:	781a      	ldrb	r2, [r3, #0]
 8003d2e:	68fb      	ldr	r3, [r7, #12]
 8003d30:	0011      	movs	r1, r2
 8003d32:	0018      	movs	r0, r3
 8003d34:	f7ff ff34 	bl	8003ba0 <QK_sched_act_>
 8003d38:	0002      	movs	r2, r0
 8003d3a:	193b      	adds	r3, r7, r4
 8003d3c:	701a      	strb	r2, [r3, #0]
 8003d3e:	0029      	movs	r1, r5
 8003d40:	187b      	adds	r3, r7, r1
 8003d42:	187a      	adds	r2, r7, r1
 8003d44:	7812      	ldrb	r2, [r2, #0]
 8003d46:	701a      	strb	r2, [r3, #0]

    } while (p != 0U);
 8003d48:	193b      	adds	r3, r7, r4
 8003d4a:	781b      	ldrb	r3, [r3, #0]
 8003d4c:	2b00      	cmp	r3, #0
 8003d4e:	d1b7      	bne.n	8003cc0 <QK_activate_+0x98>

    // restore the active prio. and preemption-threshold
    QK_priv_.actPrio = prio_in;
 8003d50:	4b06      	ldr	r3, [pc, #24]	@ (8003d6c <QK_activate_+0x144>)
 8003d52:	2215      	movs	r2, #21
 8003d54:	18ba      	adds	r2, r7, r2
 8003d56:	7812      	ldrb	r2, [r2, #0]
 8003d58:	711a      	strb	r2, [r3, #4]
    QK_priv_.actThre = pthre_in;
 8003d5a:	4b04      	ldr	r3, [pc, #16]	@ (8003d6c <QK_activate_+0x144>)
 8003d5c:	187a      	adds	r2, r7, r1
 8003d5e:	7812      	ldrb	r2, [r2, #0]
 8003d60:	719a      	strb	r2, [r3, #6]
        QF_onContextSw(QActive_registry_[pprev], (QActive *)0);
#endif // QF_ON_CONTEXT_SW
    }

#endif // QF_ON_CONTEXT_SW || Q_SPY
}
 8003d62:	46c0      	nop			@ (mov r8, r8)
 8003d64:	46bd      	mov	sp, r7
 8003d66:	b006      	add	sp, #24
 8003d68:	bdb0      	pop	{r4, r5, r7, pc}
 8003d6a:	46c0      	nop			@ (mov r8, r8)
 8003d6c:	2000041c 	.word	0x2000041c
 8003d70:	080040d0 	.word	0x080040d0
 8003d74:	00000212 	.word	0x00000212
 8003d78:	2000033c 	.word	0x2000033c
 8003d7c:	0000023a 	.word	0x0000023a

08003d80 <QF_init>:

//............................................................................
//! @static @public @memberof QF
void QF_init(void) {
 8003d80:	b580      	push	{r7, lr}
 8003d82:	af00      	add	r7, sp, #0
    // setup the QK scheduler as initially locked and not running
    QK_priv_.lockCeil = (QF_MAX_ACTIVE + 1U); // scheduler locked
 8003d84:	4b04      	ldr	r3, [pc, #16]	@ (8003d98 <QF_init+0x18>)
 8003d86:	2221      	movs	r2, #33	@ 0x21
 8003d88:	71da      	strb	r2, [r3, #7]

#ifndef Q_UNSAFE
    QTimeEvt_init(); // initialize QTimeEvts
 8003d8a:	f7ff fe2b 	bl	80039e4 <QTimeEvt_init>
#endif // Q_UNSAFE

#ifdef QK_INIT
    QK_INIT(); // port-specific initialization of the QK kernel
 8003d8e:	f7fe fa49 	bl	8002224 <QK_init>
#endif
}
 8003d92:	46c0      	nop			@ (mov r8, r8)
 8003d94:	46bd      	mov	sp, r7
 8003d96:	bd80      	pop	{r7, pc}
 8003d98:	2000041c 	.word	0x2000041c

08003d9c <QF_run>:
    // nothing else to do for the preemptive QK kernel
}

//............................................................................
//! @static @public @memberof QF
int_t QF_run(void) {
 8003d9c:	b580      	push	{r7, lr}
 8003d9e:	af00      	add	r7, sp, #0
    QF_INT_DISABLE();
 8003da0:	f7fe fa00 	bl	80021a4 <QF_int_disable_>

#ifdef QK_START
    QK_START(); // port-specific startup of the QK kernel
#endif

    QK_priv_.lockCeil = 0U; // unlock the QK scheduler
 8003da4:	4b07      	ldr	r3, [pc, #28]	@ (8003dc4 <QF_run+0x28>)
 8003da6:	2200      	movs	r2, #0
 8003da8:	71da      	strb	r2, [r3, #7]
    // officially switch to the idle context
    QF_onContextSw((QActive *)0, QActive_registry_[QK_priv_.nextPrio]);
#endif

    // activate AOs to process events posted so far
    if (QK_sched_() != 0U) {
 8003daa:	f7ff fec5 	bl	8003b38 <QK_sched_>
 8003dae:	1e03      	subs	r3, r0, #0
 8003db0:	d001      	beq.n	8003db6 <QF_run+0x1a>
        QK_activate_();
 8003db2:	f7ff ff39 	bl	8003c28 <QK_activate_>
    }

    QF_INT_ENABLE();
 8003db6:	f7fe fa05 	bl	80021c4 <QF_int_enable_>

    QF_onStartup(); // app. callback: configure and enable interrupts
 8003dba:	f7fc fc9d 	bl	80006f8 <QF_onStartup>

    for (;;) { // QK idle loop...
        QK_onIdle(); // application-specific QK idle callback
 8003dbe:	f7fc fcbd 	bl	800073c <QK_onIdle>
 8003dc2:	e7fc      	b.n	8003dbe <QF_run+0x22>
 8003dc4:	2000041c 	.word	0x2000041c

08003dc8 <QActive_start>:
    QEvtPtr * const qSto,
    uint_fast16_t const qLen,
    void * const stkSto,
    uint_fast16_t const stkSize,
    void const * const par)
{
 8003dc8:	b580      	push	{r7, lr}
 8003dca:	b084      	sub	sp, #16
 8003dcc:	af00      	add	r7, sp, #0
 8003dce:	60f8      	str	r0, [r7, #12]
 8003dd0:	607a      	str	r2, [r7, #4]
 8003dd2:	603b      	str	r3, [r7, #0]
 8003dd4:	230a      	movs	r3, #10
 8003dd6:	18fb      	adds	r3, r7, r3
 8003dd8:	1c0a      	adds	r2, r1, #0
 8003dda:	801a      	strh	r2, [r3, #0]
    Q_UNUSED_PAR(stkSto);  // not needed in QK
    Q_UNUSED_PAR(stkSize); // not needed in QK

    QF_CRIT_STAT
    QF_CRIT_ENTRY();
 8003ddc:	f7fe fa02 	bl	80021e4 <QF_crit_entry_>

    // the VPTR for this AO must be valid
    Q_REQUIRE_INCRIT(900, me->super.vptr != (struct QAsmVtable *)0);
 8003de0:	68fb      	ldr	r3, [r7, #12]
 8003de2:	681b      	ldr	r3, [r3, #0]
 8003de4:	2b00      	cmp	r3, #0
 8003de6:	d106      	bne.n	8003df6 <QActive_start+0x2e>
 8003de8:	23e1      	movs	r3, #225	@ 0xe1
 8003dea:	009a      	lsls	r2, r3, #2
 8003dec:	4b1e      	ldr	r3, [pc, #120]	@ (8003e68 <QActive_start+0xa0>)
 8003dee:	0011      	movs	r1, r2
 8003df0:	0018      	movs	r0, r3
 8003df2:	f7fc fad9 	bl	80003a8 <Q_onError>

    // stack storage must NOT be provided for an AO (QK does not need it)
    Q_REQUIRE_INCRIT(910, stkSto == (void *)0);
 8003df6:	69bb      	ldr	r3, [r7, #24]
 8003df8:	2b00      	cmp	r3, #0
 8003dfa:	d005      	beq.n	8003e08 <QActive_start+0x40>
 8003dfc:	4a1b      	ldr	r2, [pc, #108]	@ (8003e6c <QActive_start+0xa4>)
 8003dfe:	4b1a      	ldr	r3, [pc, #104]	@ (8003e68 <QActive_start+0xa0>)
 8003e00:	0011      	movs	r1, r2
 8003e02:	0018      	movs	r0, r3
 8003e04:	f7fc fad0 	bl	80003a8 <Q_onError>
    QF_CRIT_EXIT();
 8003e08:	f7fe f9fc 	bl	8002204 <QF_crit_exit_>

    me->prio  = (uint8_t)(prioSpec & 0xFFU); // prio. of the AO
 8003e0c:	210a      	movs	r1, #10
 8003e0e:	187b      	adds	r3, r7, r1
 8003e10:	881b      	ldrh	r3, [r3, #0]
 8003e12:	b2da      	uxtb	r2, r3
 8003e14:	68fb      	ldr	r3, [r7, #12]
 8003e16:	731a      	strb	r2, [r3, #12]
    me->pthre = (uint8_t)(prioSpec >> 8U);   // preemption-threshold
 8003e18:	187b      	adds	r3, r7, r1
 8003e1a:	881b      	ldrh	r3, [r3, #0]
 8003e1c:	0a1b      	lsrs	r3, r3, #8
 8003e1e:	b29b      	uxth	r3, r3
 8003e20:	b2da      	uxtb	r2, r3
 8003e22:	68fb      	ldr	r3, [r7, #12]
 8003e24:	735a      	strb	r2, [r3, #13]
    QActive_register_(me); // register this AO with the framework
 8003e26:	68fb      	ldr	r3, [r7, #12]
 8003e28:	0018      	movs	r0, r3
 8003e2a:	f7ff fb43 	bl	80034b4 <QActive_register_>

    QEQueue_init(&me->eQueue, qSto, qLen); // init the built-in queue
 8003e2e:	68fb      	ldr	r3, [r7, #12]
 8003e30:	3314      	adds	r3, #20
 8003e32:	683a      	ldr	r2, [r7, #0]
 8003e34:	6879      	ldr	r1, [r7, #4]
 8003e36:	0018      	movs	r0, r3
 8003e38:	f7ff fc40 	bl	80036bc <QEQueue_init>

    // top-most initial tran. (virtual call)
    (*me->super.vptr->init)(&me->super, par, me->prio);
 8003e3c:	68fb      	ldr	r3, [r7, #12]
 8003e3e:	681b      	ldr	r3, [r3, #0]
 8003e40:	681b      	ldr	r3, [r3, #0]
 8003e42:	68f8      	ldr	r0, [r7, #12]
 8003e44:	68fa      	ldr	r2, [r7, #12]
 8003e46:	7b12      	ldrb	r2, [r2, #12]
 8003e48:	6a39      	ldr	r1, [r7, #32]
 8003e4a:	4798      	blx	r3
    QS_FLUSH(); // flush the trace buffer to the host

    // see if this AO needs to be scheduled if QK is already running
    QF_CRIT_ENTRY();
 8003e4c:	f7fe f9ca 	bl	80021e4 <QF_crit_entry_>
    if (QK_sched_() != 0U) { // activation needed?
 8003e50:	f7ff fe72 	bl	8003b38 <QK_sched_>
 8003e54:	1e03      	subs	r3, r0, #0
 8003e56:	d001      	beq.n	8003e5c <QActive_start+0x94>
        QK_activate_();
 8003e58:	f7ff fee6 	bl	8003c28 <QK_activate_>
    }
    QF_CRIT_EXIT();
 8003e5c:	f7fe f9d2 	bl	8002204 <QF_crit_exit_>
}
 8003e60:	46c0      	nop			@ (mov r8, r8)
 8003e62:	46bd      	mov	sp, r7
 8003e64:	b004      	add	sp, #16
 8003e66:	bd80      	pop	{r7, pc}
 8003e68:	080040d0 	.word	0x080040d0
 8003e6c:	0000038e 	.word	0x0000038e

08003e70 <memset>:
 8003e70:	0003      	movs	r3, r0
 8003e72:	1882      	adds	r2, r0, r2
 8003e74:	4293      	cmp	r3, r2
 8003e76:	d100      	bne.n	8003e7a <memset+0xa>
 8003e78:	4770      	bx	lr
 8003e7a:	7019      	strb	r1, [r3, #0]
 8003e7c:	3301      	adds	r3, #1
 8003e7e:	e7f9      	b.n	8003e74 <memset+0x4>

08003e80 <__libc_init_array>:
 8003e80:	b570      	push	{r4, r5, r6, lr}
 8003e82:	2600      	movs	r6, #0
 8003e84:	4c0c      	ldr	r4, [pc, #48]	@ (8003eb8 <__libc_init_array+0x38>)
 8003e86:	4d0d      	ldr	r5, [pc, #52]	@ (8003ebc <__libc_init_array+0x3c>)
 8003e88:	1b64      	subs	r4, r4, r5
 8003e8a:	10a4      	asrs	r4, r4, #2
 8003e8c:	42a6      	cmp	r6, r4
 8003e8e:	d109      	bne.n	8003ea4 <__libc_init_array+0x24>
 8003e90:	2600      	movs	r6, #0
 8003e92:	f000 f819 	bl	8003ec8 <_init>
 8003e96:	4c0a      	ldr	r4, [pc, #40]	@ (8003ec0 <__libc_init_array+0x40>)
 8003e98:	4d0a      	ldr	r5, [pc, #40]	@ (8003ec4 <__libc_init_array+0x44>)
 8003e9a:	1b64      	subs	r4, r4, r5
 8003e9c:	10a4      	asrs	r4, r4, #2
 8003e9e:	42a6      	cmp	r6, r4
 8003ea0:	d105      	bne.n	8003eae <__libc_init_array+0x2e>
 8003ea2:	bd70      	pop	{r4, r5, r6, pc}
 8003ea4:	00b3      	lsls	r3, r6, #2
 8003ea6:	58eb      	ldr	r3, [r5, r3]
 8003ea8:	4798      	blx	r3
 8003eaa:	3601      	adds	r6, #1
 8003eac:	e7ee      	b.n	8003e8c <__libc_init_array+0xc>
 8003eae:	00b3      	lsls	r3, r6, #2
 8003eb0:	58eb      	ldr	r3, [r5, r3]
 8003eb2:	4798      	blx	r3
 8003eb4:	3601      	adds	r6, #1
 8003eb6:	e7f2      	b.n	8003e9e <__libc_init_array+0x1e>
 8003eb8:	080040d4 	.word	0x080040d4
 8003ebc:	080040d4 	.word	0x080040d4
 8003ec0:	080040d8 	.word	0x080040d8
 8003ec4:	080040d4 	.word	0x080040d4

08003ec8 <_init>:
 8003ec8:	b5f8      	push	{r3, r4, r5, r6, r7, lr}
 8003eca:	46c0      	nop			@ (mov r8, r8)
 8003ecc:	bcf8      	pop	{r3, r4, r5, r6, r7}
 8003ece:	bc08      	pop	{r3}
 8003ed0:	469e      	mov	lr, r3
 8003ed2:	4770      	bx	lr

08003ed4 <_fini>:
 8003ed4:	b5f8      	push	{r3, r4, r5, r6, r7, lr}
 8003ed6:	46c0      	nop			@ (mov r8, r8)
 8003ed8:	bcf8      	pop	{r3, r4, r5, r6, r7}
 8003eda:	bc08      	pop	{r3}
 8003edc:	469e      	mov	lr, r3
 8003ede:	4770      	bx	lr
